(dp1
S'he8550'
p2
(dp3
S'bio07'
p4
(dp5
S'envLayerType'
p6
S'he8550.bio07'
p7
sS'Name'
p8
I250
sS'typeCode'
p9
S'bio07'
p10
sS'typeCodeDescription'
p11
S'Temperature Annual Range (BIO5-BIO6)'
p12
sS'filterType'
p13
S'climate'
p14
sS'bioclim'
p15
S'he8550'
p16
sS'filePath'
p17
S'../views/GTiff/clim.he8550.bio07.tif'
p18
sS'RCP'
p19
S'85'
p20
sS'lyrID'
p21
cnumpy.core.multiarray
scalar
p22
(cnumpy
dtype
p23
(S'i8'
I0
I1
tRp24
(I3
S'<'
NNNI-1
I-1
I0
tbS' \x18\x00\x00\x00\x00\x00\x00'
tRp25
sS'layerDescription'
p26
S'Temperature Annual Range (BIO5-BIO6) HE RCP85 2050'
p27
sS'dataFormat'
p28
S'GTiff'
p29
sS'base'
p30
S'clim'
p31
sS'units'
p32
S'dd'
p33
sS'title'
p34
S'clim.he8550.bio07.tif'
p35
sS'fullname'
p36
S'clim.he8550.bio07'
p37
sS'resolution'
p38
S'30'
p39
sS'epsgCode'
p40
I4326
sS'projectionDate'
p41
S'2050'
p42
ssS'bio01'
p43
(dp44
g6
S'he8550.bio01'
p45
sg8
I4
sg9
S'bio01'
p46
sg11
S'Annual Mean Temperature'
p47
sg13
S'climate'
p48
sg15
g2
sg17
S'../views/GTiff/clim.he8550.bio01.tif'
p49
sg19
S'85'
p50
sg21
g22
(g24
S'&\x18\x00\x00\x00\x00\x00\x00'
tRp51
sg26
S'Annual Mean Temperature HE RCP85 2050'
p52
sg28
g29
sg30
S'clim'
p53
sg32
g33
sg34
S'clim.he8550.bio01.tif'
p54
sg36
S'clim.he8550.bio01'
p55
sg38
g39
sg40
I4326
sg41
S'2050'
p56
ssS'bio11'
p57
(dp58
g6
S'he8550.bio11'
p59
sg8
I200
sg9
S'bio11'
p60
sg11
S'Mean Temperature of Coldest Quarter'
p61
sg13
S'climate'
p62
sg15
S'he8550'
p63
sg17
S'../views/GTiff/clim.he8550.bio11.tif'
p64
sg19
S'85'
p65
sg21
g22
(g24
S'\x1c\x18\x00\x00\x00\x00\x00\x00'
tRp66
sg26
S'Mean Temperature of Coldest Quarter HE RCP85 2050'
p67
sg28
g29
sg30
S'clim'
p68
sg32
g33
sg34
S'clim.he8550.bio11.tif'
p69
sg36
S'clim.he8550.bio11'
p70
sg38
g39
sg40
I4326
sg41
S'2050'
p71
ssS'bio09'
p72
(dp73
g6
S'he8550.bio09'
p74
sg8
I89
sg9
S'bio09'
p75
sg11
S'Mean Temperature of Driest Quarter'
p76
sg13
S'climate'
p77
sg15
S'he8550'
p78
sg17
S'../views/GTiff/clim.he8550.bio09.tif'
p79
sg19
S'85'
p80
sg21
g22
(g24
S'*\x18\x00\x00\x00\x00\x00\x00'
tRp81
sg26
S'Mean Temperature of Driest Quarter HE RCP85 2050'
p82
sg28
g29
sg30
S'clim'
p83
sg32
g33
sg34
S'clim.he8550.bio09.tif'
p84
sg36
S'clim.he8550.bio09'
p85
sg38
g39
sg40
I4326
sg41
S'2050'
p86
ssS'bio12'
p87
(dp88
g6
S'he8550.bio12'
p89
sg8
I141
sg9
S'bio12'
p90
sg11
S'Annual Precipitation'
p91
sg13
S'climate'
p92
sg15
S'he8550'
p93
sg17
S'../views/GTiff/clim.he8550.bio12.tif'
p94
sg19
S'85'
p95
sg21
g22
(g24
S'\x1f\x18\x00\x00\x00\x00\x00\x00'
tRp96
sg26
S'Annual Precipitation HE RCP85 2050'
p97
sg28
g29
sg30
S'clim'
p98
sg32
g33
sg34
S'clim.he8550.bio12.tif'
p99
sg36
S'clim.he8550.bio12'
p100
sg38
g39
sg40
I4326
sg41
S'2050'
p101
ssS'bio14'
p102
(dp103
g6
S'he8550.bio14'
p104
sg8
I70
sg9
S'bio14'
p105
sg11
S'Precipitation of Driest Month'
p106
sg13
S'climate'
p107
sg15
S'he8550'
p108
sg17
S'../views/GTiff/clim.he8550.bio14.tif'
p109
sg19
S'85'
p110
sg21
g22
(g24
S')\x18\x00\x00\x00\x00\x00\x00'
tRp111
sg26
S'Precipitation of Driest Month HE RCP85 2050'
p112
sg28
g29
sg30
S'clim'
p113
sg32
g33
sg34
S'clim.he8550.bio14.tif'
p114
sg36
S'clim.he8550.bio14'
p115
sg38
g39
sg40
I4326
sg41
S'2050'
p116
ssS'bio10'
p117
(dp118
g6
S'he8550.bio10'
p119
sg8
I285
sg9
S'bio10'
p120
sg11
S'Mean Temperature of Warmest Quarter'
p121
sg13
S'climate'
p122
sg15
S'he8550'
p123
sg17
S'../views/GTiff/clim.he8550.bio10.tif'
p124
sg19
S'85'
p125
sg21
g22
(g24
S'\x19\x18\x00\x00\x00\x00\x00\x00'
tRp126
sg26
S'Mean Temperature of Warmest Quarter HE RCP85 2050'
p127
sg28
g29
sg30
S'clim'
p128
sg32
g33
sg34
S'clim.he8550.bio10.tif'
p129
sg36
S'clim.he8550.bio10'
p130
sg38
g39
sg40
I4326
sg41
S'2050'
p131
ssS'bio06'
p132
(dp133
g6
S'he8550.bio06'
p134
sg8
I206
sg9
S'bio06'
p135
sg11
S'Min Temperature of Coldest Month'
p136
sg13
S'climate'
p137
sg15
S'he8550'
p138
sg17
S'../views/GTiff/clim.he8550.bio06.tif'
p139
sg19
S'85'
p140
sg21
g22
(g24
S'!\x18\x00\x00\x00\x00\x00\x00'
tRp141
sg26
S'Min Temperature of Coldest Month HE RCP85 2050'
p142
sg28
g29
sg30
S'clim'
p143
sg32
g33
sg34
S'clim.he8550.bio06.tif'
p144
sg36
S'clim.he8550.bio06'
p145
sg38
g39
sg40
I4326
sg41
S'2050'
p146
ssS'bio05'
p147
(dp148
g6
S'he8550.bio05'
p149
sg8
I296
sg9
S'bio05'
p150
sg11
S'Max Temperature of Warmest Month'
p151
sg13
S'climate'
p152
sg15
S'he8550'
p153
sg17
S'../views/GTiff/clim.he8550.bio05.tif'
p154
sg19
S'85'
p155
sg21
g22
(g24
S'"\x18\x00\x00\x00\x00\x00\x00'
tRp156
sg26
S'Max Temperature of Warmest Month HE RCP85 2050'
p157
sg28
g29
sg30
S'clim'
p158
sg32
g33
sg34
S'clim.he8550.bio05.tif'
p159
sg36
S'clim.he8550.bio05'
p160
sg38
g39
sg40
I4326
sg41
S'2050'
p161
ssS'bio13'
p162
(dp163
g6
S'he8550.bio13'
p164
sg8
I127
sg9
S'bio13'
p165
sg11
S'Precipitation of Wettest Month'
p166
sg13
S'climate'
p167
sg15
S'he8550'
p168
sg17
S'../views/GTiff/clim.he8550.bio13.tif'
p169
sg19
S'85'
p170
sg21
g22
(g24
S'\x1b\x18\x00\x00\x00\x00\x00\x00'
tRp171
sg26
S'Precipitation of Wettest Month HE RCP85 2050'
p172
sg28
g29
sg30
S'clim'
p173
sg32
g33
sg34
S'clim.he8550.bio13.tif'
p174
sg36
S'clim.he8550.bio13'
p175
sg38
g39
sg40
I4326
sg41
S'2050'
p176
ssS'bio03'
p177
(dp178
g6
S'he8550.bio03'
p179
sg8
I98
sg9
S'bio03'
p180
sg11
S'Isothermality (BIO2/BIO7) (* 100)'
p181
sg13
S'climate'
p182
sg15
S'he8550'
p183
sg17
S'../views/GTiff/clim.he8550.bio03.tif'
p184
sg19
S'85'
p185
sg21
g22
(g24
S'$\x18\x00\x00\x00\x00\x00\x00'
tRp186
sg26
S'Isothermality (BIO2/BIO7) (* 100) HE RCP85 2050'
p187
sg28
g29
sg30
S'clim'
p188
sg32
g33
sg34
S'clim.he8550.bio03.tif'
p189
sg36
S'clim.he8550.bio03'
p190
sg38
g39
sg40
I4326
sg41
S'2050'
p191
ssS'bio15'
p192
(dp193
g6
S'he8550.bio15'
p194
sg8
I297
sg9
S'bio15'
p195
sg11
S'Precipitation Seasonality (Coefficient of Variation)'
p196
sg13
S'climate'
p197
sg15
S'he8550'
p198
sg17
S'../views/GTiff/clim.he8550.bio15.tif'
p199
sg19
S'85'
p200
sg21
g22
(g24
S'\x1e\x18\x00\x00\x00\x00\x00\x00'
tRp201
sg26
S'Precipitation Seasonality (Coefficient of Variation) HE RCP85 2050'
p202
sg28
g29
sg30
S'clim'
p203
sg32
g33
sg34
S'clim.he8550.bio15.tif'
p204
sg36
S'clim.he8550.bio15'
p205
sg38
g39
sg40
I4326
sg41
S'2050'
p206
ssS'bio16'
p207
(dp208
g6
S'he8550.bio16'
p209
sg8
I229
sg9
S'bio16'
p210
sg11
S'Precipitation of Wettest Quarter'
p211
sg13
S'climate'
p212
sg15
S'he8550'
p213
sg17
S'../views/GTiff/clim.he8550.bio16.tif'
p214
sg19
S'85'
p215
sg21
g22
(g24
S'\x1d\x18\x00\x00\x00\x00\x00\x00'
tRp216
sg26
S'Precipitation of Wettest Quarter HE RCP85 2050'
p217
sg28
g29
sg30
S'clim'
p218
sg32
g33
sg34
S'clim.he8550.bio16.tif'
p219
sg36
S'clim.he8550.bio16'
p220
sg38
g39
sg40
I4326
sg41
S'2050'
p221
ssS'bio17'
p222
(dp223
g6
S'he8550.bio17'
p224
sg8
I207
sg9
S'bio17'
p225
sg11
S'Precipitation of Driest Quarter'
p226
sg13
S'climate'
p227
sg15
S'he8550'
p228
sg17
S'../views/GTiff/clim.he8550.bio17.tif'
p229
sg19
S'85'
p230
sg21
g22
(g24
S"'\x18\x00\x00\x00\x00\x00\x00"
tRp231
sg26
S'Precipitation of Driest Quarter HE RCP85 2050'
p232
sg28
g29
sg30
S'clim'
p233
sg32
g33
sg34
S'clim.he8550.bio17.tif'
p234
sg36
S'clim.he8550.bio17'
p235
sg38
g39
sg40
I4326
sg41
S'2050'
p236
ssS'bio18'
p237
(dp238
g6
S'he8550.bio18'
p239
sg8
I109
sg9
S'bio18'
p240
sg11
S'Precipitation of Warmest Quarter'
p241
sg13
S'climate'
p242
sg15
S'he8550'
p243
sg17
S'../views/GTiff/clim.he8550.bio18.tif'
p244
sg19
S'85'
p245
sg21
g22
(g24
S'(\x18\x00\x00\x00\x00\x00\x00'
tRp246
sg26
S'Precipitation of Warmest Quarter HE RCP85 2050'
p247
sg28
g29
sg30
S'clim'
p248
sg32
g33
sg34
S'clim.he8550.bio18.tif'
p249
sg36
S'clim.he8550.bio18'
p250
sg38
g39
sg40
I4326
sg41
S'2050'
p251
ssS'bio19'
p252
(dp253
g6
S'he8550.bio19'
p254
sg8
I123
sg9
S'bio19'
p255
sg11
S'Precipitation of Coldest Quarter'
p256
sg13
S'climate'
p257
sg15
S'he8550'
p258
sg17
S'../views/GTiff/clim.he8550.bio19.tif'
p259
sg19
S'85'
p260
sg21
g22
(g24
S'\x1a\x18\x00\x00\x00\x00\x00\x00'
tRp261
sg26
S'Precipitation of Coldest Quarter HE RCP85 2050'
p262
sg28
g29
sg30
S'clim'
p263
sg32
g33
sg34
S'clim.he8550.bio19.tif'
p264
sg36
S'clim.he8550.bio19'
p265
sg38
g39
sg40
I4326
sg41
S'2050'
p266
ssS'bio08'
p267
(dp268
g6
S'he8550.bio08'
p269
sg8
I216
sg9
S'bio08'
p270
sg11
S'Mean Temperature of Wettest Quarter'
p271
sg13
S'climate'
p272
sg15
S'he8550'
p273
sg17
S'../views/GTiff/clim.he8550.bio08.tif'
p274
sg19
S'85'
p275
sg21
g22
(g24
S'+\x18\x00\x00\x00\x00\x00\x00'
tRp276
sg26
S'Mean Temperature of Wettest Quarter HE RCP85 2050'
p277
sg28
g29
sg30
S'clim'
p278
sg32
g33
sg34
S'clim.he8550.bio08.tif'
p279
sg36
S'clim.he8550.bio08'
p280
sg38
g39
sg40
I4326
sg41
S'2050'
p281
ssS'bio04'
p282
(dp283
g6
S'he8550.bio04'
p284
sg8
I152
sg9
S'bio04'
p285
sg11
S'Temperature Seasonality (standard deviation *100)'
p286
sg13
S'climate'
p287
sg15
S'he8550'
p288
sg17
S'../views/GTiff/clim.he8550.bio04.tif'
p289
sg19
S'85'
p290
sg21
g22
(g24
S'#\x18\x00\x00\x00\x00\x00\x00'
tRp291
sg26
S'Temperature Seasonality (standard deviation *100) HE RCP85 2050'
p292
sg28
g29
sg30
S'clim'
p293
sg32
g33
sg34
S'clim.he8550.bio04.tif'
p294
sg36
S'clim.he8550.bio04'
p295
sg38
g39
sg40
I4326
sg41
S'2050'
p296
ssS'bio02'
p297
(dp298
g6
S'he8550.bio02'
p299
sg8
I94
sg9
S'bio02'
p300
sg11
S'Mean Diurnal Range (Mean of monthly (max temp - min temp))'
p301
sg13
S'climate'
p302
sg15
S'he8550'
p303
sg17
S'../views/GTiff/clim.he8550.bio02.tif'
p304
sg19
S'85'
p305
sg21
g22
(g24
S'%\x18\x00\x00\x00\x00\x00\x00'
tRp306
sg26
S'Mean Diurnal Range (Mean of monthly (max temp - min temp)) HE RCP85 2050'
p307
sg28
g29
sg30
S'clim'
p308
sg32
g33
sg34
S'clim.he8550.bio02.tif'
p309
sg36
S'clim.he8550.bio02'
p310
sg38
g39
sg40
I4326
sg41
S'2050'
p311
sssS'he2670'
p312
(dp313
S'bio07'
p314
(dp315
g6
S'he2670.bio07'
p316
sg8
I81
sg9
S'bio07'
p317
sg11
S'Temperature Annual Range (BIO5-BIO6)'
p318
sg13
S'climate'
p319
sg15
S'he2670'
p320
sg17
S'../views/GTiff/clim.he2670.bio07.tif'
p321
sg19
S'26'
p322
sg21
g22
(g24
S'\n\x18\x00\x00\x00\x00\x00\x00'
tRp323
sg26
S'Temperature Annual Range (BIO5-BIO6) HE RCP26 2070'
p324
sg28
g29
sg30
S'clim'
p325
sg32
g33
sg34
S'clim.he2670.bio07.tif'
p326
sg36
S'clim.he2670.bio07'
p327
sg38
g39
sg40
I4326
sg41
S'2070'
p328
ssS'bio16'
p329
(dp330
g6
S'he2670.bio16'
p331
sg8
I256
sg9
S'bio16'
p332
sg11
S'Precipitation of Wettest Quarter'
p333
sg13
S'climate'
p334
sg15
S'he2670'
p335
sg17
S'../views/GTiff/clim.he2670.bio16.tif'
p336
sg19
S'26'
p337
sg21
g22
(g24
S'\x07\x18\x00\x00\x00\x00\x00\x00'
tRp338
sg26
S'Precipitation of Wettest Quarter HE RCP26 2070'
p339
sg28
g29
sg30
S'clim'
p340
sg32
g33
sg34
S'clim.he2670.bio16.tif'
p341
sg36
S'clim.he2670.bio16'
p342
sg38
g39
sg40
I4326
sg41
S'2070'
p343
ssS'bio06'
p344
(dp345
g6
S'he2670.bio06'
p346
sg8
I288
sg9
S'bio06'
p347
sg11
S'Min Temperature of Coldest Month'
p348
sg13
S'climate'
p349
sg15
S'he2670'
p350
sg17
S'../views/GTiff/clim.he2670.bio06.tif'
p351
sg19
S'26'
p352
sg21
g22
(g24
S'\x0b\x18\x00\x00\x00\x00\x00\x00'
tRp353
sg26
S'Min Temperature of Coldest Month HE RCP26 2070'
p354
sg28
g29
sg30
S'clim'
p355
sg32
g33
sg34
S'clim.he2670.bio06.tif'
p356
sg36
S'clim.he2670.bio06'
p357
sg38
g39
sg40
I4326
sg41
S'2070'
p358
ssS'bio09'
p359
(dp360
g6
S'he2670.bio09'
p361
sg8
I9
sg9
S'bio09'
p362
sg11
S'Mean Temperature of Driest Quarter'
p363
sg13
S'climate'
p364
sg15
g312
sg17
S'../views/GTiff/clim.he2670.bio09.tif'
p365
sg19
S'26'
p366
sg21
g22
(g24
S'\x14\x18\x00\x00\x00\x00\x00\x00'
tRp367
sg26
S'Mean Temperature of Driest Quarter HE RCP26 2070'
p368
sg28
g29
sg30
S'clim'
p369
sg32
g33
sg34
S'clim.he2670.bio09.tif'
p370
sg36
S'clim.he2670.bio09'
p371
sg38
g39
sg40
I4326
sg41
S'2070'
p372
ssS'bio05'
p373
(dp374
g6
S'he2670.bio05'
p375
sg8
I224
sg9
S'bio05'
p376
sg11
S'Max Temperature of Warmest Month'
p377
sg13
S'climate'
p378
sg15
S'he2670'
p379
sg17
S'../views/GTiff/clim.he2670.bio05.tif'
p380
sg19
S'26'
p381
sg21
g22
(g24
S'\x0c\x18\x00\x00\x00\x00\x00\x00'
tRp382
sg26
S'Max Temperature of Warmest Month HE RCP26 2070'
p383
sg28
g29
sg30
S'clim'
p384
sg32
g33
sg34
S'clim.he2670.bio05.tif'
p385
sg36
S'clim.he2670.bio05'
p386
sg38
g39
sg40
I4326
sg41
S'2070'
p387
ssS'bio10'
p388
(dp389
g6
S'he2670.bio10'
p390
sg8
I101
sg9
S'bio10'
p391
sg11
S'Mean Temperature of Warmest Quarter'
p392
sg13
S'climate'
p393
sg15
S'he2670'
p394
sg17
S'../views/GTiff/clim.he2670.bio10.tif'
p395
sg19
S'26'
p396
sg21
g22
(g24
S'\x03\x18\x00\x00\x00\x00\x00\x00'
tRp397
sg26
S'Mean Temperature of Warmest Quarter HE RCP26 2070'
p398
sg28
g29
sg30
S'clim'
p399
sg32
g33
sg34
S'clim.he2670.bio10.tif'
p400
sg36
S'clim.he2670.bio10'
p401
sg38
g39
sg40
I4326
sg41
S'2070'
p402
ssS'bio11'
p403
(dp404
g6
S'he2670.bio11'
p405
sg8
I294
sg9
S'bio11'
p406
sg11
S'Mean Temperature of Coldest Quarter'
p407
sg13
S'climate'
p408
sg15
S'he2670'
p409
sg17
S'../views/GTiff/clim.he2670.bio11.tif'
p410
sg19
S'26'
p411
sg21
g22
(g24
S'\x06\x18\x00\x00\x00\x00\x00\x00'
tRp412
sg26
S'Mean Temperature of Coldest Quarter HE RCP26 2070'
p413
sg28
g29
sg30
S'clim'
p414
sg32
g33
sg34
S'clim.he2670.bio11.tif'
p415
sg36
S'clim.he2670.bio11'
p416
sg38
g39
sg40
I4326
sg41
S'2070'
p417
ssS'bio12'
p418
(dp419
g6
S'he2670.bio12'
p420
sg8
I251
sg9
S'bio12'
p421
sg11
S'Annual Precipitation'
p422
sg13
S'climate'
p423
sg15
S'he2670'
p424
sg17
S'../views/GTiff/clim.he2670.bio12.tif'
p425
sg19
S'26'
p426
sg21
g22
(g24
S'\t\x18\x00\x00\x00\x00\x00\x00'
tRp427
sg26
S'Annual Precipitation HE RCP26 2070'
p428
sg28
g29
sg30
S'clim'
p429
sg32
g33
sg34
S'clim.he2670.bio12.tif'
p430
sg36
S'clim.he2670.bio12'
p431
sg38
g39
sg40
I4326
sg41
S'2070'
p432
ssS'bio13'
p433
(dp434
g6
S'he2670.bio13'
p435
sg8
I214
sg9
S'bio13'
p436
sg11
S'Precipitation of Wettest Month'
p437
sg13
S'climate'
p438
sg15
S'he2670'
p439
sg17
S'../views/GTiff/clim.he2670.bio13.tif'
p440
sg19
S'26'
p441
sg21
g22
(g24
S'\x05\x18\x00\x00\x00\x00\x00\x00'
tRp442
sg26
S'Precipitation of Wettest Month HE RCP26 2070'
p443
sg28
g29
sg30
S'clim'
p444
sg32
g33
sg34
S'clim.he2670.bio13.tif'
p445
sg36
S'clim.he2670.bio13'
p446
sg38
g39
sg40
I4326
sg41
S'2070'
p447
ssS'bio14'
p448
(dp449
g6
S'he2670.bio14'
p450
sg8
I65
sg9
S'bio14'
p451
sg11
S'Precipitation of Driest Month'
p452
sg13
S'climate'
p453
sg15
S'he2670'
p454
sg17
S'../views/GTiff/clim.he2670.bio14.tif'
p455
sg19
S'26'
p456
sg21
g22
(g24
S'\x13\x18\x00\x00\x00\x00\x00\x00'
tRp457
sg26
S'Precipitation of Driest Month HE RCP26 2070'
p458
sg28
g29
sg30
S'clim'
p459
sg32
g33
sg34
S'clim.he2670.bio14.tif'
p460
sg36
S'clim.he2670.bio14'
p461
sg38
g39
sg40
I4326
sg41
S'2070'
p462
ssS'bio15'
p463
(dp464
g6
S'he2670.bio15'
p465
sg8
I275
sg9
S'bio15'
p466
sg11
S'Precipitation Seasonality (Coefficient of Variation)'
p467
sg13
S'climate'
p468
sg15
S'he2670'
p469
sg17
S'../views/GTiff/clim.he2670.bio15.tif'
p470
sg19
S'26'
p471
sg21
g22
(g24
S'\x08\x18\x00\x00\x00\x00\x00\x00'
tRp472
sg26
S'Precipitation Seasonality (Coefficient of Variation) HE RCP26 2070'
p473
sg28
g29
sg30
S'clim'
p474
sg32
g33
sg34
S'clim.he2670.bio15.tif'
p475
sg36
S'clim.he2670.bio15'
p476
sg38
g39
sg40
I4326
sg41
S'2070'
p477
ssS'bio01'
p478
(dp479
g6
S'he2670.bio01'
p480
sg8
I265
sg9
S'bio01'
p481
sg11
S'Annual Mean Temperature'
p482
sg13
S'climate'
p483
sg15
S'he2670'
p484
sg17
S'../views/GTiff/clim.he2670.bio01.tif'
p485
sg19
S'26'
p486
sg21
g22
(g24
S'\x10\x18\x00\x00\x00\x00\x00\x00'
tRp487
sg26
S'Annual Mean Temperature HE RCP26 2070'
p488
sg28
g29
sg30
S'clim'
p489
sg32
g33
sg34
S'clim.he2670.bio01.tif'
p490
sg36
S'clim.he2670.bio01'
p491
sg38
g39
sg40
I4326
sg41
S'2070'
p492
ssS'bio17'
p493
(dp494
g6
S'he2670.bio17'
p495
sg8
I272
sg9
S'bio17'
p496
sg11
S'Precipitation of Driest Quarter'
p497
sg13
S'climate'
p498
sg15
S'he2670'
p499
sg17
S'../views/GTiff/clim.he2670.bio17.tif'
p500
sg19
S'26'
p501
sg21
g22
(g24
S'\x11\x18\x00\x00\x00\x00\x00\x00'
tRp502
sg26
S'Precipitation of Driest Quarter HE RCP26 2070'
p503
sg28
g29
sg30
S'clim'
p504
sg32
g33
sg34
S'clim.he2670.bio17.tif'
p505
sg36
S'clim.he2670.bio17'
p506
sg38
g39
sg40
I4326
sg41
S'2070'
p507
ssS'bio18'
p508
(dp509
g6
S'he2670.bio18'
p510
sg8
I260
sg9
S'bio18'
p511
sg11
S'Precipitation of Warmest Quarter'
p512
sg13
S'climate'
p513
sg15
S'he2670'
p514
sg17
S'../views/GTiff/clim.he2670.bio18.tif'
p515
sg19
S'26'
p516
sg21
g22
(g24
S'\x12\x18\x00\x00\x00\x00\x00\x00'
tRp517
sg26
S'Precipitation of Warmest Quarter HE RCP26 2070'
p518
sg28
g29
sg30
S'clim'
p519
sg32
g33
sg34
S'clim.he2670.bio18.tif'
p520
sg36
S'clim.he2670.bio18'
p521
sg38
g39
sg40
I4326
sg41
S'2070'
p522
ssS'bio19'
p523
(dp524
g6
S'he2670.bio19'
p525
sg8
I95
sg9
S'bio19'
p526
sg11
S'Precipitation of Coldest Quarter'
p527
sg13
S'climate'
p528
sg15
S'he2670'
p529
sg17
S'../views/GTiff/clim.he2670.bio19.tif'
p530
sg19
S'26'
p531
sg21
g22
(g24
S'\x04\x18\x00\x00\x00\x00\x00\x00'
tRp532
sg26
S'Precipitation of Coldest Quarter HE RCP26 2070'
p533
sg28
g29
sg30
S'clim'
p534
sg32
g33
sg34
S'clim.he2670.bio19.tif'
p535
sg36
S'clim.he2670.bio19'
p536
sg38
g39
sg40
I4326
sg41
S'2070'
p537
ssS'bio08'
p538
(dp539
g6
S'he2670.bio08'
p540
sg8
I102
sg9
S'bio08'
p541
sg11
S'Mean Temperature of Wettest Quarter'
p542
sg13
S'climate'
p543
sg15
S'he2670'
p544
sg17
S'../views/GTiff/clim.he2670.bio08.tif'
p545
sg19
S'26'
p546
sg21
g22
(g24
S'\x15\x18\x00\x00\x00\x00\x00\x00'
tRp547
sg26
S'Mean Temperature of Wettest Quarter HE RCP26 2070'
p548
sg28
g29
sg30
S'clim'
p549
sg32
g33
sg34
S'clim.he2670.bio08.tif'
p550
sg36
S'clim.he2670.bio08'
p551
sg38
g39
sg40
I4326
sg41
S'2070'
p552
ssS'bio03'
p553
(dp554
g6
S'he2670.bio03'
p555
sg8
I116
sg9
S'bio03'
p556
sg11
S'Isothermality (BIO2/BIO7) (* 100)'
p557
sg13
S'climate'
p558
sg15
S'he2670'
p559
sg17
S'../views/GTiff/clim.he2670.bio03.tif'
p560
sg19
S'26'
p561
sg21
g22
(g24
S'\x0e\x18\x00\x00\x00\x00\x00\x00'
tRp562
sg26
S'Isothermality (BIO2/BIO7) (* 100) HE RCP26 2070'
p563
sg28
g29
sg30
S'clim'
p564
sg32
g33
sg34
S'clim.he2670.bio03.tif'
p565
sg36
S'clim.he2670.bio03'
p566
sg38
g39
sg40
I4326
sg41
S'2070'
p567
ssS'bio04'
p568
(dp569
g6
S'he2670.bio04'
p570
sg8
I291
sg9
S'bio04'
p571
sg11
S'Temperature Seasonality (standard deviation *100)'
p572
sg13
S'climate'
p573
sg15
S'he2670'
p574
sg17
S'../views/GTiff/clim.he2670.bio04.tif'
p575
sg19
S'26'
p576
sg21
g22
(g24
S'\r\x18\x00\x00\x00\x00\x00\x00'
tRp577
sg26
S'Temperature Seasonality (standard deviation *100) HE RCP26 2070'
p578
sg28
g29
sg30
S'clim'
p579
sg32
g33
sg34
S'clim.he2670.bio04.tif'
p580
sg36
S'clim.he2670.bio04'
p581
sg38
g39
sg40
I4326
sg41
S'2070'
p582
ssS'bio02'
p583
(dp584
g6
S'he2670.bio02'
p585
sg8
I52
sg9
S'bio02'
p586
sg11
S'Mean Diurnal Range (Mean of monthly (max temp - min temp))'
p587
sg13
S'climate'
p588
sg15
S'he2670'
p589
sg17
S'../views/GTiff/clim.he2670.bio02.tif'
p590
sg19
S'26'
p591
sg21
g22
(g24
S'\x0f\x18\x00\x00\x00\x00\x00\x00'
tRp592
sg26
S'Mean Diurnal Range (Mean of monthly (max temp - min temp)) HE RCP26 2070'
p593
sg28
g29
sg30
S'clim'
p594
sg32
g33
sg34
S'clim.he2670.bio02.tif'
p595
sg36
S'clim.he2670.bio02'
p596
sg38
g39
sg40
I4326
sg41
S'2070'
p597
sssS'dist'
p598
(dp599
S'pc2'
p600
(dp601
g6
S'dist.pc2'
p602
sg8
I234
sg9
S'pc2'
p603
sg11
S'PC Axis 2 of Distance Matrix'
p604
sg13
S'spatial'
p605
sg15
S'dist'
p606
sg17
S'../views/GTiff/spat.dist.pc2.tif'
p607
sg19
S'current'
p608
sg21
g22
(g24
S'\x16\x18\x00\x00\x00\x00\x00\x00'
tRp609
sg26
S'PC Axis 2 of Distance Matrix spatial'
p610
sg28
g29
sg30
S'spat'
p611
sg32
g33
sg34
S'spat.dist.pc2.tif'
p612
sg36
S'spat.dist.pc2'
p613
sg38
g39
sg40
I4326
sg41
S'current'
p614
ssS'pc3'
p615
(dp616
g6
S'dist.pc3'
p617
sg8
I136
sg9
S'pc3'
p618
sg11
S'PC Axis 3 of Distance Matrix'
p619
sg13
S'spatial'
p620
sg15
g598
sg17
S'../views/GTiff/spat.dist.pc3.tif'
p621
sg19
S'current'
p622
sg21
g22
(g24
S'\x17\x18\x00\x00\x00\x00\x00\x00'
tRp623
sg26
S'PC Axis 3 of Distance Matrix spatial'
p624
sg28
g29
sg30
S'spat'
p625
sg32
g33
sg34
S'spat.dist.pc3.tif'
p626
sg36
S'spat.dist.pc3'
p627
sg38
g39
sg40
I4326
sg41
S'current'
p628
ssS'pc1'
p629
(dp630
g6
S'dist.pc1'
p631
sg8
I205
sg9
S'pc1'
p632
sg11
S'PC Axis 1 of Distance Matrix'
p633
sg13
S'spatial'
p634
sg15
S'dist'
p635
sg17
S'../views/GTiff/spat.dist.pc1.tif'
p636
sg19
S'current'
p637
sg21
g22
(g24
S'\x18\x18\x00\x00\x00\x00\x00\x00'
tRp638
sg26
S'PC Axis 1 of Distance Matrix spatial'
p639
sg28
g29
sg30
S'spat'
p640
sg32
g33
sg34
S'spat.dist.pc1.tif'
p641
sg36
S'spat.dist.pc1'
p642
sg38
g39
sg40
I4326
sg41
S'current'
p643
sssS'gd4550'
p644
(dp645
S'bio10'
p646
(dp647
g6
S'gd4550.bio10'
p648
sg8
I114
sg9
S'bio10'
p649
sg11
S'Mean Temperature of Warmest Quarter'
p650
sg13
S'climate'
p651
sg15
S'gd4550'
p652
sg17
S'../views/GTiff/clim.gd4550.bio10.tif'
p653
sg19
S'45'
p654
sg21
g22
(g24
S',\x18\x00\x00\x00\x00\x00\x00'
tRp655
sg26
S'Mean Temperature of Warmest Quarter GD RCP45 2050'
p656
sg28
g29
sg30
S'clim'
p657
sg32
g33
sg34
S'clim.gd4550.bio10.tif'
p658
sg36
S'clim.gd4550.bio10'
p659
sg38
g39
sg40
I4326
sg41
S'2050'
p660
ssS'bio19'
p661
(dp662
g6
S'gd4550.bio19'
p663
sg8
I118
sg9
S'bio19'
p664
sg11
S'Precipitation of Coldest Quarter'
p665
sg13
S'climate'
p666
sg15
S'gd4550'
p667
sg17
S'../views/GTiff/clim.gd4550.bio19.tif'
p668
sg19
S'45'
p669
sg21
g22
(g24
S'-\x18\x00\x00\x00\x00\x00\x00'
tRp670
sg26
S'Precipitation of Coldest Quarter GD RCP45 2050'
p671
sg28
g29
sg30
S'clim'
p672
sg32
g33
sg34
S'clim.gd4550.bio19.tif'
p673
sg36
S'clim.gd4550.bio19'
p674
sg38
g39
sg40
I4326
sg41
S'2050'
p675
ssS'bio16'
p676
(dp677
g6
S'gd4550.bio16'
p678
sg8
I40
sg9
S'bio16'
p679
sg11
S'Precipitation of Wettest Quarter'
p680
sg13
S'climate'
p681
sg15
S'gd4550'
p682
sg17
S'../views/GTiff/clim.gd4550.bio16.tif'
p683
sg19
S'45'
p684
sg21
g22
(g24
S'0\x18\x00\x00\x00\x00\x00\x00'
tRp685
sg26
S'Precipitation of Wettest Quarter GD RCP45 2050'
p686
sg28
g29
sg30
S'clim'
p687
sg32
g33
sg34
S'clim.gd4550.bio16.tif'
p688
sg36
S'clim.gd4550.bio16'
p689
sg38
g39
sg40
I4326
sg41
S'2050'
p690
ssS'bio06'
p691
(dp692
g6
S'gd4550.bio06'
p693
sg8
I34
sg9
S'bio06'
p694
sg11
S'Min Temperature of Coldest Month'
p695
sg13
S'climate'
p696
sg15
S'gd4550'
p697
sg17
S'../views/GTiff/clim.gd4550.bio06.tif'
p698
sg19
S'45'
p699
sg21
g22
(g24
S'4\x18\x00\x00\x00\x00\x00\x00'
tRp700
sg26
S'Min Temperature of Coldest Month GD RCP45 2050'
p701
sg28
g29
sg30
S'clim'
p702
sg32
g33
sg34
S'clim.gd4550.bio06.tif'
p703
sg36
S'clim.gd4550.bio06'
p704
sg38
g39
sg40
I4326
sg41
S'2050'
p705
ssS'bio09'
p706
(dp707
g6
S'gd4550.bio09'
p708
sg8
I111
sg9
S'bio09'
p709
sg11
S'Mean Temperature of Driest Quarter'
p710
sg13
S'climate'
p711
sg15
S'gd4550'
p712
sg17
S'../views/GTiff/clim.gd4550.bio09.tif'
p713
sg19
S'45'
p714
sg21
g22
(g24
S'=\x18\x00\x00\x00\x00\x00\x00'
tRp715
sg26
S'Mean Temperature of Driest Quarter GD RCP45 2050'
p716
sg28
g29
sg30
S'clim'
p717
sg32
g33
sg34
S'clim.gd4550.bio09.tif'
p718
sg36
S'clim.gd4550.bio09'
p719
sg38
g39
sg40
I4326
sg41
S'2050'
p720
ssS'bio05'
p721
(dp722
g6
S'gd4550.bio05'
p723
sg8
I103
sg9
S'bio05'
p724
sg11
S'Max Temperature of Warmest Month'
p725
sg13
S'climate'
p726
sg15
S'gd4550'
p727
sg17
S'../views/GTiff/clim.gd4550.bio05.tif'
p728
sg19
S'45'
p729
sg21
g22
(g24
S'5\x18\x00\x00\x00\x00\x00\x00'
tRp730
sg26
S'Max Temperature of Warmest Month GD RCP45 2050'
p731
sg28
g29
sg30
S'clim'
p732
sg32
g33
sg34
S'clim.gd4550.bio05.tif'
p733
sg36
S'clim.gd4550.bio05'
p734
sg38
g39
sg40
I4326
sg41
S'2050'
p735
ssS'bio07'
p736
(dp737
g6
S'gd4550.bio07'
p738
sg8
I278
sg9
S'bio07'
p739
sg11
S'Temperature Annual Range (BIO5-BIO6)'
p740
sg13
S'climate'
p741
sg15
S'gd4550'
p742
sg17
S'../views/GTiff/clim.gd4550.bio07.tif'
p743
sg19
S'45'
p744
sg21
g22
(g24
S'3\x18\x00\x00\x00\x00\x00\x00'
tRp745
sg26
S'Temperature Annual Range (BIO5-BIO6) GD RCP45 2050'
p746
sg28
g29
sg30
S'clim'
p747
sg32
g33
sg34
S'clim.gd4550.bio07.tif'
p748
sg36
S'clim.gd4550.bio07'
p749
sg38
g39
sg40
I4326
sg41
S'2050'
p750
ssS'bio11'
p751
(dp752
g6
S'gd4550.bio11'
p753
sg8
I110
sg9
S'bio11'
p754
sg11
S'Mean Temperature of Coldest Quarter'
p755
sg13
S'climate'
p756
sg15
S'gd4550'
p757
sg17
S'../views/GTiff/clim.gd4550.bio11.tif'
p758
sg19
S'45'
p759
sg21
g22
(g24
S'/\x18\x00\x00\x00\x00\x00\x00'
tRp760
sg26
S'Mean Temperature of Coldest Quarter GD RCP45 2050'
p761
sg28
g29
sg30
S'clim'
p762
sg32
g33
sg34
S'clim.gd4550.bio11.tif'
p763
sg36
S'clim.gd4550.bio11'
p764
sg38
g39
sg40
I4326
sg41
S'2050'
p765
ssS'bio12'
p766
(dp767
g6
S'gd4550.bio12'
p768
sg8
I293
sg9
S'bio12'
p769
sg11
S'Annual Precipitation'
p770
sg13
S'climate'
p771
sg15
S'gd4550'
p772
sg17
S'../views/GTiff/clim.gd4550.bio12.tif'
p773
sg19
S'45'
p774
sg21
g22
(g24
S'2\x18\x00\x00\x00\x00\x00\x00'
tRp775
sg26
S'Annual Precipitation GD RCP45 2050'
p776
sg28
g29
sg30
S'clim'
p777
sg32
g33
sg34
S'clim.gd4550.bio12.tif'
p778
sg36
S'clim.gd4550.bio12'
p779
sg38
g39
sg40
I4326
sg41
S'2050'
p780
ssS'bio13'
p781
(dp782
g6
S'gd4550.bio13'
p783
sg8
I129
sg9
S'bio13'
p784
sg11
S'Precipitation of Wettest Month'
p785
sg13
S'climate'
p786
sg15
S'gd4550'
p787
sg17
S'../views/GTiff/clim.gd4550.bio13.tif'
p788
sg19
S'45'
p789
sg21
g22
(g24
S'.\x18\x00\x00\x00\x00\x00\x00'
tRp790
sg26
S'Precipitation of Wettest Month GD RCP45 2050'
p791
sg28
g29
sg30
S'clim'
p792
sg32
g33
sg34
S'clim.gd4550.bio13.tif'
p793
sg36
S'clim.gd4550.bio13'
p794
sg38
g39
sg40
I4326
sg41
S'2050'
p795
ssS'bio14'
p796
(dp797
g6
S'gd4550.bio14'
p798
sg8
I199
sg9
S'bio14'
p799
sg11
S'Precipitation of Driest Month'
p800
sg13
S'climate'
p801
sg15
S'gd4550'
p802
sg17
S'../views/GTiff/clim.gd4550.bio14.tif'
p803
sg19
S'45'
p804
sg21
g22
(g24
S'<\x18\x00\x00\x00\x00\x00\x00'
tRp805
sg26
S'Precipitation of Driest Month GD RCP45 2050'
p806
sg28
g29
sg30
S'clim'
p807
sg32
g33
sg34
S'clim.gd4550.bio14.tif'
p808
sg36
S'clim.gd4550.bio14'
p809
sg38
g39
sg40
I4326
sg41
S'2050'
p810
ssS'bio15'
p811
(dp812
g6
S'gd4550.bio15'
p813
sg8
I248
sg9
S'bio15'
p814
sg11
S'Precipitation Seasonality (Coefficient of Variation)'
p815
sg13
S'climate'
p816
sg15
S'gd4550'
p817
sg17
S'../views/GTiff/clim.gd4550.bio15.tif'
p818
sg19
S'45'
p819
sg21
g22
(g24
S'1\x18\x00\x00\x00\x00\x00\x00'
tRp820
sg26
S'Precipitation Seasonality (Coefficient of Variation) GD RCP45 2050'
p821
sg28
g29
sg30
S'clim'
p822
sg32
g33
sg34
S'clim.gd4550.bio15.tif'
p823
sg36
S'clim.gd4550.bio15'
p824
sg38
g39
sg40
I4326
sg41
S'2050'
p825
ssS'bio01'
p826
(dp827
g6
S'gd4550.bio01'
p828
sg8
I180
sg9
S'bio01'
p829
sg11
S'Annual Mean Temperature'
p830
sg13
S'climate'
p831
sg15
S'gd4550'
p832
sg17
S'../views/GTiff/clim.gd4550.bio01.tif'
p833
sg19
S'45'
p834
sg21
g22
(g24
S'9\x18\x00\x00\x00\x00\x00\x00'
tRp835
sg26
S'Annual Mean Temperature GD RCP45 2050'
p836
sg28
g29
sg30
S'clim'
p837
sg32
g33
sg34
S'clim.gd4550.bio01.tif'
p838
sg36
S'clim.gd4550.bio01'
p839
sg38
g39
sg40
I4326
sg41
S'2050'
p840
ssS'bio17'
p841
(dp842
g6
S'gd4550.bio17'
p843
sg8
I33
sg9
S'bio17'
p844
sg11
S'Precipitation of Driest Quarter'
p845
sg13
S'climate'
p846
sg15
g644
sg17
S'../views/GTiff/clim.gd4550.bio17.tif'
p847
sg19
S'45'
p848
sg21
g22
(g24
S':\x18\x00\x00\x00\x00\x00\x00'
tRp849
sg26
S'Precipitation of Driest Quarter GD RCP45 2050'
p850
sg28
g29
sg30
S'clim'
p851
sg32
g33
sg34
S'clim.gd4550.bio17.tif'
p852
sg36
S'clim.gd4550.bio17'
p853
sg38
g39
sg40
I4326
sg41
S'2050'
p854
ssS'bio18'
p855
(dp856
g6
S'gd4550.bio18'
p857
sg8
I184
sg9
S'bio18'
p858
sg11
S'Precipitation of Warmest Quarter'
p859
sg13
S'climate'
p860
sg15
S'gd4550'
p861
sg17
S'../views/GTiff/clim.gd4550.bio18.tif'
p862
sg19
S'45'
p863
sg21
g22
(g24
S';\x18\x00\x00\x00\x00\x00\x00'
tRp864
sg26
S'Precipitation of Warmest Quarter GD RCP45 2050'
p865
sg28
g29
sg30
S'clim'
p866
sg32
g33
sg34
S'clim.gd4550.bio18.tif'
p867
sg36
S'clim.gd4550.bio18'
p868
sg38
g39
sg40
I4326
sg41
S'2050'
p869
ssS'bio03'
p870
(dp871
g6
S'gd4550.bio03'
p872
sg8
I191
sg9
S'bio03'
p873
sg11
S'Isothermality (BIO2/BIO7) (* 100)'
p874
sg13
S'climate'
p875
sg15
S'gd4550'
p876
sg17
S'../views/GTiff/clim.gd4550.bio03.tif'
p877
sg19
S'45'
p878
sg21
g22
(g24
S'7\x18\x00\x00\x00\x00\x00\x00'
tRp879
sg26
S'Isothermality (BIO2/BIO7) (* 100) GD RCP45 2050'
p880
sg28
g29
sg30
S'clim'
p881
sg32
g33
sg34
S'clim.gd4550.bio03.tif'
p882
sg36
S'clim.gd4550.bio03'
p883
sg38
g39
sg40
I4326
sg41
S'2050'
p884
ssS'bio08'
p885
(dp886
g6
S'gd4550.bio08'
p887
sg8
I137
sg9
S'bio08'
p888
sg11
S'Mean Temperature of Wettest Quarter'
p889
sg13
S'climate'
p890
sg15
S'gd4550'
p891
sg17
S'../views/GTiff/clim.gd4550.bio08.tif'
p892
sg19
S'45'
p893
sg21
g22
(g24
S'>\x18\x00\x00\x00\x00\x00\x00'
tRp894
sg26
S'Mean Temperature of Wettest Quarter GD RCP45 2050'
p895
sg28
g29
sg30
S'clim'
p896
sg32
g33
sg34
S'clim.gd4550.bio08.tif'
p897
sg36
S'clim.gd4550.bio08'
p898
sg38
g39
sg40
I4326
sg41
S'2050'
p899
ssS'bio04'
p900
(dp901
g6
S'gd4550.bio04'
p902
sg8
I157
sg9
S'bio04'
p903
sg11
S'Temperature Seasonality (standard deviation *100)'
p904
sg13
S'climate'
p905
sg15
S'gd4550'
p906
sg17
S'../views/GTiff/clim.gd4550.bio04.tif'
p907
sg19
S'45'
p908
sg21
g22
(g24
S'6\x18\x00\x00\x00\x00\x00\x00'
tRp909
sg26
S'Temperature Seasonality (standard deviation *100) GD RCP45 2050'
p910
sg28
g29
sg30
S'clim'
p911
sg32
g33
sg34
S'clim.gd4550.bio04.tif'
p912
sg36
S'clim.gd4550.bio04'
p913
sg38
g39
sg40
I4326
sg41
S'2050'
p914
ssS'bio02'
p915
(dp916
g6
S'gd4550.bio02'
p917
sg8
I197
sg9
S'bio02'
p918
sg11
S'Mean Diurnal Range (Mean of monthly (max temp - min temp))'
p919
sg13
S'climate'
p920
sg15
S'gd4550'
p921
sg17
S'../views/GTiff/clim.gd4550.bio02.tif'
p922
sg19
S'45'
p923
sg21
g22
(g24
S'8\x18\x00\x00\x00\x00\x00\x00'
tRp924
sg26
S'Mean Diurnal Range (Mean of monthly (max temp - min temp)) GD RCP45 2050'
p925
sg28
g29
sg30
S'clim'
p926
sg32
g33
sg34
S'clim.gd4550.bio02.tif'
p927
sg36
S'clim.gd4550.bio02'
p928
sg38
g39
sg40
I4326
sg41
S'2050'
p929
sssS'he8570'
p930
(dp931
S'bio10'
p932
(dp933
g6
S'he8570.bio10'
p934
sg8
I208
sg9
S'bio10'
p935
sg11
S'Mean Temperature of Warmest Quarter'
p936
sg13
S'climate'
p937
sg15
S'he8570'
p938
sg17
S'../views/GTiff/clim.he8570.bio10.tif'
p939
sg19
S'85'
p940
sg21
g22
(g24
S'?\x18\x00\x00\x00\x00\x00\x00'
tRp941
sg26
S'Mean Temperature of Warmest Quarter HE RCP85 2070'
p942
sg28
g29
sg30
S'clim'
p943
sg32
g33
sg34
S'clim.he8570.bio10.tif'
p944
sg36
S'clim.he8570.bio10'
p945
sg38
g39
sg40
I4326
sg41
S'2070'
p946
ssS'bio19'
p947
(dp948
g6
S'he8570.bio19'
p949
sg8
I11
sg9
S'bio19'
p950
sg11
S'Precipitation of Coldest Quarter'
p951
sg13
S'climate'
p952
sg15
S'he8570'
p953
sg17
S'../views/GTiff/clim.he8570.bio19.tif'
p954
sg19
S'85'
p955
sg21
g22
(g24
S'@\x18\x00\x00\x00\x00\x00\x00'
tRp956
sg26
S'Precipitation of Coldest Quarter HE RCP85 2070'
p957
sg28
g29
sg30
S'clim'
p958
sg32
g33
sg34
S'clim.he8570.bio19.tif'
p959
sg36
S'clim.he8570.bio19'
p960
sg38
g39
sg40
I4326
sg41
S'2070'
p961
ssS'bio01'
p962
(dp963
g6
S'he8570.bio01'
p964
sg8
I10
sg9
S'bio01'
p965
sg11
S'Annual Mean Temperature'
p966
sg13
S'climate'
p967
sg15
S'he8570'
p968
sg17
S'../views/GTiff/clim.he8570.bio01.tif'
p969
sg19
S'85'
p970
sg21
g22
(g24
S'L\x18\x00\x00\x00\x00\x00\x00'
tRp971
sg26
S'Annual Mean Temperature HE RCP85 2070'
p972
sg28
g29
sg30
S'clim'
p973
sg32
g33
sg34
S'clim.he8570.bio01.tif'
p974
sg36
S'clim.he8570.bio01'
p975
sg38
g39
sg40
I4326
sg41
S'2070'
p976
ssS'bio11'
p977
(dp978
g6
S'he8570.bio11'
p979
sg8
I279
sg9
S'bio11'
p980
sg11
S'Mean Temperature of Coldest Quarter'
p981
sg13
S'climate'
p982
sg15
S'he8570'
p983
sg17
S'../views/GTiff/clim.he8570.bio11.tif'
p984
sg19
S'85'
p985
sg21
g22
(g24
S'B\x18\x00\x00\x00\x00\x00\x00'
tRp986
sg26
S'Mean Temperature of Coldest Quarter HE RCP85 2070'
p987
sg28
g29
sg30
S'clim'
p988
sg32
g33
sg34
S'clim.he8570.bio11.tif'
p989
sg36
S'clim.he8570.bio11'
p990
sg38
g39
sg40
I4326
sg41
S'2070'
p991
ssS'bio09'
p992
(dp993
g6
S'he8570.bio09'
p994
sg8
I68
sg9
S'bio09'
p995
sg11
S'Mean Temperature of Driest Quarter'
p996
sg13
S'climate'
p997
sg15
S'he8570'
p998
sg17
S'../views/GTiff/clim.he8570.bio09.tif'
p999
sg19
S'85'
p1000
sg21
g22
(g24
S'P\x18\x00\x00\x00\x00\x00\x00'
tRp1001
sg26
S'Mean Temperature of Driest Quarter HE RCP85 2070'
p1002
sg28
g29
sg30
S'clim'
p1003
sg32
g33
sg34
S'clim.he8570.bio09.tif'
p1004
sg36
S'clim.he8570.bio09'
p1005
sg38
g39
sg40
I4326
sg41
S'2070'
p1006
ssS'bio05'
p1007
(dp1008
g6
S'he8570.bio05'
p1009
sg8
I48
sg9
S'bio05'
p1010
sg11
S'Max Temperature of Warmest Month'
p1011
sg13
S'climate'
p1012
sg15
S'he8570'
p1013
sg17
S'../views/GTiff/clim.he8570.bio05.tif'
p1014
sg19
S'85'
p1015
sg21
g22
(g24
S'H\x18\x00\x00\x00\x00\x00\x00'
tRp1016
sg26
S'Max Temperature of Warmest Month HE RCP85 2070'
p1017
sg28
g29
sg30
S'clim'
p1018
sg32
g33
sg34
S'clim.he8570.bio05.tif'
p1019
sg36
S'clim.he8570.bio05'
p1020
sg38
g39
sg40
I4326
sg41
S'2070'
p1021
ssS'bio07'
p1022
(dp1023
g6
S'he8570.bio07'
p1024
sg8
I221
sg9
S'bio07'
p1025
sg11
S'Temperature Annual Range (BIO5-BIO6)'
p1026
sg13
S'climate'
p1027
sg15
S'he8570'
p1028
sg17
S'../views/GTiff/clim.he8570.bio07.tif'
p1029
sg19
S'85'
p1030
sg21
g22
(g24
S'F\x18\x00\x00\x00\x00\x00\x00'
tRp1031
sg26
S'Temperature Annual Range (BIO5-BIO6) HE RCP85 2070'
p1032
sg28
g29
sg30
S'clim'
p1033
sg32
g33
sg34
S'clim.he8570.bio07.tif'
p1034
sg36
S'clim.he8570.bio07'
p1035
sg38
g39
sg40
I4326
sg41
S'2070'
p1036
ssS'bio06'
p1037
(dp1038
g6
S'he8570.bio06'
p1039
sg8
I287
sg9
S'bio06'
p1040
sg11
S'Min Temperature of Coldest Month'
p1041
sg13
S'climate'
p1042
sg15
S'he8570'
p1043
sg17
S'../views/GTiff/clim.he8570.bio06.tif'
p1044
sg19
S'85'
p1045
sg21
g22
(g24
S'G\x18\x00\x00\x00\x00\x00\x00'
tRp1046
sg26
S'Min Temperature of Coldest Month HE RCP85 2070'
p1047
sg28
g29
sg30
S'clim'
p1048
sg32
g33
sg34
S'clim.he8570.bio06.tif'
p1049
sg36
S'clim.he8570.bio06'
p1050
sg38
g39
sg40
I4326
sg41
S'2070'
p1051
ssS'bio12'
p1052
(dp1053
g6
S'he8570.bio12'
p1054
sg8
I91
sg9
S'bio12'
p1055
sg11
S'Annual Precipitation'
p1056
sg13
S'climate'
p1057
sg15
S'he8570'
p1058
sg17
S'../views/GTiff/clim.he8570.bio12.tif'
p1059
sg19
S'85'
p1060
sg21
g22
(g24
S'E\x18\x00\x00\x00\x00\x00\x00'
tRp1061
sg26
S'Annual Precipitation HE RCP85 2070'
p1062
sg28
g29
sg30
S'clim'
p1063
sg32
g33
sg34
S'clim.he8570.bio12.tif'
p1064
sg36
S'clim.he8570.bio12'
p1065
sg38
g39
sg40
I4326
sg41
S'2070'
p1066
ssS'bio13'
p1067
(dp1068
g6
S'he8570.bio13'
p1069
sg8
I151
sg9
S'bio13'
p1070
sg11
S'Precipitation of Wettest Month'
p1071
sg13
S'climate'
p1072
sg15
S'he8570'
p1073
sg17
S'../views/GTiff/clim.he8570.bio13.tif'
p1074
sg19
S'85'
p1075
sg21
g22
(g24
S'A\x18\x00\x00\x00\x00\x00\x00'
tRp1076
sg26
S'Precipitation of Wettest Month HE RCP85 2070'
p1077
sg28
g29
sg30
S'clim'
p1078
sg32
g33
sg34
S'clim.he8570.bio13.tif'
p1079
sg36
S'clim.he8570.bio13'
p1080
sg38
g39
sg40
I4326
sg41
S'2070'
p1081
ssS'bio14'
p1082
(dp1083
g6
S'he8570.bio14'
p1084
sg8
I226
sg9
S'bio14'
p1085
sg11
S'Precipitation of Driest Month'
p1086
sg13
S'climate'
p1087
sg15
S'he8570'
p1088
sg17
S'../views/GTiff/clim.he8570.bio14.tif'
p1089
sg19
S'85'
p1090
sg21
g22
(g24
S'O\x18\x00\x00\x00\x00\x00\x00'
tRp1091
sg26
S'Precipitation of Driest Month HE RCP85 2070'
p1092
sg28
g29
sg30
S'clim'
p1093
sg32
g33
sg34
S'clim.he8570.bio14.tif'
p1094
sg36
S'clim.he8570.bio14'
p1095
sg38
g39
sg40
I4326
sg41
S'2070'
p1096
ssS'bio15'
p1097
(dp1098
g6
S'he8570.bio15'
p1099
sg8
I150
sg9
S'bio15'
p1100
sg11
S'Precipitation Seasonality (Coefficient of Variation)'
p1101
sg13
S'climate'
p1102
sg15
S'he8570'
p1103
sg17
S'../views/GTiff/clim.he8570.bio15.tif'
p1104
sg19
S'85'
p1105
sg21
g22
(g24
S'D\x18\x00\x00\x00\x00\x00\x00'
tRp1106
sg26
S'Precipitation Seasonality (Coefficient of Variation) HE RCP85 2070'
p1107
sg28
g29
sg30
S'clim'
p1108
sg32
g33
sg34
S'clim.he8570.bio15.tif'
p1109
sg36
S'clim.he8570.bio15'
p1110
sg38
g39
sg40
I4326
sg41
S'2070'
p1111
ssS'bio16'
p1112
(dp1113
g6
S'he8570.bio16'
p1114
sg8
I203
sg9
S'bio16'
p1115
sg11
S'Precipitation of Wettest Quarter'
p1116
sg13
S'climate'
p1117
sg15
S'he8570'
p1118
sg17
S'../views/GTiff/clim.he8570.bio16.tif'
p1119
sg19
S'85'
p1120
sg21
g22
(g24
S'C\x18\x00\x00\x00\x00\x00\x00'
tRp1121
sg26
S'Precipitation of Wettest Quarter HE RCP85 2070'
p1122
sg28
g29
sg30
S'clim'
p1123
sg32
g33
sg34
S'clim.he8570.bio16.tif'
p1124
sg36
S'clim.he8570.bio16'
p1125
sg38
g39
sg40
I4326
sg41
S'2070'
p1126
ssS'bio17'
p1127
(dp1128
g6
S'he8570.bio17'
p1129
sg8
I73
sg9
S'bio17'
p1130
sg11
S'Precipitation of Driest Quarter'
p1131
sg13
S'climate'
p1132
sg15
S'he8570'
p1133
sg17
S'../views/GTiff/clim.he8570.bio17.tif'
p1134
sg19
S'85'
p1135
sg21
g22
(g24
S'M\x18\x00\x00\x00\x00\x00\x00'
tRp1136
sg26
S'Precipitation of Driest Quarter HE RCP85 2070'
p1137
sg28
g29
sg30
S'clim'
p1138
sg32
g33
sg34
S'clim.he8570.bio17.tif'
p1139
sg36
S'clim.he8570.bio17'
p1140
sg38
g39
sg40
I4326
sg41
S'2070'
p1141
ssS'bio18'
p1142
(dp1143
g6
S'he8570.bio18'
p1144
sg8
I71
sg9
S'bio18'
p1145
sg11
S'Precipitation of Warmest Quarter'
p1146
sg13
S'climate'
p1147
sg15
S'he8570'
p1148
sg17
S'../views/GTiff/clim.he8570.bio18.tif'
p1149
sg19
S'85'
p1150
sg21
g22
(g24
S'N\x18\x00\x00\x00\x00\x00\x00'
tRp1151
sg26
S'Precipitation of Warmest Quarter HE RCP85 2070'
p1152
sg28
g29
sg30
S'clim'
p1153
sg32
g33
sg34
S'clim.he8570.bio18.tif'
p1154
sg36
S'clim.he8570.bio18'
p1155
sg38
g39
sg40
I4326
sg41
S'2070'
p1156
ssS'bio03'
p1157
(dp1158
g6
S'he8570.bio03'
p1159
sg8
I2
sg9
S'bio03'
p1160
sg11
S'Isothermality (BIO2/BIO7) (* 100)'
p1161
sg13
S'climate'
p1162
sg15
g930
sg17
S'../views/GTiff/clim.he8570.bio03.tif'
p1163
sg19
S'85'
p1164
sg21
g22
(g24
S'J\x18\x00\x00\x00\x00\x00\x00'
tRp1165
sg26
S'Isothermality (BIO2/BIO7) (* 100) HE RCP85 2070'
p1166
sg28
g29
sg30
S'clim'
p1167
sg32
g33
sg34
S'clim.he8570.bio03.tif'
p1168
sg36
S'clim.he8570.bio03'
p1169
sg38
g39
sg40
I4326
sg41
S'2070'
p1170
ssS'bio08'
p1171
(dp1172
g6
S'he8570.bio08'
p1173
sg8
I20
sg9
S'bio08'
p1174
sg11
S'Mean Temperature of Wettest Quarter'
p1175
sg13
S'climate'
p1176
sg15
S'he8570'
p1177
sg17
S'../views/GTiff/clim.he8570.bio08.tif'
p1178
sg19
S'85'
p1179
sg21
g22
(g24
S'Q\x18\x00\x00\x00\x00\x00\x00'
tRp1180
sg26
S'Mean Temperature of Wettest Quarter HE RCP85 2070'
p1181
sg28
g29
sg30
S'clim'
p1182
sg32
g33
sg34
S'clim.he8570.bio08.tif'
p1183
sg36
S'clim.he8570.bio08'
p1184
sg38
g39
sg40
I4326
sg41
S'2070'
p1185
ssS'bio04'
p1186
(dp1187
g6
S'he8570.bio04'
p1188
sg8
I179
sg9
S'bio04'
p1189
sg11
S'Temperature Seasonality (standard deviation *100)'
p1190
sg13
S'climate'
p1191
sg15
S'he8570'
p1192
sg17
S'../views/GTiff/clim.he8570.bio04.tif'
p1193
sg19
S'85'
p1194
sg21
g22
(g24
S'I\x18\x00\x00\x00\x00\x00\x00'
tRp1195
sg26
S'Temperature Seasonality (standard deviation *100) HE RCP85 2070'
p1196
sg28
g29
sg30
S'clim'
p1197
sg32
g33
sg34
S'clim.he8570.bio04.tif'
p1198
sg36
S'clim.he8570.bio04'
p1199
sg38
g39
sg40
I4326
sg41
S'2070'
p1200
ssS'bio02'
p1201
(dp1202
g6
S'he8570.bio02'
p1203
sg8
I88
sg9
S'bio02'
p1204
sg11
S'Mean Diurnal Range (Mean of monthly (max temp - min temp))'
p1205
sg13
S'climate'
p1206
sg15
S'he8570'
p1207
sg17
S'../views/GTiff/clim.he8570.bio02.tif'
p1208
sg19
S'85'
p1209
sg21
g22
(g24
S'K\x18\x00\x00\x00\x00\x00\x00'
tRp1210
sg26
S'Mean Diurnal Range (Mean of monthly (max temp - min temp)) HE RCP85 2070'
p1211
sg28
g29
sg30
S'clim'
p1212
sg32
g33
sg34
S'clim.he8570.bio02.tif'
p1213
sg36
S'clim.he8570.bio02'
p1214
sg38
g39
sg40
I4326
sg41
S'2070'
p1215
sssS'he2650'
p1216
(dp1217
S'bio10'
p1218
(dp1219
g6
S'he2650.bio10'
p1220
sg8
I97
sg9
S'bio10'
p1221
sg11
S'Mean Temperature of Warmest Quarter'
p1222
sg13
S'climate'
p1223
sg15
S'he2650'
p1224
sg17
S'../views/GTiff/clim.he2650.bio10.tif'
p1225
sg19
S'26'
p1226
sg21
g22
(g24
S'R\x18\x00\x00\x00\x00\x00\x00'
tRp1227
sg26
S'Mean Temperature of Warmest Quarter HE RCP26 2050'
p1228
sg28
g29
sg30
S'clim'
p1229
sg32
g33
sg34
S'clim.he2650.bio10.tif'
p1230
sg36
S'clim.he2650.bio10'
p1231
sg38
g39
sg40
I4326
sg41
S'2050'
p1232
ssS'bio01'
p1233
(dp1234
g6
S'he2650.bio01'
p1235
sg8
I64
sg9
S'bio01'
p1236
sg11
S'Annual Mean Temperature'
p1237
sg13
S'climate'
p1238
sg15
S'he2650'
p1239
sg17
S'../views/GTiff/clim.he2650.bio01.tif'
p1240
sg19
S'26'
p1241
sg21
g22
(g24
S'_\x18\x00\x00\x00\x00\x00\x00'
tRp1242
sg26
S'Annual Mean Temperature HE RCP26 2050'
p1243
sg28
g29
sg30
S'clim'
p1244
sg32
g33
sg34
S'clim.he2650.bio01.tif'
p1245
sg36
S'clim.he2650.bio01'
p1246
sg38
g39
sg40
I4326
sg41
S'2050'
p1247
ssS'bio11'
p1248
(dp1249
g6
S'he2650.bio11'
p1250
sg8
I66
sg9
S'bio11'
p1251
sg11
S'Mean Temperature of Coldest Quarter'
p1252
sg13
S'climate'
p1253
sg15
S'he2650'
p1254
sg17
S'../views/GTiff/clim.he2650.bio11.tif'
p1255
sg19
S'26'
p1256
sg21
g22
(g24
S'U\x18\x00\x00\x00\x00\x00\x00'
tRp1257
sg26
S'Mean Temperature of Coldest Quarter HE RCP26 2050'
p1258
sg28
g29
sg30
S'clim'
p1259
sg32
g33
sg34
S'clim.he2650.bio11.tif'
p1260
sg36
S'clim.he2650.bio11'
p1261
sg38
g39
sg40
I4326
sg41
S'2050'
p1262
ssS'bio09'
p1263
(dp1264
g6
S'he2650.bio09'
p1265
sg8
I130
sg9
S'bio09'
p1266
sg11
S'Mean Temperature of Driest Quarter'
p1267
sg13
S'climate'
p1268
sg15
S'he2650'
p1269
sg17
S'../views/GTiff/clim.he2650.bio09.tif'
p1270
sg19
S'26'
p1271
sg21
g22
(g24
S'c\x18\x00\x00\x00\x00\x00\x00'
tRp1272
sg26
S'Mean Temperature of Driest Quarter HE RCP26 2050'
p1273
sg28
g29
sg30
S'clim'
p1274
sg32
g33
sg34
S'clim.he2650.bio09.tif'
p1275
sg36
S'clim.he2650.bio09'
p1276
sg38
g39
sg40
I4326
sg41
S'2050'
p1277
ssS'bio05'
p1278
(dp1279
g6
S'he2650.bio05'
p1280
sg8
I18
sg9
S'bio05'
p1281
sg11
S'Max Temperature of Warmest Month'
p1282
sg13
S'climate'
p1283
sg15
g1216
sg17
S'../views/GTiff/clim.he2650.bio05.tif'
p1284
sg19
S'26'
p1285
sg21
g22
(g24
S'[\x18\x00\x00\x00\x00\x00\x00'
tRp1286
sg26
S'Max Temperature of Warmest Month HE RCP26 2050'
p1287
sg28
g29
sg30
S'clim'
p1288
sg32
g33
sg34
S'clim.he2650.bio05.tif'
p1289
sg36
S'clim.he2650.bio05'
p1290
sg38
g39
sg40
I4326
sg41
S'2050'
p1291
ssS'bio07'
p1292
(dp1293
g6
S'he2650.bio07'
p1294
sg8
I233
sg9
S'bio07'
p1295
sg11
S'Temperature Annual Range (BIO5-BIO6)'
p1296
sg13
S'climate'
p1297
sg15
S'he2650'
p1298
sg17
S'../views/GTiff/clim.he2650.bio07.tif'
p1299
sg19
S'26'
p1300
sg21
g22
(g24
S'Y\x18\x00\x00\x00\x00\x00\x00'
tRp1301
sg26
S'Temperature Annual Range (BIO5-BIO6) HE RCP26 2050'
p1302
sg28
g29
sg30
S'clim'
p1303
sg32
g33
sg34
S'clim.he2650.bio07.tif'
p1304
sg36
S'clim.he2650.bio07'
p1305
sg38
g39
sg40
I4326
sg41
S'2050'
p1306
ssS'bio06'
p1307
(dp1308
g6
S'he2650.bio06'
p1309
sg8
I159
sg9
S'bio06'
p1310
sg11
S'Min Temperature of Coldest Month'
p1311
sg13
S'climate'
p1312
sg15
S'he2650'
p1313
sg17
S'../views/GTiff/clim.he2650.bio06.tif'
p1314
sg19
S'26'
p1315
sg21
g22
(g24
S'Z\x18\x00\x00\x00\x00\x00\x00'
tRp1316
sg26
S'Min Temperature of Coldest Month HE RCP26 2050'
p1317
sg28
g29
sg30
S'clim'
p1318
sg32
g33
sg34
S'clim.he2650.bio06.tif'
p1319
sg36
S'clim.he2650.bio06'
p1320
sg38
g39
sg40
I4326
sg41
S'2050'
p1321
ssS'bio12'
p1322
(dp1323
g6
S'he2650.bio12'
p1324
sg8
I41
sg9
S'bio12'
p1325
sg11
S'Annual Precipitation'
p1326
sg13
S'climate'
p1327
sg15
S'he2650'
p1328
sg17
S'../views/GTiff/clim.he2650.bio12.tif'
p1329
sg19
S'26'
p1330
sg21
g22
(g24
S'X\x18\x00\x00\x00\x00\x00\x00'
tRp1331
sg26
S'Annual Precipitation HE RCP26 2050'
p1332
sg28
g29
sg30
S'clim'
p1333
sg32
g33
sg34
S'clim.he2650.bio12.tif'
p1334
sg36
S'clim.he2650.bio12'
p1335
sg38
g39
sg40
I4326
sg41
S'2050'
p1336
ssS'bio13'
p1337
(dp1338
g6
S'he2650.bio13'
p1339
sg8
I172
sg9
S'bio13'
p1340
sg11
S'Precipitation of Wettest Month'
p1341
sg13
S'climate'
p1342
sg15
S'he2650'
p1343
sg17
S'../views/GTiff/clim.he2650.bio13.tif'
p1344
sg19
S'26'
p1345
sg21
g22
(g24
S'T\x18\x00\x00\x00\x00\x00\x00'
tRp1346
sg26
S'Precipitation of Wettest Month HE RCP26 2050'
p1347
sg28
g29
sg30
S'clim'
p1348
sg32
g33
sg34
S'clim.he2650.bio13.tif'
p1349
sg36
S'clim.he2650.bio13'
p1350
sg38
g39
sg40
I4326
sg41
S'2050'
p1351
ssS'bio14'
p1352
(dp1353
g6
S'he2650.bio14'
p1354
sg8
I217
sg9
S'bio14'
p1355
sg11
S'Precipitation of Driest Month'
p1356
sg13
S'climate'
p1357
sg15
S'he2650'
p1358
sg17
S'../views/GTiff/clim.he2650.bio14.tif'
p1359
sg19
S'26'
p1360
sg21
g22
(g24
S'b\x18\x00\x00\x00\x00\x00\x00'
tRp1361
sg26
S'Precipitation of Driest Month HE RCP26 2050'
p1362
sg28
g29
sg30
S'clim'
p1363
sg32
g33
sg34
S'clim.he2650.bio14.tif'
p1364
sg36
S'clim.he2650.bio14'
p1365
sg38
g39
sg40
I4326
sg41
S'2050'
p1366
ssS'bio15'
p1367
(dp1368
g6
S'he2650.bio15'
p1369
sg8
I53
sg9
S'bio15'
p1370
sg11
S'Precipitation Seasonality (Coefficient of Variation)'
p1371
sg13
S'climate'
p1372
sg15
S'he2650'
p1373
sg17
S'../views/GTiff/clim.he2650.bio15.tif'
p1374
sg19
S'26'
p1375
sg21
g22
(g24
S'W\x18\x00\x00\x00\x00\x00\x00'
tRp1376
sg26
S'Precipitation Seasonality (Coefficient of Variation) HE RCP26 2050'
p1377
sg28
g29
sg30
S'clim'
p1378
sg32
g33
sg34
S'clim.he2650.bio15.tif'
p1379
sg36
S'clim.he2650.bio15'
p1380
sg38
g39
sg40
I4326
sg41
S'2050'
p1381
ssS'bio16'
p1382
(dp1383
g6
S'he2650.bio16'
p1384
sg8
I167
sg9
S'bio16'
p1385
sg11
S'Precipitation of Wettest Quarter'
p1386
sg13
S'climate'
p1387
sg15
S'he2650'
p1388
sg17
S'../views/GTiff/clim.he2650.bio16.tif'
p1389
sg19
S'26'
p1390
sg21
g22
(g24
S'V\x18\x00\x00\x00\x00\x00\x00'
tRp1391
sg26
S'Precipitation of Wettest Quarter HE RCP26 2050'
p1392
sg28
g29
sg30
S'clim'
p1393
sg32
g33
sg34
S'clim.he2650.bio16.tif'
p1394
sg36
S'clim.he2650.bio16'
p1395
sg38
g39
sg40
I4326
sg41
S'2050'
p1396
ssS'bio17'
p1397
(dp1398
g6
S'he2650.bio17'
p1399
sg8
I31
sg9
S'bio17'
p1400
sg11
S'Precipitation of Driest Quarter'
p1401
sg13
S'climate'
p1402
sg15
S'he2650'
p1403
sg17
S'../views/GTiff/clim.he2650.bio17.tif'
p1404
sg19
S'26'
p1405
sg21
g22
(g24
S'`\x18\x00\x00\x00\x00\x00\x00'
tRp1406
sg26
S'Precipitation of Driest Quarter HE RCP26 2050'
p1407
sg28
g29
sg30
S'clim'
p1408
sg32
g33
sg34
S'clim.he2650.bio17.tif'
p1409
sg36
S'clim.he2650.bio17'
p1410
sg38
g39
sg40
I4326
sg41
S'2050'
p1411
ssS'bio18'
p1412
(dp1413
g6
S'he2650.bio18'
p1414
sg8
I145
sg9
S'bio18'
p1415
sg11
S'Precipitation of Warmest Quarter'
p1416
sg13
S'climate'
p1417
sg15
S'he2650'
p1418
sg17
S'../views/GTiff/clim.he2650.bio18.tif'
p1419
sg19
S'26'
p1420
sg21
g22
(g24
S'a\x18\x00\x00\x00\x00\x00\x00'
tRp1421
sg26
S'Precipitation of Warmest Quarter HE RCP26 2050'
p1422
sg28
g29
sg30
S'clim'
p1423
sg32
g33
sg34
S'clim.he2650.bio18.tif'
p1424
sg36
S'clim.he2650.bio18'
p1425
sg38
g39
sg40
I4326
sg41
S'2050'
p1426
ssS'bio19'
p1427
(dp1428
g6
S'he2650.bio19'
p1429
sg8
I77
sg9
S'bio19'
p1430
sg11
S'Precipitation of Coldest Quarter'
p1431
sg13
S'climate'
p1432
sg15
S'he2650'
p1433
sg17
S'../views/GTiff/clim.he2650.bio19.tif'
p1434
sg19
S'26'
p1435
sg21
g22
(g24
S'S\x18\x00\x00\x00\x00\x00\x00'
tRp1436
sg26
S'Precipitation of Coldest Quarter HE RCP26 2050'
p1437
sg28
g29
sg30
S'clim'
p1438
sg32
g33
sg34
S'clim.he2650.bio19.tif'
p1439
sg36
S'clim.he2650.bio19'
p1440
sg38
g39
sg40
I4326
sg41
S'2050'
p1441
ssS'bio02'
p1442
(dp1443
g6
S'he2650.bio02'
p1444
sg8
I87
sg9
S'bio02'
p1445
sg11
S'Mean Diurnal Range (Mean of monthly (max temp - min temp))'
p1446
sg13
S'climate'
p1447
sg15
S'he2650'
p1448
sg17
S'../views/GTiff/clim.he2650.bio02.tif'
p1449
sg19
S'26'
p1450
sg21
g22
(g24
S'^\x18\x00\x00\x00\x00\x00\x00'
tRp1451
sg26
S'Mean Diurnal Range (Mean of monthly (max temp - min temp)) HE RCP26 2050'
p1452
sg28
g29
sg30
S'clim'
p1453
sg32
g33
sg34
S'clim.he2650.bio02.tif'
p1454
sg36
S'clim.he2650.bio02'
p1455
sg38
g39
sg40
I4326
sg41
S'2050'
p1456
ssS'bio03'
p1457
(dp1458
g6
S'he2650.bio03'
p1459
sg8
I264
sg9
S'bio03'
p1460
sg11
S'Isothermality (BIO2/BIO7) (* 100)'
p1461
sg13
S'climate'
p1462
sg15
S'he2650'
p1463
sg17
S'../views/GTiff/clim.he2650.bio03.tif'
p1464
sg19
S'26'
p1465
sg21
g22
(g24
S']\x18\x00\x00\x00\x00\x00\x00'
tRp1466
sg26
S'Isothermality (BIO2/BIO7) (* 100) HE RCP26 2050'
p1467
sg28
g29
sg30
S'clim'
p1468
sg32
g33
sg34
S'clim.he2650.bio03.tif'
p1469
sg36
S'clim.he2650.bio03'
p1470
sg38
g39
sg40
I4326
sg41
S'2050'
p1471
ssS'bio04'
p1472
(dp1473
g6
S'he2650.bio04'
p1474
sg8
I276
sg9
S'bio04'
p1475
sg11
S'Temperature Seasonality (standard deviation *100)'
p1476
sg13
S'climate'
p1477
sg15
S'he2650'
p1478
sg17
S'../views/GTiff/clim.he2650.bio04.tif'
p1479
sg19
S'26'
p1480
sg21
g22
(g24
S'\\\x18\x00\x00\x00\x00\x00\x00'
tRp1481
sg26
S'Temperature Seasonality (standard deviation *100) HE RCP26 2050'
p1482
sg28
g29
sg30
S'clim'
p1483
sg32
g33
sg34
S'clim.he2650.bio04.tif'
p1484
sg36
S'clim.he2650.bio04'
p1485
sg38
g39
sg40
I4326
sg41
S'2050'
p1486
ssS'bio08'
p1487
(dp1488
g6
S'he2650.bio08'
p1489
sg8
I119
sg9
S'bio08'
p1490
sg11
S'Mean Temperature of Wettest Quarter'
p1491
sg13
S'climate'
p1492
sg15
S'he2650'
p1493
sg17
S'../views/GTiff/clim.he2650.bio08.tif'
p1494
sg19
S'26'
p1495
sg21
g22
(g24
S'd\x18\x00\x00\x00\x00\x00\x00'
tRp1496
sg26
S'Mean Temperature of Wettest Quarter HE RCP26 2050'
p1497
sg28
g29
sg30
S'clim'
p1498
sg32
g33
sg34
S'clim.he2650.bio08.tif'
p1499
sg36
S'clim.he2650.bio08'
p1500
sg38
g39
sg40
I4326
sg41
S'2050'
p1501
sssS'he6050'
p1502
(dp1503
S'bio07'
p1504
(dp1505
g6
S'he6050.bio07'
p1506
sg8
I43
sg9
S'bio07'
p1507
sg11
S'Temperature Annual Range (BIO5-BIO6)'
p1508
sg13
S'climate'
p1509
sg15
S'he6050'
p1510
sg17
S'../views/GTiff/clim.he6050.bio07.tif'
p1511
sg19
S'60'
p1512
sg21
g22
(g24
S'l\x18\x00\x00\x00\x00\x00\x00'
tRp1513
sg26
S'Temperature Annual Range (BIO5-BIO6) HE RCP60 2050'
p1514
sg28
g29
sg30
S'clim'
p1515
sg32
g33
sg34
S'clim.he6050.bio07.tif'
p1516
sg36
S'clim.he6050.bio07'
p1517
sg38
g39
sg40
I4326
sg41
S'2050'
p1518
ssS'bio19'
p1519
(dp1520
g6
S'he6050.bio19'
p1521
sg8
I93
sg9
S'bio19'
p1522
sg11
S'Precipitation of Coldest Quarter'
p1523
sg13
S'climate'
p1524
sg15
S'he6050'
p1525
sg17
S'../views/GTiff/clim.he6050.bio19.tif'
p1526
sg19
S'60'
p1527
sg21
g22
(g24
S'f\x18\x00\x00\x00\x00\x00\x00'
tRp1528
sg26
S'Precipitation of Coldest Quarter HE RCP60 2050'
p1529
sg28
g29
sg30
S'clim'
p1530
sg32
g33
sg34
S'clim.he6050.bio19.tif'
p1531
sg36
S'clim.he6050.bio19'
p1532
sg38
g39
sg40
I4326
sg41
S'2050'
p1533
ssS'bio01'
p1534
(dp1535
g6
S'he6050.bio01'
p1536
sg8
I23
sg9
S'bio01'
p1537
sg11
S'Annual Mean Temperature'
p1538
sg13
S'climate'
p1539
sg15
S'he6050'
p1540
sg17
S'../views/GTiff/clim.he6050.bio01.tif'
p1541
sg19
S'60'
p1542
sg21
g22
(g24
S'r\x18\x00\x00\x00\x00\x00\x00'
tRp1543
sg26
S'Annual Mean Temperature HE RCP60 2050'
p1544
sg28
g29
sg30
S'clim'
p1545
sg32
g33
sg34
S'clim.he6050.bio01.tif'
p1546
sg36
S'clim.he6050.bio01'
p1547
sg38
g39
sg40
I4326
sg41
S'2050'
p1548
ssS'bio11'
p1549
(dp1550
g6
S'he6050.bio11'
p1551
sg8
I204
sg9
S'bio11'
p1552
sg11
S'Mean Temperature of Coldest Quarter'
p1553
sg13
S'climate'
p1554
sg15
S'he6050'
p1555
sg17
S'../views/GTiff/clim.he6050.bio11.tif'
p1556
sg19
S'60'
p1557
sg21
g22
(g24
S'h\x18\x00\x00\x00\x00\x00\x00'
tRp1558
sg26
S'Mean Temperature of Coldest Quarter HE RCP60 2050'
p1559
sg28
g29
sg30
S'clim'
p1560
sg32
g33
sg34
S'clim.he6050.bio11.tif'
p1561
sg36
S'clim.he6050.bio11'
p1562
sg38
g39
sg40
I4326
sg41
S'2050'
p1563
ssS'bio09'
p1564
(dp1565
g6
S'he6050.bio09'
p1566
sg8
I85
sg9
S'bio09'
p1567
sg11
S'Mean Temperature of Driest Quarter'
p1568
sg13
S'climate'
p1569
sg15
S'he6050'
p1570
sg17
S'../views/GTiff/clim.he6050.bio09.tif'
p1571
sg19
S'60'
p1572
sg21
g22
(g24
S'v\x18\x00\x00\x00\x00\x00\x00'
tRp1573
sg26
S'Mean Temperature of Driest Quarter HE RCP60 2050'
p1574
sg28
g29
sg30
S'clim'
p1575
sg32
g33
sg34
S'clim.he6050.bio09.tif'
p1576
sg36
S'clim.he6050.bio09'
p1577
sg38
g39
sg40
I4326
sg41
S'2050'
p1578
ssS'bio15'
p1579
(dp1580
g6
S'he6050.bio15'
p1581
sg8
I104
sg9
S'bio15'
p1582
sg11
S'Precipitation Seasonality (Coefficient of Variation)'
p1583
sg13
S'climate'
p1584
sg15
S'he6050'
p1585
sg17
S'../views/GTiff/clim.he6050.bio15.tif'
p1586
sg19
S'60'
p1587
sg21
g22
(g24
S'j\x18\x00\x00\x00\x00\x00\x00'
tRp1588
sg26
S'Precipitation Seasonality (Coefficient of Variation) HE RCP60 2050'
p1589
sg28
g29
sg30
S'clim'
p1590
sg32
g33
sg34
S'clim.he6050.bio15.tif'
p1591
sg36
S'clim.he6050.bio15'
p1592
sg38
g39
sg40
I4326
sg41
S'2050'
p1593
ssS'bio12'
p1594
(dp1595
g6
S'he6050.bio12'
p1596
sg8
I0
sg9
S'bio12'
p1597
sg11
S'Annual Precipitation'
p1598
sg13
S'climate'
p1599
sg15
g1502
sg17
S'../views/GTiff/clim.he6050.bio12.tif'
p1600
sg19
S'60'
p1601
sg21
g22
(g24
S'k\x18\x00\x00\x00\x00\x00\x00'
tRp1602
sg26
S'Annual Precipitation HE RCP60 2050'
p1603
sg28
g29
sg30
S'clim'
p1604
sg32
g33
sg34
S'clim.he6050.bio12.tif'
p1605
sg36
S'clim.he6050.bio12'
p1606
sg38
g39
sg40
I4326
sg41
S'2050'
p1607
ssS'bio10'
p1608
(dp1609
g6
S'he6050.bio10'
p1610
sg8
I263
sg9
S'bio10'
p1611
sg11
S'Mean Temperature of Warmest Quarter'
p1612
sg13
S'climate'
p1613
sg15
S'he6050'
p1614
sg17
S'../views/GTiff/clim.he6050.bio10.tif'
p1615
sg19
S'60'
p1616
sg21
g22
(g24
S'e\x18\x00\x00\x00\x00\x00\x00'
tRp1617
sg26
S'Mean Temperature of Warmest Quarter HE RCP60 2050'
p1618
sg28
g29
sg30
S'clim'
p1619
sg32
g33
sg34
S'clim.he6050.bio10.tif'
p1620
sg36
S'clim.he6050.bio10'
p1621
sg38
g39
sg40
I4326
sg41
S'2050'
p1622
ssS'bio06'
p1623
(dp1624
g6
S'he6050.bio06'
p1625
sg8
I277
sg9
S'bio06'
p1626
sg11
S'Min Temperature of Coldest Month'
p1627
sg13
S'climate'
p1628
sg15
S'he6050'
p1629
sg17
S'../views/GTiff/clim.he6050.bio06.tif'
p1630
sg19
S'60'
p1631
sg21
g22
(g24
S'm\x18\x00\x00\x00\x00\x00\x00'
tRp1632
sg26
S'Min Temperature of Coldest Month HE RCP60 2050'
p1633
sg28
g29
sg30
S'clim'
p1634
sg32
g33
sg34
S'clim.he6050.bio06.tif'
p1635
sg36
S'clim.he6050.bio06'
p1636
sg38
g39
sg40
I4326
sg41
S'2050'
p1637
ssS'bio05'
p1638
(dp1639
g6
S'he6050.bio05'
p1640
sg8
I292
sg9
S'bio05'
p1641
sg11
S'Max Temperature of Warmest Month'
p1642
sg13
S'climate'
p1643
sg15
S'he6050'
p1644
sg17
S'../views/GTiff/clim.he6050.bio05.tif'
p1645
sg19
S'60'
p1646
sg21
g22
(g24
S'n\x18\x00\x00\x00\x00\x00\x00'
tRp1647
sg26
S'Max Temperature of Warmest Month HE RCP60 2050'
p1648
sg28
g29
sg30
S'clim'
p1649
sg32
g33
sg34
S'clim.he6050.bio05.tif'
p1650
sg36
S'clim.he6050.bio05'
p1651
sg38
g39
sg40
I4326
sg41
S'2050'
p1652
ssS'bio13'
p1653
(dp1654
g6
S'he6050.bio13'
p1655
sg8
I86
sg9
S'bio13'
p1656
sg11
S'Precipitation of Wettest Month'
p1657
sg13
S'climate'
p1658
sg15
S'he6050'
p1659
sg17
S'../views/GTiff/clim.he6050.bio13.tif'
p1660
sg19
S'60'
p1661
sg21
g22
(g24
S'g\x18\x00\x00\x00\x00\x00\x00'
tRp1662
sg26
S'Precipitation of Wettest Month HE RCP60 2050'
p1663
sg28
g29
sg30
S'clim'
p1664
sg32
g33
sg34
S'clim.he6050.bio13.tif'
p1665
sg36
S'clim.he6050.bio13'
p1666
sg38
g39
sg40
I4326
sg41
S'2050'
p1667
ssS'bio14'
p1668
(dp1669
g6
S'he6050.bio14'
p1670
sg8
I174
sg9
S'bio14'
p1671
sg11
S'Precipitation of Driest Month'
p1672
sg13
S'climate'
p1673
sg15
S'he6050'
p1674
sg17
S'../views/GTiff/clim.he6050.bio14.tif'
p1675
sg19
S'60'
p1676
sg21
g22
(g24
S'u\x18\x00\x00\x00\x00\x00\x00'
tRp1677
sg26
S'Precipitation of Driest Month HE RCP60 2050'
p1678
sg28
g29
sg30
S'clim'
p1679
sg32
g33
sg34
S'clim.he6050.bio14.tif'
p1680
sg36
S'clim.he6050.bio14'
p1681
sg38
g39
sg40
I4326
sg41
S'2050'
p1682
ssS'bio02'
p1683
(dp1684
g6
S'he6050.bio02'
p1685
sg8
I24
sg9
S'bio02'
p1686
sg11
S'Mean Diurnal Range (Mean of monthly (max temp - min temp))'
p1687
sg13
S'climate'
p1688
sg15
S'he6050'
p1689
sg17
S'../views/GTiff/clim.he6050.bio02.tif'
p1690
sg19
S'60'
p1691
sg21
g22
(g24
S'q\x18\x00\x00\x00\x00\x00\x00'
tRp1692
sg26
S'Mean Diurnal Range (Mean of monthly (max temp - min temp)) HE RCP60 2050'
p1693
sg28
g29
sg30
S'clim'
p1694
sg32
g33
sg34
S'clim.he6050.bio02.tif'
p1695
sg36
S'clim.he6050.bio02'
p1696
sg38
g39
sg40
I4326
sg41
S'2050'
p1697
ssS'bio16'
p1698
(dp1699
g6
S'he6050.bio16'
p1700
sg8
I74
sg9
S'bio16'
p1701
sg11
S'Precipitation of Wettest Quarter'
p1702
sg13
S'climate'
p1703
sg15
S'he6050'
p1704
sg17
S'../views/GTiff/clim.he6050.bio16.tif'
p1705
sg19
S'60'
p1706
sg21
g22
(g24
S'i\x18\x00\x00\x00\x00\x00\x00'
tRp1707
sg26
S'Precipitation of Wettest Quarter HE RCP60 2050'
p1708
sg28
g29
sg30
S'clim'
p1709
sg32
g33
sg34
S'clim.he6050.bio16.tif'
p1710
sg36
S'clim.he6050.bio16'
p1711
sg38
g39
sg40
I4326
sg41
S'2050'
p1712
ssS'bio17'
p1713
(dp1714
g6
S'he6050.bio17'
p1715
sg8
I17
sg9
S'bio17'
p1716
sg11
S'Precipitation of Driest Quarter'
p1717
sg13
S'climate'
p1718
sg15
S'he6050'
p1719
sg17
S'../views/GTiff/clim.he6050.bio17.tif'
p1720
sg19
S'60'
p1721
sg21
g22
(g24
S's\x18\x00\x00\x00\x00\x00\x00'
tRp1722
sg26
S'Precipitation of Driest Quarter HE RCP60 2050'
p1723
sg28
g29
sg30
S'clim'
p1724
sg32
g33
sg34
S'clim.he6050.bio17.tif'
p1725
sg36
S'clim.he6050.bio17'
p1726
sg38
g39
sg40
I4326
sg41
S'2050'
p1727
ssS'bio18'
p1728
(dp1729
g6
S'he6050.bio18'
p1730
sg8
I261
sg9
S'bio18'
p1731
sg11
S'Precipitation of Warmest Quarter'
p1732
sg13
S'climate'
p1733
sg15
S'he6050'
p1734
sg17
S'../views/GTiff/clim.he6050.bio18.tif'
p1735
sg19
S'60'
p1736
sg21
g22
(g24
S't\x18\x00\x00\x00\x00\x00\x00'
tRp1737
sg26
S'Precipitation of Warmest Quarter HE RCP60 2050'
p1738
sg28
g29
sg30
S'clim'
p1739
sg32
g33
sg34
S'clim.he6050.bio18.tif'
p1740
sg36
S'clim.he6050.bio18'
p1741
sg38
g39
sg40
I4326
sg41
S'2050'
p1742
ssS'bio03'
p1743
(dp1744
g6
S'he6050.bio03'
p1745
sg8
I55
sg9
S'bio03'
p1746
sg11
S'Isothermality (BIO2/BIO7) (* 100)'
p1747
sg13
S'climate'
p1748
sg15
S'he6050'
p1749
sg17
S'../views/GTiff/clim.he6050.bio03.tif'
p1750
sg19
S'60'
p1751
sg21
g22
(g24
S'p\x18\x00\x00\x00\x00\x00\x00'
tRp1752
sg26
S'Isothermality (BIO2/BIO7) (* 100) HE RCP60 2050'
p1753
sg28
g29
sg30
S'clim'
p1754
sg32
g33
sg34
S'clim.he6050.bio03.tif'
p1755
sg36
S'clim.he6050.bio03'
p1756
sg38
g39
sg40
I4326
sg41
S'2050'
p1757
ssS'bio04'
p1758
(dp1759
g6
S'he6050.bio04'
p1760
sg8
I107
sg9
S'bio04'
p1761
sg11
S'Temperature Seasonality (standard deviation *100)'
p1762
sg13
S'climate'
p1763
sg15
S'he6050'
p1764
sg17
S'../views/GTiff/clim.he6050.bio04.tif'
p1765
sg19
S'60'
p1766
sg21
g22
(g24
S'o\x18\x00\x00\x00\x00\x00\x00'
tRp1767
sg26
S'Temperature Seasonality (standard deviation *100) HE RCP60 2050'
p1768
sg28
g29
sg30
S'clim'
p1769
sg32
g33
sg34
S'clim.he6050.bio04.tif'
p1770
sg36
S'clim.he6050.bio04'
p1771
sg38
g39
sg40
I4326
sg41
S'2050'
p1772
ssS'bio08'
p1773
(dp1774
g6
S'he6050.bio08'
p1775
sg8
I190
sg9
S'bio08'
p1776
sg11
S'Mean Temperature of Wettest Quarter'
p1777
sg13
S'climate'
p1778
sg15
S'he6050'
p1779
sg17
S'../views/GTiff/clim.he6050.bio08.tif'
p1780
sg19
S'60'
p1781
sg21
g22
(g24
S'w\x18\x00\x00\x00\x00\x00\x00'
tRp1782
sg26
S'Mean Temperature of Wettest Quarter HE RCP60 2050'
p1783
sg28
g29
sg30
S'clim'
p1784
sg32
g33
sg34
S'clim.he6050.bio08.tif'
p1785
sg36
S'clim.he6050.bio08'
p1786
sg38
g39
sg40
I4326
sg41
S'2050'
p1787
sssS'gs4570'
p1788
(dp1789
S'bio07'
p1790
(dp1791
g6
S'gs4570.bio07'
p1792
sg8
I78
sg9
S'bio07'
p1793
sg11
S'Temperature Annual Range (BIO5-BIO6)'
p1794
sg13
S'climate'
p1795
sg15
S'gs4570'
p1796
sg17
S'../views/GTiff/clim.gs4570.bio07.tif'
p1797
sg19
S'45'
p1798
sg21
g22
(g24
S'\xf7\x17\x00\x00\x00\x00\x00\x00'
tRp1799
sg26
S'Temperature Annual Range (BIO5-BIO6) GS RCP45 2070'
p1800
sg28
g29
sg30
S'clim'
p1801
sg32
g33
sg34
S'clim.gs4570.bio07.tif'
p1802
sg36
S'clim.gs4570.bio07'
p1803
sg38
g39
sg40
I4326
sg41
S'2070'
p1804
ssS'bio01'
p1805
(dp1806
g6
S'gs4570.bio01'
p1807
sg8
I15
sg9
S'bio01'
p1808
sg11
S'Annual Mean Temperature'
p1809
sg13
S'climate'
p1810
sg15
S'gs4570'
p1811
sg17
S'../views/GTiff/clim.gs4570.bio01.tif'
p1812
sg19
S'45'
p1813
sg21
g22
(g24
S'\xfd\x17\x00\x00\x00\x00\x00\x00'
tRp1814
sg26
S'Annual Mean Temperature GS RCP45 2070'
p1815
sg28
g29
sg30
S'clim'
p1816
sg32
g33
sg34
S'clim.gs4570.bio01.tif'
p1817
sg36
S'clim.gs4570.bio01'
p1818
sg38
g39
sg40
I4326
sg41
S'2070'
p1819
ssS'bio06'
p1820
(dp1821
g6
S'gs4570.bio06'
p1822
sg8
I30
sg9
S'bio06'
p1823
sg11
S'Min Temperature of Coldest Month'
p1824
sg13
S'climate'
p1825
sg15
S'gs4570'
p1826
sg17
S'../views/GTiff/clim.gs4570.bio06.tif'
p1827
sg19
S'45'
p1828
sg21
g22
(g24
S'\xf8\x17\x00\x00\x00\x00\x00\x00'
tRp1829
sg26
S'Min Temperature of Coldest Month GS RCP45 2070'
p1830
sg28
g29
sg30
S'clim'
p1831
sg32
g33
sg34
S'clim.gs4570.bio06.tif'
p1832
sg36
S'clim.gs4570.bio06'
p1833
sg38
g39
sg40
I4326
sg41
S'2070'
p1834
ssS'bio12'
p1835
(dp1836
g6
S'gs4570.bio12'
p1837
sg8
I146
sg9
S'bio12'
p1838
sg11
S'Annual Precipitation'
p1839
sg13
S'climate'
p1840
sg15
S'gs4570'
p1841
sg17
S'../views/GTiff/clim.gs4570.bio12.tif'
p1842
sg19
S'45'
p1843
sg21
g22
(g24
S'\xf6\x17\x00\x00\x00\x00\x00\x00'
tRp1844
sg26
S'Annual Precipitation GS RCP45 2070'
p1845
sg28
g29
sg30
S'clim'
p1846
sg32
g33
sg34
S'clim.gs4570.bio12.tif'
p1847
sg36
S'clim.gs4570.bio12'
p1848
sg38
g39
sg40
I4326
sg41
S'2070'
p1849
ssS'bio10'
p1850
(dp1851
g6
S'gs4570.bio10'
p1852
sg8
I198
sg9
S'bio10'
p1853
sg11
S'Mean Temperature of Warmest Quarter'
p1854
sg13
S'climate'
p1855
sg15
S'gs4570'
p1856
sg17
S'../views/GTiff/clim.gs4570.bio10.tif'
p1857
sg19
S'45'
p1858
sg21
g22
(g24
S'\xf0\x17\x00\x00\x00\x00\x00\x00'
tRp1859
sg26
S'Mean Temperature of Warmest Quarter GS RCP45 2070'
p1860
sg28
g29
sg30
S'clim'
p1861
sg32
g33
sg34
S'clim.gs4570.bio10.tif'
p1862
sg36
S'clim.gs4570.bio10'
p1863
sg38
g39
sg40
I4326
sg41
S'2070'
p1864
ssS'bio11'
p1865
(dp1866
g6
S'gs4570.bio11'
p1867
sg8
I132
sg9
S'bio11'
p1868
sg11
S'Mean Temperature of Coldest Quarter'
p1869
sg13
S'climate'
p1870
sg15
S'gs4570'
p1871
sg17
S'../views/GTiff/clim.gs4570.bio11.tif'
p1872
sg19
S'45'
p1873
sg21
g22
(g24
S'\xf3\x17\x00\x00\x00\x00\x00\x00'
tRp1874
sg26
S'Mean Temperature of Coldest Quarter GS RCP45 2070'
p1875
sg28
g29
sg30
S'clim'
p1876
sg32
g33
sg34
S'clim.gs4570.bio11.tif'
p1877
sg36
S'clim.gs4570.bio11'
p1878
sg38
g39
sg40
I4326
sg41
S'2070'
p1879
ssS'bio05'
p1880
(dp1881
g6
S'gs4570.bio05'
p1882
sg8
I274
sg9
S'bio05'
p1883
sg11
S'Max Temperature of Warmest Month'
p1884
sg13
S'climate'
p1885
sg15
S'gs4570'
p1886
sg17
S'../views/GTiff/clim.gs4570.bio05.tif'
p1887
sg19
S'45'
p1888
sg21
g22
(g24
S'\xf9\x17\x00\x00\x00\x00\x00\x00'
tRp1889
sg26
S'Max Temperature of Warmest Month GS RCP45 2070'
p1890
sg28
g29
sg30
S'clim'
p1891
sg32
g33
sg34
S'clim.gs4570.bio05.tif'
p1892
sg36
S'clim.gs4570.bio05'
p1893
sg38
g39
sg40
I4326
sg41
S'2070'
p1894
ssS'bio13'
p1895
(dp1896
g6
S'gs4570.bio13'
p1897
sg8
I12
sg9
S'bio13'
p1898
sg11
S'Precipitation of Wettest Month'
p1899
sg13
S'climate'
p1900
sg15
S'gs4570'
p1901
sg17
S'../views/GTiff/clim.gs4570.bio13.tif'
p1902
sg19
S'45'
p1903
sg21
g22
(g24
S'\xf2\x17\x00\x00\x00\x00\x00\x00'
tRp1904
sg26
S'Precipitation of Wettest Month GS RCP45 2070'
p1905
sg28
g29
sg30
S'clim'
p1906
sg32
g33
sg34
S'clim.gs4570.bio13.tif'
p1907
sg36
S'clim.gs4570.bio13'
p1908
sg38
g39
sg40
I4326
sg41
S'2070'
p1909
ssS'bio14'
p1910
(dp1911
g6
S'gs4570.bio14'
p1912
sg8
I5
sg9
S'bio14'
p1913
sg11
S'Precipitation of Driest Month'
p1914
sg13
S'climate'
p1915
sg15
S'gs4570'
p1916
sg17
S'../views/GTiff/clim.gs4570.bio14.tif'
p1917
sg19
S'45'
p1918
sg21
g22
(g24
S'\x00\x18\x00\x00\x00\x00\x00\x00'
tRp1919
sg26
S'Precipitation of Driest Month GS RCP45 2070'
p1920
sg28
g29
sg30
S'clim'
p1921
sg32
g33
sg34
S'clim.gs4570.bio14.tif'
p1922
sg36
S'clim.gs4570.bio14'
p1923
sg38
g39
sg40
I4326
sg41
S'2070'
p1924
ssS'bio15'
p1925
(dp1926
g6
S'gs4570.bio15'
p1927
sg8
I187
sg9
S'bio15'
p1928
sg11
S'Precipitation Seasonality (Coefficient of Variation)'
p1929
sg13
S'climate'
p1930
sg15
S'gs4570'
p1931
sg17
S'../views/GTiff/clim.gs4570.bio15.tif'
p1932
sg19
S'45'
p1933
sg21
g22
(g24
S'\xf5\x17\x00\x00\x00\x00\x00\x00'
tRp1934
sg26
S'Precipitation Seasonality (Coefficient of Variation) GS RCP45 2070'
p1935
sg28
g29
sg30
S'clim'
p1936
sg32
g33
sg34
S'clim.gs4570.bio15.tif'
p1937
sg36
S'clim.gs4570.bio15'
p1938
sg38
g39
sg40
I4326
sg41
S'2070'
p1939
ssS'bio16'
p1940
(dp1941
g6
S'gs4570.bio16'
p1942
sg8
I143
sg9
S'bio16'
p1943
sg11
S'Precipitation of Wettest Quarter'
p1944
sg13
S'climate'
p1945
sg15
S'gs4570'
p1946
sg17
S'../views/GTiff/clim.gs4570.bio16.tif'
p1947
sg19
S'45'
p1948
sg21
g22
(g24
S'\xf4\x17\x00\x00\x00\x00\x00\x00'
tRp1949
sg26
S'Precipitation of Wettest Quarter GS RCP45 2070'
p1950
sg28
g29
sg30
S'clim'
p1951
sg32
g33
sg34
S'clim.gs4570.bio16.tif'
p1952
sg36
S'clim.gs4570.bio16'
p1953
sg38
g39
sg40
I4326
sg41
S'2070'
p1954
ssS'bio17'
p1955
(dp1956
g6
S'gs4570.bio17'
p1957
sg8
I281
sg9
S'bio17'
p1958
sg11
S'Precipitation of Driest Quarter'
p1959
sg13
S'climate'
p1960
sg15
S'gs4570'
p1961
sg17
S'../views/GTiff/clim.gs4570.bio17.tif'
p1962
sg19
S'45'
p1963
sg21
g22
(g24
S'\xfe\x17\x00\x00\x00\x00\x00\x00'
tRp1964
sg26
S'Precipitation of Driest Quarter GS RCP45 2070'
p1965
sg28
g29
sg30
S'clim'
p1966
sg32
g33
sg34
S'clim.gs4570.bio17.tif'
p1967
sg36
S'clim.gs4570.bio17'
p1968
sg38
g39
sg40
I4326
sg41
S'2070'
p1969
ssS'bio18'
p1970
(dp1971
g6
S'gs4570.bio18'
p1972
sg8
I83
sg9
S'bio18'
p1973
sg11
S'Precipitation of Warmest Quarter'
p1974
sg13
S'climate'
p1975
sg15
S'gs4570'
p1976
sg17
S'../views/GTiff/clim.gs4570.bio18.tif'
p1977
sg19
S'45'
p1978
sg21
g22
(g24
S'\xff\x17\x00\x00\x00\x00\x00\x00'
tRp1979
sg26
S'Precipitation of Warmest Quarter GS RCP45 2070'
p1980
sg28
g29
sg30
S'clim'
p1981
sg32
g33
sg34
S'clim.gs4570.bio18.tif'
p1982
sg36
S'clim.gs4570.bio18'
p1983
sg38
g39
sg40
I4326
sg41
S'2070'
p1984
ssS'bio19'
p1985
(dp1986
g6
S'gs4570.bio19'
p1987
sg8
I3
sg9
S'bio19'
p1988
sg11
S'Precipitation of Coldest Quarter'
p1989
sg13
S'climate'
p1990
sg15
g1788
sg17
S'../views/GTiff/clim.gs4570.bio19.tif'
p1991
sg19
S'45'
p1992
sg21
g22
(g24
S'\xf1\x17\x00\x00\x00\x00\x00\x00'
tRp1993
sg26
S'Precipitation of Coldest Quarter GS RCP45 2070'
p1994
sg28
g29
sg30
S'clim'
p1995
sg32
g33
sg34
S'clim.gs4570.bio19.tif'
p1996
sg36
S'clim.gs4570.bio19'
p1997
sg38
g39
sg40
I4326
sg41
S'2070'
p1998
ssS'bio04'
p1999
(dp2000
g6
S'gs4570.bio04'
p2001
sg8
I57
sg9
S'bio04'
p2002
sg11
S'Temperature Seasonality (standard deviation *100)'
p2003
sg13
S'climate'
p2004
sg15
S'gs4570'
p2005
sg17
S'../views/GTiff/clim.gs4570.bio04.tif'
p2006
sg19
S'45'
p2007
sg21
g22
(g24
S'\xfa\x17\x00\x00\x00\x00\x00\x00'
tRp2008
sg26
S'Temperature Seasonality (standard deviation *100) GS RCP45 2070'
p2009
sg28
g29
sg30
S'clim'
p2010
sg32
g33
sg34
S'clim.gs4570.bio04.tif'
p2011
sg36
S'clim.gs4570.bio04'
p2012
sg38
g39
sg40
I4326
sg41
S'2070'
p2013
ssS'bio08'
p2014
(dp2015
g6
S'gs4570.bio08'
p2016
sg8
I37
sg9
S'bio08'
p2017
sg11
S'Mean Temperature of Wettest Quarter'
p2018
sg13
S'climate'
p2019
sg15
S'gs4570'
p2020
sg17
S'../views/GTiff/clim.gs4570.bio08.tif'
p2021
sg19
S'45'
p2022
sg21
g22
(g24
S'\x02\x18\x00\x00\x00\x00\x00\x00'
tRp2023
sg26
S'Mean Temperature of Wettest Quarter GS RCP45 2070'
p2024
sg28
g29
sg30
S'clim'
p2025
sg32
g33
sg34
S'clim.gs4570.bio08.tif'
p2026
sg36
S'clim.gs4570.bio08'
p2027
sg38
g39
sg40
I4326
sg41
S'2070'
p2028
ssS'bio03'
p2029
(dp2030
g6
S'gs4570.bio03'
p2031
sg8
I295
sg9
S'bio03'
p2032
sg11
S'Isothermality (BIO2/BIO7) (* 100)'
p2033
sg13
S'climate'
p2034
sg15
S'gs4570'
p2035
sg17
S'../views/GTiff/clim.gs4570.bio03.tif'
p2036
sg19
S'45'
p2037
sg21
g22
(g24
S'\xfb\x17\x00\x00\x00\x00\x00\x00'
tRp2038
sg26
S'Isothermality (BIO2/BIO7) (* 100) GS RCP45 2070'
p2039
sg28
g29
sg30
S'clim'
p2040
sg32
g33
sg34
S'clim.gs4570.bio03.tif'
p2041
sg36
S'clim.gs4570.bio03'
p2042
sg38
g39
sg40
I4326
sg41
S'2070'
p2043
ssS'bio09'
p2044
(dp2045
g6
S'gs4570.bio09'
p2046
sg8
I242
sg9
S'bio09'
p2047
sg11
S'Mean Temperature of Driest Quarter'
p2048
sg13
S'climate'
p2049
sg15
S'gs4570'
p2050
sg17
S'../views/GTiff/clim.gs4570.bio09.tif'
p2051
sg19
S'45'
p2052
sg21
g22
(g24
S'\x01\x18\x00\x00\x00\x00\x00\x00'
tRp2053
sg26
S'Mean Temperature of Driest Quarter GS RCP45 2070'
p2054
sg28
g29
sg30
S'clim'
p2055
sg32
g33
sg34
S'clim.gs4570.bio09.tif'
p2056
sg36
S'clim.gs4570.bio09'
p2057
sg38
g39
sg40
I4326
sg41
S'2070'
p2058
ssS'bio02'
p2059
(dp2060
g6
S'gs4570.bio02'
p2061
sg8
I215
sg9
S'bio02'
p2062
sg11
S'Mean Diurnal Range (Mean of monthly (max temp - min temp))'
p2063
sg13
S'climate'
p2064
sg15
S'gs4570'
p2065
sg17
S'../views/GTiff/clim.gs4570.bio02.tif'
p2066
sg19
S'45'
p2067
sg21
g22
(g24
S'\xfc\x17\x00\x00\x00\x00\x00\x00'
tRp2068
sg26
S'Mean Diurnal Range (Mean of monthly (max temp - min temp)) GS RCP45 2070'
p2069
sg28
g29
sg30
S'clim'
p2070
sg32
g33
sg34
S'clim.gs4570.bio02.tif'
p2071
sg36
S'clim.gs4570.bio02'
p2072
sg38
g39
sg40
I4326
sg41
S'2070'
p2073
sssS'ac4570'
p2074
(dp2075
S'bio07'
p2076
(dp2077
g6
S'ac4570.bio07'
p2078
sg8
I51
sg9
S'bio07'
p2079
sg11
S'Temperature Annual Range (BIO5-BIO6)'
p2080
sg13
S'climate'
p2081
sg15
S'ac4570'
p2082
sg17
S'../views/GTiff/clim.ac4570.bio07.tif'
p2083
sg19
S'45'
p2084
sg21
g22
(g24
S'\x92\x18\x00\x00\x00\x00\x00\x00'
tRp2085
sg26
S'Temperature Annual Range (BIO5-BIO6) AC RCP45 2070'
p2086
sg28
g29
sg30
S'clim'
p2087
sg32
g33
sg34
S'clim.ac4570.bio07.tif'
p2088
sg36
S'clim.ac4570.bio07'
p2089
sg38
g39
sg40
I4326
sg41
S'2070'
p2090
ssS'bio13'
p2091
(dp2092
g6
S'ac4570.bio13'
p2093
sg8
I60
sg9
S'bio13'
p2094
sg11
S'Precipitation of Wettest Month'
p2095
sg13
S'climate'
p2096
sg15
S'ac4570'
p2097
sg17
S'../views/GTiff/clim.ac4570.bio13.tif'
p2098
sg19
S'45'
p2099
sg21
g22
(g24
S'\x8d\x18\x00\x00\x00\x00\x00\x00'
tRp2100
sg26
S'Precipitation of Wettest Month AC RCP45 2070'
p2101
sg28
g29
sg30
S'clim'
p2102
sg32
g33
sg34
S'clim.ac4570.bio13.tif'
p2103
sg36
S'clim.ac4570.bio13'
p2104
sg38
g39
sg40
I4326
sg41
S'2070'
p2105
ssS'bio18'
p2106
(dp2107
g6
S'ac4570.bio18'
p2108
sg8
I19
sg9
S'bio18'
p2109
sg11
S'Precipitation of Warmest Quarter'
p2110
sg13
S'climate'
p2111
sg15
g2074
sg17
S'../views/GTiff/clim.ac4570.bio18.tif'
p2112
sg19
S'45'
p2113
sg21
g22
(g24
S'\x9a\x18\x00\x00\x00\x00\x00\x00'
tRp2114
sg26
S'Precipitation of Warmest Quarter AC RCP45 2070'
p2115
sg28
g29
sg30
S'clim'
p2116
sg32
g33
sg34
S'clim.ac4570.bio18.tif'
p2117
sg36
S'clim.ac4570.bio18'
p2118
sg38
g39
sg40
I4326
sg41
S'2070'
p2119
ssS'bio11'
p2120
(dp2121
g6
S'ac4570.bio11'
p2122
sg8
I38
sg9
S'bio11'
p2123
sg11
S'Mean Temperature of Coldest Quarter'
p2124
sg13
S'climate'
p2125
sg15
S'ac4570'
p2126
sg17
S'../views/GTiff/clim.ac4570.bio11.tif'
p2127
sg19
S'45'
p2128
sg21
g22
(g24
S'\x8e\x18\x00\x00\x00\x00\x00\x00'
tRp2129
sg26
S'Mean Temperature of Coldest Quarter AC RCP45 2070'
p2130
sg28
g29
sg30
S'clim'
p2131
sg32
g33
sg34
S'clim.ac4570.bio11.tif'
p2132
sg36
S'clim.ac4570.bio11'
p2133
sg38
g39
sg40
I4326
sg41
S'2070'
p2134
ssS'bio12'
p2135
(dp2136
g6
S'ac4570.bio12'
p2137
sg8
I28
sg9
S'bio12'
p2138
sg11
S'Annual Precipitation'
p2139
sg13
S'climate'
p2140
sg15
S'ac4570'
p2141
sg17
S'../views/GTiff/clim.ac4570.bio12.tif'
p2142
sg19
S'45'
p2143
sg21
g22
(g24
S'\x91\x18\x00\x00\x00\x00\x00\x00'
tRp2144
sg26
S'Annual Precipitation AC RCP45 2070'
p2145
sg28
g29
sg30
S'clim'
p2146
sg32
g33
sg34
S'clim.ac4570.bio12.tif'
p2147
sg36
S'clim.ac4570.bio12'
p2148
sg38
g39
sg40
I4326
sg41
S'2070'
p2149
ssS'bio10'
p2150
(dp2151
g6
S'ac4570.bio10'
p2152
sg8
I193
sg9
S'bio10'
p2153
sg11
S'Mean Temperature of Warmest Quarter'
p2154
sg13
S'climate'
p2155
sg15
S'ac4570'
p2156
sg17
S'../views/GTiff/clim.ac4570.bio10.tif'
p2157
sg19
S'45'
p2158
sg21
g22
(g24
S'\x8b\x18\x00\x00\x00\x00\x00\x00'
tRp2159
sg26
S'Mean Temperature of Warmest Quarter AC RCP45 2070'
p2160
sg28
g29
sg30
S'clim'
p2161
sg32
g33
sg34
S'clim.ac4570.bio10.tif'
p2162
sg36
S'clim.ac4570.bio10'
p2163
sg38
g39
sg40
I4326
sg41
S'2070'
p2164
ssS'bio06'
p2165
(dp2166
g6
S'ac4570.bio06'
p2167
sg8
I209
sg9
S'bio06'
p2168
sg11
S'Min Temperature of Coldest Month'
p2169
sg13
S'climate'
p2170
sg15
S'ac4570'
p2171
sg17
S'../views/GTiff/clim.ac4570.bio06.tif'
p2172
sg19
S'45'
p2173
sg21
g22
(g24
S'\x93\x18\x00\x00\x00\x00\x00\x00'
tRp2174
sg26
S'Min Temperature of Coldest Month AC RCP45 2070'
p2175
sg28
g29
sg30
S'clim'
p2176
sg32
g33
sg34
S'clim.ac4570.bio06.tif'
p2177
sg36
S'clim.ac4570.bio06'
p2178
sg38
g39
sg40
I4326
sg41
S'2070'
p2179
ssS'bio05'
p2180
(dp2181
g6
S'ac4570.bio05'
p2182
sg8
I54
sg9
S'bio05'
p2183
sg11
S'Max Temperature of Warmest Month'
p2184
sg13
S'climate'
p2185
sg15
S'ac4570'
p2186
sg17
S'../views/GTiff/clim.ac4570.bio05.tif'
p2187
sg19
S'45'
p2188
sg21
g22
(g24
S'\x94\x18\x00\x00\x00\x00\x00\x00'
tRp2189
sg26
S'Max Temperature of Warmest Month AC RCP45 2070'
p2190
sg28
g29
sg30
S'clim'
p2191
sg32
g33
sg34
S'clim.ac4570.bio05.tif'
p2192
sg36
S'clim.ac4570.bio05'
p2193
sg38
g39
sg40
I4326
sg41
S'2070'
p2194
ssS'bio04'
p2195
(dp2196
g6
S'ac4570.bio04'
p2197
sg8
I282
sg9
S'bio04'
p2198
sg11
S'Temperature Seasonality (standard deviation *100)'
p2199
sg13
S'climate'
p2200
sg15
S'ac4570'
p2201
sg17
S'../views/GTiff/clim.ac4570.bio04.tif'
p2202
sg19
S'45'
p2203
sg21
g22
(g24
S'\x95\x18\x00\x00\x00\x00\x00\x00'
tRp2204
sg26
S'Temperature Seasonality (standard deviation *100) AC RCP45 2070'
p2205
sg28
g29
sg30
S'clim'
p2206
sg32
g33
sg34
S'clim.ac4570.bio04.tif'
p2207
sg36
S'clim.ac4570.bio04'
p2208
sg38
g39
sg40
I4326
sg41
S'2070'
p2209
ssS'bio14'
p2210
(dp2211
g6
S'ac4570.bio14'
p2212
sg8
I238
sg9
S'bio14'
p2213
sg11
S'Precipitation of Driest Month'
p2214
sg13
S'climate'
p2215
sg15
S'ac4570'
p2216
sg17
S'../views/GTiff/clim.ac4570.bio14.tif'
p2217
sg19
S'45'
p2218
sg21
g22
(g24
S'\x9b\x18\x00\x00\x00\x00\x00\x00'
tRp2219
sg26
S'Precipitation of Driest Month AC RCP45 2070'
p2220
sg28
g29
sg30
S'clim'
p2221
sg32
g33
sg34
S'clim.ac4570.bio14.tif'
p2222
sg36
S'clim.ac4570.bio14'
p2223
sg38
g39
sg40
I4326
sg41
S'2070'
p2224
ssS'bio15'
p2225
(dp2226
g6
S'ac4570.bio15'
p2227
sg8
I80
sg9
S'bio15'
p2228
sg11
S'Precipitation Seasonality (Coefficient of Variation)'
p2229
sg13
S'climate'
p2230
sg15
S'ac4570'
p2231
sg17
S'../views/GTiff/clim.ac4570.bio15.tif'
p2232
sg19
S'45'
p2233
sg21
g22
(g24
S'\x90\x18\x00\x00\x00\x00\x00\x00'
tRp2234
sg26
S'Precipitation Seasonality (Coefficient of Variation) AC RCP45 2070'
p2235
sg28
g29
sg30
S'clim'
p2236
sg32
g33
sg34
S'clim.ac4570.bio15.tif'
p2237
sg36
S'clim.ac4570.bio15'
p2238
sg38
g39
sg40
I4326
sg41
S'2070'
p2239
ssS'bio16'
p2240
(dp2241
g6
S'ac4570.bio16'
p2242
sg8
I284
sg9
S'bio16'
p2243
sg11
S'Precipitation of Wettest Quarter'
p2244
sg13
S'climate'
p2245
sg15
S'ac4570'
p2246
sg17
S'../views/GTiff/clim.ac4570.bio16.tif'
p2247
sg19
S'45'
p2248
sg21
g22
(g24
S'\x8f\x18\x00\x00\x00\x00\x00\x00'
tRp2249
sg26
S'Precipitation of Wettest Quarter AC RCP45 2070'
p2250
sg28
g29
sg30
S'clim'
p2251
sg32
g33
sg34
S'clim.ac4570.bio16.tif'
p2252
sg36
S'clim.ac4570.bio16'
p2253
sg38
g39
sg40
I4326
sg41
S'2070'
p2254
ssS'bio17'
p2255
(dp2256
g6
S'ac4570.bio17'
p2257
sg8
I82
sg9
S'bio17'
p2258
sg11
S'Precipitation of Driest Quarter'
p2259
sg13
S'climate'
p2260
sg15
S'ac4570'
p2261
sg17
S'../views/GTiff/clim.ac4570.bio17.tif'
p2262
sg19
S'45'
p2263
sg21
g22
(g24
S'\x99\x18\x00\x00\x00\x00\x00\x00'
tRp2264
sg26
S'Precipitation of Driest Quarter AC RCP45 2070'
p2265
sg28
g29
sg30
S'clim'
p2266
sg32
g33
sg34
S'clim.ac4570.bio17.tif'
p2267
sg36
S'clim.ac4570.bio17'
p2268
sg38
g39
sg40
I4326
sg41
S'2070'
p2269
ssS'bio01'
p2270
(dp2271
g6
S'ac4570.bio01'
p2272
sg8
I161
sg9
S'bio01'
p2273
sg11
S'Annual Mean Temperature'
p2274
sg13
S'climate'
p2275
sg15
S'ac4570'
p2276
sg17
S'../views/GTiff/clim.ac4570.bio01.tif'
p2277
sg19
S'45'
p2278
sg21
g22
(g24
S'\x98\x18\x00\x00\x00\x00\x00\x00'
tRp2279
sg26
S'Annual Mean Temperature AC RCP45 2070'
p2280
sg28
g29
sg30
S'clim'
p2281
sg32
g33
sg34
S'clim.ac4570.bio01.tif'
p2282
sg36
S'clim.ac4570.bio01'
p2283
sg38
g39
sg40
I4326
sg41
S'2070'
p2284
ssS'bio19'
p2285
(dp2286
g6
S'ac4570.bio19'
p2287
sg8
I128
sg9
S'bio19'
p2288
sg11
S'Precipitation of Coldest Quarter'
p2289
sg13
S'climate'
p2290
sg15
S'ac4570'
p2291
sg17
S'../views/GTiff/clim.ac4570.bio19.tif'
p2292
sg19
S'45'
p2293
sg21
g22
(g24
S'\x8c\x18\x00\x00\x00\x00\x00\x00'
tRp2294
sg26
S'Precipitation of Coldest Quarter AC RCP45 2070'
p2295
sg28
g29
sg30
S'clim'
p2296
sg32
g33
sg34
S'clim.ac4570.bio19.tif'
p2297
sg36
S'clim.ac4570.bio19'
p2298
sg38
g39
sg40
I4326
sg41
S'2070'
p2299
ssS'bio08'
p2300
(dp2301
g6
S'ac4570.bio08'
p2302
sg8
I154
sg9
S'bio08'
p2303
sg11
S'Mean Temperature of Wettest Quarter'
p2304
sg13
S'climate'
p2305
sg15
S'ac4570'
p2306
sg17
S'../views/GTiff/clim.ac4570.bio08.tif'
p2307
sg19
S'45'
p2308
sg21
g22
(g24
S'\x9d\x18\x00\x00\x00\x00\x00\x00'
tRp2309
sg26
S'Mean Temperature of Wettest Quarter AC RCP45 2070'
p2310
sg28
g29
sg30
S'clim'
p2311
sg32
g33
sg34
S'clim.ac4570.bio08.tif'
p2312
sg36
S'clim.ac4570.bio08'
p2313
sg38
g39
sg40
I4326
sg41
S'2070'
p2314
ssS'bio03'
p2315
(dp2316
g6
S'ac4570.bio03'
p2317
sg8
I268
sg9
S'bio03'
p2318
sg11
S'Isothermality (BIO2/BIO7) (* 100)'
p2319
sg13
S'climate'
p2320
sg15
S'ac4570'
p2321
sg17
S'../views/GTiff/clim.ac4570.bio03.tif'
p2322
sg19
S'45'
p2323
sg21
g22
(g24
S'\x96\x18\x00\x00\x00\x00\x00\x00'
tRp2324
sg26
S'Isothermality (BIO2/BIO7) (* 100) AC RCP45 2070'
p2325
sg28
g29
sg30
S'clim'
p2326
sg32
g33
sg34
S'clim.ac4570.bio03.tif'
p2327
sg36
S'clim.ac4570.bio03'
p2328
sg38
g39
sg40
I4326
sg41
S'2070'
p2329
ssS'bio09'
p2330
(dp2331
g6
S'ac4570.bio09'
p2332
sg8
I126
sg9
S'bio09'
p2333
sg11
S'Mean Temperature of Driest Quarter'
p2334
sg13
S'climate'
p2335
sg15
S'ac4570'
p2336
sg17
S'../views/GTiff/clim.ac4570.bio09.tif'
p2337
sg19
S'45'
p2338
sg21
g22
(g24
S'\x9c\x18\x00\x00\x00\x00\x00\x00'
tRp2339
sg26
S'Mean Temperature of Driest Quarter AC RCP45 2070'
p2340
sg28
g29
sg30
S'clim'
p2341
sg32
g33
sg34
S'clim.ac4570.bio09.tif'
p2342
sg36
S'clim.ac4570.bio09'
p2343
sg38
g39
sg40
I4326
sg41
S'2070'
p2344
ssS'bio02'
p2345
(dp2346
g6
S'ac4570.bio02'
p2347
sg8
I249
sg9
S'bio02'
p2348
sg11
S'Mean Diurnal Range (Mean of monthly (max temp - min temp))'
p2349
sg13
S'climate'
p2350
sg15
S'ac4570'
p2351
sg17
S'../views/GTiff/clim.ac4570.bio02.tif'
p2352
sg19
S'45'
p2353
sg21
g22
(g24
S'\x97\x18\x00\x00\x00\x00\x00\x00'
tRp2354
sg26
S'Mean Diurnal Range (Mean of monthly (max temp - min temp)) AC RCP45 2070'
p2355
sg28
g29
sg30
S'clim'
p2356
sg32
g33
sg34
S'clim.ac4570.bio02.tif'
p2357
sg36
S'clim.ac4570.bio02'
p2358
sg38
g39
sg40
I4326
sg41
S'2070'
p2359
sssS'gmted2010'
p2360
(dp2361
S'elev_mean'
p2362
(dp2363
g6
S'gmted2010.elev_mean'
p2364
sg8
I280
sg9
S'elev_mean'
p2365
sg11
S'USGS GMTED2010 Mean Elevation'
p2366
sg13
S'environmental'
p2367
sg15
g2360
sg17
S'../views/GTiff/env.gmted2010.elev_mean.tif'
p2368
sg19
S'current'
p2369
sg21
g22
(g24
S'\xc9\x18\x00\x00\x00\x00\x00\x00'
tRp2370
sg26
S'USGS GMTED2010 Mean Elevation'
p2371
sg28
g29
sg30
S'env'
p2372
sg32
g33
sg34
S'env.gmted2010.elev_mean.tif'
p2373
sg36
S'env.gmted2010.elev_mean'
p2374
sg38
g39
sg40
I4326
sg41
S'current'
p2375
sssS'he4550'
p2376
(dp2377
S'bio10'
p2378
(dp2379
g6
S'he4550.bio10'
p2380
sg8
I67
sg9
S'bio10'
p2381
sg11
S'Mean Temperature of Warmest Quarter'
p2382
sg13
S'climate'
p2383
sg15
S'he4550'
p2384
sg17
S'../views/GTiff/clim.he4550.bio10.tif'
p2385
sg19
S'45'
p2386
sg21
g22
(g24
S'\xb1\x18\x00\x00\x00\x00\x00\x00'
tRp2387
sg26
S'Mean Temperature of Warmest Quarter HE RCP45 2050'
p2388
sg28
g29
sg30
S'clim'
p2389
sg32
g33
sg34
S'clim.he4550.bio10.tif'
p2390
sg36
S'clim.he4550.bio10'
p2391
sg38
g39
sg40
I4326
sg41
S'2050'
p2392
ssS'bio01'
p2393
(dp2394
g6
S'he4550.bio01'
p2395
sg8
I133
sg9
S'bio01'
p2396
sg11
S'Annual Mean Temperature'
p2397
sg13
S'climate'
p2398
sg15
S'he4550'
p2399
sg17
S'../views/GTiff/clim.he4550.bio01.tif'
p2400
sg19
S'45'
p2401
sg21
g22
(g24
S'\xea\x18\x00\x00\x00\x00\x00\x00'
tRp2402
sg26
S'Annual Mean Temperature HE RCP45 2050'
p2403
sg28
g29
sg30
S'clim'
p2404
sg32
g33
sg34
S'clim.he4550.bio01.tif'
p2405
sg36
S'clim.he4550.bio01'
p2406
sg38
g39
sg40
I4326
sg41
S'2050'
p2407
ssS'bio11'
p2408
(dp2409
g6
S'he4550.bio11'
p2410
sg8
I21
sg9
S'bio11'
p2411
sg11
S'Mean Temperature of Coldest Quarter'
p2412
sg13
S'climate'
p2413
sg15
S'he4550'
p2414
sg17
S'../views/GTiff/clim.he4550.bio11.tif'
p2415
sg19
S'45'
p2416
sg21
g22
(g24
S'\xb4\x18\x00\x00\x00\x00\x00\x00'
tRp2417
sg26
S'Mean Temperature of Coldest Quarter HE RCP45 2050'
p2418
sg28
g29
sg30
S'clim'
p2419
sg32
g33
sg34
S'clim.he4550.bio11.tif'
p2420
sg36
S'clim.he4550.bio11'
p2421
sg38
g39
sg40
I4326
sg41
S'2050'
p2422
ssS'bio09'
p2423
(dp2424
g6
S'he4550.bio09'
p2425
sg8
I173
sg9
S'bio09'
p2426
sg11
S'Mean Temperature of Driest Quarter'
p2427
sg13
S'climate'
p2428
sg15
S'he4550'
p2429
sg17
S'../views/GTiff/clim.he4550.bio09.tif'
p2430
sg19
S'45'
p2431
sg21
g22
(g24
S'\xfb\x18\x00\x00\x00\x00\x00\x00'
tRp2432
sg26
S'Mean Temperature of Driest Quarter HE RCP45 2050'
p2433
sg28
g29
sg30
S'clim'
p2434
sg32
g33
sg34
S'clim.he4550.bio09.tif'
p2435
sg36
S'clim.he4550.bio09'
p2436
sg38
g39
sg40
I4326
sg41
S'2050'
p2437
ssS'bio05'
p2438
(dp2439
g6
S'he4550.bio05'
p2440
sg8
I182
sg9
S'bio05'
p2441
sg11
S'Max Temperature of Warmest Month'
p2442
sg13
S'climate'
p2443
sg15
S'he4550'
p2444
sg17
S'../views/GTiff/clim.he4550.bio05.tif'
p2445
sg19
S'45'
p2446
sg21
g22
(g24
S'\xf3\x18\x00\x00\x00\x00\x00\x00'
tRp2447
sg26
S'Max Temperature of Warmest Month HE RCP45 2050'
p2448
sg28
g29
sg30
S'clim'
p2449
sg32
g33
sg34
S'clim.he4550.bio05.tif'
p2450
sg36
S'clim.he4550.bio05'
p2451
sg38
g39
sg40
I4326
sg41
S'2050'
p2452
ssS'bio07'
p2453
(dp2454
g6
S'he4550.bio07'
p2455
sg8
I166
sg9
S'bio07'
p2456
sg11
S'Temperature Annual Range (BIO5-BIO6)'
p2457
sg13
S'climate'
p2458
sg15
S'he4550'
p2459
sg17
S'../views/GTiff/clim.he4550.bio07.tif'
p2460
sg19
S'45'
p2461
sg21
g22
(g24
S'\xf4\x18\x00\x00\x00\x00\x00\x00'
tRp2462
sg26
S'Temperature Annual Range (BIO5-BIO6) HE RCP45 2050'
p2463
sg28
g29
sg30
S'clim'
p2464
sg32
g33
sg34
S'clim.he4550.bio07.tif'
p2465
sg36
S'clim.he4550.bio07'
p2466
sg38
g39
sg40
I4326
sg41
S'2050'
p2467
ssS'bio06'
p2468
(dp2469
g6
S'he4550.bio06'
p2470
sg8
I231
sg9
S'bio06'
p2471
sg11
S'Min Temperature of Coldest Month'
p2472
sg13
S'climate'
p2473
sg15
S'he4550'
p2474
sg17
S'../views/GTiff/clim.he4550.bio06.tif'
p2475
sg19
S'45'
p2476
sg21
g22
(g24
S'\xf5\x18\x00\x00\x00\x00\x00\x00'
tRp2477
sg26
S'Min Temperature of Coldest Month HE RCP45 2050'
p2478
sg28
g29
sg30
S'clim'
p2479
sg32
g33
sg34
S'clim.he4550.bio06.tif'
p2480
sg36
S'clim.he4550.bio06'
p2481
sg38
g39
sg40
I4326
sg41
S'2050'
p2482
ssS'bio12'
p2483
(dp2484
g6
S'he4550.bio12'
p2485
sg8
I244
sg9
S'bio12'
p2486
sg11
S'Annual Precipitation'
p2487
sg13
S'climate'
p2488
sg15
S'he4550'
p2489
sg17
S'../views/GTiff/clim.he4550.bio12.tif'
p2490
sg19
S'45'
p2491
sg21
g22
(g24
S'\xf6\x18\x00\x00\x00\x00\x00\x00'
tRp2492
sg26
S'Annual Precipitation HE RCP45 2050'
p2493
sg28
g29
sg30
S'clim'
p2494
sg32
g33
sg34
S'clim.he4550.bio12.tif'
p2495
sg36
S'clim.he4550.bio12'
p2496
sg38
g39
sg40
I4326
sg41
S'2050'
p2497
ssS'bio13'
p2498
(dp2499
g6
S'he4550.bio13'
p2500
sg8
I243
sg9
S'bio13'
p2501
sg11
S'Precipitation of Wettest Month'
p2502
sg13
S'climate'
p2503
sg15
S'he4550'
p2504
sg17
S'../views/GTiff/clim.he4550.bio13.tif'
p2505
sg19
S'45'
p2506
sg21
g22
(g24
S'\xb3\x18\x00\x00\x00\x00\x00\x00'
tRp2507
sg26
S'Precipitation of Wettest Month HE RCP45 2050'
p2508
sg28
g29
sg30
S'clim'
p2509
sg32
g33
sg34
S'clim.he4550.bio13.tif'
p2510
sg36
S'clim.he4550.bio13'
p2511
sg38
g39
sg40
I4326
sg41
S'2050'
p2512
ssS'bio14'
p2513
(dp2514
g6
S'he4550.bio14'
p2515
sg8
I106
sg9
S'bio14'
p2516
sg11
S'Precipitation of Driest Month'
p2517
sg13
S'climate'
p2518
sg15
S'he4550'
p2519
sg17
S'../views/GTiff/clim.he4550.bio14.tif'
p2520
sg19
S'45'
p2521
sg21
g22
(g24
S'\xf7\x18\x00\x00\x00\x00\x00\x00'
tRp2522
sg26
S'Precipitation of Driest Month HE RCP45 2050'
p2523
sg28
g29
sg30
S'clim'
p2524
sg32
g33
sg34
S'clim.he4550.bio14.tif'
p2525
sg36
S'clim.he4550.bio14'
p2526
sg38
g39
sg40
I4326
sg41
S'2050'
p2527
ssS'bio15'
p2528
(dp2529
g6
S'he4550.bio15'
p2530
sg8
I211
sg9
S'bio15'
p2531
sg11
S'Precipitation Seasonality (Coefficient of Variation)'
p2532
sg13
S'climate'
p2533
sg15
S'he4550'
p2534
sg17
S'../views/GTiff/clim.he4550.bio15.tif'
p2535
sg19
S'45'
p2536
sg21
g22
(g24
S'\xf8\x18\x00\x00\x00\x00\x00\x00'
tRp2537
sg26
S'Precipitation Seasonality (Coefficient of Variation) HE RCP45 2050'
p2538
sg28
g29
sg30
S'clim'
p2539
sg32
g33
sg34
S'clim.he4550.bio15.tif'
p2540
sg36
S'clim.he4550.bio15'
p2541
sg38
g39
sg40
I4326
sg41
S'2050'
p2542
ssS'bio16'
p2543
(dp2544
g6
S'he4550.bio16'
p2545
sg8
I255
sg9
S'bio16'
p2546
sg11
S'Precipitation of Wettest Quarter'
p2547
sg13
S'climate'
p2548
sg15
S'he4550'
p2549
sg17
S'../views/GTiff/clim.he4550.bio16.tif'
p2550
sg19
S'45'
p2551
sg21
g22
(g24
S'\xb5\x18\x00\x00\x00\x00\x00\x00'
tRp2552
sg26
S'Precipitation of Wettest Quarter HE RCP45 2050'
p2553
sg28
g29
sg30
S'clim'
p2554
sg32
g33
sg34
S'clim.he4550.bio16.tif'
p2555
sg36
S'clim.he4550.bio16'
p2556
sg38
g39
sg40
I4326
sg41
S'2050'
p2557
ssS'bio17'
p2558
(dp2559
g6
S'he4550.bio17'
p2560
sg8
I115
sg9
S'bio17'
p2561
sg11
S'Precipitation of Driest Quarter'
p2562
sg13
S'climate'
p2563
sg15
S'he4550'
p2564
sg17
S'../views/GTiff/clim.he4550.bio17.tif'
p2565
sg19
S'45'
p2566
sg21
g22
(g24
S'\xf9\x18\x00\x00\x00\x00\x00\x00'
tRp2567
sg26
S'Precipitation of Driest Quarter HE RCP45 2050'
p2568
sg28
g29
sg30
S'clim'
p2569
sg32
g33
sg34
S'clim.he4550.bio17.tif'
p2570
sg36
S'clim.he4550.bio17'
p2571
sg38
g39
sg40
I4326
sg41
S'2050'
p2572
ssS'bio18'
p2573
(dp2574
g6
S'he4550.bio18'
p2575
sg8
I201
sg9
S'bio18'
p2576
sg11
S'Precipitation of Warmest Quarter'
p2577
sg13
S'climate'
p2578
sg15
S'he4550'
p2579
sg17
S'../views/GTiff/clim.he4550.bio18.tif'
p2580
sg19
S'45'
p2581
sg21
g22
(g24
S'\xfa\x18\x00\x00\x00\x00\x00\x00'
tRp2582
sg26
S'Precipitation of Warmest Quarter HE RCP45 2050'
p2583
sg28
g29
sg30
S'clim'
p2584
sg32
g33
sg34
S'clim.he4550.bio18.tif'
p2585
sg36
S'clim.he4550.bio18'
p2586
sg38
g39
sg40
I4326
sg41
S'2050'
p2587
ssS'bio19'
p2588
(dp2589
g6
S'he4550.bio19'
p2590
sg8
I164
sg9
S'bio19'
p2591
sg11
S'Precipitation of Coldest Quarter'
p2592
sg13
S'climate'
p2593
sg15
S'he4550'
p2594
sg17
S'../views/GTiff/clim.he4550.bio19.tif'
p2595
sg19
S'45'
p2596
sg21
g22
(g24
S'\xb2\x18\x00\x00\x00\x00\x00\x00'
tRp2597
sg26
S'Precipitation of Coldest Quarter HE RCP45 2050'
p2598
sg28
g29
sg30
S'clim'
p2599
sg32
g33
sg34
S'clim.he4550.bio19.tif'
p2600
sg36
S'clim.he4550.bio19'
p2601
sg38
g39
sg40
I4326
sg41
S'2050'
p2602
ssS'bio08'
p2603
(dp2604
g6
S'he4550.bio08'
p2605
sg8
I29
sg9
S'bio08'
p2606
sg11
S'Mean Temperature of Wettest Quarter'
p2607
sg13
S'climate'
p2608
sg15
S'he4550'
p2609
sg17
S'../views/GTiff/clim.he4550.bio08.tif'
p2610
sg19
S'45'
p2611
sg21
g22
(g24
S'\xfc\x18\x00\x00\x00\x00\x00\x00'
tRp2612
sg26
S'Mean Temperature of Wettest Quarter HE RCP45 2050'
p2613
sg28
g29
sg30
S'clim'
p2614
sg32
g33
sg34
S'clim.he4550.bio08.tif'
p2615
sg36
S'clim.he4550.bio08'
p2616
sg38
g39
sg40
I4326
sg41
S'2050'
p2617
ssS'bio03'
p2618
(dp2619
g6
S'he4550.bio03'
p2620
sg8
I168
sg9
S'bio03'
p2621
sg11
S'Isothermality (BIO2/BIO7) (* 100)'
p2622
sg13
S'climate'
p2623
sg15
S'he4550'
p2624
sg17
S'../views/GTiff/clim.he4550.bio03.tif'
p2625
sg19
S'45'
p2626
sg21
g22
(g24
S'\xe8\x18\x00\x00\x00\x00\x00\x00'
tRp2627
sg26
S'Isothermality (BIO2/BIO7) (* 100) HE RCP45 2050'
p2628
sg28
g29
sg30
S'clim'
p2629
sg32
g33
sg34
S'clim.he4550.bio03.tif'
p2630
sg36
S'clim.he4550.bio03'
p2631
sg38
g39
sg40
I4326
sg41
S'2050'
p2632
ssS'bio04'
p2633
(dp2634
g6
S'he4550.bio04'
p2635
sg8
I7
sg9
S'bio04'
p2636
sg11
S'Temperature Seasonality (standard deviation *100)'
p2637
sg13
S'climate'
p2638
sg15
g2376
sg17
S'../views/GTiff/clim.he4550.bio04.tif'
p2639
sg19
S'45'
p2640
sg21
g22
(g24
S'\xe7\x18\x00\x00\x00\x00\x00\x00'
tRp2641
sg26
S'Temperature Seasonality (standard deviation *100) HE RCP45 2050'
p2642
sg28
g29
sg30
S'clim'
p2643
sg32
g33
sg34
S'clim.he4550.bio04.tif'
p2644
sg36
S'clim.he4550.bio04'
p2645
sg38
g39
sg40
I4326
sg41
S'2050'
p2646
ssS'bio02'
p2647
(dp2648
g6
S'he4550.bio02'
p2649
sg8
I259
sg9
S'bio02'
p2650
sg11
S'Mean Diurnal Range (Mean of monthly (max temp - min temp))'
p2651
sg13
S'climate'
p2652
sg15
S'he4550'
p2653
sg17
S'../views/GTiff/clim.he4550.bio02.tif'
p2654
sg19
S'45'
p2655
sg21
g22
(g24
S'\xe9\x18\x00\x00\x00\x00\x00\x00'
tRp2656
sg26
S'Mean Diurnal Range (Mean of monthly (max temp - min temp)) HE RCP45 2050'
p2657
sg28
g29
sg30
S'clim'
p2658
sg32
g33
sg34
S'clim.he4550.bio02.tif'
p2659
sg36
S'clim.he4550.bio02'
p2660
sg38
g39
sg40
I4326
sg41
S'2050'
p2661
sssS'gs4550'
p2662
(dp2663
S'bio10'
p2664
(dp2665
g6
S'gs4550.bio10'
p2666
sg8
I232
sg9
S'bio10'
p2667
sg11
S'Mean Temperature of Warmest Quarter'
p2668
sg13
S'climate'
p2669
sg15
S'gs4550'
p2670
sg17
S'../views/GTiff/clim.gs4550.bio10.tif'
p2671
sg19
S'45'
p2672
sg21
g22
(g24
S'\x00\x19\x00\x00\x00\x00\x00\x00'
tRp2673
sg26
S'Mean Temperature of Warmest Quarter GS RCP45 2050'
p2674
sg28
g29
sg30
S'clim'
p2675
sg32
g33
sg34
S'clim.gs4550.bio10.tif'
p2676
sg36
S'clim.gs4550.bio10'
p2677
sg38
g39
sg40
I4326
sg41
S'2050'
p2678
ssS'bio19'
p2679
(dp2680
g6
S'gs4550.bio19'
p2681
sg8
I135
sg9
S'bio19'
p2682
sg11
S'Precipitation of Coldest Quarter'
p2683
sg13
S'climate'
p2684
sg15
S'gs4550'
p2685
sg17
S'../views/GTiff/clim.gs4550.bio19.tif'
p2686
sg19
S'45'
p2687
sg21
g22
(g24
S'\t\x19\x00\x00\x00\x00\x00\x00'
tRp2688
sg26
S'Precipitation of Coldest Quarter GS RCP45 2050'
p2689
sg28
g29
sg30
S'clim'
p2690
sg32
g33
sg34
S'clim.gs4550.bio19.tif'
p2691
sg36
S'clim.gs4550.bio19'
p2692
sg38
g39
sg40
I4326
sg41
S'2050'
p2693
ssS'bio01'
p2694
(dp2695
g6
S'gs4550.bio01'
p2696
sg8
I75
sg9
S'bio01'
p2697
sg11
S'Annual Mean Temperature'
p2698
sg13
S'climate'
p2699
sg15
S'gs4550'
p2700
sg17
S'../views/GTiff/clim.gs4550.bio01.tif'
p2701
sg19
S'45'
p2702
sg21
g22
(g24
S'\xee\x18\x00\x00\x00\x00\x00\x00'
tRp2703
sg26
S'Annual Mean Temperature GS RCP45 2050'
p2704
sg28
g29
sg30
S'clim'
p2705
sg32
g33
sg34
S'clim.gs4550.bio01.tif'
p2706
sg36
S'clim.gs4550.bio01'
p2707
sg38
g39
sg40
I4326
sg41
S'2050'
p2708
ssS'bio06'
p2709
(dp2710
g6
S'gs4550.bio06'
p2711
sg8
I62
sg9
S'bio06'
p2712
sg11
S'Min Temperature of Coldest Month'
p2713
sg13
S'climate'
p2714
sg15
S'gs4550'
p2715
sg17
S'../views/GTiff/clim.gs4550.bio06.tif'
p2716
sg19
S'45'
p2717
sg21
g22
(g24
S'\x01\x19\x00\x00\x00\x00\x00\x00'
tRp2718
sg26
S'Min Temperature of Coldest Month GS RCP45 2050'
p2719
sg28
g29
sg30
S'clim'
p2720
sg32
g33
sg34
S'clim.gs4550.bio06.tif'
p2721
sg36
S'clim.gs4550.bio06'
p2722
sg38
g39
sg40
I4326
sg41
S'2050'
p2723
ssS'bio09'
p2724
(dp2725
g6
S'gs4550.bio09'
p2726
sg8
I235
sg9
S'bio09'
p2727
sg11
S'Mean Temperature of Driest Quarter'
p2728
sg13
S'climate'
p2729
sg15
S'gs4550'
p2730
sg17
S'../views/GTiff/clim.gs4550.bio09.tif'
p2731
sg19
S'45'
p2732
sg21
g22
(g24
S'\n\x19\x00\x00\x00\x00\x00\x00'
tRp2733
sg26
S'Mean Temperature of Driest Quarter GS RCP45 2050'
p2734
sg28
g29
sg30
S'clim'
p2735
sg32
g33
sg34
S'clim.gs4550.bio09.tif'
p2736
sg36
S'clim.gs4550.bio09'
p2737
sg38
g39
sg40
I4326
sg41
S'2050'
p2738
ssS'bio12'
p2739
(dp2740
g6
S'gs4550.bio12'
p2741
sg8
I257
sg9
S'bio12'
p2742
sg11
S'Annual Precipitation'
p2743
sg13
S'climate'
p2744
sg15
S'gs4550'
p2745
sg17
S'../views/GTiff/clim.gs4550.bio12.tif'
p2746
sg19
S'45'
p2747
sg21
g22
(g24
S'\x02\x19\x00\x00\x00\x00\x00\x00'
tRp2748
sg26
S'Annual Precipitation GS RCP45 2050'
p2749
sg28
g29
sg30
S'clim'
p2750
sg32
g33
sg34
S'clim.gs4550.bio12.tif'
p2751
sg36
S'clim.gs4550.bio12'
p2752
sg38
g39
sg40
I4326
sg41
S'2050'
p2753
ssS'bio07'
p2754
(dp2755
g6
S'gs4550.bio07'
p2756
sg8
I142
sg9
S'bio07'
p2757
sg11
S'Temperature Annual Range (BIO5-BIO6)'
p2758
sg13
S'climate'
p2759
sg15
S'gs4550'
p2760
sg17
S'../views/GTiff/clim.gs4550.bio07.tif'
p2761
sg19
S'45'
p2762
sg21
g22
(g24
S'\xfd\x18\x00\x00\x00\x00\x00\x00'
tRp2763
sg26
S'Temperature Annual Range (BIO5-BIO6) GS RCP45 2050'
p2764
sg28
g29
sg30
S'clim'
p2765
sg32
g33
sg34
S'clim.gs4550.bio07.tif'
p2766
sg36
S'clim.gs4550.bio07'
p2767
sg38
g39
sg40
I4326
sg41
S'2050'
p2768
ssS'bio11'
p2769
(dp2770
g6
S'gs4550.bio11'
p2771
sg8
I210
sg9
S'bio11'
p2772
sg11
S'Mean Temperature of Coldest Quarter'
p2773
sg13
S'climate'
p2774
sg15
S'gs4550'
p2775
sg17
S'../views/GTiff/clim.gs4550.bio11.tif'
p2776
sg19
S'45'
p2777
sg21
g22
(g24
S'\xfe\x18\x00\x00\x00\x00\x00\x00'
tRp2778
sg26
S'Mean Temperature of Coldest Quarter GS RCP45 2050'
p2779
sg28
g29
sg30
S'clim'
p2780
sg32
g33
sg34
S'clim.gs4550.bio11.tif'
p2781
sg36
S'clim.gs4550.bio11'
p2782
sg38
g39
sg40
I4326
sg41
S'2050'
p2783
ssS'bio05'
p2784
(dp2785
g6
S'gs4550.bio05'
p2786
sg8
I266
sg9
S'bio05'
p2787
sg11
S'Max Temperature of Warmest Month'
p2788
sg13
S'climate'
p2789
sg15
S'gs4550'
p2790
sg17
S'../views/GTiff/clim.gs4550.bio05.tif'
p2791
sg19
S'45'
p2792
sg21
g22
(g24
S'\xff\x18\x00\x00\x00\x00\x00\x00'
tRp2793
sg26
S'Max Temperature of Warmest Month GS RCP45 2050'
p2794
sg28
g29
sg30
S'clim'
p2795
sg32
g33
sg34
S'clim.gs4550.bio05.tif'
p2796
sg36
S'clim.gs4550.bio05'
p2797
sg38
g39
sg40
I4326
sg41
S'2050'
p2798
ssS'bio13'
p2799
(dp2800
g6
S'gs4550.bio13'
p2801
sg8
I140
sg9
S'bio13'
p2802
sg11
S'Precipitation of Wettest Month'
p2803
sg13
S'climate'
p2804
sg15
S'gs4550'
p2805
sg17
S'../views/GTiff/clim.gs4550.bio13.tif'
p2806
sg19
S'45'
p2807
sg21
g22
(g24
S'\x03\x19\x00\x00\x00\x00\x00\x00'
tRp2808
sg26
S'Precipitation of Wettest Month GS RCP45 2050'
p2809
sg28
g29
sg30
S'clim'
p2810
sg32
g33
sg34
S'clim.gs4550.bio13.tif'
p2811
sg36
S'clim.gs4550.bio13'
p2812
sg38
g39
sg40
I4326
sg41
S'2050'
p2813
ssS'bio14'
p2814
(dp2815
g6
S'gs4550.bio14'
p2816
sg8
I253
sg9
S'bio14'
p2817
sg11
S'Precipitation of Driest Month'
p2818
sg13
S'climate'
p2819
sg15
S'gs4550'
p2820
sg17
S'../views/GTiff/clim.gs4550.bio14.tif'
p2821
sg19
S'45'
p2822
sg21
g22
(g24
S'\x04\x19\x00\x00\x00\x00\x00\x00'
tRp2823
sg26
S'Precipitation of Driest Month GS RCP45 2050'
p2824
sg28
g29
sg30
S'clim'
p2825
sg32
g33
sg34
S'clim.gs4550.bio14.tif'
p2826
sg36
S'clim.gs4550.bio14'
p2827
sg38
g39
sg40
I4326
sg41
S'2050'
p2828
ssS'bio15'
p2829
(dp2830
g6
S'gs4550.bio15'
p2831
sg8
I84
sg9
S'bio15'
p2832
sg11
S'Precipitation Seasonality (Coefficient of Variation)'
p2833
sg13
S'climate'
p2834
sg15
S'gs4550'
p2835
sg17
S'../views/GTiff/clim.gs4550.bio15.tif'
p2836
sg19
S'45'
p2837
sg21
g22
(g24
S'\x05\x19\x00\x00\x00\x00\x00\x00'
tRp2838
sg26
S'Precipitation Seasonality (Coefficient of Variation) GS RCP45 2050'
p2839
sg28
g29
sg30
S'clim'
p2840
sg32
g33
sg34
S'clim.gs4550.bio15.tif'
p2841
sg36
S'clim.gs4550.bio15'
p2842
sg38
g39
sg40
I4326
sg41
S'2050'
p2843
ssS'bio16'
p2844
(dp2845
g6
S'gs4550.bio16'
p2846
sg8
I72
sg9
S'bio16'
p2847
sg11
S'Precipitation of Wettest Quarter'
p2848
sg13
S'climate'
p2849
sg15
S'gs4550'
p2850
sg17
S'../views/GTiff/clim.gs4550.bio16.tif'
p2851
sg19
S'45'
p2852
sg21
g22
(g24
S'\x06\x19\x00\x00\x00\x00\x00\x00'
tRp2853
sg26
S'Precipitation of Wettest Quarter GS RCP45 2050'
p2854
sg28
g29
sg30
S'clim'
p2855
sg32
g33
sg34
S'clim.gs4550.bio16.tif'
p2856
sg36
S'clim.gs4550.bio16'
p2857
sg38
g39
sg40
I4326
sg41
S'2050'
p2858
ssS'bio17'
p2859
(dp2860
g6
S'gs4550.bio17'
p2861
sg8
I90
sg9
S'bio17'
p2862
sg11
S'Precipitation of Driest Quarter'
p2863
sg13
S'climate'
p2864
sg15
S'gs4550'
p2865
sg17
S'../views/GTiff/clim.gs4550.bio17.tif'
p2866
sg19
S'45'
p2867
sg21
g22
(g24
S'\x07\x19\x00\x00\x00\x00\x00\x00'
tRp2868
sg26
S'Precipitation of Driest Quarter GS RCP45 2050'
p2869
sg28
g29
sg30
S'clim'
p2870
sg32
g33
sg34
S'clim.gs4550.bio17.tif'
p2871
sg36
S'clim.gs4550.bio17'
p2872
sg38
g39
sg40
I4326
sg41
S'2050'
p2873
ssS'bio18'
p2874
(dp2875
g6
S'gs4550.bio18'
p2876
sg8
I8
sg9
S'bio18'
p2877
sg11
S'Precipitation of Warmest Quarter'
p2878
sg13
S'climate'
p2879
sg15
g2662
sg17
S'../views/GTiff/clim.gs4550.bio18.tif'
p2880
sg19
S'45'
p2881
sg21
g22
(g24
S'\x08\x19\x00\x00\x00\x00\x00\x00'
tRp2882
sg26
S'Precipitation of Warmest Quarter GS RCP45 2050'
p2883
sg28
g29
sg30
S'clim'
p2884
sg32
g33
sg34
S'clim.gs4550.bio18.tif'
p2885
sg36
S'clim.gs4550.bio18'
p2886
sg38
g39
sg40
I4326
sg41
S'2050'
p2887
ssS'bio03'
p2888
(dp2889
g6
S'gs4550.bio03'
p2890
sg8
I196
sg9
S'bio03'
p2891
sg11
S'Isothermality (BIO2/BIO7) (* 100)'
p2892
sg13
S'climate'
p2893
sg15
S'gs4550'
p2894
sg17
S'../views/GTiff/clim.gs4550.bio03.tif'
p2895
sg19
S'45'
p2896
sg21
g22
(g24
S'\xec\x18\x00\x00\x00\x00\x00\x00'
tRp2897
sg26
S'Isothermality (BIO2/BIO7) (* 100) GS RCP45 2050'
p2898
sg28
g29
sg30
S'clim'
p2899
sg32
g33
sg34
S'clim.gs4550.bio03.tif'
p2900
sg36
S'clim.gs4550.bio03'
p2901
sg38
g39
sg40
I4326
sg41
S'2050'
p2902
ssS'bio08'
p2903
(dp2904
g6
S'gs4550.bio08'
p2905
sg8
I27
sg9
S'bio08'
p2906
sg11
S'Mean Temperature of Wettest Quarter'
p2907
sg13
S'climate'
p2908
sg15
S'gs4550'
p2909
sg17
S'../views/GTiff/clim.gs4550.bio08.tif'
p2910
sg19
S'45'
p2911
sg21
g22
(g24
S'\x0b\x19\x00\x00\x00\x00\x00\x00'
tRp2912
sg26
S'Mean Temperature of Wettest Quarter GS RCP45 2050'
p2913
sg28
g29
sg30
S'clim'
p2914
sg32
g33
sg34
S'clim.gs4550.bio08.tif'
p2915
sg36
S'clim.gs4550.bio08'
p2916
sg38
g39
sg40
I4326
sg41
S'2050'
p2917
ssS'bio04'
p2918
(dp2919
g6
S'gs4550.bio04'
p2920
sg8
I117
sg9
S'bio04'
p2921
sg11
S'Temperature Seasonality (standard deviation *100)'
p2922
sg13
S'climate'
p2923
sg15
S'gs4550'
p2924
sg17
S'../views/GTiff/clim.gs4550.bio04.tif'
p2925
sg19
S'45'
p2926
sg21
g22
(g24
S'\xeb\x18\x00\x00\x00\x00\x00\x00'
tRp2927
sg26
S'Temperature Seasonality (standard deviation *100) GS RCP45 2050'
p2928
sg28
g29
sg30
S'clim'
p2929
sg32
g33
sg34
S'clim.gs4550.bio04.tif'
p2930
sg36
S'clim.gs4550.bio04'
p2931
sg38
g39
sg40
I4326
sg41
S'2050'
p2932
ssS'bio02'
p2933
(dp2934
g6
S'gs4550.bio02'
p2935
sg8
I22
sg9
S'bio02'
p2936
sg11
S'Mean Diurnal Range (Mean of monthly (max temp - min temp))'
p2937
sg13
S'climate'
p2938
sg15
S'gs4550'
p2939
sg17
S'../views/GTiff/clim.gs4550.bio02.tif'
p2940
sg19
S'45'
p2941
sg21
g22
(g24
S'\xed\x18\x00\x00\x00\x00\x00\x00'
tRp2942
sg26
S'Mean Diurnal Range (Mean of monthly (max temp - min temp)) GS RCP45 2050'
p2943
sg28
g29
sg30
S'clim'
p2944
sg32
g33
sg34
S'clim.gs4550.bio02.tif'
p2945
sg36
S'clim.gs4550.bio02'
p2946
sg38
g39
sg40
I4326
sg41
S'2050'
p2947
sssS'current'
p2948
(dp2949
S'bio10'
p2950
(dp2951
g6
S'current.bio10'
p2952
sg8
I218
sg9
S'bio10'
p2953
sg11
S'Mean Temperature of Warmest Quarter'
p2954
sg13
S'climate'
p2955
sg15
S'current'
p2956
sg17
S'../views/GTiff/clim.current.bio10.tif'
p2957
sg19
S'current'
p2958
sg21
g22
(g24
S'x\x18\x00\x00\x00\x00\x00\x00'
tRp2959
sg26
S'Mean Temperature of Warmest Quarter Current Climate 1960-2000'
p2960
sg28
g29
sg30
S'clim'
p2961
sg32
g33
sg34
S'clim.current.bio10.tif'
p2962
sg36
S'clim.current.bio10'
p2963
sg38
g39
sg40
I4326
sg41
S'current'
p2964
ssS'bio16'
p2965
(dp2966
g6
S'current.bio16'
p2967
sg8
I169
sg9
S'bio16'
p2968
sg11
S'Precipitation of Wettest Quarter'
p2969
sg13
S'climate'
p2970
sg15
S'current'
p2971
sg17
S'../views/GTiff/clim.current.bio16.tif'
p2972
sg19
S'current'
p2973
sg21
g22
(g24
S'|\x18\x00\x00\x00\x00\x00\x00'
tRp2974
sg26
S'Precipitation of Wettest Quarter Current Climate 1960-2000'
p2975
sg28
g29
sg30
S'clim'
p2976
sg32
g33
sg34
S'clim.current.bio16.tif'
p2977
sg36
S'clim.current.bio16'
p2978
sg38
g39
sg40
I4326
sg41
S'current'
p2979
ssS'bio06'
p2980
(dp2981
g6
S'current.bio06'
p2982
sg8
I13
sg9
S'bio06'
p2983
sg11
S'Min Temperature of Coldest Month'
p2984
sg13
S'climate'
p2985
sg15
g2948
sg17
S'../views/GTiff/clim.current.bio06.tif'
p2986
sg19
S'current'
p2987
sg21
g22
(g24
S'\x80\x18\x00\x00\x00\x00\x00\x00'
tRp2988
sg26
S'Min Temperature of Coldest Month Current Climate 1960-2000'
p2989
sg28
g29
sg30
S'clim'
p2990
sg32
g33
sg34
S'clim.current.bio06.tif'
p2991
sg36
S'clim.current.bio06'
p2992
sg38
g39
sg40
I4326
sg41
S'current'
p2993
ssS'bio09'
p2994
(dp2995
g6
S'current.bio09'
p2996
sg8
I171
sg9
S'bio09'
p2997
sg11
S'Mean Temperature of Driest Quarter'
p2998
sg13
S'climate'
p2999
sg15
S'current'
p3000
sg17
S'../views/GTiff/clim.current.bio09.tif'
p3001
sg19
S'current'
p3002
sg21
g22
(g24
S'\x89\x18\x00\x00\x00\x00\x00\x00'
tRp3003
sg26
S'Mean Temperature of Driest Quarter Current Climate 1960-2000'
p3004
sg28
g29
sg30
S'clim'
p3005
sg32
g33
sg34
S'clim.current.bio09.tif'
p3006
sg36
S'clim.current.bio09'
p3007
sg38
g39
sg40
I4326
sg41
S'current'
p3008
ssS'bio05'
p3009
(dp3010
g6
S'current.bio05'
p3011
sg8
I120
sg9
S'bio05'
p3012
sg11
S'Max Temperature of Warmest Month'
p3013
sg13
S'climate'
p3014
sg15
S'current'
p3015
sg17
S'../views/GTiff/clim.current.bio05.tif'
p3016
sg19
S'current'
p3017
sg21
g22
(g24
S'\x81\x18\x00\x00\x00\x00\x00\x00'
tRp3018
sg26
S'Max Temperature of Warmest Month Current Climate 1960-2000'
p3019
sg28
g29
sg30
S'clim'
p3020
sg32
g33
sg34
S'clim.current.bio05.tif'
p3021
sg36
S'clim.current.bio05'
p3022
sg38
g39
sg40
I4326
sg41
S'current'
p3023
ssS'bio14'
p3024
(dp3025
g6
S'current.bio14'
p3026
sg8
I213
sg9
S'bio14'
p3027
sg11
S'Precipitation of Driest Month'
p3028
sg13
S'climate'
p3029
sg15
S'current'
p3030
sg17
S'../views/GTiff/clim.current.bio14.tif'
p3031
sg19
S'current'
p3032
sg21
g22
(g24
S'\x88\x18\x00\x00\x00\x00\x00\x00'
tRp3033
sg26
S'Precipitation of Driest Month Current Climate 1960-2000'
p3034
sg28
g29
sg30
S'clim'
p3035
sg32
g33
sg34
S'clim.current.bio14.tif'
p3036
sg36
S'clim.current.bio14'
p3037
sg38
g39
sg40
I4326
sg41
S'current'
p3038
ssS'bio07'
p3039
(dp3040
g6
S'current.bio07'
p3041
sg8
I236
sg9
S'bio07'
p3042
sg11
S'Temperature Annual Range (BIO5-BIO6)'
p3043
sg13
S'climate'
p3044
sg15
S'current'
p3045
sg17
S'../views/GTiff/clim.current.bio07.tif'
p3046
sg19
S'current'
p3047
sg21
g22
(g24
S'\x7f\x18\x00\x00\x00\x00\x00\x00'
tRp3048
sg26
S'Temperature Annual Range (BIO5-BIO6) Current Climate 1960-2000'
p3049
sg28
g29
sg30
S'clim'
p3050
sg32
g33
sg34
S'clim.current.bio07.tif'
p3051
sg36
S'clim.current.bio07'
p3052
sg38
g39
sg40
I4326
sg41
S'current'
p3053
ssS'bio11'
p3054
(dp3055
g6
S'current.bio11'
p3056
sg8
I122
sg9
S'bio11'
p3057
sg11
S'Mean Temperature of Coldest Quarter'
p3058
sg13
S'climate'
p3059
sg15
S'current'
p3060
sg17
S'../views/GTiff/clim.current.bio11.tif'
p3061
sg19
S'current'
p3062
sg21
g22
(g24
S'{\x18\x00\x00\x00\x00\x00\x00'
tRp3063
sg26
S'Mean Temperature of Coldest Quarter Current Climate 1960-2000'
p3064
sg28
g29
sg30
S'clim'
p3065
sg32
g33
sg34
S'clim.current.bio11.tif'
p3066
sg36
S'clim.current.bio11'
p3067
sg38
g39
sg40
I4326
sg41
S'current'
p3068
ssS'bio12'
p3069
(dp3070
g6
S'current.bio12'
p3071
sg8
I283
sg9
S'bio12'
p3072
sg11
S'Annual Precipitation'
p3073
sg13
S'climate'
p3074
sg15
S'current'
p3075
sg17
S'../views/GTiff/clim.current.bio12.tif'
p3076
sg19
S'current'
p3077
sg21
g22
(g24
S'~\x18\x00\x00\x00\x00\x00\x00'
tRp3078
sg26
S'Annual Precipitation Current Climate 1960-2000'
p3079
sg28
g29
sg30
S'clim'
p3080
sg32
g33
sg34
S'clim.current.bio12.tif'
p3081
sg36
S'clim.current.bio12'
p3082
sg38
g39
sg40
I4326
sg41
S'current'
p3083
ssS'bio13'
p3084
(dp3085
g6
S'current.bio13'
p3086
sg8
I228
sg9
S'bio13'
p3087
sg11
S'Precipitation of Wettest Month'
p3088
sg13
S'climate'
p3089
sg15
S'current'
p3090
sg17
S'../views/GTiff/clim.current.bio13.tif'
p3091
sg19
S'current'
p3092
sg21
g22
(g24
S'z\x18\x00\x00\x00\x00\x00\x00'
tRp3093
sg26
S'Precipitation of Wettest Month Current Climate 1960-2000'
p3094
sg28
g29
sg30
S'clim'
p3095
sg32
g33
sg34
S'clim.current.bio13.tif'
p3096
sg36
S'clim.current.bio13'
p3097
sg38
g39
sg40
I4326
sg41
S'current'
p3098
ssS'bio03'
p3099
(dp3100
g6
S'current.bio03'
p3101
sg8
I50
sg9
S'bio03'
p3102
sg11
S'Isothermality (BIO2/BIO7) (* 100)'
p3103
sg13
S'climate'
p3104
sg15
S'current'
p3105
sg17
S'../views/GTiff/clim.current.bio03.tif'
p3106
sg19
S'current'
p3107
sg21
g22
(g24
S'\x83\x18\x00\x00\x00\x00\x00\x00'
tRp3108
sg26
S'Isothermality (BIO2/BIO7) (* 100) Current Climate 1960-2000'
p3109
sg28
g29
sg30
S'clim'
p3110
sg32
g33
sg34
S'clim.current.bio03.tif'
p3111
sg36
S'clim.current.bio03'
p3112
sg38
g39
sg40
I4326
sg41
S'current'
p3113
ssS'bio15'
p3114
(dp3115
g6
S'current.bio15'
p3116
sg8
I153
sg9
S'bio15'
p3117
sg11
S'Precipitation Seasonality (Coefficient of Variation)'
p3118
sg13
S'climate'
p3119
sg15
S'current'
p3120
sg17
S'../views/GTiff/clim.current.bio15.tif'
p3121
sg19
S'current'
p3122
sg21
g22
(g24
S'}\x18\x00\x00\x00\x00\x00\x00'
tRp3123
sg26
S'Precipitation Seasonality (Coefficient of Variation) Current Climate 1960-2000'
p3124
sg28
g29
sg30
S'clim'
p3125
sg32
g33
sg34
S'clim.current.bio15.tif'
p3126
sg36
S'clim.current.bio15'
p3127
sg38
g39
sg40
I4326
sg41
S'current'
p3128
ssS'bio01'
p3129
(dp3130
g6
S'current.bio01'
p3131
sg8
I192
sg9
S'bio01'
p3132
sg11
S'Annual Mean Temperature'
p3133
sg13
S'climate'
p3134
sg15
S'current'
p3135
sg17
S'../views/GTiff/clim.current.bio01.tif'
p3136
sg19
S'current'
p3137
sg21
g22
(g24
S'\x85\x18\x00\x00\x00\x00\x00\x00'
tRp3138
sg26
S'Annual Mean Temperature Current Climate 1960-2000'
p3139
sg28
g29
sg30
S'clim'
p3140
sg32
g33
sg34
S'clim.current.bio01.tif'
p3141
sg36
S'clim.current.bio01'
p3142
sg38
g39
sg40
I4326
sg41
S'current'
p3143
ssS'bio17'
p3144
(dp3145
g6
S'current.bio17'
p3146
sg8
I286
sg9
S'bio17'
p3147
sg11
S'Precipitation of Driest Quarter'
p3148
sg13
S'climate'
p3149
sg15
S'current'
p3150
sg17
S'../views/GTiff/clim.current.bio17.tif'
p3151
sg19
S'current'
p3152
sg21
g22
(g24
S'\x86\x18\x00\x00\x00\x00\x00\x00'
tRp3153
sg26
S'Precipitation of Driest Quarter Current Climate 1960-2000'
p3154
sg28
g29
sg30
S'clim'
p3155
sg32
g33
sg34
S'clim.current.bio17.tif'
p3156
sg36
S'clim.current.bio17'
p3157
sg38
g39
sg40
I4326
sg41
S'current'
p3158
ssS'bio18'
p3159
(dp3160
g6
S'current.bio18'
p3161
sg8
I237
sg9
S'bio18'
p3162
sg11
S'Precipitation of Warmest Quarter'
p3163
sg13
S'climate'
p3164
sg15
S'current'
p3165
sg17
S'../views/GTiff/clim.current.bio18.tif'
p3166
sg19
S'current'
p3167
sg21
g22
(g24
S'\x87\x18\x00\x00\x00\x00\x00\x00'
tRp3168
sg26
S'Precipitation of Warmest Quarter Current Climate 1960-2000'
p3169
sg28
g29
sg30
S'clim'
p3170
sg32
g33
sg34
S'clim.current.bio18.tif'
p3171
sg36
S'clim.current.bio18'
p3172
sg38
g39
sg40
I4326
sg41
S'current'
p3173
ssS'bio19'
p3174
(dp3175
g6
S'current.bio19'
p3176
sg8
I245
sg9
S'bio19'
p3177
sg11
S'Precipitation of Coldest Quarter'
p3178
sg13
S'climate'
p3179
sg15
S'current'
p3180
sg17
S'../views/GTiff/clim.current.bio19.tif'
p3181
sg19
S'current'
p3182
sg21
g22
(g24
S'y\x18\x00\x00\x00\x00\x00\x00'
tRp3183
sg26
S'Precipitation of Coldest Quarter Current Climate 1960-2000'
p3184
sg28
g29
sg30
S'clim'
p3185
sg32
g33
sg34
S'clim.current.bio19.tif'
p3186
sg36
S'clim.current.bio19'
p3187
sg38
g39
sg40
I4326
sg41
S'current'
p3188
ssS'bio08'
p3189
(dp3190
g6
S'current.bio08'
p3191
sg8
I35
sg9
S'bio08'
p3192
sg11
S'Mean Temperature of Wettest Quarter'
p3193
sg13
S'climate'
p3194
sg15
S'current'
p3195
sg17
S'../views/GTiff/clim.current.bio08.tif'
p3196
sg19
S'current'
p3197
sg21
g22
(g24
S'\x8a\x18\x00\x00\x00\x00\x00\x00'
tRp3198
sg26
S'Mean Temperature of Wettest Quarter Current Climate 1960-2000'
p3199
sg28
g29
sg30
S'clim'
p3200
sg32
g33
sg34
S'clim.current.bio08.tif'
p3201
sg36
S'clim.current.bio08'
p3202
sg38
g39
sg40
I4326
sg41
S'current'
p3203
ssS'bio04'
p3204
(dp3205
g6
S'current.bio04'
p3206
sg8
I252
sg9
S'bio04'
p3207
sg11
S'Temperature Seasonality (standard deviation *100)'
p3208
sg13
S'climate'
p3209
sg15
S'current'
p3210
sg17
S'../views/GTiff/clim.current.bio04.tif'
p3211
sg19
S'current'
p3212
sg21
g22
(g24
S'\x82\x18\x00\x00\x00\x00\x00\x00'
tRp3213
sg26
S'Temperature Seasonality (standard deviation *100) Current Climate 1960-2000'
p3214
sg28
g29
sg30
S'clim'
p3215
sg32
g33
sg34
S'clim.current.bio04.tif'
p3216
sg36
S'clim.current.bio04'
p3217
sg38
g39
sg40
I4326
sg41
S'current'
p3218
ssS'bio02'
p3219
(dp3220
g6
S'current.bio02'
p3221
sg8
I112
sg9
S'bio02'
p3222
sg11
S'Mean Diurnal Range (Mean of monthly (max temp - min temp))'
p3223
sg13
S'climate'
p3224
sg15
S'current'
p3225
sg17
S'../views/GTiff/clim.current.bio02.tif'
p3226
sg19
S'current'
p3227
sg21
g22
(g24
S'\x84\x18\x00\x00\x00\x00\x00\x00'
tRp3228
sg26
S'Mean Diurnal Range (Mean of monthly (max temp - min temp)) Current Climate 1960-2000'
p3229
sg28
g29
sg30
S'clim'
p3230
sg32
g33
sg34
S'clim.current.bio02.tif'
p3231
sg36
S'clim.current.bio02'
p3232
sg38
g39
sg40
I4326
sg41
S'current'
p3233
sssS'gd4570'
p3234
(dp3235
S'bio07'
p3236
(dp3237
g6
S'gd4570.bio07'
p3238
sg8
I45
sg9
S'bio07'
p3239
sg11
S'Temperature Annual Range (BIO5-BIO6)'
p3240
sg13
S'climate'
p3241
sg15
S'gd4570'
p3242
sg17
S'../views/GTiff/clim.gd4570.bio07.tif'
p3243
sg19
S'45'
p3244
sg21
g22
(g24
S'\xa5\x18\x00\x00\x00\x00\x00\x00'
tRp3245
sg26
S'Temperature Annual Range (BIO5-BIO6) GD RCP45 2070'
p3246
sg28
g29
sg30
S'clim'
p3247
sg32
g33
sg34
S'clim.gd4570.bio07.tif'
p3248
sg36
S'clim.gd4570.bio07'
p3249
sg38
g39
sg40
I4326
sg41
S'2070'
p3250
ssS'bio16'
p3251
(dp3252
g6
S'gd4570.bio16'
p3253
sg8
I162
sg9
S'bio16'
p3254
sg11
S'Precipitation of Wettest Quarter'
p3255
sg13
S'climate'
p3256
sg15
S'gd4570'
p3257
sg17
S'../views/GTiff/clim.gd4570.bio16.tif'
p3258
sg19
S'45'
p3259
sg21
g22
(g24
S'\xa2\x18\x00\x00\x00\x00\x00\x00'
tRp3260
sg26
S'Precipitation of Wettest Quarter GD RCP45 2070'
p3261
sg28
g29
sg30
S'clim'
p3262
sg32
g33
sg34
S'clim.gd4570.bio16.tif'
p3263
sg36
S'clim.gd4570.bio16'
p3264
sg38
g39
sg40
I4326
sg41
S'2070'
p3265
ssS'bio11'
p3266
(dp3267
g6
S'gd4570.bio11'
p3268
sg8
I39
sg9
S'bio11'
p3269
sg11
S'Mean Temperature of Coldest Quarter'
p3270
sg13
S'climate'
p3271
sg15
S'gd4570'
p3272
sg17
S'../views/GTiff/clim.gd4570.bio11.tif'
p3273
sg19
S'45'
p3274
sg21
g22
(g24
S'\xa1\x18\x00\x00\x00\x00\x00\x00'
tRp3275
sg26
S'Mean Temperature of Coldest Quarter GD RCP45 2070'
p3276
sg28
g29
sg30
S'clim'
p3277
sg32
g33
sg34
S'clim.gd4570.bio11.tif'
p3278
sg36
S'clim.gd4570.bio11'
p3279
sg38
g39
sg40
I4326
sg41
S'2070'
p3280
ssS'bio09'
p3281
(dp3282
g6
S'gd4570.bio09'
p3283
sg8
I165
sg9
S'bio09'
p3284
sg11
S'Mean Temperature of Driest Quarter'
p3285
sg13
S'climate'
p3286
sg15
S'gd4570'
p3287
sg17
S'../views/GTiff/clim.gd4570.bio09.tif'
p3288
sg19
S'45'
p3289
sg21
g22
(g24
S'\xaf\x18\x00\x00\x00\x00\x00\x00'
tRp3290
sg26
S'Mean Temperature of Driest Quarter GD RCP45 2070'
p3291
sg28
g29
sg30
S'clim'
p3292
sg32
g33
sg34
S'clim.gd4570.bio09.tif'
p3293
sg36
S'clim.gd4570.bio09'
p3294
sg38
g39
sg40
I4326
sg41
S'2070'
p3295
ssS'bio05'
p3296
(dp3297
g6
S'gd4570.bio05'
p3298
sg8
I108
sg9
S'bio05'
p3299
sg11
S'Max Temperature of Warmest Month'
p3300
sg13
S'climate'
p3301
sg15
S'gd4570'
p3302
sg17
S'../views/GTiff/clim.gd4570.bio05.tif'
p3303
sg19
S'45'
p3304
sg21
g22
(g24
S'\xa7\x18\x00\x00\x00\x00\x00\x00'
tRp3305
sg26
S'Max Temperature of Warmest Month GD RCP45 2070'
p3306
sg28
g29
sg30
S'clim'
p3307
sg32
g33
sg34
S'clim.gd4570.bio05.tif'
p3308
sg36
S'clim.gd4570.bio05'
p3309
sg38
g39
sg40
I4326
sg41
S'2070'
p3310
ssS'bio14'
p3311
(dp3312
g6
S'gd4570.bio14'
p3313
sg8
I202
sg9
S'bio14'
p3314
sg11
S'Precipitation of Driest Month'
p3315
sg13
S'climate'
p3316
sg15
S'gd4570'
p3317
sg17
S'../views/GTiff/clim.gd4570.bio14.tif'
p3318
sg19
S'45'
p3319
sg21
g22
(g24
S'\xae\x18\x00\x00\x00\x00\x00\x00'
tRp3320
sg26
S'Precipitation of Driest Month GD RCP45 2070'
p3321
sg28
g29
sg30
S'clim'
p3322
sg32
g33
sg34
S'clim.gd4570.bio14.tif'
p3323
sg36
S'clim.gd4570.bio14'
p3324
sg38
g39
sg40
I4326
sg41
S'2070'
p3325
ssS'bio10'
p3326
(dp3327
g6
S'gd4570.bio10'
p3328
sg8
I105
sg9
S'bio10'
p3329
sg11
S'Mean Temperature of Warmest Quarter'
p3330
sg13
S'climate'
p3331
sg15
S'gd4570'
p3332
sg17
S'../views/GTiff/clim.gd4570.bio10.tif'
p3333
sg19
S'45'
p3334
sg21
g22
(g24
S'\x9e\x18\x00\x00\x00\x00\x00\x00'
tRp3335
sg26
S'Mean Temperature of Warmest Quarter GD RCP45 2070'
p3336
sg28
g29
sg30
S'clim'
p3337
sg32
g33
sg34
S'clim.gd4570.bio10.tif'
p3338
sg36
S'clim.gd4570.bio10'
p3339
sg38
g39
sg40
I4326
sg41
S'2070'
p3340
ssS'bio06'
p3341
(dp3342
g6
S'gd4570.bio06'
p3343
sg8
I258
sg9
S'bio06'
p3344
sg11
S'Min Temperature of Coldest Month'
p3345
sg13
S'climate'
p3346
sg15
S'gd4570'
p3347
sg17
S'../views/GTiff/clim.gd4570.bio06.tif'
p3348
sg19
S'45'
p3349
sg21
g22
(g24
S'\xa6\x18\x00\x00\x00\x00\x00\x00'
tRp3350
sg26
S'Min Temperature of Coldest Month GD RCP45 2070'
p3351
sg28
g29
sg30
S'clim'
p3352
sg32
g33
sg34
S'clim.gd4570.bio06.tif'
p3353
sg36
S'clim.gd4570.bio06'
p3354
sg38
g39
sg40
I4326
sg41
S'2070'
p3355
ssS'bio12'
p3356
(dp3357
g6
S'gd4570.bio12'
p3358
sg8
I290
sg9
S'bio12'
p3359
sg11
S'Annual Precipitation'
p3360
sg13
S'climate'
p3361
sg15
S'gd4570'
p3362
sg17
S'../views/GTiff/clim.gd4570.bio12.tif'
p3363
sg19
S'45'
p3364
sg21
g22
(g24
S'\xa4\x18\x00\x00\x00\x00\x00\x00'
tRp3365
sg26
S'Annual Precipitation GD RCP45 2070'
p3366
sg28
g29
sg30
S'clim'
p3367
sg32
g33
sg34
S'clim.gd4570.bio12.tif'
p3368
sg36
S'clim.gd4570.bio12'
p3369
sg38
g39
sg40
I4326
sg41
S'2070'
p3370
ssS'bio13'
p3371
(dp3372
g6
S'gd4570.bio13'
p3373
sg8
I247
sg9
S'bio13'
p3374
sg11
S'Precipitation of Wettest Month'
p3375
sg13
S'climate'
p3376
sg15
S'gd4570'
p3377
sg17
S'../views/GTiff/clim.gd4570.bio13.tif'
p3378
sg19
S'45'
p3379
sg21
g22
(g24
S'\xa0\x18\x00\x00\x00\x00\x00\x00'
tRp3380
sg26
S'Precipitation of Wettest Month GD RCP45 2070'
p3381
sg28
g29
sg30
S'clim'
p3382
sg32
g33
sg34
S'clim.gd4570.bio13.tif'
p3383
sg36
S'clim.gd4570.bio13'
p3384
sg38
g39
sg40
I4326
sg41
S'2070'
p3385
ssS'bio03'
p3386
(dp3387
g6
S'gd4570.bio03'
p3388
sg8
I121
sg9
S'bio03'
p3389
sg11
S'Isothermality (BIO2/BIO7) (* 100)'
p3390
sg13
S'climate'
p3391
sg15
S'gd4570'
p3392
sg17
S'../views/GTiff/clim.gd4570.bio03.tif'
p3393
sg19
S'45'
p3394
sg21
g22
(g24
S'\xa9\x18\x00\x00\x00\x00\x00\x00'
tRp3395
sg26
S'Isothermality (BIO2/BIO7) (* 100) GD RCP45 2070'
p3396
sg28
g29
sg30
S'clim'
p3397
sg32
g33
sg34
S'clim.gd4570.bio03.tif'
p3398
sg36
S'clim.gd4570.bio03'
p3399
sg38
g39
sg40
I4326
sg41
S'2070'
p3400
ssS'bio15'
p3401
(dp3402
g6
S'gd4570.bio15'
p3403
sg8
I138
sg9
S'bio15'
p3404
sg11
S'Precipitation Seasonality (Coefficient of Variation)'
p3405
sg13
S'climate'
p3406
sg15
S'gd4570'
p3407
sg17
S'../views/GTiff/clim.gd4570.bio15.tif'
p3408
sg19
S'45'
p3409
sg21
g22
(g24
S'\xa3\x18\x00\x00\x00\x00\x00\x00'
tRp3410
sg26
S'Precipitation Seasonality (Coefficient of Variation) GD RCP45 2070'
p3411
sg28
g29
sg30
S'clim'
p3412
sg32
g33
sg34
S'clim.gd4570.bio15.tif'
p3413
sg36
S'clim.gd4570.bio15'
p3414
sg38
g39
sg40
I4326
sg41
S'2070'
p3415
ssS'bio01'
p3416
(dp3417
g6
S'gd4570.bio01'
p3418
sg8
I239
sg9
S'bio01'
p3419
sg11
S'Annual Mean Temperature'
p3420
sg13
S'climate'
p3421
sg15
S'gd4570'
p3422
sg17
S'../views/GTiff/clim.gd4570.bio01.tif'
p3423
sg19
S'45'
p3424
sg21
g22
(g24
S'\xab\x18\x00\x00\x00\x00\x00\x00'
tRp3425
sg26
S'Annual Mean Temperature GD RCP45 2070'
p3426
sg28
g29
sg30
S'clim'
p3427
sg32
g33
sg34
S'clim.gd4570.bio01.tif'
p3428
sg36
S'clim.gd4570.bio01'
p3429
sg38
g39
sg40
I4326
sg41
S'2070'
p3430
ssS'bio17'
p3431
(dp3432
g6
S'gd4570.bio17'
p3433
sg8
I6
sg9
S'bio17'
p3434
sg11
S'Precipitation of Driest Quarter'
p3435
sg13
S'climate'
p3436
sg15
g3234
sg17
S'../views/GTiff/clim.gd4570.bio17.tif'
p3437
sg19
S'45'
p3438
sg21
g22
(g24
S'\xac\x18\x00\x00\x00\x00\x00\x00'
tRp3439
sg26
S'Precipitation of Driest Quarter GD RCP45 2070'
p3440
sg28
g29
sg30
S'clim'
p3441
sg32
g33
sg34
S'clim.gd4570.bio17.tif'
p3442
sg36
S'clim.gd4570.bio17'
p3443
sg38
g39
sg40
I4326
sg41
S'2070'
p3444
ssS'bio18'
p3445
(dp3446
g6
S'gd4570.bio18'
p3447
sg8
I227
sg9
S'bio18'
p3448
sg11
S'Precipitation of Warmest Quarter'
p3449
sg13
S'climate'
p3450
sg15
S'gd4570'
p3451
sg17
S'../views/GTiff/clim.gd4570.bio18.tif'
p3452
sg19
S'45'
p3453
sg21
g22
(g24
S'\xad\x18\x00\x00\x00\x00\x00\x00'
tRp3454
sg26
S'Precipitation of Warmest Quarter GD RCP45 2070'
p3455
sg28
g29
sg30
S'clim'
p3456
sg32
g33
sg34
S'clim.gd4570.bio18.tif'
p3457
sg36
S'clim.gd4570.bio18'
p3458
sg38
g39
sg40
I4326
sg41
S'2070'
p3459
ssS'bio19'
p3460
(dp3461
g6
S'gd4570.bio19'
p3462
sg8
I267
sg9
S'bio19'
p3463
sg11
S'Precipitation of Coldest Quarter'
p3464
sg13
S'climate'
p3465
sg15
S'gd4570'
p3466
sg17
S'../views/GTiff/clim.gd4570.bio19.tif'
p3467
sg19
S'45'
p3468
sg21
g22
(g24
S'\x9f\x18\x00\x00\x00\x00\x00\x00'
tRp3469
sg26
S'Precipitation of Coldest Quarter GD RCP45 2070'
p3470
sg28
g29
sg30
S'clim'
p3471
sg32
g33
sg34
S'clim.gd4570.bio19.tif'
p3472
sg36
S'clim.gd4570.bio19'
p3473
sg38
g39
sg40
I4326
sg41
S'2070'
p3474
ssS'bio08'
p3475
(dp3476
g6
S'gd4570.bio08'
p3477
sg8
I56
sg9
S'bio08'
p3478
sg11
S'Mean Temperature of Wettest Quarter'
p3479
sg13
S'climate'
p3480
sg15
S'gd4570'
p3481
sg17
S'../views/GTiff/clim.gd4570.bio08.tif'
p3482
sg19
S'45'
p3483
sg21
g22
(g24
S'\xb0\x18\x00\x00\x00\x00\x00\x00'
tRp3484
sg26
S'Mean Temperature of Wettest Quarter GD RCP45 2070'
p3485
sg28
g29
sg30
S'clim'
p3486
sg32
g33
sg34
S'clim.gd4570.bio08.tif'
p3487
sg36
S'clim.gd4570.bio08'
p3488
sg38
g39
sg40
I4326
sg41
S'2070'
p3489
ssS'bio04'
p3490
(dp3491
g6
S'gd4570.bio04'
p3492
sg8
I46
sg9
S'bio04'
p3493
sg11
S'Temperature Seasonality (standard deviation *100)'
p3494
sg13
S'climate'
p3495
sg15
S'gd4570'
p3496
sg17
S'../views/GTiff/clim.gd4570.bio04.tif'
p3497
sg19
S'45'
p3498
sg21
g22
(g24
S'\xa8\x18\x00\x00\x00\x00\x00\x00'
tRp3499
sg26
S'Temperature Seasonality (standard deviation *100) GD RCP45 2070'
p3500
sg28
g29
sg30
S'clim'
p3501
sg32
g33
sg34
S'clim.gd4570.bio04.tif'
p3502
sg36
S'clim.gd4570.bio04'
p3503
sg38
g39
sg40
I4326
sg41
S'2070'
p3504
ssS'bio02'
p3505
(dp3506
g6
S'gd4570.bio02'
p3507
sg8
I124
sg9
S'bio02'
p3508
sg11
S'Mean Diurnal Range (Mean of monthly (max temp - min temp))'
p3509
sg13
S'climate'
p3510
sg15
S'gd4570'
p3511
sg17
S'../views/GTiff/clim.gd4570.bio02.tif'
p3512
sg19
S'45'
p3513
sg21
g22
(g24
S'\xaa\x18\x00\x00\x00\x00\x00\x00'
tRp3514
sg26
S'Mean Diurnal Range (Mean of monthly (max temp - min temp)) GD RCP45 2070'
p3515
sg28
g29
sg30
S'clim'
p3516
sg32
g33
sg34
S'clim.gd4570.bio02.tif'
p3517
sg36
S'clim.gd4570.bio02'
p3518
sg38
g39
sg40
I4326
sg41
S'2070'
p3519
sssS'ac4550'
p3520
(dp3521
S'bio07'
p3522
(dp3523
g6
S'ac4550.bio07'
p3524
sg8
I212
sg9
S'bio07'
p3525
sg11
S'Temperature Annual Range (BIO5-BIO6)'
p3526
sg13
S'climate'
p3527
sg15
S'ac4550'
p3528
sg17
S'../views/GTiff/clim.ac4550.bio07.tif'
p3529
sg19
S'45'
p3530
sg21
g22
(g24
S'\xbd\x18\x00\x00\x00\x00\x00\x00'
tRp3531
sg26
S'Temperature Annual Range (BIO5-BIO6) AC RCP45 2050'
p3532
sg28
g29
sg30
S'clim'
p3533
sg32
g33
sg34
S'clim.ac4550.bio07.tif'
p3534
sg36
S'clim.ac4550.bio07'
p3535
sg38
g39
sg40
I4326
sg41
S'2050'
p3536
ssS'bio01'
p3537
(dp3538
g6
S'ac4550.bio01'
p3539
sg8
I289
sg9
S'bio01'
p3540
sg11
S'Annual Mean Temperature'
p3541
sg13
S'climate'
p3542
sg15
S'ac4550'
p3543
sg17
S'../views/GTiff/clim.ac4550.bio01.tif'
p3544
sg19
S'45'
p3545
sg21
g22
(g24
S'\xc3\x18\x00\x00\x00\x00\x00\x00'
tRp3546
sg26
S'Annual Mean Temperature AC RCP45 2050'
p3547
sg28
g29
sg30
S'clim'
p3548
sg32
g33
sg34
S'clim.ac4550.bio01.tif'
p3549
sg36
S'clim.ac4550.bio01'
p3550
sg38
g39
sg40
I4326
sg41
S'2050'
p3551
ssS'bio11'
p3552
(dp3553
g6
S'ac4550.bio11'
p3554
sg8
I59
sg9
S'bio11'
p3555
sg11
S'Mean Temperature of Coldest Quarter'
p3556
sg13
S'climate'
p3557
sg15
S'ac4550'
p3558
sg17
S'../views/GTiff/clim.ac4550.bio11.tif'
p3559
sg19
S'45'
p3560
sg21
g22
(g24
S'\xb9\x18\x00\x00\x00\x00\x00\x00'
tRp3561
sg26
S'Mean Temperature of Coldest Quarter AC RCP45 2050'
p3562
sg28
g29
sg30
S'clim'
p3563
sg32
g33
sg34
S'clim.ac4550.bio11.tif'
p3564
sg36
S'clim.ac4550.bio11'
p3565
sg38
g39
sg40
I4326
sg41
S'2050'
p3566
ssS'bio09'
p3567
(dp3568
g6
S'ac4550.bio09'
p3569
sg8
I144
sg9
S'bio09'
p3570
sg11
S'Mean Temperature of Driest Quarter'
p3571
sg13
S'climate'
p3572
sg15
S'ac4550'
p3573
sg17
S'../views/GTiff/clim.ac4550.bio09.tif'
p3574
sg19
S'45'
p3575
sg21
g22
(g24
S'\xc7\x18\x00\x00\x00\x00\x00\x00'
tRp3576
sg26
S'Mean Temperature of Driest Quarter AC RCP45 2050'
p3577
sg28
g29
sg30
S'clim'
p3578
sg32
g33
sg34
S'clim.ac4550.bio09.tif'
p3579
sg36
S'clim.ac4550.bio09'
p3580
sg38
g39
sg40
I4326
sg41
S'2050'
p3581
ssS'bio05'
p3582
(dp3583
g6
S'ac4550.bio05'
p3584
sg8
I14
sg9
S'bio05'
p3585
sg11
S'Max Temperature of Warmest Month'
p3586
sg13
S'climate'
p3587
sg15
g3520
sg17
S'../views/GTiff/clim.ac4550.bio05.tif'
p3588
sg19
S'45'
p3589
sg21
g22
(g24
S'\xbf\x18\x00\x00\x00\x00\x00\x00'
tRp3590
sg26
S'Max Temperature of Warmest Month AC RCP45 2050'
p3591
sg28
g29
sg30
S'clim'
p3592
sg32
g33
sg34
S'clim.ac4550.bio05.tif'
p3593
sg36
S'clim.ac4550.bio05'
p3594
sg38
g39
sg40
I4326
sg41
S'2050'
p3595
ssS'bio10'
p3596
(dp3597
g6
S'ac4550.bio10'
p3598
sg8
I222
sg9
S'bio10'
p3599
sg11
S'Mean Temperature of Warmest Quarter'
p3600
sg13
S'climate'
p3601
sg15
S'ac4550'
p3602
sg17
S'../views/GTiff/clim.ac4550.bio10.tif'
p3603
sg19
S'45'
p3604
sg21
g22
(g24
S'\xb6\x18\x00\x00\x00\x00\x00\x00'
tRp3605
sg26
S'Mean Temperature of Warmest Quarter AC RCP45 2050'
p3606
sg28
g29
sg30
S'clim'
p3607
sg32
g33
sg34
S'clim.ac4550.bio10.tif'
p3608
sg36
S'clim.ac4550.bio10'
p3609
sg38
g39
sg40
I4326
sg41
S'2050'
p3610
ssS'bio06'
p3611
(dp3612
g6
S'ac4550.bio06'
p3613
sg8
I270
sg9
S'bio06'
p3614
sg11
S'Min Temperature of Coldest Month'
p3615
sg13
S'climate'
p3616
sg15
S'ac4550'
p3617
sg17
S'../views/GTiff/clim.ac4550.bio06.tif'
p3618
sg19
S'45'
p3619
sg21
g22
(g24
S'\xbe\x18\x00\x00\x00\x00\x00\x00'
tRp3620
sg26
S'Min Temperature of Coldest Month AC RCP45 2050'
p3621
sg28
g29
sg30
S'clim'
p3622
sg32
g33
sg34
S'clim.ac4550.bio06.tif'
p3623
sg36
S'clim.ac4550.bio06'
p3624
sg38
g39
sg40
I4326
sg41
S'2050'
p3625
ssS'bio12'
p3626
(dp3627
g6
S'ac4550.bio12'
p3628
sg8
I176
sg9
S'bio12'
p3629
sg11
S'Annual Precipitation'
p3630
sg13
S'climate'
p3631
sg15
S'ac4550'
p3632
sg17
S'../views/GTiff/clim.ac4550.bio12.tif'
p3633
sg19
S'45'
p3634
sg21
g22
(g24
S'\xbc\x18\x00\x00\x00\x00\x00\x00'
tRp3635
sg26
S'Annual Precipitation AC RCP45 2050'
p3636
sg28
g29
sg30
S'clim'
p3637
sg32
g33
sg34
S'clim.ac4550.bio12.tif'
p3638
sg36
S'clim.ac4550.bio12'
p3639
sg38
g39
sg40
I4326
sg41
S'2050'
p3640
ssS'bio13'
p3641
(dp3642
g6
S'ac4550.bio13'
p3643
sg8
I220
sg9
S'bio13'
p3644
sg11
S'Precipitation of Wettest Month'
p3645
sg13
S'climate'
p3646
sg15
S'ac4550'
p3647
sg17
S'../views/GTiff/clim.ac4550.bio13.tif'
p3648
sg19
S'45'
p3649
sg21
g22
(g24
S'\xb8\x18\x00\x00\x00\x00\x00\x00'
tRp3650
sg26
S'Precipitation of Wettest Month AC RCP45 2050'
p3651
sg28
g29
sg30
S'clim'
p3652
sg32
g33
sg34
S'clim.ac4550.bio13.tif'
p3653
sg36
S'clim.ac4550.bio13'
p3654
sg38
g39
sg40
I4326
sg41
S'2050'
p3655
ssS'bio14'
p3656
(dp3657
g6
S'ac4550.bio14'
p3658
sg8
I92
sg9
S'bio14'
p3659
sg11
S'Precipitation of Driest Month'
p3660
sg13
S'climate'
p3661
sg15
S'ac4550'
p3662
sg17
S'../views/GTiff/clim.ac4550.bio14.tif'
p3663
sg19
S'45'
p3664
sg21
g22
(g24
S'\xc6\x18\x00\x00\x00\x00\x00\x00'
tRp3665
sg26
S'Precipitation of Driest Month AC RCP45 2050'
p3666
sg28
g29
sg30
S'clim'
p3667
sg32
g33
sg34
S'clim.ac4550.bio14.tif'
p3668
sg36
S'clim.ac4550.bio14'
p3669
sg38
g39
sg40
I4326
sg41
S'2050'
p3670
ssS'bio15'
p3671
(dp3672
g6
S'ac4550.bio15'
p3673
sg8
I61
sg9
S'bio15'
p3674
sg11
S'Precipitation Seasonality (Coefficient of Variation)'
p3675
sg13
S'climate'
p3676
sg15
S'ac4550'
p3677
sg17
S'../views/GTiff/clim.ac4550.bio15.tif'
p3678
sg19
S'45'
p3679
sg21
g22
(g24
S'\xbb\x18\x00\x00\x00\x00\x00\x00'
tRp3680
sg26
S'Precipitation Seasonality (Coefficient of Variation) AC RCP45 2050'
p3681
sg28
g29
sg30
S'clim'
p3682
sg32
g33
sg34
S'clim.ac4550.bio15.tif'
p3683
sg36
S'clim.ac4550.bio15'
p3684
sg38
g39
sg40
I4326
sg41
S'2050'
p3685
ssS'bio16'
p3686
(dp3687
g6
S'ac4550.bio16'
p3688
sg8
I298
sg9
S'bio16'
p3689
sg11
S'Precipitation of Wettest Quarter'
p3690
sg13
S'climate'
p3691
sg15
S'ac4550'
p3692
sg17
S'../views/GTiff/clim.ac4550.bio16.tif'
p3693
sg19
S'45'
p3694
sg21
g22
(g24
S'\xba\x18\x00\x00\x00\x00\x00\x00'
tRp3695
sg26
S'Precipitation of Wettest Quarter AC RCP45 2050'
p3696
sg28
g29
sg30
S'clim'
p3697
sg32
g33
sg34
S'clim.ac4550.bio16.tif'
p3698
sg36
S'clim.ac4550.bio16'
p3699
sg38
g39
sg40
I4326
sg41
S'2050'
p3700
ssS'bio17'
p3701
(dp3702
g6
S'ac4550.bio17'
p3703
sg8
I149
sg9
S'bio17'
p3704
sg11
S'Precipitation of Driest Quarter'
p3705
sg13
S'climate'
p3706
sg15
S'ac4550'
p3707
sg17
S'../views/GTiff/clim.ac4550.bio17.tif'
p3708
sg19
S'45'
p3709
sg21
g22
(g24
S'\xc4\x18\x00\x00\x00\x00\x00\x00'
tRp3710
sg26
S'Precipitation of Driest Quarter AC RCP45 2050'
p3711
sg28
g29
sg30
S'clim'
p3712
sg32
g33
sg34
S'clim.ac4550.bio17.tif'
p3713
sg36
S'clim.ac4550.bio17'
p3714
sg38
g39
sg40
I4326
sg41
S'2050'
p3715
ssS'bio18'
p3716
(dp3717
g6
S'ac4550.bio18'
p3718
sg8
I63
sg9
S'bio18'
p3719
sg11
S'Precipitation of Warmest Quarter'
p3720
sg13
S'climate'
p3721
sg15
S'ac4550'
p3722
sg17
S'../views/GTiff/clim.ac4550.bio18.tif'
p3723
sg19
S'45'
p3724
sg21
g22
(g24
S'\xc5\x18\x00\x00\x00\x00\x00\x00'
tRp3725
sg26
S'Precipitation of Warmest Quarter AC RCP45 2050'
p3726
sg28
g29
sg30
S'clim'
p3727
sg32
g33
sg34
S'clim.ac4550.bio18.tif'
p3728
sg36
S'clim.ac4550.bio18'
p3729
sg38
g39
sg40
I4326
sg41
S'2050'
p3730
ssS'bio19'
p3731
(dp3732
g6
S'ac4550.bio19'
p3733
sg8
I163
sg9
S'bio19'
p3734
sg11
S'Precipitation of Coldest Quarter'
p3735
sg13
S'climate'
p3736
sg15
S'ac4550'
p3737
sg17
S'../views/GTiff/clim.ac4550.bio19.tif'
p3738
sg19
S'45'
p3739
sg21
g22
(g24
S'\xb7\x18\x00\x00\x00\x00\x00\x00'
tRp3740
sg26
S'Precipitation of Coldest Quarter AC RCP45 2050'
p3741
sg28
g29
sg30
S'clim'
p3742
sg32
g33
sg34
S'clim.ac4550.bio19.tif'
p3743
sg36
S'clim.ac4550.bio19'
p3744
sg38
g39
sg40
I4326
sg41
S'2050'
p3745
ssS'bio08'
p3746
(dp3747
g6
S'ac4550.bio08'
p3748
sg8
I185
sg9
S'bio08'
p3749
sg11
S'Mean Temperature of Wettest Quarter'
p3750
sg13
S'climate'
p3751
sg15
S'ac4550'
p3752
sg17
S'../views/GTiff/clim.ac4550.bio08.tif'
p3753
sg19
S'45'
p3754
sg21
g22
(g24
S'\xc8\x18\x00\x00\x00\x00\x00\x00'
tRp3755
sg26
S'Mean Temperature of Wettest Quarter AC RCP45 2050'
p3756
sg28
g29
sg30
S'clim'
p3757
sg32
g33
sg34
S'clim.ac4550.bio08.tif'
p3758
sg36
S'clim.ac4550.bio08'
p3759
sg38
g39
sg40
I4326
sg41
S'2050'
p3760
ssS'bio03'
p3761
(dp3762
g6
S'ac4550.bio03'
p3763
sg8
I100
sg9
S'bio03'
p3764
sg11
S'Isothermality (BIO2/BIO7) (* 100)'
p3765
sg13
S'climate'
p3766
sg15
S'ac4550'
p3767
sg17
S'../views/GTiff/clim.ac4550.bio03.tif'
p3768
sg19
S'45'
p3769
sg21
g22
(g24
S'\xc1\x18\x00\x00\x00\x00\x00\x00'
tRp3770
sg26
S'Isothermality (BIO2/BIO7) (* 100) AC RCP45 2050'
p3771
sg28
g29
sg30
S'clim'
p3772
sg32
g33
sg34
S'clim.ac4550.bio03.tif'
p3773
sg36
S'clim.ac4550.bio03'
p3774
sg38
g39
sg40
I4326
sg41
S'2050'
p3775
ssS'bio04'
p3776
(dp3777
g6
S'ac4550.bio04'
p3778
sg8
I96
sg9
S'bio04'
p3779
sg11
S'Temperature Seasonality (standard deviation *100)'
p3780
sg13
S'climate'
p3781
sg15
S'ac4550'
p3782
sg17
S'../views/GTiff/clim.ac4550.bio04.tif'
p3783
sg19
S'45'
p3784
sg21
g22
(g24
S'\xc0\x18\x00\x00\x00\x00\x00\x00'
tRp3785
sg26
S'Temperature Seasonality (standard deviation *100) AC RCP45 2050'
p3786
sg28
g29
sg30
S'clim'
p3787
sg32
g33
sg34
S'clim.ac4550.bio04.tif'
p3788
sg36
S'clim.ac4550.bio04'
p3789
sg38
g39
sg40
I4326
sg41
S'2050'
p3790
ssS'bio02'
p3791
(dp3792
g6
S'ac4550.bio02'
p3793
sg8
I240
sg9
S'bio02'
p3794
sg11
S'Mean Diurnal Range (Mean of monthly (max temp - min temp))'
p3795
sg13
S'climate'
p3796
sg15
S'ac4550'
p3797
sg17
S'../views/GTiff/clim.ac4550.bio02.tif'
p3798
sg19
S'45'
p3799
sg21
g22
(g24
S'\xc2\x18\x00\x00\x00\x00\x00\x00'
tRp3800
sg26
S'Mean Diurnal Range (Mean of monthly (max temp - min temp)) AC RCP45 2050'
p3801
sg28
g29
sg30
S'clim'
p3802
sg32
g33
sg34
S'clim.ac4550.bio02.tif'
p3803
sg36
S'clim.ac4550.bio02'
p3804
sg38
g39
sg40
I4326
sg41
S'2050'
p3805
sssS'hwsd'
p3806
(dp3807
S't_gravel'
p3808
(dp3809
g6
S'hwsd.t_gravel'
p3810
sg8
I25
sg9
S't_gravel'
p3811
sg11
S'HWSD topsoil gravel'
p3812
sg13
S'environmental'
p3813
sg15
g3806
sg17
S'../views/GTiff/env.hwsd.t_gravel.tif'
p3814
sg19
S'current'
p3815
sg21
g22
(g24
S'\xca\x18\x00\x00\x00\x00\x00\x00'
tRp3816
sg26
S'Harmonized World Soil Database topsoil gravel (% vol.)'
p3817
sg28
g29
sg30
S'env'
p3818
sg32
g33
sg34
S'env.hwsd.t_gravel.tif'
p3819
sg36
S'env.hwsd.t_gravel'
p3820
sg38
g39
sg40
I4326
sg41
S'current'
p3821
ssS't_caco3'
p3822
(dp3823
g6
S'hwsd.t_caco3'
p3824
sg8
I177
sg9
S't_caco3'
p3825
sg11
S'HWSD topsoil CACO3'
p3826
sg13
S'environmental'
p3827
sg15
S'hwsd'
p3828
sg17
S'../views/GTiff/env.hwsd.t_caco3.tif'
p3829
sg19
S'current'
p3830
sg21
g22
(g24
S'\xcd\x18\x00\x00\x00\x00\x00\x00'
tRp3831
sg26
S'Harmonized World Soil Database topsoil CACO3 (% weight)'
p3832
sg28
g29
sg30
S'env'
p3833
sg32
g33
sg34
S'env.hwsd.t_caco3.tif'
p3834
sg36
S'env.hwsd.t_caco3'
p3835
sg38
g39
sg40
I4326
sg41
S'current'
p3836
ssS't_ph'
p3837
(dp3838
g6
S'hwsd.t_ph'
p3839
sg8
I195
sg9
S't_ph'
p3840
sg11
S'HWSD topsoil pH'
p3841
sg13
S'environmental'
p3842
sg15
S'hwsd'
p3843
sg17
S'../views/GTiff/env.hwsd.t_ph.tif'
p3844
sg19
S'current'
p3845
sg21
g22
(g24
S'\xcc\x18\x00\x00\x00\x00\x00\x00'
tRp3846
sg26
S'Harmonized World Soil Database topsoil pH (log[H+])'
p3847
sg28
g29
sg30
S'env'
p3848
sg32
g33
sg34
S'env.hwsd.t_ph.tif'
p3849
sg36
S'env.hwsd.t_ph'
p3850
sg38
g39
sg40
I4326
sg41
S'current'
p3851
ssS't_sand'
p3852
(dp3853
g6
S'hwsd.t_sand'
p3854
sg8
I219
sg9
S't_sand'
p3855
sg11
S'HWSD topsoil sand'
p3856
sg13
S'environmental'
p3857
sg15
S'hwsd'
p3858
sg17
S'../views/GTiff/env.hwsd.t_sand.tif'
p3859
sg19
S'current'
p3860
sg21
g22
(g24
S'\xcb\x18\x00\x00\x00\x00\x00\x00'
tRp3861
sg26
S'Harmonized World Soil Database topsoil sand (% frac.)'
p3862
sg28
g29
sg30
S'env'
p3863
sg32
g33
sg34
S'env.hwsd.t_sand.tif'
p3864
sg36
S'env.hwsd.t_sand'
p3865
sg38
g39
sg40
I4326
sg41
S'current'
p3866
ssS't_ece'
p3867
(dp3868
g6
S'hwsd.t_ece'
p3869
sg8
I134
sg9
S't_ece'
p3870
sg11
S'HWSD topsoil ECE'
p3871
sg13
S'environmental'
p3872
sg15
S'hwsd'
p3873
sg17
S'../views/GTiff/env.hwsd.t_ece.tif'
p3874
sg19
S'current'
p3875
sg21
g22
(g24
S'\xce\x18\x00\x00\x00\x00\x00\x00'
tRp3876
sg26
S'Harmonized World Soil Database topsoil ECE (salinity dS/m)'
p3877
sg28
g29
sg30
S'env'
p3878
sg32
g33
sg34
S'env.hwsd.t_ece.tif'
p3879
sg36
S'env.hwsd.t_ece'
p3880
sg38
g39
sg40
I4326
sg41
S'current'
p3881
ssS't_silt'
p3882
(dp3883
g6
S'hwsd.t_silt'
p3884
sg8
I170
sg9
S't_silt'
p3885
sg11
S'HWSD topsoil silt'
p3886
sg13
S'environmental'
p3887
sg15
S'hwsd'
p3888
sg17
S'../views/GTiff/env.hwsd.t_silt.tif'
p3889
sg19
S'current'
p3890
sg21
g22
(g24
S'\xcf\x18\x00\x00\x00\x00\x00\x00'
tRp3891
sg26
S'Harmonized World Soil Database topsoil silt (% frac.)'
p3892
sg28
g29
sg30
S'env'
p3893
sg32
g33
sg34
S'env.hwsd.t_silt.tif'
p3894
sg36
S'env.hwsd.t_silt'
p3895
sg38
g39
sg40
I4326
sg41
S'current'
p3896
ssS't_clay'
p3897
(dp3898
g6
S'hwsd.t_clay'
p3899
sg8
I188
sg9
S't_clay'
p3900
sg11
S'HWSD topsoil clay'
p3901
sg13
S'environmental'
p3902
sg15
S'hwsd'
p3903
sg17
S'../views/GTiff/env.hwsd.t_clay.tif'
p3904
sg19
S'current'
p3905
sg21
g22
(g24
S'\xd0\x18\x00\x00\x00\x00\x00\x00'
tRp3906
sg26
S'Harmonized World Soil Database topsoil clay (% frac.)'
p3907
sg28
g29
sg30
S'env'
p3908
sg32
g33
sg34
S'env.hwsd.t_clay.tif'
p3909
sg36
S'env.hwsd.t_clay'
p3910
sg38
g39
sg40
I4326
sg41
S'current'
p3911
ssS't_caso4'
p3912
(dp3913
g6
S'hwsd.t_caso4'
p3914
sg8
I230
sg9
S't_caso4'
p3915
sg11
S'HWSD topsoil CASO4'
p3916
sg13
S'environmental'
p3917
sg15
S'hwsd'
p3918
sg17
S'../views/GTiff/env.hwsd.t_caso4.tif'
p3919
sg19
S'current'
p3920
sg21
g22
(g24
S'\xd1\x18\x00\x00\x00\x00\x00\x00'
tRp3921
sg26
S'Harmonized World Soil Database topsoil CASO4 (% weight)'
p3922
sg28
g29
sg30
S'env'
p3923
sg32
g33
sg34
S'env.hwsd.t_caso4.tif'
p3924
sg36
S'env.hwsd.t_caso4'
p3925
sg38
g39
sg40
I4326
sg41
S'current'
p3926
ssS't_cecsoil'
p3927
(dp3928
g6
S'hwsd.t_cecsoil'
p3929
sg8
I155
sg9
S't_cecsoil'
p3930
sg11
S'HWSD topsoil CECsoil'
p3931
sg13
S'environmental'
p3932
sg15
S'hwsd'
p3933
sg17
S'../views/GTiff/env.hwsd.t_cecsoil.tif'
p3934
sg19
S'current'
p3935
sg21
g22
(g24
S'\xd2\x18\x00\x00\x00\x00\x00\x00'
tRp3936
sg26
S'Harmonized World Soil Database topsoil CECsoil (cmol/kg)'
p3937
sg28
g29
sg30
S'env'
p3938
sg32
g33
sg34
S'env.hwsd.t_cecsoil.tif'
p3939
sg36
S'env.hwsd.t_cecsoil'
p3940
sg38
g39
sg40
I4326
sg41
S'current'
p3941
ssS't_oc'
p3942
(dp3943
g6
S'hwsd.t_oc'
p3944
sg8
I160
sg9
S't_oc'
p3945
sg11
S'HWSD topsoil oc'
p3946
sg13
S'environmental'
p3947
sg15
S'hwsd'
p3948
sg17
S'../views/GTiff/env.hwsd.t_oc.tif'
p3949
sg19
S'current'
p3950
sg21
g22
(g24
S'\xd3\x18\x00\x00\x00\x00\x00\x00'
tRp3951
sg26
S'Harmonized World Soil Database topsoil organic carbon (% weight)'
p3952
sg28
g29
sg30
S'env'
p3953
sg32
g33
sg34
S'env.hwsd.t_oc.tif'
p3954
sg36
S'env.hwsd.t_oc'
p3955
sg38
g39
sg40
I4326
sg41
S'current'
p3956
sssS'he6070'
p3957
(dp3958
S'bio10'
p3959
(dp3960
g6
S'he6070.bio10'
p3961
sg8
I42
sg9
S'bio10'
p3962
sg11
S'Mean Temperature of Warmest Quarter'
p3963
sg13
S'climate'
p3964
sg15
S'he6070'
p3965
sg17
S'../views/GTiff/clim.he6070.bio10.tif'
p3966
sg19
S'60'
p3967
sg21
g22
(g24
S'\xd4\x18\x00\x00\x00\x00\x00\x00'
tRp3968
sg26
S'Mean Temperature of Warmest Quarter HE RCP60 2070'
p3969
sg28
g29
sg30
S'clim'
p3970
sg32
g33
sg34
S'clim.he6070.bio10.tif'
p3971
sg36
S'clim.he6070.bio10'
p3972
sg38
g39
sg40
I4326
sg41
S'2070'
p3973
ssS'bio01'
p3974
(dp3975
g6
S'he6070.bio01'
p3976
sg8
I49
sg9
S'bio01'
p3977
sg11
S'Annual Mean Temperature'
p3978
sg13
S'climate'
p3979
sg15
S'he6070'
p3980
sg17
S'../views/GTiff/clim.he6070.bio01.tif'
p3981
sg19
S'60'
p3982
sg21
g22
(g24
S'\xe1\x18\x00\x00\x00\x00\x00\x00'
tRp3983
sg26
S'Annual Mean Temperature HE RCP60 2070'
p3984
sg28
g29
sg30
S'clim'
p3985
sg32
g33
sg34
S'clim.he6070.bio01.tif'
p3986
sg36
S'clim.he6070.bio01'
p3987
sg38
g39
sg40
I4326
sg41
S'2070'
p3988
ssS'bio11'
p3989
(dp3990
g6
S'he6070.bio11'
p3991
sg8
I36
sg9
S'bio11'
p3992
sg11
S'Mean Temperature of Coldest Quarter'
p3993
sg13
S'climate'
p3994
sg15
S'he6070'
p3995
sg17
S'../views/GTiff/clim.he6070.bio11.tif'
p3996
sg19
S'60'
p3997
sg21
g22
(g24
S'\xd7\x18\x00\x00\x00\x00\x00\x00'
tRp3998
sg26
S'Mean Temperature of Coldest Quarter HE RCP60 2070'
p3999
sg28
g29
sg30
S'clim'
p4000
sg32
g33
sg34
S'clim.he6070.bio11.tif'
p4001
sg36
S'clim.he6070.bio11'
p4002
sg38
g39
sg40
I4326
sg41
S'2070'
p4003
ssS'bio09'
p4004
(dp4005
g6
S'he6070.bio09'
p4006
sg8
I1
sg9
S'bio09'
p4007
sg11
S'Mean Temperature of Driest Quarter'
p4008
sg13
S'climate'
p4009
sg15
g3957
sg17
S'../views/GTiff/clim.he6070.bio09.tif'
p4010
sg19
S'60'
p4011
sg21
g22
(g24
S'\xe5\x18\x00\x00\x00\x00\x00\x00'
tRp4012
sg26
S'Mean Temperature of Driest Quarter HE RCP60 2070'
p4013
sg28
g29
sg30
S'clim'
p4014
sg32
g33
sg34
S'clim.he6070.bio09.tif'
p4015
sg36
S'clim.he6070.bio09'
p4016
sg38
g39
sg40
I4326
sg41
S'2070'
p4017
ssS'bio05'
p4018
(dp4019
g6
S'he6070.bio05'
p4020
sg8
I183
sg9
S'bio05'
p4021
sg11
S'Max Temperature of Warmest Month'
p4022
sg13
S'climate'
p4023
sg15
S'he6070'
p4024
sg17
S'../views/GTiff/clim.he6070.bio05.tif'
p4025
sg19
S'60'
p4026
sg21
g22
(g24
S'\xdd\x18\x00\x00\x00\x00\x00\x00'
tRp4027
sg26
S'Max Temperature of Warmest Month HE RCP60 2070'
p4028
sg28
g29
sg30
S'clim'
p4029
sg32
g33
sg34
S'clim.he6070.bio05.tif'
p4030
sg36
S'clim.he6070.bio05'
p4031
sg38
g39
sg40
I4326
sg41
S'2070'
p4032
ssS'bio07'
p4033
(dp4034
g6
S'he6070.bio07'
p4035
sg8
I273
sg9
S'bio07'
p4036
sg11
S'Temperature Annual Range (BIO5-BIO6)'
p4037
sg13
S'climate'
p4038
sg15
S'he6070'
p4039
sg17
S'../views/GTiff/clim.he6070.bio07.tif'
p4040
sg19
S'60'
p4041
sg21
g22
(g24
S'\xdb\x18\x00\x00\x00\x00\x00\x00'
tRp4042
sg26
S'Temperature Annual Range (BIO5-BIO6) HE RCP60 2070'
p4043
sg28
g29
sg30
S'clim'
p4044
sg32
g33
sg34
S'clim.he6070.bio07.tif'
p4045
sg36
S'clim.he6070.bio07'
p4046
sg38
g39
sg40
I4326
sg41
S'2070'
p4047
ssS'bio06'
p4048
(dp4049
g6
S'he6070.bio06'
p4050
sg8
I271
sg9
S'bio06'
p4051
sg11
S'Min Temperature of Coldest Month'
p4052
sg13
S'climate'
p4053
sg15
S'he6070'
p4054
sg17
S'../views/GTiff/clim.he6070.bio06.tif'
p4055
sg19
S'60'
p4056
sg21
g22
(g24
S'\xdc\x18\x00\x00\x00\x00\x00\x00'
tRp4057
sg26
S'Min Temperature of Coldest Month HE RCP60 2070'
p4058
sg28
g29
sg30
S'clim'
p4059
sg32
g33
sg34
S'clim.he6070.bio06.tif'
p4060
sg36
S'clim.he6070.bio06'
p4061
sg38
g39
sg40
I4326
sg41
S'2070'
p4062
ssS'bio12'
p4063
(dp4064
g6
S'he6070.bio12'
p4065
sg8
I269
sg9
S'bio12'
p4066
sg11
S'Annual Precipitation'
p4067
sg13
S'climate'
p4068
sg15
S'he6070'
p4069
sg17
S'../views/GTiff/clim.he6070.bio12.tif'
p4070
sg19
S'60'
p4071
sg21
g22
(g24
S'\xda\x18\x00\x00\x00\x00\x00\x00'
tRp4072
sg26
S'Annual Precipitation HE RCP60 2070'
p4073
sg28
g29
sg30
S'clim'
p4074
sg32
g33
sg34
S'clim.he6070.bio12.tif'
p4075
sg36
S'clim.he6070.bio12'
p4076
sg38
g39
sg40
I4326
sg41
S'2070'
p4077
ssS'bio13'
p4078
(dp4079
g6
S'he6070.bio13'
p4080
sg8
I58
sg9
S'bio13'
p4081
sg11
S'Precipitation of Wettest Month'
p4082
sg13
S'climate'
p4083
sg15
S'he6070'
p4084
sg17
S'../views/GTiff/clim.he6070.bio13.tif'
p4085
sg19
S'60'
p4086
sg21
g22
(g24
S'\xd6\x18\x00\x00\x00\x00\x00\x00'
tRp4087
sg26
S'Precipitation of Wettest Month HE RCP60 2070'
p4088
sg28
g29
sg30
S'clim'
p4089
sg32
g33
sg34
S'clim.he6070.bio13.tif'
p4090
sg36
S'clim.he6070.bio13'
p4091
sg38
g39
sg40
I4326
sg41
S'2070'
p4092
ssS'bio14'
p4093
(dp4094
g6
S'he6070.bio14'
p4095
sg8
I178
sg9
S'bio14'
p4096
sg11
S'Precipitation of Driest Month'
p4097
sg13
S'climate'
p4098
sg15
S'he6070'
p4099
sg17
S'../views/GTiff/clim.he6070.bio14.tif'
p4100
sg19
S'60'
p4101
sg21
g22
(g24
S'\xe4\x18\x00\x00\x00\x00\x00\x00'
tRp4102
sg26
S'Precipitation of Driest Month HE RCP60 2070'
p4103
sg28
g29
sg30
S'clim'
p4104
sg32
g33
sg34
S'clim.he6070.bio14.tif'
p4105
sg36
S'clim.he6070.bio14'
p4106
sg38
g39
sg40
I4326
sg41
S'2070'
p4107
ssS'bio15'
p4108
(dp4109
g6
S'he6070.bio15'
p4110
sg8
I262
sg9
S'bio15'
p4111
sg11
S'Precipitation Seasonality (Coefficient of Variation)'
p4112
sg13
S'climate'
p4113
sg15
S'he6070'
p4114
sg17
S'../views/GTiff/clim.he6070.bio15.tif'
p4115
sg19
S'60'
p4116
sg21
g22
(g24
S'\xd9\x18\x00\x00\x00\x00\x00\x00'
tRp4117
sg26
S'Precipitation Seasonality (Coefficient of Variation) HE RCP60 2070'
p4118
sg28
g29
sg30
S'clim'
p4119
sg32
g33
sg34
S'clim.he6070.bio15.tif'
p4120
sg36
S'clim.he6070.bio15'
p4121
sg38
g39
sg40
I4326
sg41
S'2070'
p4122
ssS'bio16'
p4123
(dp4124
g6
S'he6070.bio16'
p4125
sg8
I148
sg9
S'bio16'
p4126
sg11
S'Precipitation of Wettest Quarter'
p4127
sg13
S'climate'
p4128
sg15
S'he6070'
p4129
sg17
S'../views/GTiff/clim.he6070.bio16.tif'
p4130
sg19
S'60'
p4131
sg21
g22
(g24
S'\xd8\x18\x00\x00\x00\x00\x00\x00'
tRp4132
sg26
S'Precipitation of Wettest Quarter HE RCP60 2070'
p4133
sg28
g29
sg30
S'clim'
p4134
sg32
g33
sg34
S'clim.he6070.bio16.tif'
p4135
sg36
S'clim.he6070.bio16'
p4136
sg38
g39
sg40
I4326
sg41
S'2070'
p4137
ssS'bio17'
p4138
(dp4139
g6
S'he6070.bio17'
p4140
sg8
I32
sg9
S'bio17'
p4141
sg11
S'Precipitation of Driest Quarter'
p4142
sg13
S'climate'
p4143
sg15
S'he6070'
p4144
sg17
S'../views/GTiff/clim.he6070.bio17.tif'
p4145
sg19
S'60'
p4146
sg21
g22
(g24
S'\xe2\x18\x00\x00\x00\x00\x00\x00'
tRp4147
sg26
S'Precipitation of Driest Quarter HE RCP60 2070'
p4148
sg28
g29
sg30
S'clim'
p4149
sg32
g33
sg34
S'clim.he6070.bio17.tif'
p4150
sg36
S'clim.he6070.bio17'
p4151
sg38
g39
sg40
I4326
sg41
S'2070'
p4152
ssS'bio18'
p4153
(dp4154
g6
S'he6070.bio18'
p4155
sg8
I99
sg9
S'bio18'
p4156
sg11
S'Precipitation of Warmest Quarter'
p4157
sg13
S'climate'
p4158
sg15
S'he6070'
p4159
sg17
S'../views/GTiff/clim.he6070.bio18.tif'
p4160
sg19
S'60'
p4161
sg21
g22
(g24
S'\xe3\x18\x00\x00\x00\x00\x00\x00'
tRp4162
sg26
S'Precipitation of Warmest Quarter HE RCP60 2070'
p4163
sg28
g29
sg30
S'clim'
p4164
sg32
g33
sg34
S'clim.he6070.bio18.tif'
p4165
sg36
S'clim.he6070.bio18'
p4166
sg38
g39
sg40
I4326
sg41
S'2070'
p4167
ssS'bio19'
p4168
(dp4169
g6
S'he6070.bio19'
p4170
sg8
I246
sg9
S'bio19'
p4171
sg11
S'Precipitation of Coldest Quarter'
p4172
sg13
S'climate'
p4173
sg15
S'he6070'
p4174
sg17
S'../views/GTiff/clim.he6070.bio19.tif'
p4175
sg19
S'60'
p4176
sg21
g22
(g24
S'\xd5\x18\x00\x00\x00\x00\x00\x00'
tRp4177
sg26
S'Precipitation of Coldest Quarter HE RCP60 2070'
p4178
sg28
g29
sg30
S'clim'
p4179
sg32
g33
sg34
S'clim.he6070.bio19.tif'
p4180
sg36
S'clim.he6070.bio19'
p4181
sg38
g39
sg40
I4326
sg41
S'2070'
p4182
ssS'bio08'
p4183
(dp4184
g6
S'he6070.bio08'
p4185
sg8
I76
sg9
S'bio08'
p4186
sg11
S'Mean Temperature of Wettest Quarter'
p4187
sg13
S'climate'
p4188
sg15
S'he6070'
p4189
sg17
S'../views/GTiff/clim.he6070.bio08.tif'
p4190
sg19
S'60'
p4191
sg21
g22
(g24
S'\xe6\x18\x00\x00\x00\x00\x00\x00'
tRp4192
sg26
S'Mean Temperature of Wettest Quarter HE RCP60 2070'
p4193
sg28
g29
sg30
S'clim'
p4194
sg32
g33
sg34
S'clim.he6070.bio08.tif'
p4195
sg36
S'clim.he6070.bio08'
p4196
sg38
g39
sg40
I4326
sg41
S'2070'
p4197
ssS'bio03'
p4198
(dp4199
g6
S'he6070.bio03'
p4200
sg8
I223
sg9
S'bio03'
p4201
sg11
S'Isothermality (BIO2/BIO7) (* 100)'
p4202
sg13
S'climate'
p4203
sg15
S'he6070'
p4204
sg17
S'../views/GTiff/clim.he6070.bio03.tif'
p4205
sg19
S'60'
p4206
sg21
g22
(g24
S'\xdf\x18\x00\x00\x00\x00\x00\x00'
tRp4207
sg26
S'Isothermality (BIO2/BIO7) (* 100) HE RCP60 2070'
p4208
sg28
g29
sg30
S'clim'
p4209
sg32
g33
sg34
S'clim.he6070.bio03.tif'
p4210
sg36
S'clim.he6070.bio03'
p4211
sg38
g39
sg40
I4326
sg41
S'2070'
p4212
ssS'bio04'
p4213
(dp4214
g6
S'he6070.bio04'
p4215
sg8
I225
sg9
S'bio04'
p4216
sg11
S'Temperature Seasonality (standard deviation *100)'
p4217
sg13
S'climate'
p4218
sg15
S'he6070'
p4219
sg17
S'../views/GTiff/clim.he6070.bio04.tif'
p4220
sg19
S'60'
p4221
sg21
g22
(g24
S'\xde\x18\x00\x00\x00\x00\x00\x00'
tRp4222
sg26
S'Temperature Seasonality (standard deviation *100) HE RCP60 2070'
p4223
sg28
g29
sg30
S'clim'
p4224
sg32
g33
sg34
S'clim.he6070.bio04.tif'
p4225
sg36
S'clim.he6070.bio04'
p4226
sg38
g39
sg40
I4326
sg41
S'2070'
p4227
ssS'bio02'
p4228
(dp4229
g6
S'he6070.bio02'
p4230
sg8
I175
sg9
S'bio02'
p4231
sg11
S'Mean Diurnal Range (Mean of monthly (max temp - min temp))'
p4232
sg13
S'climate'
p4233
sg15
S'he6070'
p4234
sg17
S'../views/GTiff/clim.he6070.bio02.tif'
p4235
sg19
S'60'
p4236
sg21
g22
(g24
S'\xe0\x18\x00\x00\x00\x00\x00\x00'
tRp4237
sg26
S'Mean Diurnal Range (Mean of monthly (max temp - min temp)) HE RCP60 2070'
p4238
sg28
g29
sg30
S'clim'
p4239
sg32
g33
sg34
S'clim.he6070.bio02.tif'
p4240
sg36
S'clim.he6070.bio02'
p4241
sg38
g39
sg40
I4326
sg41
S'2070'
p4242
sssS'he4570'
p4243
(dp4244
S'bio10'
p4245
(dp4246
g6
S'he4570.bio10'
p4247
sg8
I16
sg9
S'bio10'
p4248
sg11
S'Mean Temperature of Warmest Quarter'
p4249
sg13
S'climate'
p4250
sg15
g4243
sg17
S'../views/GTiff/clim.he4570.bio10.tif'
p4251
sg19
S'45'
p4252
sg21
g22
(g24
S'\x0f\x19\x00\x00\x00\x00\x00\x00'
tRp4253
sg26
S'Mean Temperature of Warmest Quarter HE RCP45 2070'
p4254
sg28
g29
sg30
S'clim'
p4255
sg32
g33
sg34
S'clim.he4570.bio10.tif'
p4256
sg36
S'clim.he4570.bio10'
p4257
sg38
g39
sg40
I4326
sg41
S'2070'
p4258
ssS'bio16'
p4259
(dp4260
g6
S'he4570.bio16'
p4261
sg8
I158
sg9
S'bio16'
p4262
sg11
S'Precipitation of Wettest Quarter'
p4263
sg13
S'climate'
p4264
sg15
S'he4570'
p4265
sg17
S'../views/GTiff/clim.he4570.bio16.tif'
p4266
sg19
S'45'
p4267
sg21
g22
(g24
S'\x15\x19\x00\x00\x00\x00\x00\x00'
tRp4268
sg26
S'Precipitation of Wettest Quarter HE RCP45 2070'
p4269
sg28
g29
sg30
S'clim'
p4270
sg32
g33
sg34
S'clim.he4570.bio16.tif'
p4271
sg36
S'clim.he4570.bio16'
p4272
sg38
g39
sg40
I4326
sg41
S'2070'
p4273
ssS'bio06'
p4274
(dp4275
g6
S'he4570.bio06'
p4276
sg8
I113
sg9
S'bio06'
p4277
sg11
S'Min Temperature of Coldest Month'
p4278
sg13
S'climate'
p4279
sg15
S'he4570'
p4280
sg17
S'../views/GTiff/clim.he4570.bio06.tif'
p4281
sg19
S'45'
p4282
sg21
g22
(g24
S'\r\x19\x00\x00\x00\x00\x00\x00'
tRp4283
sg26
S'Min Temperature of Coldest Month HE RCP45 2070'
p4284
sg28
g29
sg30
S'clim'
p4285
sg32
g33
sg34
S'clim.he4570.bio06.tif'
p4286
sg36
S'clim.he4570.bio06'
p4287
sg38
g39
sg40
I4326
sg41
S'2070'
p4288
ssS'bio09'
p4289
(dp4290
g6
S'he4570.bio09'
p4291
sg8
I47
sg9
S'bio09'
p4292
sg11
S'Mean Temperature of Driest Quarter'
p4293
sg13
S'climate'
p4294
sg15
S'he4570'
p4295
sg17
S'../views/GTiff/clim.he4570.bio09.tif'
p4296
sg19
S'45'
p4297
sg21
g22
(g24
S'\x19\x19\x00\x00\x00\x00\x00\x00'
tRp4298
sg26
S'Mean Temperature of Driest Quarter HE RCP45 2070'
p4299
sg28
g29
sg30
S'clim'
p4300
sg32
g33
sg34
S'clim.he4570.bio09.tif'
p4301
sg36
S'clim.he4570.bio09'
p4302
sg38
g39
sg40
I4326
sg41
S'2070'
p4303
ssS'bio15'
p4304
(dp4305
g6
S'he4570.bio15'
p4306
sg8
I194
sg9
S'bio15'
p4307
sg11
S'Precipitation Seasonality (Coefficient of Variation)'
p4308
sg13
S'climate'
p4309
sg15
S'he4570'
p4310
sg17
S'../views/GTiff/clim.he4570.bio15.tif'
p4311
sg19
S'45'
p4312
sg21
g22
(g24
S'\x14\x19\x00\x00\x00\x00\x00\x00'
tRp4313
sg26
S'Precipitation Seasonality (Coefficient of Variation) HE RCP45 2070'
p4314
sg28
g29
sg30
S'clim'
p4315
sg32
g33
sg34
S'clim.he4570.bio15.tif'
p4316
sg36
S'clim.he4570.bio15'
p4317
sg38
g39
sg40
I4326
sg41
S'2070'
p4318
ssS'bio12'
p4319
(dp4320
g6
S'he4570.bio12'
p4321
sg8
I26
sg9
S'bio12'
p4322
sg11
S'Annual Precipitation'
p4323
sg13
S'climate'
p4324
sg15
S'he4570'
p4325
sg17
S'../views/GTiff/clim.he4570.bio12.tif'
p4326
sg19
S'45'
p4327
sg21
g22
(g24
S'\x11\x19\x00\x00\x00\x00\x00\x00'
tRp4328
sg26
S'Annual Precipitation HE RCP45 2070'
p4329
sg28
g29
sg30
S'clim'
p4330
sg32
g33
sg34
S'clim.he4570.bio12.tif'
p4331
sg36
S'clim.he4570.bio12'
p4332
sg38
g39
sg40
I4326
sg41
S'2070'
p4333
ssS'bio07'
p4334
(dp4335
g6
S'he4570.bio07'
p4336
sg8
I139
sg9
S'bio07'
p4337
sg11
S'Temperature Annual Range (BIO5-BIO6)'
p4338
sg13
S'climate'
p4339
sg15
S'he4570'
p4340
sg17
S'../views/GTiff/clim.he4570.bio07.tif'
p4341
sg19
S'45'
p4342
sg21
g22
(g24
S'\x0c\x19\x00\x00\x00\x00\x00\x00'
tRp4343
sg26
S'Temperature Annual Range (BIO5-BIO6) HE RCP45 2070'
p4344
sg28
g29
sg30
S'clim'
p4345
sg32
g33
sg34
S'clim.he4570.bio07.tif'
p4346
sg36
S'clim.he4570.bio07'
p4347
sg38
g39
sg40
I4326
sg41
S'2070'
p4348
ssS'bio11'
p4349
(dp4350
g6
S'he4570.bio11'
p4351
sg8
I186
sg9
S'bio11'
p4352
sg11
S'Mean Temperature of Coldest Quarter'
p4353
sg13
S'climate'
p4354
sg15
S'he4570'
p4355
sg17
S'../views/GTiff/clim.he4570.bio11.tif'
p4356
sg19
S'45'
p4357
sg21
g22
(g24
S'\x10\x19\x00\x00\x00\x00\x00\x00'
tRp4358
sg26
S'Mean Temperature of Coldest Quarter HE RCP45 2070'
p4359
sg28
g29
sg30
S'clim'
p4360
sg32
g33
sg34
S'clim.he4570.bio11.tif'
p4361
sg36
S'clim.he4570.bio11'
p4362
sg38
g39
sg40
I4326
sg41
S'2070'
p4363
ssS'bio05'
p4364
(dp4365
g6
S'he4570.bio05'
p4366
sg8
I189
sg9
S'bio05'
p4367
sg11
S'Max Temperature of Warmest Month'
p4368
sg13
S'climate'
p4369
sg15
S'he4570'
p4370
sg17
S'../views/GTiff/clim.he4570.bio05.tif'
p4371
sg19
S'45'
p4372
sg21
g22
(g24
S'\x0e\x19\x00\x00\x00\x00\x00\x00'
tRp4373
sg26
S'Max Temperature of Warmest Month HE RCP45 2070'
p4374
sg28
g29
sg30
S'clim'
p4375
sg32
g33
sg34
S'clim.he4570.bio05.tif'
p4376
sg36
S'clim.he4570.bio05'
p4377
sg38
g39
sg40
I4326
sg41
S'2070'
p4378
ssS'bio13'
p4379
(dp4380
g6
S'he4570.bio13'
p4381
sg8
I131
sg9
S'bio13'
p4382
sg11
S'Precipitation of Wettest Month'
p4383
sg13
S'climate'
p4384
sg15
S'he4570'
p4385
sg17
S'../views/GTiff/clim.he4570.bio13.tif'
p4386
sg19
S'45'
p4387
sg21
g22
(g24
S'\x12\x19\x00\x00\x00\x00\x00\x00'
tRp4388
sg26
S'Precipitation of Wettest Month HE RCP45 2070'
p4389
sg28
g29
sg30
S'clim'
p4390
sg32
g33
sg34
S'clim.he4570.bio13.tif'
p4391
sg36
S'clim.he4570.bio13'
p4392
sg38
g39
sg40
I4326
sg41
S'2070'
p4393
ssS'bio14'
p4394
(dp4395
g6
S'he4570.bio14'
p4396
sg8
I147
sg9
S'bio14'
p4397
sg11
S'Precipitation of Driest Month'
p4398
sg13
S'climate'
p4399
sg15
S'he4570'
p4400
sg17
S'../views/GTiff/clim.he4570.bio14.tif'
p4401
sg19
S'45'
p4402
sg21
g22
(g24
S'\x13\x19\x00\x00\x00\x00\x00\x00'
tRp4403
sg26
S'Precipitation of Driest Month HE RCP45 2070'
p4404
sg28
g29
sg30
S'clim'
p4405
sg32
g33
sg34
S'clim.he4570.bio14.tif'
p4406
sg36
S'clim.he4570.bio14'
p4407
sg38
g39
sg40
I4326
sg41
S'2070'
p4408
ssS'bio02'
p4409
(dp4410
g6
S'he4570.bio02'
p4411
sg8
I125
sg9
S'bio02'
p4412
sg11
S'Mean Diurnal Range (Mean of monthly (max temp - min temp))'
p4413
sg13
S'climate'
p4414
sg15
S'he4570'
p4415
sg17
S'../views/GTiff/clim.he4570.bio02.tif'
p4416
sg19
S'45'
p4417
sg21
g22
(g24
S'\xf1\x18\x00\x00\x00\x00\x00\x00'
tRp4418
sg26
S'Mean Diurnal Range (Mean of monthly (max temp - min temp)) HE RCP45 2070'
p4419
sg28
g29
sg30
S'clim'
p4420
sg32
g33
sg34
S'clim.he4570.bio02.tif'
p4421
sg36
S'clim.he4570.bio02'
p4422
sg38
g39
sg40
I4326
sg41
S'2070'
p4423
ssS'bio01'
p4424
(dp4425
g6
S'he4570.bio01'
p4426
sg8
I254
sg9
S'bio01'
p4427
sg11
S'Annual Mean Temperature'
p4428
sg13
S'climate'
p4429
sg15
S'he4570'
p4430
sg17
S'../views/GTiff/clim.he4570.bio01.tif'
p4431
sg19
S'45'
p4432
sg21
g22
(g24
S'\xf2\x18\x00\x00\x00\x00\x00\x00'
tRp4433
sg26
S'Annual Mean Temperature HE RCP45 2070'
p4434
sg28
g29
sg30
S'clim'
p4435
sg32
g33
sg34
S'clim.he4570.bio01.tif'
p4436
sg36
S'clim.he4570.bio01'
p4437
sg38
g39
sg40
I4326
sg41
S'2070'
p4438
ssS'bio17'
p4439
(dp4440
g6
S'he4570.bio17'
p4441
sg8
I79
sg9
S'bio17'
p4442
sg11
S'Precipitation of Driest Quarter'
p4443
sg13
S'climate'
p4444
sg15
S'he4570'
p4445
sg17
S'../views/GTiff/clim.he4570.bio17.tif'
p4446
sg19
S'45'
p4447
sg21
g22
(g24
S'\x16\x19\x00\x00\x00\x00\x00\x00'
tRp4448
sg26
S'Precipitation of Driest Quarter HE RCP45 2070'
p4449
sg28
g29
sg30
S'clim'
p4450
sg32
g33
sg34
S'clim.he4570.bio17.tif'
p4451
sg36
S'clim.he4570.bio17'
p4452
sg38
g39
sg40
I4326
sg41
S'2070'
p4453
ssS'bio18'
p4454
(dp4455
g6
S'he4570.bio18'
p4456
sg8
I181
sg9
S'bio18'
p4457
sg11
S'Precipitation of Warmest Quarter'
p4458
sg13
S'climate'
p4459
sg15
S'he4570'
p4460
sg17
S'../views/GTiff/clim.he4570.bio18.tif'
p4461
sg19
S'45'
p4462
sg21
g22
(g24
S'\x17\x19\x00\x00\x00\x00\x00\x00'
tRp4463
sg26
S'Precipitation of Warmest Quarter HE RCP45 2070'
p4464
sg28
g29
sg30
S'clim'
p4465
sg32
g33
sg34
S'clim.he4570.bio18.tif'
p4466
sg36
S'clim.he4570.bio18'
p4467
sg38
g39
sg40
I4326
sg41
S'2070'
p4468
ssS'bio19'
p4469
(dp4470
g6
S'he4570.bio19'
p4471
sg8
I69
sg9
S'bio19'
p4472
sg11
S'Precipitation of Coldest Quarter'
p4473
sg13
S'climate'
p4474
sg15
S'he4570'
p4475
sg17
S'../views/GTiff/clim.he4570.bio19.tif'
p4476
sg19
S'45'
p4477
sg21
g22
(g24
S'\x18\x19\x00\x00\x00\x00\x00\x00'
tRp4478
sg26
S'Precipitation of Coldest Quarter HE RCP45 2070'
p4479
sg28
g29
sg30
S'clim'
p4480
sg32
g33
sg34
S'clim.he4570.bio19.tif'
p4481
sg36
S'clim.he4570.bio19'
p4482
sg38
g39
sg40
I4326
sg41
S'2070'
p4483
ssS'bio03'
p4484
(dp4485
g6
S'he4570.bio03'
p4486
sg8
I156
sg9
S'bio03'
p4487
sg11
S'Isothermality (BIO2/BIO7) (* 100)'
p4488
sg13
S'climate'
p4489
sg15
S'he4570'
p4490
sg17
S'../views/GTiff/clim.he4570.bio03.tif'
p4491
sg19
S'45'
p4492
sg21
g22
(g24
S'\xf0\x18\x00\x00\x00\x00\x00\x00'
tRp4493
sg26
S'Isothermality (BIO2/BIO7) (* 100) HE RCP45 2070'
p4494
sg28
g29
sg30
S'clim'
p4495
sg32
g33
sg34
S'clim.he4570.bio03.tif'
p4496
sg36
S'clim.he4570.bio03'
p4497
sg38
g39
sg40
I4326
sg41
S'2070'
p4498
ssS'bio04'
p4499
(dp4500
g6
S'he4570.bio04'
p4501
sg8
I44
sg9
S'bio04'
p4502
sg11
S'Temperature Seasonality (standard deviation *100)'
p4503
sg13
S'climate'
p4504
sg15
S'he4570'
p4505
sg17
S'../views/GTiff/clim.he4570.bio04.tif'
p4506
sg19
S'45'
p4507
sg21
g22
(g24
S'\xef\x18\x00\x00\x00\x00\x00\x00'
tRp4508
sg26
S'Temperature Seasonality (standard deviation *100) HE RCP45 2070'
p4509
sg28
g29
sg30
S'clim'
p4510
sg32
g33
sg34
S'clim.he4570.bio04.tif'
p4511
sg36
S'clim.he4570.bio04'
p4512
sg38
g39
sg40
I4326
sg41
S'2070'
p4513
ssS'bio08'
p4514
(dp4515
g6
S'he4570.bio08'
p4516
sg8
I241
sg9
S'bio08'
p4517
sg11
S'Mean Temperature of Wettest Quarter'
p4518
sg13
S'climate'
p4519
sg15
S'he4570'
p4520
sg17
S'../views/GTiff/clim.he4570.bio08.tif'
p4521
sg19
S'45'
p4522
sg21
g22
(g24
S'\x1a\x19\x00\x00\x00\x00\x00\x00'
tRp4523
sg26
S'Mean Temperature of Wettest Quarter HE RCP45 2070'
p4524
sg28
g29
sg30
S'clim'
p4525
sg32
g33
sg34
S'clim.he4570.bio08.tif'
p4526
sg36
S'clim.he4570.bio08'
p4527
sg38
g39
sg40
I4326
sg41
S'2070'
p4528
sss.