(dp1
S'Caede_Ti12'
p2
(dp3
S'modTime'
p4
S'2014-11-21 16:02:49'
p5
sS'metadataUrl'
p6
S'http://lifemapper.org/services/sdm/experiments/1208739'
p7
sS'speciesName'
p8
g2
sS'bbox'
p9
S'(-179.17, 14.5, -52.67, 83.17)'
p10
sS'statusModTime'
p11
S'2014-11-21 16:02:49'
p12
sS'id'
p13
S'1208739'
p14
sS'epsgcode'
p15
S'4326'
p16
sS'user'
p17
S'CWBFbase1'
p18
sS'createTime'
p19
S'2014-11-21 16:02:49'
p20
sS'description'
p21
S'Test run2'
p22
ssS'Caede_MB2'
p23
(dp24
g4
S'2014-11-21 16:03:23'
p25
sg6
S'http://lifemapper.org/services/sdm/experiments/1208740'
p26
sg8
g23
sg9
S'(-179.17, 14.5, -52.67, 83.17)'
p27
sg11
S'2014-11-21 16:03:23'
p28
sg13
S'1208740'
p29
sg15
S'4326'
p30
sg17
S'CWBFbase1'
p31
sg19
S'2014-11-21 16:03:23'
p32
sg21
S'Test run2'
p33
ssS'CG'
p34
(dp35
g4
S'2014-11-21 18:29:09'
p36
sg6
S'http://lifemapper.org/services/sdm/experiments/1208741'
p37
sg8
g34
sg9
S'(-179.17, 14.5, -52.67, 83.17)'
p38
sg11
S'2014-11-21 18:29:09'
p39
sg13
S'1208741'
p40
sg15
S'4326'
p41
sg17
S'CWBFbase1'
p42
sg19
S'2014-11-21 18:29:09'
p43
sg21
S'Test run2'
p44
ssS'Caede_LUD3'
p45
(dp46
g4
S'2014-11-21 16:02:51'
p47
sg6
S'http://lifemapper.org/services/sdm/experiments/1208742'
p48
sg8
g45
sg9
S'(-179.17, 14.5, -52.67, 83.17)'
p49
sg11
S'2014-11-21 16:02:51'
p50
sg13
S'1208742'
p51
sg15
S'4326'
p52
sg17
S'CWBFbase1'
p53
sg19
S'2014-11-21 16:02:51'
p54
sg21
S'Test run2'
p55
ssS'Caede_CM9'
p56
(dp57
g4
S'2014-11-21 18:57:15'
p58
sg6
S'http://lifemapper.org/services/sdm/experiments/1208743'
p59
sg8
g56
sg9
S'(-179.17, 14.5, -52.67, 83.17)'
p60
sg11
S'2014-11-21 18:57:15'
p61
sg13
S'1208743'
p62
sg15
S'4326'
p63
sg17
S'CWBFbase1'
p64
sg19
S'2014-11-21 18:57:15'
p65
sg21
S'Test run2'
p66
ssS'Cacon_BS20'
p67
(dp68
g4
S'2014-11-21 18:56:22'
p69
sg6
S'http://lifemapper.org/services/sdm/experiments/1208744'
p70
sg8
g67
sg9
S'(-179.17, 14.5, -52.67, 83.17)'
p71
sg11
S'2014-11-21 18:56:22'
p72
sg13
S'1208744'
p73
sg15
S'4326'
p74
sg17
S'CWBFbase1'
p75
sg19
S'2014-11-21 18:56:22'
p76
sg21
S'Test run2'
p77
ssS'Camar_CAR28'
p78
(dp79
g4
S'2014-11-21 16:02:37'
p80
sg6
S'http://lifemapper.org/services/sdm/experiments/1208745'
p81
sg8
g78
sg9
S'(-179.17, 14.5, -52.67, 83.17)'
p82
sg11
S'2014-11-21 16:02:37'
p83
sg13
S'1208745'
p84
sg15
S'4326'
p85
sg17
S'CWBFbase1'
p86
sg19
S'2014-11-21 16:02:37'
p87
sg21
S'Test run2'
p88
ssS'Caede_PJ19'
p89
(dp90
g4
S'2014-11-21 16:03:19'
p91
sg6
S'http://lifemapper.org/services/sdm/experiments/1208746'
p92
sg8
g89
sg9
S'(-179.17, 14.5, -52.67, 83.17)'
p93
sg11
S'2014-11-21 16:03:19'
p94
sg13
S'1208746'
p95
sg15
S'4326'
p96
sg17
S'CWBFbase1'
p97
sg19
S'2014-11-21 16:03:19'
p98
sg21
S'Test run2'
p99
ss.