(dp1
S'CMM'
p2
(dp3
S'modTime'
p4
S'2014-11-20 10:52:24'
p5
sS'metadataUrl'
p6
S'http://lifemapper.org/services/sdm/experiments/1207537'
p7
sS'speciesName'
p8
g2
sS'bbox'
p9
S'(-179.17, 14.5, -52.67, 83.17)'
p10
sS'statusModTime'
p11
S'2014-11-20 10:52:24'
p12
sS'id'
p13
S'1207537'
p14
sS'epsgcode'
p15
S'4326'
p16
sS'user'
p17
S'Frantest2'
p18
sS'createTime'
p19
S'2014-11-20 10:52:24'
p20
sS'description'
p21
S'Test run2'
p22
ssS'Calan_UI4'
p23
(dp24
g4
S'2014-11-20 11:12:07'
p25
sg6
S'http://lifemapper.org/services/sdm/experiments/1207539'
p26
sg8
g23
sg9
S'(-179.17, 14.5, -52.67, 83.17)'
p27
sg11
S'2014-11-20 11:12:07'
p28
sg13
S'1207539'
p29
sg15
S'4326'
p30
sg17
S'Frantest2'
p31
sg19
S'2014-11-20 11:12:07'
p32
sg21
S'Test run2'
p33
ssS'CMB'
p34
(dp35
g4
S'2014-11-20 02:49:38'
p36
sg6
S'http://lifemapper.org/services/sdm/experiments/1207540'
p37
sg8
g34
sg9
S'(-179.17, 14.5, -52.67, 83.17)'
p38
sg11
S'2014-11-20 02:49:38'
p39
sg13
S'1207540'
p40
sg15
S'4326'
p41
sg17
S'Frantest2'
p42
sg19
S'2014-11-20 02:49:38'
p43
sg21
S'Test run2'
p44
ssS'Caede_LUD3'
p45
(dp46
g4
S'2014-11-20 04:30:55'
p47
sg6
S'http://lifemapper.org/services/sdm/experiments/1207541'
p48
sg8
g45
sg9
S'(-179.17, 14.5, -52.67, 83.17)'
p49
sg11
S'2014-11-20 04:30:55'
p50
sg13
S'1207541'
p51
sg15
S'4326'
p52
sg17
S'Frantest2'
p53
sg19
S'2014-11-20 04:30:55'
p54
sg21
S'Test run2'
p55
ssS'Ereru_1944C'
p56
(dp57
g4
S'2014-11-19 22:36:24'
p58
sg6
S'http://lifemapper.org/services/sdm/experiments/1207543'
p59
sg8
g56
sg9
S'(-179.17, 14.5, -52.67, 83.17)'
p60
sg11
S'2014-11-19 22:36:24'
p61
sg13
S'1207543'
p62
sg15
S'4326'
p63
sg17
S'Frantest2'
p64
sg19
S'2014-11-19 22:36:24'
p65
sg21
S'Test run2'
p66
ssS'Calan_BER1'
p67
(dp68
g4
S'2014-11-20 10:52:52'
p69
sg6
S'http://lifemapper.org/services/sdm/experiments/1207544'
p70
sg8
g67
sg9
S'(-179.17, 14.5, -52.67, 83.17)'
p71
sg11
S'2014-11-20 10:52:52'
p72
sg13
S'1207544'
p73
sg15
S'4326'
p74
sg17
S'Frantest2'
p75
sg19
S'2014-11-20 10:52:52'
p76
sg21
S'Test run2'
p77
ssS'Calan_C122'
p78
(dp79
g4
S'2014-11-20 05:31:11'
p80
sg6
S'http://lifemapper.org/services/sdm/experiments/1207546'
p81
sg8
g78
sg9
S'(-179.17, 14.5, -52.67, 83.17)'
p82
sg11
S'2014-11-20 05:31:11'
p83
sg13
S'1207546'
p84
sg15
S'4326'
p85
sg17
S'Frantest2'
p86
sg19
S'2014-11-20 05:31:11'
p87
sg21
S'Test run2'
p88
ssS'Calan_MC6'
p89
(dp90
g4
S'2014-11-20 11:12:07'
p91
sg6
S'http://lifemapper.org/services/sdm/experiments/1207552'
p92
sg8
g89
sg9
S'(-179.17, 14.5, -52.67, 83.17)'
p93
sg11
S'2014-11-20 11:12:07'
p94
sg13
S'1207552'
p95
sg15
S'4326'
p96
sg17
S'Frantest2'
p97
sg19
S'2014-11-20 11:12:07'
p98
sg21
S'Test run2'
p99
ssS'Caarc_TRUM13'
p100
(dp101
g4
S'2014-11-19 23:01:23'
p102
sg6
S'http://lifemapper.org/services/sdm/experiments/1207547'
p103
sg8
g100
sg9
S'(-179.17, 14.5, -52.67, 83.17)'
p104
sg11
S'2014-11-19 23:01:23'
p105
sg13
S'1207547'
p106
sg15
S'4326'
p107
sg17
S'Frantest2'
p108
sg19
S'2014-11-19 23:01:23'
p109
sg21
S'Test run2'
p110
ssS'Calan_BG4'
p111
(dp112
g4
S'2014-11-19 22:42:38'
p113
sg6
S'http://lifemapper.org/services/sdm/experiments/1207548'
p114
sg8
g111
sg9
S'(-179.17, 14.5, -52.67, 83.17)'
p115
sg11
S'2014-11-19 22:42:38'
p116
sg13
S'1207548'
p117
sg15
S'4326'
p118
sg17
S'Frantest2'
p119
sg19
S'2014-11-19 22:42:38'
p120
sg21
S'Test run2'
p121
ssS'Caara_12'
p122
(dp123
g4
S'2014-11-19 22:49:25'
p124
sg6
S'http://lifemapper.org/services/sdm/experiments/1207549'
p125
sg8
g122
sg9
S'(-179.17, 14.5, -52.67, 83.17)'
p126
sg11
S'2014-11-19 22:49:25'
p127
sg13
S'1207549'
p128
sg15
S'4326'
p129
sg17
S'Frantest2'
p130
sg19
S'2014-11-19 22:49:25'
p131
sg21
S'Test run2'
p132
ssS'Calan_C145'
p133
(dp134
g4
S'2014-11-19 23:02:53'
p135
sg6
S'http://lifemapper.org/services/sdm/experiments/1207551'
p136
sg8
g133
sg9
S'(-179.17, 14.5, -52.67, 83.17)'
p137
sg11
S'2014-11-19 23:02:53'
p138
sg13
S'1207551'
p139
sg15
S'4326'
p140
sg17
S'Frantest2'
p141
sg19
S'2014-11-19 23:02:53'
p142
sg21
S'Test run2'
p143
ssS'Calan_C19'
p144
(dp145
g4
S'2014-11-20 11:11:08'
p146
sg6
S'http://lifemapper.org/services/sdm/experiments/1207553'
p147
sg8
g144
sg9
S'(-179.17, 14.5, -52.67, 83.17)'
p148
sg11
S'2014-11-20 11:11:08'
p149
sg13
S'1207553'
p150
sg15
S'4326'
p151
sg17
S'Frantest2'
p152
sg19
S'2014-11-20 11:11:08'
p153
sg21
S'Test run2'
p154
ssS'Camar_CAR28'
p155
(dp156
g4
S'2014-11-20 05:31:11'
p157
sg6
S'http://lifemapper.org/services/sdm/experiments/1207554'
p158
sg8
g155
sg9
S'(-179.17, 14.5, -52.67, 83.17)'
p159
sg11
S'2014-11-20 05:31:11'
p160
sg13
S'1207554'
p161
sg15
S'4326'
p162
sg17
S'Frantest2'
p163
sg19
S'2014-11-20 05:31:11'
p164
sg21
S'Test run2'
p165
ssS'Caede_MB2'
p166
(dp167
g4
S'2014-11-20 04:10:10'
p168
sg6
S'http://lifemapper.org/services/sdm/experiments/1207556'
p169
sg8
g166
sg9
S'(-179.17, 14.5, -52.67, 83.17)'
p170
sg11
S'2014-11-20 04:10:10'
p171
sg13
S'1207556'
p172
sg15
S'4326'
p173
sg17
S'Frantest2'
p174
sg19
S'2014-11-20 04:10:10'
p175
sg21
S'Test run2'
p176
ssS'CG'
p177
(dp178
g4
S'2014-11-20 11:12:07'
p179
sg6
S'http://lifemapper.org/services/sdm/experiments/1207557'
p180
sg8
g177
sg9
S'(-179.17, 14.5, -52.67, 83.17)'
p181
sg11
S'2014-11-20 11:12:07'
p182
sg13
S'1207557'
p183
sg15
S'4326'
p184
sg17
S'Frantest2'
p185
sg19
S'2014-11-20 11:12:07'
p186
sg21
S'Test run2'
p187
ssS'Caede_CM9'
p188
(dp189
g4
S'2014-11-20 04:30:55'
p190
sg6
S'http://lifemapper.org/services/sdm/experiments/1207559'
p191
sg8
g188
sg9
S'(-179.17, 14.5, -52.67, 83.17)'
p192
sg11
S'2014-11-20 04:30:55'
p193
sg13
S'1207559'
p194
sg15
S'4326'
p195
sg17
S'Frantest2'
p196
sg19
S'2014-11-20 04:30:55'
p197
sg21
S'Test run2'
p198
ssS'Eroll_2983D'
p199
(dp200
g4
S'2014-11-19 22:59:38'
p201
sg6
S'http://lifemapper.org/services/sdm/experiments/1207560'
p202
sg8
g199
sg9
S'(-179.17, 14.5, -52.67, 83.17)'
p203
sg11
S'2014-11-19 22:59:38'
p204
sg13
S'1207560'
p205
sg15
S'4326'
p206
sg17
S'Frantest2'
p207
sg19
S'2014-11-19 22:59:38'
p208
sg21
S'Test run2'
p209
ssS'Caede_Ti12'
p210
(dp211
g4
S'2014-11-19 23:07:23'
p212
sg6
S'http://lifemapper.org/services/sdm/experiments/1207561'
p213
sg8
g210
sg9
S'(-179.17, 14.5, -52.67, 83.17)'
p214
sg11
S'2014-11-19 23:07:23'
p215
sg13
S'1207561'
p216
sg15
S'4326'
p217
sg17
S'Frantest2'
p218
sg19
S'2014-11-19 23:07:23'
p219
sg21
S'Test run2'
p220
ssS'Camar_1396C'
p221
(dp222
g4
S'2014-11-20 03:46:41'
p223
sg6
S'http://lifemapper.org/services/sdm/experiments/1207563'
p224
sg8
g221
sg9
S'(-179.17, 14.5, -52.67, 83.17)'
p225
sg11
S'2014-11-20 03:46:41'
p226
sg13
S'1207563'
p227
sg15
S'4326'
p228
sg17
S'Frantest2'
p229
sg19
S'2014-11-20 03:46:41'
p230
sg21
S'Test run2'
p231
ssS'Calan_NPB2'
p232
(dp233
g4
S'2014-11-20 04:31:21'
p234
sg6
S'http://lifemapper.org/services/sdm/experiments/1207564'
p235
sg8
g232
sg9
S'(-179.17, 14.5, -52.67, 83.17)'
p236
sg11
S'2014-11-20 04:31:21'
p237
sg13
S'1207564'
p238
sg15
S'4326'
p239
sg17
S'Frantest2'
p240
sg19
S'2014-11-20 04:31:21'
p241
sg21
S'Test run2'
p242
ssS'Erhis_2055F'
p243
(dp244
g4
S'2014-11-19 23:02:53'
p245
sg6
S'http://lifemapper.org/services/sdm/experiments/1207566'
p246
sg8
g243
sg9
S'(-179.17, 14.5, -52.67, 83.17)'
p247
sg11
S'2014-11-19 23:02:53'
p248
sg13
S'1207566'
p249
sg15
S'4326'
p250
sg17
S'Frantest2'
p251
sg19
S'2014-11-19 23:02:53'
p252
sg21
S'Test run2'
p253
ssS'Cacon_BS20'
p254
(dp255
g4
S'2014-11-20 13:22:38'
p256
sg6
S'http://lifemapper.org/services/sdm/experiments/1207567'
p257
sg8
g254
sg9
S'(-179.17, 14.5, -52.67, 83.17)'
p258
sg11
S'2014-11-20 13:22:38'
p259
sg13
S'1207567'
p260
sg15
S'4326'
p261
sg17
S'Frantest2'
p262
sg19
S'2014-11-20 13:22:38'
p263
sg21
S'Test run2'
p264
ssS'Caede_PJ19'
p265
(dp266
g4
S'2014-11-20 10:52:52'
p267
sg6
S'http://lifemapper.org/services/sdm/experiments/1207568'
p268
sg8
g265
sg9
S'(-179.17, 14.5, -52.67, 83.17)'
p269
sg11
S'2014-11-20 10:52:52'
p270
sg13
S'1207568'
p271
sg15
S'4326'
p272
sg17
S'Frantest2'
p273
sg19
S'2014-11-20 10:52:52'
p274
sg21
S'Test run2'
p275
ss.