(dp1
S'Caede_Ti12'
p2
(dp3
S'modTime'
p4
S'2015-02-22 18:47:50'
p5
sS'metadataUrl'
p6
S'http://lifemapper.org/services/sdm/experiments/1399686'
p7
sS'speciesName'
p8
g2
sS'bbox'
p9
S'(-179.17, 14.5, -52.67, 83.17)'
p10
sS'statusModTime'
p11
S'2015-02-22 18:47:50'
p12
sS'id'
p13
S'1399686'
p14
sS'epsgcode'
p15
S'4326'
p16
sS'user'
p17
S'12345'
p18
sS'createTime'
p19
S'2015-02-22 18:47:50'
p20
sS'description'
p21
S'Test run2'
p22
ssS'Caede_MB2'
p23
(dp24
g4
S'2015-02-22 12:35:14'
p25
sg6
S'http://lifemapper.org/services/sdm/experiments/1399687'
p26
sg8
g23
sg9
S'(-179.17, 14.5, -52.67, 83.17)'
p27
sg11
S'2015-02-22 12:35:14'
p28
sg13
S'1399687'
p29
sg15
S'4326'
p30
sg17
S'12345'
p31
sg19
S'2015-02-22 12:35:14'
p32
sg21
S'Test run2'
p33
ssS'CG'
p34
(dp35
g4
S'2015-02-22 18:47:50'
p36
sg6
S'http://lifemapper.org/services/sdm/experiments/1399688'
p37
sg8
g34
sg9
S'(-179.17, 14.5, -52.67, 83.17)'
p38
sg11
S'2015-02-22 18:47:50'
p39
sg13
S'1399688'
p40
sg15
S'4326'
p41
sg17
S'12345'
p42
sg19
S'2015-02-22 18:47:50'
p43
sg21
S'Test run2'
p44
ssS'Caede_LUD3'
p45
(dp46
g4
S'2015-02-22 12:38:03'
p47
sg6
S'http://lifemapper.org/services/sdm/experiments/1399689'
p48
sg8
g45
sg9
S'(-179.17, 14.5, -52.67, 83.17)'
p49
sg11
S'2015-02-22 12:38:03'
p50
sg13
S'1399689'
p51
sg15
S'4326'
p52
sg17
S'12345'
p53
sg19
S'2015-02-22 12:38:03'
p54
sg21
S'Test run2'
p55
ssS'Caede_CM9'
p56
(dp57
g4
S'2015-02-22 12:39:44'
p58
sg6
S'http://lifemapper.org/services/sdm/experiments/1399690'
p59
sg8
g56
sg9
S'(-179.17, 14.5, -52.67, 83.17)'
p60
sg11
S'2015-02-22 12:39:44'
p61
sg13
S'1399690'
p62
sg15
S'4326'
p63
sg17
S'12345'
p64
sg19
S'2015-02-22 12:39:44'
p65
sg21
S'Test run2'
p66
ssS'Cacon_BS20'
p67
(dp68
g4
S'2015-02-22 13:53:50'
p69
sg6
S'http://lifemapper.org/services/sdm/experiments/1399691'
p70
sg8
g67
sg9
S'(-179.17, 14.5, -52.67, 83.17)'
p71
sg11
S'2015-02-22 13:53:50'
p72
sg13
S'1399691'
p73
sg15
S'4326'
p74
sg17
S'12345'
p75
sg19
S'2015-02-22 13:53:50'
p76
sg21
S'Test run2'
p77
ssS'Camar_CAR28'
p78
(dp79
g4
S'2015-02-23 06:03:40'
p80
sg6
S'http://lifemapper.org/services/sdm/experiments/1399692'
p81
sg8
g78
sg9
S'(-179.17, 14.5, -52.67, 83.17)'
p82
sg11
S'2015-02-23 06:03:40'
p83
sg13
S'1399692'
p84
sg15
S'4326'
p85
sg17
S'12345'
p86
sg19
S'2015-02-23 06:03:40'
p87
sg21
S'Test run2'
p88
ssS'Caede_PJ19'
p89
(dp90
g4
S'2015-02-22 12:35:49'
p91
sg6
S'http://lifemapper.org/services/sdm/experiments/1399693'
p92
sg8
g89
sg9
S'(-179.17, 14.5, -52.67, 83.17)'
p93
sg11
S'2015-02-22 12:35:49'
p94
sg13
S'1399693'
p95
sg15
S'4326'
p96
sg17
S'12345'
p97
sg19
S'2015-02-22 12:35:49'
p98
sg21
S'Test run2'
p99
ss.