(dp1
S'ac4570'
p2
(dp3
S'Bio2'
p4
(dp5
S'envLayerType'
p6
S'ac4570_Bio2'
p7
sS'Name'
p8
I14
sS'typeCode'
p9
S'Bio2'
p10
sS'typeCodeDescription'
p11
S'Mean Diurnal Range (Mean of monthly (max temp - min temp))'
p12
sS'RCP'
p13
S'45'
p14
sS'bioclim'
p15
S'ac4570'
p16
sS'filePath'
p17
S'../views/GTiff/clim.ac4570_Bio2.tif'
p18
sS'filterType'
p19
S'climate'
p20
sS'lyrID'
p21
S'5809'
p22
sS'layerDescription'
p23
S'Mean Diurnal Range (Mean of monthly (max temp - min temp)) AC RCP45 2070'
p24
sS'dataFormat'
p25
S'GTiff'
p26
sS'base'
p27
S'clim'
p28
sS'units'
p29
S'dd'
p30
sS'title'
p31
S'clim.ac4570_Bio2.tif'
p32
sS'fullname'
p33
S'clim.ac4570_Bio2'
p34
sS'resolution'
p35
S'10'
p36
sS'epsgCode'
p37
S'4326'
p38
sS'projectionDate'
p39
S'2070'
p40
ssS'Bio3'
p41
(dp42
g6
S'ac4570_Bio3'
p43
sg8
I15
sg9
S'Bio3'
p44
sg11
S'Isothermality (BIO2/BIO7) (* 100)'
p45
sg13
S'45'
p46
sg15
S'ac4570'
p47
sg17
S'../views/GTiff/clim.ac4570_Bio3.tif'
p48
sg19
S'climate'
p49
sg21
S'5810'
p50
sg23
S'Isothermality (BIO2/BIO7) (* 100) AC RCP45 2070'
p51
sg25
g26
sg27
S'clim'
p52
sg29
g30
sg31
S'clim.ac4570_Bio3.tif'
p53
sg33
S'clim.ac4570_Bio3'
p54
sg35
g36
sg37
g38
sg39
S'2070'
p55
ssS'Bio1'
p56
(dp57
g6
S'ac4570_Bio1'
p58
sg8
I11
sg9
S'Bio1'
p59
sg11
S'Annual Mean Temperature'
p60
sg13
S'45'
p61
sg15
g2
sg17
S'../views/GTiff/clim.ac4570_Bio1.tif'
p62
sg19
S'climate'
p63
sg21
S'5811'
p64
sg23
S'Annual Mean Temperature AC RCP45 2070'
p65
sg25
g26
sg27
S'clim'
p66
sg29
g30
sg31
S'clim.ac4570_Bio1.tif'
p67
sg33
S'clim.ac4570_Bio1'
p68
sg35
g36
sg37
g38
sg39
S'2070'
p69
sssS'CURR'
p70
(dp71
S'Bio2'
p72
(dp73
g6
S'CURR_Bio2'
p74
sg8
I13
sg9
S'Bio2'
p75
sg11
S'Mean Diurnal Range (Mean of monthly (max temp - min temp))'
p76
sg13
S'Present'
p77
sg15
S'CURR'
p78
sg17
S'../views/GTiff/clim.CURR_Bio2.tif'
p79
sg19
S'climate'
p80
sg21
S'5812'
p81
sg23
S'Mean Diurnal Range (Mean of monthly (max temp - min temp)) Current Climate 1960-2000'
p82
sg25
g26
sg27
S'clim'
p83
sg29
g30
sg31
S'clim.CURR_Bio2.tif'
p84
sg33
S'clim.CURR_Bio2'
p85
sg35
g36
sg37
g38
sg39
S'Present'
p86
ssS'Bio3'
p87
(dp88
g6
S'CURR_Bio3'
p89
sg8
I12
sg9
S'Bio3'
p90
sg11
S'Isothermality (BIO2/BIO7) (* 100)'
p91
sg13
S'Present'
p92
sg15
S'CURR'
p93
sg17
S'../views/GTiff/clim.CURR_Bio3.tif'
p94
sg19
S'climate'
p95
sg21
S'5813'
p96
sg23
S'Isothermality (BIO2/BIO7) (* 100) Current Climate 1960-2000'
p97
sg25
g26
sg27
S'clim'
p98
sg29
g30
sg31
S'clim.CURR_Bio3.tif'
p99
sg33
S'clim.CURR_Bio3'
p100
sg35
g36
sg37
g38
sg39
S'Present'
p101
ssS'Bio1'
p102
(dp103
g6
S'CURR_Bio1'
p104
sg8
I10
sg9
S'Bio1'
p105
sg11
S'Annual Mean Temperature'
p106
sg13
S'Present'
p107
sg15
g70
sg17
S'../views/GTiff/clim.CURR_Bio1.tif'
p108
sg19
S'climate'
p109
sg21
S'5814'
p110
sg23
S'Annual Mean Temperature Current Climate 1960-2000'
p111
sg25
g26
sg27
S'clim'
p112
sg29
g30
sg31
S'clim.CURR_Bio1.tif'
p113
sg33
S'clim.CURR_Bio1'
p114
sg35
g36
sg37
g38
sg39
S'Present'
p115
sss.