(dp1
S'CURR'
p2
(dp3
S'bio2'
p4
(dp5
S'envLayerType'
p6
S'CURR_bio2'
p7
sS'Name'
p8
I1008
sS'typeCode'
p9
S'Bio2'
p10
sS'typeCodeDescription'
p11
S'Mean Diurnal Range (Mean of monthly (max temp - min temp))'
p12
sS'RCP'
p13
S'Present'
p14
sS'bioclim'
p15
S'CURR'
p16
sS'title'
p17
S'clim.CURR_bio2.tif'
p18
sS'filterType'
p19
S'climate'
p20
sS'fileName'
p21
S'../views/GTiff/clim.CURR_bio2.tif'
p22
sS'lyrID'
p23
S'4481'
p24
sS'layerDescription'
p25
S'Mean Diurnal Range (Mean of monthly (max temp - min temp)) Current Climate 1960-2000'
p26
sS'dataFormat'
p27
S'GTiff'
p28
sS'units'
p29
S'dd'
p30
sS'fullname'
p31
S'clim.CURR_bio2'
p32
sS'resolution'
p33
S'2.5'
p34
sS'epsgCode'
p35
S'4326'
p36
sS'projectionDate'
p37
S'Present'
p38
ssS'bio4'
p39
(dp40
g6
S'CURR_bio4'
p41
sg8
I1006
sg9
S'Bio4'
p42
sg11
S'Temperature Seasonality (standard deviation *100)'
p43
sg13
S'Present'
p44
sg15
S'CURR'
p45
sg17
S'clim.CURR_bio4.tif'
p46
sg19
S'climate'
p47
sg21
S'../views/GTiff/clim.CURR_bio4.tif'
p48
sg23
S'4482'
p49
sg25
S'Temperature Seasonality (standard deviation *100) Current Climate 1960-2000'
p50
sg27
g28
sg29
g30
sg31
S'clim.CURR_bio4'
p51
sg33
g34
sg35
g36
sg37
S'Present'
p52
ssS'bio3'
p53
(dp54
g6
S'CURR_bio3'
p55
sg8
I1002
sg9
S'Bio3'
p56
sg11
S'Isothermality (BIO2/BIO7) (* 100)'
p57
sg13
S'Present'
p58
sg15
S'CURR'
p59
sg17
S'clim.CURR_bio3.tif'
p60
sg19
S'climate'
p61
sg21
S'../views/GTiff/clim.CURR_bio3.tif'
p62
sg23
S'4483'
p63
sg25
S'Isothermality (BIO2/BIO7) (* 100) Current Climate 1960-2000'
p64
sg27
g28
sg29
g30
sg31
S'clim.CURR_bio3'
p65
sg33
g34
sg35
g36
sg37
S'Present'
p66
ssS'bio17'
p67
(dp68
g6
S'CURR_bio17'
p69
sg8
I1013
sg9
S'Bio17'
p70
sg11
S'Precipitation of Driest Quarter'
p71
sg13
S'Present'
p72
sg15
S'CURR'
p73
sg17
S'clim.CURR_bio17.tif'
p74
sg19
S'climate'
p75
sg21
S'../views/GTiff/clim.CURR_bio17.tif'
p76
sg23
S'4484'
p77
sg25
S'Precipitation of Driest Quarter Current Climate 1960-2000'
p78
sg27
g28
sg29
g30
sg31
S'clim.CURR_bio17'
p79
sg33
g34
sg35
g36
sg37
S'Present'
p80
ssS'bio13'
p81
(dp82
g6
S'CURR_bio13'
p83
sg8
I1025
sg9
S'Bio13'
p84
sg11
S'Precipitation of Wettest Month'
p85
sg13
S'Present'
p86
sg15
S'CURR'
p87
sg17
S'clim.CURR_bio13.tif'
p88
sg19
S'climate'
p89
sg21
S'../views/GTiff/clim.CURR_bio13.tif'
p90
sg23
S'4485'
p91
sg25
S'Precipitation of Wettest Month Current Climate 1960-2000'
p92
sg27
g28
sg29
g30
sg31
S'clim.CURR_bio13'
p93
sg33
g34
sg35
g36
sg37
S'Present'
p94
ssS'bio14'
p95
(dp96
g6
S'CURR_bio14'
p97
sg8
I1019
sg9
S'Bio14'
p98
sg11
S'Precipitation of Driest Month'
p99
sg13
S'Present'
p100
sg15
S'CURR'
p101
sg17
S'clim.CURR_bio14.tif'
p102
sg19
S'climate'
p103
sg21
S'../views/GTiff/clim.CURR_bio14.tif'
p104
sg23
S'4486'
p105
sg25
S'Precipitation of Driest Month Current Climate 1960-2000'
p106
sg27
g28
sg29
g30
sg31
S'clim.CURR_bio14'
p107
sg33
g34
sg35
g36
sg37
S'Present'
p108
ssS'bio10'
p109
(dp110
g6
S'CURR_bio10'
p111
sg8
I1000
sg9
S'Bio10'
p112
sg11
S'Mean Temperature of Warmest Quarter'
p113
sg13
S'Present'
p114
sg15
S'CURR'
p115
sg17
S'clim.CURR_bio10.tif'
p116
sg19
S'climate'
p117
sg21
S'../views/GTiff/clim.CURR_bio10.tif'
p118
sg23
S'4487'
p119
sg25
S'Mean Temperature of Warmest Quarter Current Climate 1960-2000'
p120
sg27
g28
sg29
g30
sg31
S'clim.CURR_bio10'
p121
sg33
g34
sg35
g36
sg37
S'Present'
p122
ssS'bio11'
p123
(dp124
g6
S'CURR_bio11'
p125
sg8
I992
sg9
S'Bio11'
p126
sg11
S'Mean Temperature of Coldest Quarter'
p127
sg13
S'Present'
p128
sg15
S'CURR'
p129
sg17
S'clim.CURR_bio11.tif'
p130
sg19
S'climate'
p131
sg21
S'../views/GTiff/clim.CURR_bio11.tif'
p132
sg23
S'4488'
p133
sg25
S'Mean Temperature of Coldest Quarter Current Climate 1960-2000'
p134
sg27
g28
sg29
g30
sg31
S'clim.CURR_bio11'
p135
sg33
g34
sg35
g36
sg37
S'Present'
p136
ssS'bio12'
p137
(dp138
g6
S'CURR_bio12'
p139
sg8
I1004
sg9
S'Bio12'
p140
sg11
S'Annual Precipitation'
p141
sg13
S'Present'
p142
sg15
S'CURR'
p143
sg17
S'clim.CURR_bio12.tif'
p144
sg19
S'climate'
p145
sg21
S'../views/GTiff/clim.CURR_bio12.tif'
p146
sg23
S'4489'
p147
sg25
S'Annual Precipitation Current Climate 1960-2000'
p148
sg27
g28
sg29
g30
sg31
S'clim.CURR_bio12'
p149
sg33
g34
sg35
g36
sg37
S'Present'
p150
ssS'bio1'
p151
(dp152
g6
S'CURR_bio1'
p153
sg8
I996
sg9
S'Bio1'
p154
sg11
S'Annual Mean Temperature'
p155
sg13
S'Present'
p156
sg15
S'CURR'
p157
sg17
S'clim.CURR_bio1.tif'
p158
sg19
S'climate'
p159
sg21
S'../views/GTiff/clim.CURR_bio1.tif'
p160
sg23
S'4490'
p161
sg25
S'Annual Mean Temperature Current Climate 1960-2000'
p162
sg27
g28
sg29
g30
sg31
S'clim.CURR_bio1'
p163
sg33
g34
sg35
g36
sg37
S'Present'
p164
ssS'bio6'
p165
(dp166
g6
S'CURR_bio6'
p167
sg8
I1005
sg9
S'Bio6'
p168
sg11
S'Min Temperature of Coldest Month'
p169
sg13
S'Present'
p170
sg15
S'CURR'
p171
sg17
S'clim.CURR_bio6.tif'
p172
sg19
S'climate'
p173
sg21
S'../views/GTiff/clim.CURR_bio6.tif'
p174
sg23
S'4491'
p175
sg25
S'Min Temperature of Coldest Month Current Climate 1960-2000'
p176
sg27
g28
sg29
g30
sg31
S'clim.CURR_bio6'
p177
sg33
g34
sg35
g36
sg37
S'Present'
p178
ssS'bio7'
p179
(dp180
g6
S'CURR_bio7'
p181
sg8
I1011
sg9
S'Bio7'
p182
sg11
S'Temperature Annual Range (BIO5-BIO6)'
p183
sg13
S'Present'
p184
sg15
S'CURR'
p185
sg17
S'clim.CURR_bio7.tif'
p186
sg19
S'climate'
p187
sg21
S'../views/GTiff/clim.CURR_bio7.tif'
p188
sg23
S'4492'
p189
sg25
S'Temperature Annual Range (BIO5-BIO6) Current Climate 1960-2000'
p190
sg27
g28
sg29
g30
sg31
S'clim.CURR_bio7'
p191
sg33
g34
sg35
g36
sg37
S'Present'
p192
ssS'bio16'
p193
(dp194
g6
S'CURR_bio16'
p195
sg8
I983
sg9
S'Bio16'
p196
sg11
S'Precipitation of Wettest Quarter'
p197
sg13
S'Present'
p198
sg15
S'CURR'
p199
sg17
S'clim.CURR_bio16.tif'
p200
sg19
S'climate'
p201
sg21
S'../views/GTiff/clim.CURR_bio16.tif'
p202
sg23
S'4493'
p203
sg25
S'Precipitation of Wettest Quarter Current Climate 1960-2000'
p204
sg27
g28
sg29
g30
sg31
S'clim.CURR_bio16'
p205
sg33
g34
sg35
g36
sg37
S'Present'
p206
ssS'bio5'
p207
(dp208
g6
S'CURR_bio5'
p209
sg8
I989
sg9
S'Bio5'
p210
sg11
S'Max Temperature of Warmest Month'
p211
sg13
S'Present'
p212
sg15
S'CURR'
p213
sg17
S'clim.CURR_bio5.tif'
p214
sg19
S'climate'
p215
sg21
S'../views/GTiff/clim.CURR_bio5.tif'
p216
sg23
S'4494'
p217
sg25
S'Max Temperature of Warmest Month Current Climate 1960-2000'
p218
sg27
g28
sg29
g30
sg31
S'clim.CURR_bio5'
p219
sg33
g34
sg35
g36
sg37
S'Present'
p220
ssS'bio18'
p221
(dp222
g6
S'CURR_bio18'
p223
sg8
I1022
sg9
S'Bio18'
p224
sg11
S'Precipitation of Warmest Quarter'
p225
sg13
S'Present'
p226
sg15
S'CURR'
p227
sg17
S'clim.CURR_bio18.tif'
p228
sg19
S'climate'
p229
sg21
S'../views/GTiff/clim.CURR_bio18.tif'
p230
sg23
S'4495'
p231
sg25
S'Precipitation of Warmest Quarter Current Climate 1960-2000'
p232
sg27
g28
sg29
g30
sg31
S'clim.CURR_bio18'
p233
sg33
g34
sg35
g36
sg37
S'Present'
p234
ssS'bio19'
p235
(dp236
g6
S'CURR_bio19'
p237
sg8
I977
sg9
S'Bio19'
p238
sg11
S'Precipitation of Coldest Quarter'
p239
sg13
S'Present'
p240
sg15
g2
sg17
S'clim.CURR_bio19.tif'
p241
sg19
S'climate'
p242
sg21
S'../views/GTiff/clim.CURR_bio19.tif'
p243
sg23
S'4496'
p244
sg25
S'Precipitation of Coldest Quarter Current Climate 1960-2000'
p245
sg27
g28
sg29
g30
sg31
S'clim.CURR_bio19'
p246
sg33
g34
sg35
g36
sg37
S'Present'
p247
ssS'bio8'
p248
(dp249
g6
S'CURR_bio8'
p250
sg8
I1020
sg9
S'Bio8'
p251
sg11
S'Mean Temperature of Wettest Quarter'
p252
sg13
S'Present'
p253
sg15
S'CURR'
p254
sg17
S'clim.CURR_bio8.tif'
p255
sg19
S'climate'
p256
sg21
S'../views/GTiff/clim.CURR_bio8.tif'
p257
sg23
S'4497'
p258
sg25
S'Mean Temperature of Wettest Quarter Current Climate 1960-2000'
p259
sg27
g28
sg29
g30
sg31
S'clim.CURR_bio8'
p260
sg33
g34
sg35
g36
sg37
S'Present'
p261
ssS'bio9'
p262
(dp263
g6
S'CURR_bio9'
p264
sg8
I997
sg9
S'Bio9'
p265
sg11
S'Mean Temperature of Driest Quarter'
p266
sg13
S'Present'
p267
sg15
S'CURR'
p268
sg17
S'clim.CURR_bio9.tif'
p269
sg19
S'climate'
p270
sg21
S'../views/GTiff/clim.CURR_bio9.tif'
p271
sg23
S'4498'
p272
sg25
S'Mean Temperature of Driest Quarter Current Climate 1960-2000'
p273
sg27
g28
sg29
g30
sg31
S'clim.CURR_bio9'
p274
sg33
g34
sg35
g36
sg37
S'Present'
p275
ssS'bio15'
p276
(dp277
g6
S'CURR_bio15'
p278
sg8
I1028
sg9
S'Bio15'
p279
sg11
S'Precipitation Seasonality (Coefficient of Variation)'
p280
sg13
S'Present'
p281
sg15
S'CURR'
p282
sg17
S'clim.CURR_bio15.tif'
p283
sg19
S'climate'
p284
sg21
S'../views/GTiff/clim.CURR_bio15.tif'
p285
sg23
S'4499'
p286
sg25
S'Precipitation Seasonality (Coefficient of Variation) Current Climate 1960-2000'
p287
sg27
g28
sg29
g30
sg31
S'clim.CURR_bio15'
p288
sg33
g34
sg35
g36
sg37
S'Present'
p289
sssS'AC4570'
p290
(dp291
S'bio10'
p292
(dp293
g6
S'AC4570_bio10'
p294
sg8
I993
sg9
S'Bio10'
p295
sg11
S'Mean Temperature of Warmest Quarter'
p296
sg13
S'45'
p297
sg15
S'AC4570'
p298
sg17
S'clim.AC4570_bio10.tif'
p299
sg19
S'climate'
p300
sg21
S'../views/GTiff/clim.AC4570_bio10.tif'
p301
sg23
S'4500'
p302
sg25
S'Mean Temperature of Warmest Quarter AC RCP45 2070'
p303
sg27
g28
sg29
g30
sg31
S'clim.AC4570_bio10'
p304
sg33
g34
sg35
g36
sg37
S'2070'
p305
ssS'bio6'
p306
(dp307
g6
S'AC4570_bio6'
p308
sg8
I1012
sg9
S'Bio6'
p309
sg11
S'Min Temperature of Coldest Month'
p310
sg13
S'45'
p311
sg15
S'AC4570'
p312
sg17
S'clim.AC4570_bio6.tif'
p313
sg19
S'climate'
p314
sg21
S'../views/GTiff/clim.AC4570_bio6.tif'
p315
sg23
S'4501'
p316
sg25
S'Min Temperature of Coldest Month AC RCP45 2070'
p317
sg27
g28
sg29
g30
sg31
S'clim.AC4570_bio6'
p318
sg33
g34
sg35
g36
sg37
S'2070'
p319
ssS'bio13'
p320
(dp321
g6
S'AC4570_bio13'
p322
sg8
I994
sg9
S'Bio13'
p323
sg11
S'Precipitation of Wettest Month'
p324
sg13
S'45'
p325
sg15
S'AC4570'
p326
sg17
S'clim.AC4570_bio13.tif'
p327
sg19
S'climate'
p328
sg21
S'../views/GTiff/clim.AC4570_bio13.tif'
p329
sg23
S'4502'
p330
sg25
S'Precipitation of Wettest Month AC RCP45 2070'
p331
sg27
g28
sg29
g30
sg31
S'clim.AC4570_bio13'
p332
sg33
g34
sg35
g36
sg37
S'2070'
p333
ssS'bio3'
p334
(dp335
g6
S'AC4570_bio3'
p336
sg8
I1007
sg9
S'Bio3'
p337
sg11
S'Isothermality (BIO2/BIO7) (* 100)'
p338
sg13
S'45'
p339
sg15
S'AC4570'
p340
sg17
S'clim.AC4570_bio3.tif'
p341
sg19
S'climate'
p342
sg21
S'../views/GTiff/clim.AC4570_bio3.tif'
p343
sg23
S'4503'
p344
sg25
S'Isothermality (BIO2/BIO7) (* 100) AC RCP45 2070'
p345
sg27
g28
sg29
g30
sg31
S'clim.AC4570_bio3'
p346
sg33
g34
sg35
g36
sg37
S'2070'
p347
ssS'bio16'
p348
(dp349
g6
S'AC4570_bio16'
p350
sg8
I1017
sg9
S'Bio16'
p351
sg11
S'Precipitation of Wettest Quarter'
p352
sg13
S'45'
p353
sg15
S'AC4570'
p354
sg17
S'clim.AC4570_bio16.tif'
p355
sg19
S'climate'
p356
sg21
S'../views/GTiff/clim.AC4570_bio16.tif'
p357
sg23
S'4504'
p358
sg25
S'Precipitation of Wettest Quarter AC RCP45 2070'
p359
sg27
g28
sg29
g30
sg31
S'clim.AC4570_bio16'
p360
sg33
g34
sg35
g36
sg37
S'2070'
p361
ssS'bio17'
p362
(dp363
g6
S'AC4570_bio17'
p364
sg8
I1001
sg9
S'Bio17'
p365
sg11
S'Precipitation of Driest Quarter'
p366
sg13
S'45'
p367
sg15
S'AC4570'
p368
sg17
S'clim.AC4570_bio17.tif'
p369
sg19
S'climate'
p370
sg21
S'../views/GTiff/clim.AC4570_bio17.tif'
p371
sg23
S'4505'
p372
sg25
S'Precipitation of Driest Quarter AC RCP45 2070'
p373
sg27
g28
sg29
g30
sg31
S'clim.AC4570_bio17'
p374
sg33
g34
sg35
g36
sg37
S'2070'
p375
ssS'bio2'
p376
(dp377
g6
S'AC4570_bio2'
p378
sg8
I990
sg9
S'Bio2'
p379
sg11
S'Mean Diurnal Range (Mean of monthly (max temp - min temp))'
p380
sg13
S'45'
p381
sg15
S'AC4570'
p382
sg17
S'clim.AC4570_bio2.tif'
p383
sg19
S'climate'
p384
sg21
S'../views/GTiff/clim.AC4570_bio2.tif'
p385
sg23
S'4506'
p386
sg25
S'Mean Diurnal Range (Mean of monthly (max temp - min temp)) AC RCP45 2070'
p387
sg27
g28
sg29
g30
sg31
S'clim.AC4570_bio2'
p388
sg33
g34
sg35
g36
sg37
S'2070'
p389
ssS'bio11'
p390
(dp391
g6
S'AC4570_bio11'
p392
sg8
I979
sg9
S'Bio11'
p393
sg11
S'Mean Temperature of Coldest Quarter'
p394
sg13
S'45'
p395
sg15
S'AC4570'
p396
sg17
S'clim.AC4570_bio11.tif'
p397
sg19
S'climate'
p398
sg21
S'../views/GTiff/clim.AC4570_bio11.tif'
p399
sg23
S'4507'
p400
sg25
S'Mean Temperature of Coldest Quarter AC RCP45 2070'
p401
sg27
g28
sg29
g30
sg31
S'clim.AC4570_bio11'
p402
sg33
g34
sg35
g36
sg37
S'2070'
p403
ssS'bio12'
p404
(dp405
g6
S'AC4570_bio12'
p406
sg8
I1014
sg9
S'Bio12'
p407
sg11
S'Annual Precipitation'
p408
sg13
S'45'
p409
sg15
S'AC4570'
p410
sg17
S'clim.AC4570_bio12.tif'
p411
sg19
S'climate'
p412
sg21
S'../views/GTiff/clim.AC4570_bio12.tif'
p413
sg23
S'4508'
p414
sg25
S'Annual Precipitation AC RCP45 2070'
p415
sg27
g28
sg29
g30
sg31
S'clim.AC4570_bio12'
p416
sg33
g34
sg35
g36
sg37
S'2070'
p417
ssS'bio1'
p418
(dp419
g6
S'AC4570_bio1'
p420
sg8
I980
sg9
S'Bio1'
p421
sg11
S'Annual Mean Temperature'
p422
sg13
S'45'
p423
sg15
S'AC4570'
p424
sg17
S'clim.AC4570_bio1.tif'
p425
sg19
S'climate'
p426
sg21
S'../views/GTiff/clim.AC4570_bio1.tif'
p427
sg23
S'4509'
p428
sg25
S'Annual Mean Temperature AC RCP45 2070'
p429
sg27
g28
sg29
g30
sg31
S'clim.AC4570_bio1'
p430
sg33
g34
sg35
g36
sg37
S'2070'
p431
ssS'bio14'
p432
(dp433
g6
S'AC4570_bio14'
p434
sg8
I998
sg9
S'Bio14'
p435
sg11
S'Precipitation of Driest Month'
p436
sg13
S'45'
p437
sg15
S'AC4570'
p438
sg17
S'clim.AC4570_bio14.tif'
p439
sg19
S'climate'
p440
sg21
S'../views/GTiff/clim.AC4570_bio14.tif'
p441
sg23
S'4510'
p442
sg25
S'Precipitation of Driest Month AC RCP45 2070'
p443
sg27
g28
sg29
g30
sg31
S'clim.AC4570_bio14'
p444
sg33
g34
sg35
g36
sg37
S'2070'
p445
ssS'bio7'
p446
(dp447
g6
S'AC4570_bio7'
p448
sg8
I995
sg9
S'Bio7'
p449
sg11
S'Temperature Annual Range (BIO5-BIO6)'
p450
sg13
S'45'
p451
sg15
S'AC4570'
p452
sg17
S'clim.AC4570_bio7.tif'
p453
sg19
S'climate'
p454
sg21
S'../views/GTiff/clim.AC4570_bio7.tif'
p455
sg23
S'4511'
p456
sg25
S'Temperature Annual Range (BIO5-BIO6) AC RCP45 2070'
p457
sg27
g28
sg29
g30
sg31
S'clim.AC4570_bio7'
p458
sg33
g34
sg35
g36
sg37
S'2070'
p459
ssS'bio4'
p460
(dp461
g6
S'AC4570_bio4'
p462
sg8
I976
sg9
S'Bio4'
p463
sg11
S'Temperature Seasonality (standard deviation *100)'
p464
sg13
S'45'
p465
sg15
g290
sg17
S'clim.AC4570_bio4.tif'
p466
sg19
S'climate'
p467
sg21
S'../views/GTiff/clim.AC4570_bio4.tif'
p468
sg23
S'4512'
p469
sg25
S'Temperature Seasonality (standard deviation *100) AC RCP45 2070'
p470
sg27
g28
sg29
g30
sg31
S'clim.AC4570_bio4'
p471
sg33
g34
sg35
g36
sg37
S'2070'
p472
ssS'bio5'
p473
(dp474
g6
S'AC4570_bio5'
p475
sg8
I985
sg9
S'Bio5'
p476
sg11
S'Max Temperature of Warmest Month'
p477
sg13
S'45'
p478
sg15
S'AC4570'
p479
sg17
S'clim.AC4570_bio5.tif'
p480
sg19
S'climate'
p481
sg21
S'../views/GTiff/clim.AC4570_bio5.tif'
p482
sg23
S'4513'
p483
sg25
S'Max Temperature of Warmest Month AC RCP45 2070'
p484
sg27
g28
sg29
g30
sg31
S'clim.AC4570_bio5'
p485
sg33
g34
sg35
g36
sg37
S'2070'
p486
ssS'bio18'
p487
(dp488
g6
S'AC4570_bio18'
p489
sg8
I999
sg9
S'Bio18'
p490
sg11
S'Precipitation of Warmest Quarter'
p491
sg13
S'45'
p492
sg15
S'AC4570'
p493
sg17
S'clim.AC4570_bio18.tif'
p494
sg19
S'climate'
p495
sg21
S'../views/GTiff/clim.AC4570_bio18.tif'
p496
sg23
S'4514'
p497
sg25
S'Precipitation of Warmest Quarter AC RCP45 2070'
p498
sg27
g28
sg29
g30
sg31
S'clim.AC4570_bio18'
p499
sg33
g34
sg35
g36
sg37
S'2070'
p500
ssS'bio19'
p501
(dp502
g6
S'AC4570_bio19'
p503
sg8
I991
sg9
S'Bio19'
p504
sg11
S'Precipitation of Coldest Quarter'
p505
sg13
S'45'
p506
sg15
S'AC4570'
p507
sg17
S'clim.AC4570_bio19.tif'
p508
sg19
S'climate'
p509
sg21
S'../views/GTiff/clim.AC4570_bio19.tif'
p510
sg23
S'4515'
p511
sg25
S'Precipitation of Coldest Quarter AC RCP45 2070'
p512
sg27
g28
sg29
g30
sg31
S'clim.AC4570_bio19'
p513
sg33
g34
sg35
g36
sg37
S'2070'
p514
ssS'bio8'
p515
(dp516
g6
S'AC4570_bio8'
p517
sg8
I988
sg9
S'Bio8'
p518
sg11
S'Mean Temperature of Wettest Quarter'
p519
sg13
S'45'
p520
sg15
S'AC4570'
p521
sg17
S'clim.AC4570_bio8.tif'
p522
sg19
S'climate'
p523
sg21
S'../views/GTiff/clim.AC4570_bio8.tif'
p524
sg23
S'4516'
p525
sg25
S'Mean Temperature of Wettest Quarter AC RCP45 2070'
p526
sg27
g28
sg29
g30
sg31
S'clim.AC4570_bio8'
p527
sg33
g34
sg35
g36
sg37
S'2070'
p528
ssS'bio9'
p529
(dp530
g6
S'AC4570_bio9'
p531
sg8
I986
sg9
S'Bio9'
p532
sg11
S'Mean Temperature of Driest Quarter'
p533
sg13
S'45'
p534
sg15
S'AC4570'
p535
sg17
S'clim.AC4570_bio9.tif'
p536
sg19
S'climate'
p537
sg21
S'../views/GTiff/clim.AC4570_bio9.tif'
p538
sg23
S'4517'
p539
sg25
S'Mean Temperature of Driest Quarter AC RCP45 2070'
p540
sg27
g28
sg29
g30
sg31
S'clim.AC4570_bio9'
p541
sg33
g34
sg35
g36
sg37
S'2070'
p542
ssS'bio15'
p543
(dp544
g6
S'AC4570_bio15'
p545
sg8
I1015
sg9
S'Bio15'
p546
sg11
S'Precipitation Seasonality (Coefficient of Variation)'
p547
sg13
S'45'
p548
sg15
S'AC4570'
p549
sg17
S'clim.AC4570_bio15.tif'
p550
sg19
S'climate'
p551
sg21
S'../views/GTiff/clim.AC4570_bio15.tif'
p552
sg23
S'4518'
p553
sg25
S'Precipitation Seasonality (Coefficient of Variation) AC RCP45 2070'
p554
sg27
g28
sg29
g30
sg31
S'clim.AC4570_bio15'
p555
sg33
g34
sg35
g36
sg37
S'2070'
p556
sssS'AC4550'
p557
(dp558
S'bio10'
p559
(dp560
g6
S'AC4550_bio10'
p561
sg8
I1009
sg9
S'Bio10'
p562
sg11
S'Mean Temperature of Warmest Quarter'
p563
sg13
S'45'
p564
sg15
S'AC4550'
p565
sg17
S'clim.AC4550_bio10.tif'
p566
sg19
S'climate'
p567
sg21
S'../views/GTiff/clim.AC4550_bio10.tif'
p568
sg23
S'4519'
p569
sg25
S'Mean Temperature of Warmest Quarter AC RCP45 2050'
p570
sg27
g28
sg29
g30
sg31
S'clim.AC4550_bio10'
p571
sg33
g34
sg35
g36
sg37
S'2050'
p572
ssS'bio6'
p573
(dp574
g6
S'AC4550_bio6'
p575
sg8
I1018
sg9
S'Bio6'
p576
sg11
S'Min Temperature of Coldest Month'
p577
sg13
S'45'
p578
sg15
S'AC4550'
p579
sg17
S'clim.AC4550_bio6.tif'
p580
sg19
S'climate'
p581
sg21
S'../views/GTiff/clim.AC4550_bio6.tif'
p582
sg23
S'4520'
p583
sg25
S'Min Temperature of Coldest Month AC RCP45 2050'
p584
sg27
g28
sg29
g30
sg31
S'clim.AC4550_bio6'
p585
sg33
g34
sg35
g36
sg37
S'2050'
p586
ssS'bio13'
p587
(dp588
g6
S'AC4550_bio13'
p589
sg8
I1023
sg9
S'Bio13'
p590
sg11
S'Precipitation of Wettest Month'
p591
sg13
S'45'
p592
sg15
S'AC4550'
p593
sg17
S'clim.AC4550_bio13.tif'
p594
sg19
S'climate'
p595
sg21
S'../views/GTiff/clim.AC4550_bio13.tif'
p596
sg23
S'4521'
p597
sg25
S'Precipitation of Wettest Month AC RCP45 2050'
p598
sg27
g28
sg29
g30
sg31
S'clim.AC4550_bio13'
p599
sg33
g34
sg35
g36
sg37
S'2050'
p600
ssS'bio2'
p601
(dp602
g6
S'AC4550_bio2'
p603
sg8
I978
sg9
S'Bio2'
p604
sg11
S'Mean Diurnal Range (Mean of monthly (max temp - min temp))'
p605
sg13
S'45'
p606
sg15
S'AC4550'
p607
sg17
S'clim.AC4550_bio2.tif'
p608
sg19
S'climate'
p609
sg21
S'../views/GTiff/clim.AC4550_bio2.tif'
p610
sg23
S'4522'
p611
sg25
S'Mean Diurnal Range (Mean of monthly (max temp - min temp)) AC RCP45 2050'
p612
sg27
g28
sg29
g30
sg31
S'clim.AC4550_bio2'
p613
sg33
g34
sg35
g36
sg37
S'2050'
p614
ssS'bio11'
p615
(dp616
g6
S'AC4550_bio11'
p617
sg8
I1021
sg9
S'Bio11'
p618
sg11
S'Mean Temperature of Coldest Quarter'
p619
sg13
S'45'
p620
sg15
S'AC4550'
p621
sg17
S'clim.AC4550_bio11.tif'
p622
sg19
S'climate'
p623
sg21
S'../views/GTiff/clim.AC4550_bio11.tif'
p624
sg23
S'4523'
p625
sg25
S'Mean Temperature of Coldest Quarter AC RCP45 2050'
p626
sg27
g28
sg29
g30
sg31
S'clim.AC4550_bio11'
p627
sg33
g34
sg35
g36
sg37
S'2050'
p628
ssS'bio12'
p629
(dp630
g6
S'AC4550_bio12'
p631
sg8
I1010
sg9
S'Bio12'
p632
sg11
S'Annual Precipitation'
p633
sg13
S'45'
p634
sg15
S'AC4550'
p635
sg17
S'clim.AC4550_bio12.tif'
p636
sg19
S'climate'
p637
sg21
S'../views/GTiff/clim.AC4550_bio12.tif'
p638
sg23
S'4524'
p639
sg25
S'Annual Precipitation AC RCP45 2050'
p640
sg27
g28
sg29
g30
sg31
S'clim.AC4550_bio12'
p641
sg33
g34
sg35
g36
sg37
S'2050'
p642
ssS'bio1'
p643
(dp644
g6
S'AC4550_bio1'
p645
sg8
I987
sg9
S'Bio1'
p646
sg11
S'Annual Mean Temperature'
p647
sg13
S'45'
p648
sg15
S'AC4550'
p649
sg17
S'clim.AC4550_bio1.tif'
p650
sg19
S'climate'
p651
sg21
S'../views/GTiff/clim.AC4550_bio1.tif'
p652
sg23
S'4525'
p653
sg25
S'Annual Mean Temperature AC RCP45 2050'
p654
sg27
g28
sg29
g30
sg31
S'clim.AC4550_bio1'
p655
sg33
g34
sg35
g36
sg37
S'2050'
p656
ssS'bio14'
p657
(dp658
g6
S'AC4550_bio14'
p659
sg8
I984
sg9
S'Bio14'
p660
sg11
S'Precipitation of Driest Month'
p661
sg13
S'45'
p662
sg15
S'AC4550'
p663
sg17
S'clim.AC4550_bio14.tif'
p664
sg19
S'climate'
p665
sg21
S'../views/GTiff/clim.AC4550_bio14.tif'
p666
sg23
S'4526'
p667
sg25
S'Precipitation of Driest Month AC RCP45 2050'
p668
sg27
g28
sg29
g30
sg31
S'clim.AC4550_bio14'
p669
sg33
g34
sg35
g36
sg37
S'2050'
p670
ssS'bio7'
p671
(dp672
g6
S'AC4550_bio7'
p673
sg8
I981
sg9
S'Bio7'
p674
sg11
S'Temperature Annual Range (BIO5-BIO6)'
p675
sg13
S'45'
p676
sg15
S'AC4550'
p677
sg17
S'clim.AC4550_bio7.tif'
p678
sg19
S'climate'
p679
sg21
S'../views/GTiff/clim.AC4550_bio7.tif'
p680
sg23
S'4527'
p681
sg25
S'Temperature Annual Range (BIO5-BIO6) AC RCP45 2050'
p682
sg27
g28
sg29
g30
sg31
S'clim.AC4550_bio7'
p683
sg33
g34
sg35
g36
sg37
S'2050'
p684
ssS'bio16'
p685
(dp686
g6
S'AC4550_bio16'
p687
sg8
I1016
sg9
S'Bio16'
p688
sg11
S'Precipitation of Wettest Quarter'
p689
sg13
S'45'
p690
sg15
S'AC4550'
p691
sg17
S'clim.AC4550_bio16.tif'
p692
sg19
S'climate'
p693
sg21
S'../views/GTiff/clim.AC4550_bio16.tif'
p694
sg23
S'4528'
p695
sg25
S'Precipitation of Wettest Quarter AC RCP45 2050'
p696
sg27
g28
sg29
g30
sg31
S'clim.AC4550_bio16'
p697
sg33
g34
sg35
g36
sg37
S'2050'
p698
ssS'bio17'
p699
(dp700
g6
S'AC4550_bio17'
p701
sg8
I1026
sg9
S'Bio17'
p702
sg11
S'Precipitation of Driest Quarter'
p703
sg13
S'45'
p704
sg15
S'AC4550'
p705
sg17
S'clim.AC4550_bio17.tif'
p706
sg19
S'climate'
p707
sg21
S'../views/GTiff/clim.AC4550_bio17.tif'
p708
sg23
S'4529'
p709
sg25
S'Precipitation of Driest Quarter AC RCP45 2050'
p710
sg27
g28
sg29
g30
sg31
S'clim.AC4550_bio17'
p711
sg33
g34
sg35
g36
sg37
S'2050'
p712
ssS'bio18'
p713
(dp714
g6
S'AC4550_bio18'
p715
sg8
I1003
sg9
S'Bio18'
p716
sg11
S'Precipitation of Warmest Quarter'
p717
sg13
S'45'
p718
sg15
S'AC4550'
p719
sg17
S'clim.AC4550_bio18.tif'
p720
sg19
S'climate'
p721
sg21
S'../views/GTiff/clim.AC4550_bio18.tif'
p722
sg23
S'4530'
p723
sg25
S'Precipitation of Warmest Quarter AC RCP45 2050'
p724
sg27
g28
sg29
g30
sg31
S'clim.AC4550_bio18'
p725
sg33
g34
sg35
g36
sg37
S'2050'
p726
ssS'bio19'
p727
(dp728
g6
S'AC4550_bio19'
p729
sg8
I982
sg9
S'Bio19'
p730
sg11
S'Precipitation of Coldest Quarter'
p731
sg13
S'45'
p732
sg15
S'AC4550'
p733
sg17
S'clim.AC4550_bio19.tif'
p734
sg19
S'climate'
p735
sg21
S'../views/GTiff/clim.AC4550_bio19.tif'
p736
sg23
S'4531'
p737
sg25
S'Precipitation of Coldest Quarter AC RCP45 2050'
p738
sg27
g28
sg29
g30
sg31
S'clim.AC4550_bio19'
p739
sg33
g34
sg35
g36
sg37
S'2050'
p740
ssS'bio8'
p741
(dp742
g6
S'AC4550_bio8'
p743
sg8
I1024
sg9
S'Bio8'
p744
sg11
S'Mean Temperature of Wettest Quarter'
p745
sg13
S'45'
p746
sg15
S'AC4550'
p747
sg17
S'clim.AC4550_bio8.tif'
p748
sg19
S'climate'
p749
sg21
S'../views/GTiff/clim.AC4550_bio8.tif'
p750
sg23
S'4532'
p751
sg25
S'Mean Temperature of Wettest Quarter AC RCP45 2050'
p752
sg27
g28
sg29
g30
sg31
S'clim.AC4550_bio8'
p753
sg33
g34
sg35
g36
sg37
S'2050'
p754
ssS'bio9'
p755
(dp756
g6
S'AC4550_bio9'
p757
sg8
I975
sg9
S'Bio9'
p758
sg11
S'Mean Temperature of Driest Quarter'
p759
sg13
S'45'
p760
sg15
g557
sg17
S'clim.AC4550_bio9.tif'
p761
sg19
S'climate'
p762
sg21
S'../views/GTiff/clim.AC4550_bio9.tif'
p763
sg23
S'4533'
p764
sg25
S'Mean Temperature of Driest Quarter AC RCP45 2050'
p765
sg27
g28
sg29
g30
sg31
S'clim.AC4550_bio9'
p766
sg33
g34
sg35
g36
sg37
S'2050'
p767
ssS'bio15'
p768
(dp769
g6
S'AC4550_bio15'
p770
sg8
I1027
sg9
S'Bio15'
p771
sg11
S'Precipitation Seasonality (Coefficient of Variation)'
p772
sg13
S'45'
p773
sg15
S'AC4550'
p774
sg17
S'clim.AC4550_bio15.tif'
p775
sg19
S'climate'
p776
sg21
S'../views/GTiff/clim.AC4550_bio15.tif'
p777
sg23
S'4534'
p778
sg25
S'Precipitation Seasonality (Coefficient of Variation) AC RCP45 2050'
p779
sg27
g28
sg29
g30
sg31
S'clim.AC4550_bio15'
p780
sg33
g34
sg35
g36
sg37
S'2050'
p781
sss.