(dp1
S'he8550'
p2
(dp3
S'Bio10'
p4
(dp5
S'envLayerType'
p6
S'he8550_Bio10'
p7
sS'Name'
p8
I164
sS'typeCode'
p9
S'Bio10'
p10
sS'typeCodeDescription'
p11
S'Mean Temperature of Warmest Quarter'
p12
sS'RCP'
p13
S'85'
p14
sS'bioclim'
p15
S'he8550'
p16
sS'filePath'
p17
S'../views/GTiff/clim.he8550_Bio10.tif'
p18
sS'filterType'
p19
S'climate'
p20
sS'lyrID'
p21
S'4703'
p22
sS'layerDescription'
p23
S'Mean Temperature of Warmest Quarter HE RCP85 2050'
p24
sS'dataFormat'
p25
S'GTiff'
p26
sS'base'
p27
S'clim'
p28
sS'units'
p29
S'dd'
p30
sS'title'
p31
S'clim.he8550_Bio10.tif'
p32
sS'fullname'
p33
S'clim.he8550_Bio10'
p34
sS'resolution'
p35
S'2.5'
p36
sS'epsgCode'
p37
S'4326'
p38
sS'projectionDate'
p39
S'2050'
p40
ssS'Bio6'
p41
(dp42
g6
S'he8550_Bio6'
p43
sg8
I199
sg9
S'Bio6'
p44
sg11
S'Min Temperature of Coldest Month'
p45
sg13
S'85'
p46
sg15
S'he8550'
p47
sg17
S'../views/GTiff/clim.he8550_Bio6.tif'
p48
sg19
S'climate'
p49
sg21
S'4704'
p50
sg23
S'Min Temperature of Coldest Month HE RCP85 2050'
p51
sg25
g26
sg27
S'clim'
p52
sg29
g30
sg31
S'clim.he8550_Bio6.tif'
p53
sg33
S'clim.he8550_Bio6'
p54
sg35
g36
sg37
g38
sg39
S'2050'
p55
ssS'Bio4'
p56
(dp57
g6
S'he8550_Bio4'
p58
sg8
I18
sg9
S'Bio4'
p59
sg11
S'Temperature Seasonality (standard deviation *100)'
p60
sg13
S'85'
p61
sg15
S'he8550'
p62
sg17
S'../views/GTiff/clim.he8550_Bio4.tif'
p63
sg19
S'climate'
p64
sg21
S'4705'
p65
sg23
S'Temperature Seasonality (standard deviation *100) HE RCP85 2050'
p66
sg25
g26
sg27
S'clim'
p67
sg29
g30
sg31
S'clim.he8550_Bio4.tif'
p68
sg33
S'clim.he8550_Bio4'
p69
sg35
g36
sg37
g38
sg39
S'2050'
p70
ssS'Bio1'
p71
(dp72
g6
S'he8550_Bio1'
p73
sg8
I129
sg9
S'Bio1'
p74
sg11
S'Annual Mean Temperature'
p75
sg13
S'85'
p76
sg15
S'he8550'
p77
sg17
S'../views/GTiff/clim.he8550_Bio1.tif'
p78
sg19
S'climate'
p79
sg21
S'4706'
p80
sg23
S'Annual Mean Temperature HE RCP85 2050'
p81
sg25
g26
sg27
S'clim'
p82
sg29
g30
sg31
S'clim.he8550_Bio1.tif'
p83
sg33
S'clim.he8550_Bio1'
p84
sg35
g36
sg37
g38
sg39
S'2050'
p85
ssS'Bio11'
p86
(dp87
g6
S'he8550_Bio11'
p88
sg8
I251
sg9
S'Bio11'
p89
sg11
S'Mean Temperature of Coldest Quarter'
p90
sg13
S'85'
p91
sg15
S'he8550'
p92
sg17
S'../views/GTiff/clim.he8550_Bio11.tif'
p93
sg19
S'climate'
p94
sg21
S'4707'
p95
sg23
S'Mean Temperature of Coldest Quarter HE RCP85 2050'
p96
sg25
g26
sg27
S'clim'
p97
sg29
g30
sg31
S'clim.he8550_Bio11.tif'
p98
sg33
S'clim.he8550_Bio11'
p99
sg35
g36
sg37
g38
sg39
S'2050'
p100
ssS'Bio17'
p101
(dp102
g6
S'he8550_Bio17'
p103
sg8
I75
sg9
S'Bio17'
p104
sg11
S'Precipitation of Driest Quarter'
p105
sg13
S'85'
p106
sg15
S'he8550'
p107
sg17
S'../views/GTiff/clim.he8550_Bio17.tif'
p108
sg19
S'climate'
p109
sg21
S'4708'
p110
sg23
S'Precipitation of Driest Quarter HE RCP85 2050'
p111
sg25
g26
sg27
S'clim'
p112
sg29
g30
sg31
S'clim.he8550_Bio17.tif'
p113
sg33
S'clim.he8550_Bio17'
p114
sg35
g36
sg37
g38
sg39
S'2050'
p115
ssS'Bio2'
p116
(dp117
g6
S'he8550_Bio2'
p118
sg8
I151
sg9
S'Bio2'
p119
sg11
S'Mean Diurnal Range (Mean of monthly (max temp - min temp))'
p120
sg13
S'85'
p121
sg15
S'he8550'
p122
sg17
S'../views/GTiff/clim.he8550_Bio2.tif'
p123
sg19
S'climate'
p124
sg21
S'4709'
p125
sg23
S'Mean Diurnal Range (Mean of monthly (max temp - min temp)) HE RCP85 2050'
p126
sg25
g26
sg27
S'clim'
p127
sg29
g30
sg31
S'clim.he8550_Bio2.tif'
p128
sg33
S'clim.he8550_Bio2'
p129
sg35
g36
sg37
g38
sg39
S'2050'
p130
ssS'Bio3'
p131
(dp132
g6
S'he8550_Bio3'
p133
sg8
I217
sg9
S'Bio3'
p134
sg11
S'Isothermality (BIO2/BIO7) (* 100)'
p135
sg13
S'85'
p136
sg15
S'he8550'
p137
sg17
S'../views/GTiff/clim.he8550_Bio3.tif'
p138
sg19
S'climate'
p139
sg21
S'4710'
p140
sg23
S'Isothermality (BIO2/BIO7) (* 100) HE RCP85 2050'
p141
sg25
g26
sg27
S'clim'
p142
sg29
g30
sg31
S'clim.he8550_Bio3.tif'
p143
sg33
S'clim.he8550_Bio3'
p144
sg35
g36
sg37
g38
sg39
S'2050'
p145
ssS'Bio12'
p146
(dp147
g6
S'he8550_Bio12'
p148
sg8
I62
sg9
S'Bio12'
p149
sg11
S'Annual Precipitation'
p150
sg13
S'85'
p151
sg15
S'he8550'
p152
sg17
S'../views/GTiff/clim.he8550_Bio12.tif'
p153
sg19
S'climate'
p154
sg21
S'4711'
p155
sg23
S'Annual Precipitation HE RCP85 2050'
p156
sg25
g26
sg27
S'clim'
p157
sg29
g30
sg31
S'clim.he8550_Bio12.tif'
p158
sg33
S'clim.he8550_Bio12'
p159
sg35
g36
sg37
g38
sg39
S'2050'
p160
ssS'Bio13'
p161
(dp162
g6
S'he8550_Bio13'
p163
sg8
I91
sg9
S'Bio13'
p164
sg11
S'Precipitation of Wettest Month'
p165
sg13
S'85'
p166
sg15
S'he8550'
p167
sg17
S'../views/GTiff/clim.he8550_Bio13.tif'
p168
sg19
S'climate'
p169
sg21
S'4712'
p170
sg23
S'Precipitation of Wettest Month HE RCP85 2050'
p171
sg25
g26
sg27
S'clim'
p172
sg29
g30
sg31
S'clim.he8550_Bio13.tif'
p173
sg33
S'clim.he8550_Bio13'
p174
sg35
g36
sg37
g38
sg39
S'2050'
p175
ssS'Bio14'
p176
(dp177
g6
S'he8550_Bio14'
p178
sg8
I22
sg9
S'Bio14'
p179
sg11
S'Precipitation of Driest Month'
p180
sg13
S'85'
p181
sg15
S'he8550'
p182
sg17
S'../views/GTiff/clim.he8550_Bio14.tif'
p183
sg19
S'climate'
p184
sg21
S'4713'
p185
sg23
S'Precipitation of Driest Month HE RCP85 2050'
p186
sg25
g26
sg27
S'clim'
p187
sg29
g30
sg31
S'clim.he8550_Bio14.tif'
p188
sg33
S'clim.he8550_Bio14'
p189
sg35
g36
sg37
g38
sg39
S'2050'
p190
ssS'Bio7'
p191
(dp192
g6
S'he8550_Bio7'
p193
sg8
I17
sg9
S'Bio7'
p194
sg11
S'Temperature Annual Range (BIO5-BIO6)'
p195
sg13
S'85'
p196
sg15
S'he8550'
p197
sg17
S'../views/GTiff/clim.he8550_Bio7.tif'
p198
sg19
S'climate'
p199
sg21
S'4714'
p200
sg23
S'Temperature Annual Range (BIO5-BIO6) HE RCP85 2050'
p201
sg25
g26
sg27
S'clim'
p202
sg29
g30
sg31
S'clim.he8550_Bio7.tif'
p203
sg33
S'clim.he8550_Bio7'
p204
sg35
g36
sg37
g38
sg39
S'2050'
p205
ssS'Bio16'
p206
(dp207
g6
S'he8550_Bio16'
p208
sg8
I43
sg9
S'Bio16'
p209
sg11
S'Precipitation of Wettest Quarter'
p210
sg13
S'85'
p211
sg15
S'he8550'
p212
sg17
S'../views/GTiff/clim.he8550_Bio16.tif'
p213
sg19
S'climate'
p214
sg21
S'4715'
p215
sg23
S'Precipitation of Wettest Quarter HE RCP85 2050'
p216
sg25
g26
sg27
S'clim'
p217
sg29
g30
sg31
S'clim.he8550_Bio16.tif'
p218
sg33
S'clim.he8550_Bio16'
p219
sg35
g36
sg37
g38
sg39
S'2050'
p220
ssS'Bio5'
p221
(dp222
g6
S'he8550_Bio5'
p223
sg8
I9
sg9
S'Bio5'
p224
sg11
S'Max Temperature of Warmest Month'
p225
sg13
S'85'
p226
sg15
S'he8550'
p227
sg17
S'../views/GTiff/clim.he8550_Bio5.tif'
p228
sg19
S'climate'
p229
sg21
S'4716'
p230
sg23
S'Max Temperature of Warmest Month HE RCP85 2050'
p231
sg25
g26
sg27
S'clim'
p232
sg29
g30
sg31
S'clim.he8550_Bio5.tif'
p233
sg33
S'clim.he8550_Bio5'
p234
sg35
g36
sg37
g38
sg39
S'2050'
p235
ssS'Bio18'
p236
(dp237
g6
S'he8550_Bio18'
p238
sg8
I232
sg9
S'Bio18'
p239
sg11
S'Precipitation of Warmest Quarter'
p240
sg13
S'85'
p241
sg15
S'he8550'
p242
sg17
S'../views/GTiff/clim.he8550_Bio18.tif'
p243
sg19
S'climate'
p244
sg21
S'4717'
p245
sg23
S'Precipitation of Warmest Quarter HE RCP85 2050'
p246
sg25
g26
sg27
S'clim'
p247
sg29
g30
sg31
S'clim.he8550_Bio18.tif'
p248
sg33
S'clim.he8550_Bio18'
p249
sg35
g36
sg37
g38
sg39
S'2050'
p250
ssS'Bio19'
p251
(dp252
g6
S'he8550_Bio19'
p253
sg8
I149
sg9
S'Bio19'
p254
sg11
S'Precipitation of Coldest Quarter'
p255
sg13
S'85'
p256
sg15
S'he8550'
p257
sg17
S'../views/GTiff/clim.he8550_Bio19.tif'
p258
sg19
S'climate'
p259
sg21
S'4718'
p260
sg23
S'Precipitation of Coldest Quarter HE RCP85 2050'
p261
sg25
g26
sg27
S'clim'
p262
sg29
g30
sg31
S'clim.he8550_Bio19.tif'
p263
sg33
S'clim.he8550_Bio19'
p264
sg35
g36
sg37
g38
sg39
S'2050'
p265
ssS'Bio8'
p266
(dp267
g6
S'he8550_Bio8'
p268
sg8
I8
sg9
S'Bio8'
p269
sg11
S'Mean Temperature of Wettest Quarter'
p270
sg13
S'85'
p271
sg15
g2
sg17
S'../views/GTiff/clim.he8550_Bio8.tif'
p272
sg19
S'climate'
p273
sg21
S'4719'
p274
sg23
S'Mean Temperature of Wettest Quarter HE RCP85 2050'
p275
sg25
g26
sg27
S'clim'
p276
sg29
g30
sg31
S'clim.he8550_Bio8.tif'
p277
sg33
S'clim.he8550_Bio8'
p278
sg35
g36
sg37
g38
sg39
S'2050'
p279
ssS'Bio9'
p280
(dp281
g6
S'he8550_Bio9'
p282
sg8
I141
sg9
S'Bio9'
p283
sg11
S'Mean Temperature of Driest Quarter'
p284
sg13
S'85'
p285
sg15
S'he8550'
p286
sg17
S'../views/GTiff/clim.he8550_Bio9.tif'
p287
sg19
S'climate'
p288
sg21
S'4720'
p289
sg23
S'Mean Temperature of Driest Quarter HE RCP85 2050'
p290
sg25
g26
sg27
S'clim'
p291
sg29
g30
sg31
S'clim.he8550_Bio9.tif'
p292
sg33
S'clim.he8550_Bio9'
p293
sg35
g36
sg37
g38
sg39
S'2050'
p294
ssS'Bio15'
p295
(dp296
g6
S'he8550_Bio15'
p297
sg8
I237
sg9
S'Bio15'
p298
sg11
S'Precipitation Seasonality (Coefficient of Variation)'
p299
sg13
S'85'
p300
sg15
S'he8550'
p301
sg17
S'../views/GTiff/clim.he8550_Bio15.tif'
p302
sg19
S'climate'
p303
sg21
S'4721'
p304
sg23
S'Precipitation Seasonality (Coefficient of Variation) HE RCP85 2050'
p305
sg25
g26
sg27
S'clim'
p306
sg29
g30
sg31
S'clim.he8550_Bio15.tif'
p307
sg33
S'clim.he8550_Bio15'
p308
sg35
g36
sg37
g38
sg39
S'2050'
p309
sssS'he2670'
p310
(dp311
S'Bio10'
p312
(dp313
g6
S'he2670_Bio10'
p314
sg8
I279
sg9
S'Bio10'
p315
sg11
S'Mean Temperature of Warmest Quarter'
p316
sg13
S'26'
p317
sg15
S'he2670'
p318
sg17
S'../views/GTiff/clim.he2670_Bio10.tif'
p319
sg19
S'climate'
p320
sg21
S'4722'
p321
sg23
S'Mean Temperature of Warmest Quarter HE RCP26 2070'
p322
sg25
g26
sg27
S'clim'
p323
sg29
g30
sg31
S'clim.he2670_Bio10.tif'
p324
sg33
S'clim.he2670_Bio10'
p325
sg35
g36
sg37
g38
sg39
S'2070'
p326
ssS'Bio16'
p327
(dp328
g6
S'he2670_Bio16'
p329
sg8
I176
sg9
S'Bio16'
p330
sg11
S'Precipitation of Wettest Quarter'
p331
sg13
S'26'
p332
sg15
S'he2670'
p333
sg17
S'../views/GTiff/clim.he2670_Bio16.tif'
p334
sg19
S'climate'
p335
sg21
S'4723'
p336
sg23
S'Precipitation of Wettest Quarter HE RCP26 2070'
p337
sg25
g26
sg27
S'clim'
p338
sg29
g30
sg31
S'clim.he2670_Bio16.tif'
p339
sg33
S'clim.he2670_Bio16'
p340
sg35
g36
sg37
g38
sg39
S'2070'
p341
ssS'Bio1'
p342
(dp343
g6
S'he2670_Bio1'
p344
sg8
I97
sg9
S'Bio1'
p345
sg11
S'Annual Mean Temperature'
p346
sg13
S'26'
p347
sg15
S'he2670'
p348
sg17
S'../views/GTiff/clim.he2670_Bio1.tif'
p349
sg19
S'climate'
p350
sg21
S'4724'
p351
sg23
S'Annual Mean Temperature HE RCP26 2070'
p352
sg25
g26
sg27
S'clim'
p353
sg29
g30
sg31
S'clim.he2670_Bio1.tif'
p354
sg33
S'clim.he2670_Bio1'
p355
sg35
g36
sg37
g38
sg39
S'2070'
p356
ssS'Bio11'
p357
(dp358
g6
S'he2670_Bio11'
p359
sg8
I201
sg9
S'Bio11'
p360
sg11
S'Mean Temperature of Coldest Quarter'
p361
sg13
S'26'
p362
sg15
S'he2670'
p363
sg17
S'../views/GTiff/clim.he2670_Bio11.tif'
p364
sg19
S'climate'
p365
sg21
S'4725'
p366
sg23
S'Mean Temperature of Coldest Quarter HE RCP26 2070'
p367
sg25
g26
sg27
S'clim'
p368
sg29
g30
sg31
S'clim.he2670_Bio11.tif'
p369
sg33
S'clim.he2670_Bio11'
p370
sg35
g36
sg37
g38
sg39
S'2070'
p371
ssS'Bio3'
p372
(dp373
g6
S'he2670_Bio3'
p374
sg8
I223
sg9
S'Bio3'
p375
sg11
S'Isothermality (BIO2/BIO7) (* 100)'
p376
sg13
S'26'
p377
sg15
S'he2670'
p378
sg17
S'../views/GTiff/clim.he2670_Bio3.tif'
p379
sg19
S'climate'
p380
sg21
S'4726'
p381
sg23
S'Isothermality (BIO2/BIO7) (* 100) HE RCP26 2070'
p382
sg25
g26
sg27
S'clim'
p383
sg29
g30
sg31
S'clim.he2670_Bio3.tif'
p384
sg33
S'clim.he2670_Bio3'
p385
sg35
g36
sg37
g38
sg39
S'2070'
p386
ssS'Bio5'
p387
(dp388
g6
S'he2670_Bio5'
p389
sg8
I231
sg9
S'Bio5'
p390
sg11
S'Max Temperature of Warmest Month'
p391
sg13
S'26'
p392
sg15
S'he2670'
p393
sg17
S'../views/GTiff/clim.he2670_Bio5.tif'
p394
sg19
S'climate'
p395
sg21
S'4727'
p396
sg23
S'Max Temperature of Warmest Month HE RCP26 2070'
p397
sg25
g26
sg27
S'clim'
p398
sg29
g30
sg31
S'clim.he2670_Bio5.tif'
p399
sg33
S'clim.he2670_Bio5'
p400
sg35
g36
sg37
g38
sg39
S'2070'
p401
ssS'Bio2'
p402
(dp403
g6
S'he2670_Bio2'
p404
sg8
I4
sg9
S'Bio2'
p405
sg11
S'Mean Diurnal Range (Mean of monthly (max temp - min temp))'
p406
sg13
S'26'
p407
sg15
g310
sg17
S'../views/GTiff/clim.he2670_Bio2.tif'
p408
sg19
S'climate'
p409
sg21
S'4728'
p410
sg23
S'Mean Diurnal Range (Mean of monthly (max temp - min temp)) HE RCP26 2070'
p411
sg25
g26
sg27
S'clim'
p412
sg29
g30
sg31
S'clim.he2670_Bio2.tif'
p413
sg33
S'clim.he2670_Bio2'
p414
sg35
g36
sg37
g38
sg39
S'2070'
p415
ssS'Bio14'
p416
(dp417
g6
S'he2670_Bio14'
p418
sg8
I172
sg9
S'Bio14'
p419
sg11
S'Precipitation of Driest Month'
p420
sg13
S'26'
p421
sg15
S'he2670'
p422
sg17
S'../views/GTiff/clim.he2670_Bio14.tif'
p423
sg19
S'climate'
p424
sg21
S'4729'
p425
sg23
S'Precipitation of Driest Month HE RCP26 2070'
p426
sg25
g26
sg27
S'clim'
p427
sg29
g30
sg31
S'clim.he2670_Bio14.tif'
p428
sg33
S'clim.he2670_Bio14'
p429
sg35
g36
sg37
g38
sg39
S'2070'
p430
ssS'Bio12'
p431
(dp432
g6
S'he2670_Bio12'
p433
sg8
I83
sg9
S'Bio12'
p434
sg11
S'Annual Precipitation'
p435
sg13
S'26'
p436
sg15
S'he2670'
p437
sg17
S'../views/GTiff/clim.he2670_Bio12.tif'
p438
sg19
S'climate'
p439
sg21
S'4730'
p440
sg23
S'Annual Precipitation HE RCP26 2070'
p441
sg25
g26
sg27
S'clim'
p442
sg29
g30
sg31
S'clim.he2670_Bio12.tif'
p443
sg33
S'clim.he2670_Bio12'
p444
sg35
g36
sg37
g38
sg39
S'2070'
p445
ssS'Bio13'
p446
(dp447
g6
S'he2670_Bio13'
p448
sg8
I95
sg9
S'Bio13'
p449
sg11
S'Precipitation of Wettest Month'
p450
sg13
S'26'
p451
sg15
S'he2670'
p452
sg17
S'../views/GTiff/clim.he2670_Bio13.tif'
p453
sg19
S'climate'
p454
sg21
S'4731'
p455
sg23
S'Precipitation of Wettest Month HE RCP26 2070'
p456
sg25
g26
sg27
S'clim'
p457
sg29
g30
sg31
S'clim.he2670_Bio13.tif'
p458
sg33
S'clim.he2670_Bio13'
p459
sg35
g36
sg37
g38
sg39
S'2070'
p460
ssS'Bio6'
p461
(dp462
g6
S'he2670_Bio6'
p463
sg8
I108
sg9
S'Bio6'
p464
sg11
S'Min Temperature of Coldest Month'
p465
sg13
S'26'
p466
sg15
S'he2670'
p467
sg17
S'../views/GTiff/clim.he2670_Bio6.tif'
p468
sg19
S'climate'
p469
sg21
S'4732'
p470
sg23
S'Min Temperature of Coldest Month HE RCP26 2070'
p471
sg25
g26
sg27
S'clim'
p472
sg29
g30
sg31
S'clim.he2670_Bio6.tif'
p473
sg33
S'clim.he2670_Bio6'
p474
sg35
g36
sg37
g38
sg39
S'2070'
p475
ssS'Bio7'
p476
(dp477
g6
S'he2670_Bio7'
p478
sg8
I236
sg9
S'Bio7'
p479
sg11
S'Temperature Annual Range (BIO5-BIO6)'
p480
sg13
S'26'
p481
sg15
S'he2670'
p482
sg17
S'../views/GTiff/clim.he2670_Bio7.tif'
p483
sg19
S'climate'
p484
sg21
S'4733'
p485
sg23
S'Temperature Annual Range (BIO5-BIO6) HE RCP26 2070'
p486
sg25
g26
sg27
S'clim'
p487
sg29
g30
sg31
S'clim.he2670_Bio7.tif'
p488
sg33
S'clim.he2670_Bio7'
p489
sg35
g36
sg37
g38
sg39
S'2070'
p490
ssS'Bio4'
p491
(dp492
g6
S'he2670_Bio4'
p493
sg8
I41
sg9
S'Bio4'
p494
sg11
S'Temperature Seasonality (standard deviation *100)'
p495
sg13
S'26'
p496
sg15
S'he2670'
p497
sg17
S'../views/GTiff/clim.he2670_Bio4.tif'
p498
sg19
S'climate'
p499
sg21
S'4734'
p500
sg23
S'Temperature Seasonality (standard deviation *100) HE RCP26 2070'
p501
sg25
g26
sg27
S'clim'
p502
sg29
g30
sg31
S'clim.he2670_Bio4.tif'
p503
sg33
S'clim.he2670_Bio4'
p504
sg35
g36
sg37
g38
sg39
S'2070'
p505
ssS'Bio17'
p506
(dp507
g6
S'he2670_Bio17'
p508
sg8
I224
sg9
S'Bio17'
p509
sg11
S'Precipitation of Driest Quarter'
p510
sg13
S'26'
p511
sg15
S'he2670'
p512
sg17
S'../views/GTiff/clim.he2670_Bio17.tif'
p513
sg19
S'climate'
p514
sg21
S'4735'
p515
sg23
S'Precipitation of Driest Quarter HE RCP26 2070'
p516
sg25
g26
sg27
S'clim'
p517
sg29
g30
sg31
S'clim.he2670_Bio17.tif'
p518
sg33
S'clim.he2670_Bio17'
p519
sg35
g36
sg37
g38
sg39
S'2070'
p520
ssS'Bio18'
p521
(dp522
g6
S'he2670_Bio18'
p523
sg8
I115
sg9
S'Bio18'
p524
sg11
S'Precipitation of Warmest Quarter'
p525
sg13
S'26'
p526
sg15
S'he2670'
p527
sg17
S'../views/GTiff/clim.he2670_Bio18.tif'
p528
sg19
S'climate'
p529
sg21
S'4736'
p530
sg23
S'Precipitation of Warmest Quarter HE RCP26 2070'
p531
sg25
g26
sg27
S'clim'
p532
sg29
g30
sg31
S'clim.he2670_Bio18.tif'
p533
sg33
S'clim.he2670_Bio18'
p534
sg35
g36
sg37
g38
sg39
S'2070'
p535
ssS'Bio19'
p536
(dp537
g6
S'he2670_Bio19'
p538
sg8
I39
sg9
S'Bio19'
p539
sg11
S'Precipitation of Coldest Quarter'
p540
sg13
S'26'
p541
sg15
S'he2670'
p542
sg17
S'../views/GTiff/clim.he2670_Bio19.tif'
p543
sg19
S'climate'
p544
sg21
S'4737'
p545
sg23
S'Precipitation of Coldest Quarter HE RCP26 2070'
p546
sg25
g26
sg27
S'clim'
p547
sg29
g30
sg31
S'clim.he2670_Bio19.tif'
p548
sg33
S'clim.he2670_Bio19'
p549
sg35
g36
sg37
g38
sg39
S'2070'
p550
ssS'Bio8'
p551
(dp552
g6
S'he2670_Bio8'
p553
sg8
I183
sg9
S'Bio8'
p554
sg11
S'Mean Temperature of Wettest Quarter'
p555
sg13
S'26'
p556
sg15
S'he2670'
p557
sg17
S'../views/GTiff/clim.he2670_Bio8.tif'
p558
sg19
S'climate'
p559
sg21
S'4738'
p560
sg23
S'Mean Temperature of Wettest Quarter HE RCP26 2070'
p561
sg25
g26
sg27
S'clim'
p562
sg29
g30
sg31
S'clim.he2670_Bio8.tif'
p563
sg33
S'clim.he2670_Bio8'
p564
sg35
g36
sg37
g38
sg39
S'2070'
p565
ssS'Bio9'
p566
(dp567
g6
S'he2670_Bio9'
p568
sg8
I235
sg9
S'Bio9'
p569
sg11
S'Mean Temperature of Driest Quarter'
p570
sg13
S'26'
p571
sg15
S'he2670'
p572
sg17
S'../views/GTiff/clim.he2670_Bio9.tif'
p573
sg19
S'climate'
p574
sg21
S'4739'
p575
sg23
S'Mean Temperature of Driest Quarter HE RCP26 2070'
p576
sg25
g26
sg27
S'clim'
p577
sg29
g30
sg31
S'clim.he2670_Bio9.tif'
p578
sg33
S'clim.he2670_Bio9'
p579
sg35
g36
sg37
g38
sg39
S'2070'
p580
ssS'Bio15'
p581
(dp582
g6
S'he2670_Bio15'
p583
sg8
I243
sg9
S'Bio15'
p584
sg11
S'Precipitation Seasonality (Coefficient of Variation)'
p585
sg13
S'26'
p586
sg15
S'he2670'
p587
sg17
S'../views/GTiff/clim.he2670_Bio15.tif'
p588
sg19
S'climate'
p589
sg21
S'4740'
p590
sg23
S'Precipitation Seasonality (Coefficient of Variation) HE RCP26 2070'
p591
sg25
g26
sg27
S'clim'
p592
sg29
g30
sg31
S'clim.he2670_Bio15.tif'
p593
sg33
S'clim.he2670_Bio15'
p594
sg35
g36
sg37
g38
sg39
S'2070'
p595
sssS'CURR'
p596
(dp597
S'Bio2'
p598
(dp599
g6
S'CURR_Bio2'
p600
sg8
I192
sg9
S'Bio2'
p601
sg11
S'Mean Diurnal Range (Mean of monthly (max temp - min temp))'
p602
sg13
S'Present'
p603
sg15
S'CURR'
p604
sg17
S'../views/GTiff/clim.CURR_Bio2.tif'
p605
sg19
S'climate'
p606
sg21
S'4741'
p607
sg23
S'Mean Diurnal Range (Mean of monthly (max temp - min temp)) Current Climate 1960-2000'
p608
sg25
g26
sg27
S'clim'
p609
sg29
g30
sg31
S'clim.CURR_Bio2.tif'
p610
sg33
S'clim.CURR_Bio2'
p611
sg35
g36
sg37
g38
sg39
S'Present'
p612
ssS'Bio11'
p613
(dp614
g6
S'CURR_Bio11'
p615
sg8
I233
sg9
S'Bio11'
p616
sg11
S'Mean Temperature of Coldest Quarter'
p617
sg13
S'Present'
p618
sg15
S'CURR'
p619
sg17
S'../views/GTiff/clim.CURR_Bio11.tif'
p620
sg19
S'climate'
p621
sg21
S'4742'
p622
sg23
S'Mean Temperature of Coldest Quarter Current Climate 1960-2000'
p623
sg25
g26
sg27
S'clim'
p624
sg29
g30
sg31
S'clim.CURR_Bio11.tif'
p625
sg33
S'clim.CURR_Bio11'
p626
sg35
g36
sg37
g38
sg39
S'Present'
p627
ssS'Bio16'
p628
(dp629
g6
S'CURR_Bio16'
p630
sg8
I248
sg9
S'Bio16'
p631
sg11
S'Precipitation of Wettest Quarter'
p632
sg13
S'Present'
p633
sg15
S'CURR'
p634
sg17
S'../views/GTiff/clim.CURR_Bio16.tif'
p635
sg19
S'climate'
p636
sg21
S'4743'
p637
sg23
S'Precipitation of Wettest Quarter Current Climate 1960-2000'
p638
sg25
g26
sg27
S'clim'
p639
sg29
g30
sg31
S'clim.CURR_Bio16.tif'
p640
sg33
S'clim.CURR_Bio16'
p641
sg35
g36
sg37
g38
sg39
S'Present'
p642
ssS'Bio1'
p643
(dp644
g6
S'CURR_Bio1'
p645
sg8
I196
sg9
S'Bio1'
p646
sg11
S'Annual Mean Temperature'
p647
sg13
S'Present'
p648
sg15
S'CURR'
p649
sg17
S'../views/GTiff/clim.CURR_Bio1.tif'
p650
sg19
S'climate'
p651
sg21
S'4744'
p652
sg23
S'Annual Mean Temperature Current Climate 1960-2000'
p653
sg25
g26
sg27
S'clim'
p654
sg29
g30
sg31
S'clim.CURR_Bio1.tif'
p655
sg33
S'clim.CURR_Bio1'
p656
sg35
g36
sg37
g38
sg39
S'Present'
p657
ssS'Bio3'
p658
(dp659
g6
S'CURR_Bio3'
p660
sg8
I186
sg9
S'Bio3'
p661
sg11
S'Isothermality (BIO2/BIO7) (* 100)'
p662
sg13
S'Present'
p663
sg15
S'CURR'
p664
sg17
S'../views/GTiff/clim.CURR_Bio3.tif'
p665
sg19
S'climate'
p666
sg21
S'4745'
p667
sg23
S'Isothermality (BIO2/BIO7) (* 100) Current Climate 1960-2000'
p668
sg25
g26
sg27
S'clim'
p669
sg29
g30
sg31
S'clim.CURR_Bio3.tif'
p670
sg33
S'clim.CURR_Bio3'
p671
sg35
g36
sg37
g38
sg39
S'Present'
p672
ssS'Bio17'
p673
(dp674
g6
S'CURR_Bio17'
p675
sg8
I69
sg9
S'Bio17'
p676
sg11
S'Precipitation of Driest Quarter'
p677
sg13
S'Present'
p678
sg15
S'CURR'
p679
sg17
S'../views/GTiff/clim.CURR_Bio17.tif'
p680
sg19
S'climate'
p681
sg21
S'4746'
p682
sg23
S'Precipitation of Driest Quarter Current Climate 1960-2000'
p683
sg25
g26
sg27
S'clim'
p684
sg29
g30
sg31
S'clim.CURR_Bio17.tif'
p685
sg33
S'clim.CURR_Bio17'
p686
sg35
g36
sg37
g38
sg39
S'Present'
p687
ssS'Bio10'
p688
(dp689
g6
S'CURR_Bio10'
p690
sg8
I87
sg9
S'Bio10'
p691
sg11
S'Mean Temperature of Warmest Quarter'
p692
sg13
S'Present'
p693
sg15
S'CURR'
p694
sg17
S'../views/GTiff/clim.CURR_Bio10.tif'
p695
sg19
S'climate'
p696
sg21
S'4747'
p697
sg23
S'Mean Temperature of Warmest Quarter Current Climate 1960-2000'
p698
sg25
g26
sg27
S'clim'
p699
sg29
g30
sg31
S'clim.CURR_Bio10.tif'
p700
sg33
S'clim.CURR_Bio10'
p701
sg35
g36
sg37
g38
sg39
S'Present'
p702
ssS'Bio14'
p703
(dp704
g6
S'CURR_Bio14'
p705
sg8
I130
sg9
S'Bio14'
p706
sg11
S'Precipitation of Driest Month'
p707
sg13
S'Present'
p708
sg15
S'CURR'
p709
sg17
S'../views/GTiff/clim.CURR_Bio14.tif'
p710
sg19
S'climate'
p711
sg21
S'4748'
p712
sg23
S'Precipitation of Driest Month Current Climate 1960-2000'
p713
sg25
g26
sg27
S'clim'
p714
sg29
g30
sg31
S'clim.CURR_Bio14.tif'
p715
sg33
S'clim.CURR_Bio14'
p716
sg35
g36
sg37
g38
sg39
S'Present'
p717
ssS'Bio12'
p718
(dp719
g6
S'CURR_Bio12'
p720
sg8
I272
sg9
S'Bio12'
p721
sg11
S'Annual Precipitation'
p722
sg13
S'Present'
p723
sg15
S'CURR'
p724
sg17
S'../views/GTiff/clim.CURR_Bio12.tif'
p725
sg19
S'climate'
p726
sg21
S'4749'
p727
sg23
S'Annual Precipitation Current Climate 1960-2000'
p728
sg25
g26
sg27
S'clim'
p729
sg29
g30
sg31
S'clim.CURR_Bio12.tif'
p730
sg33
S'clim.CURR_Bio12'
p731
sg35
g36
sg37
g38
sg39
S'Present'
p732
ssS'Bio13'
p733
(dp734
g6
S'CURR_Bio13'
p735
sg8
I65
sg9
S'Bio13'
p736
sg11
S'Precipitation of Wettest Month'
p737
sg13
S'Present'
p738
sg15
S'CURR'
p739
sg17
S'../views/GTiff/clim.CURR_Bio13.tif'
p740
sg19
S'climate'
p741
sg21
S'4750'
p742
sg23
S'Precipitation of Wettest Month Current Climate 1960-2000'
p743
sg25
g26
sg27
S'clim'
p744
sg29
g30
sg31
S'clim.CURR_Bio13.tif'
p745
sg33
S'clim.CURR_Bio13'
p746
sg35
g36
sg37
g38
sg39
S'Present'
p747
ssS'Bio6'
p748
(dp749
g6
S'CURR_Bio6'
p750
sg8
I73
sg9
S'Bio6'
p751
sg11
S'Min Temperature of Coldest Month'
p752
sg13
S'Present'
p753
sg15
S'CURR'
p754
sg17
S'../views/GTiff/clim.CURR_Bio6.tif'
p755
sg19
S'climate'
p756
sg21
S'4751'
p757
sg23
S'Min Temperature of Coldest Month Current Climate 1960-2000'
p758
sg25
g26
sg27
S'clim'
p759
sg29
g30
sg31
S'clim.CURR_Bio6.tif'
p760
sg33
S'clim.CURR_Bio6'
p761
sg35
g36
sg37
g38
sg39
S'Present'
p762
ssS'Bio15'
p763
(dp764
g6
S'CURR_Bio15'
p765
sg8
I53
sg9
S'Bio15'
p766
sg11
S'Precipitation Seasonality (Coefficient of Variation)'
p767
sg13
S'Present'
p768
sg15
S'CURR'
p769
sg17
S'../views/GTiff/clim.CURR_Bio15.tif'
p770
sg19
S'climate'
p771
sg21
S'4752'
p772
sg23
S'Precipitation Seasonality (Coefficient of Variation) Current Climate 1960-2000'
p773
sg25
g26
sg27
S'clim'
p774
sg29
g30
sg31
S'clim.CURR_Bio15.tif'
p775
sg33
S'clim.CURR_Bio15'
p776
sg35
g36
sg37
g38
sg39
S'Present'
p777
ssS'Bio4'
p778
(dp779
g6
S'CURR_Bio4'
p780
sg8
I174
sg9
S'Bio4'
p781
sg11
S'Temperature Seasonality (standard deviation *100)'
p782
sg13
S'Present'
p783
sg15
S'CURR'
p784
sg17
S'../views/GTiff/clim.CURR_Bio4.tif'
p785
sg19
S'climate'
p786
sg21
S'4753'
p787
sg23
S'Temperature Seasonality (standard deviation *100) Current Climate 1960-2000'
p788
sg25
g26
sg27
S'clim'
p789
sg29
g30
sg31
S'clim.CURR_Bio4.tif'
p790
sg33
S'clim.CURR_Bio4'
p791
sg35
g36
sg37
g38
sg39
S'Present'
p792
ssS'Bio5'
p793
(dp794
g6
S'CURR_Bio5'
p795
sg8
I85
sg9
S'Bio5'
p796
sg11
S'Max Temperature of Warmest Month'
p797
sg13
S'Present'
p798
sg15
S'CURR'
p799
sg17
S'../views/GTiff/clim.CURR_Bio5.tif'
p800
sg19
S'climate'
p801
sg21
S'4754'
p802
sg23
S'Max Temperature of Warmest Month Current Climate 1960-2000'
p803
sg25
g26
sg27
S'clim'
p804
sg29
g30
sg31
S'clim.CURR_Bio5.tif'
p805
sg33
S'clim.CURR_Bio5'
p806
sg35
g36
sg37
g38
sg39
S'Present'
p807
ssS'Bio18'
p808
(dp809
g6
S'CURR_Bio18'
p810
sg8
I12
sg9
S'Bio18'
p811
sg11
S'Precipitation of Warmest Quarter'
p812
sg13
S'Present'
p813
sg15
g596
sg17
S'../views/GTiff/clim.CURR_Bio18.tif'
p814
sg19
S'climate'
p815
sg21
S'4755'
p816
sg23
S'Precipitation of Warmest Quarter Current Climate 1960-2000'
p817
sg25
g26
sg27
S'clim'
p818
sg29
g30
sg31
S'clim.CURR_Bio18.tif'
p819
sg33
S'clim.CURR_Bio18'
p820
sg35
g36
sg37
g38
sg39
S'Present'
p821
ssS'Bio19'
p822
(dp823
g6
S'CURR_Bio19'
p824
sg8
I112
sg9
S'Bio19'
p825
sg11
S'Precipitation of Coldest Quarter'
p826
sg13
S'Present'
p827
sg15
S'CURR'
p828
sg17
S'../views/GTiff/clim.CURR_Bio19.tif'
p829
sg19
S'climate'
p830
sg21
S'4756'
p831
sg23
S'Precipitation of Coldest Quarter Current Climate 1960-2000'
p832
sg25
g26
sg27
S'clim'
p833
sg29
g30
sg31
S'clim.CURR_Bio19.tif'
p834
sg33
S'clim.CURR_Bio19'
p835
sg35
g36
sg37
g38
sg39
S'Present'
p836
ssS'Bio8'
p837
(dp838
g6
S'CURR_Bio8'
p839
sg8
I263
sg9
S'Bio8'
p840
sg11
S'Mean Temperature of Wettest Quarter'
p841
sg13
S'Present'
p842
sg15
S'CURR'
p843
sg17
S'../views/GTiff/clim.CURR_Bio8.tif'
p844
sg19
S'climate'
p845
sg21
S'4757'
p846
sg23
S'Mean Temperature of Wettest Quarter Current Climate 1960-2000'
p847
sg25
g26
sg27
S'clim'
p848
sg29
g30
sg31
S'clim.CURR_Bio8.tif'
p849
sg33
S'clim.CURR_Bio8'
p850
sg35
g36
sg37
g38
sg39
S'Present'
p851
ssS'Bio9'
p852
(dp853
g6
S'CURR_Bio9'
p854
sg8
I198
sg9
S'Bio9'
p855
sg11
S'Mean Temperature of Driest Quarter'
p856
sg13
S'Present'
p857
sg15
S'CURR'
p858
sg17
S'../views/GTiff/clim.CURR_Bio9.tif'
p859
sg19
S'climate'
p860
sg21
S'4758'
p861
sg23
S'Mean Temperature of Driest Quarter Current Climate 1960-2000'
p862
sg25
g26
sg27
S'clim'
p863
sg29
g30
sg31
S'clim.CURR_Bio9.tif'
p864
sg33
S'clim.CURR_Bio9'
p865
sg35
g36
sg37
g38
sg39
S'Present'
p866
ssS'Bio7'
p867
(dp868
g6
S'CURR_Bio7'
p869
sg8
I205
sg9
S'Bio7'
p870
sg11
S'Temperature Annual Range (BIO5-BIO6)'
p871
sg13
S'Present'
p872
sg15
S'CURR'
p873
sg17
S'../views/GTiff/clim.CURR_Bio7.tif'
p874
sg19
S'climate'
p875
sg21
S'4759'
p876
sg23
S'Temperature Annual Range (BIO5-BIO6) Current Climate 1960-2000'
p877
sg25
g26
sg27
S'clim'
p878
sg29
g30
sg31
S'clim.CURR_Bio7.tif'
p879
sg33
S'clim.CURR_Bio7'
p880
sg35
g36
sg37
g38
sg39
S'Present'
p881
sssS'gd4550'
p882
(dp883
S'Bio10'
p884
(dp885
g6
S'gd4550_Bio10'
p886
sg8
I262
sg9
S'Bio10'
p887
sg11
S'Mean Temperature of Warmest Quarter'
p888
sg13
S'45'
p889
sg15
S'gd4550'
p890
sg17
S'../views/GTiff/clim.gd4550_Bio10.tif'
p891
sg19
S'climate'
p892
sg21
S'4760'
p893
sg23
S'Mean Temperature of Warmest Quarter GD RCP45 2050'
p894
sg25
g26
sg27
S'clim'
p895
sg29
g30
sg31
S'clim.gd4550_Bio10.tif'
p896
sg33
S'clim.gd4550_Bio10'
p897
sg35
g36
sg37
g38
sg39
S'2050'
p898
ssS'Bio13'
p899
(dp900
g6
S'gd4550_Bio13'
p901
sg8
I133
sg9
S'Bio13'
p902
sg11
S'Precipitation of Wettest Month'
p903
sg13
S'45'
p904
sg15
S'gd4550'
p905
sg17
S'../views/GTiff/clim.gd4550_Bio13.tif'
p906
sg19
S'climate'
p907
sg21
S'4761'
p908
sg23
S'Precipitation of Wettest Month GD RCP45 2050'
p909
sg25
g26
sg27
S'clim'
p910
sg29
g30
sg31
S'clim.gd4550_Bio13.tif'
p911
sg33
S'clim.gd4550_Bio13'
p912
sg35
g36
sg37
g38
sg39
S'2050'
p913
ssS'Bio4'
p914
(dp915
g6
S'gd4550_Bio4'
p916
sg8
I134
sg9
S'Bio4'
p917
sg11
S'Temperature Seasonality (standard deviation *100)'
p918
sg13
S'45'
p919
sg15
S'gd4550'
p920
sg17
S'../views/GTiff/clim.gd4550_Bio4.tif'
p921
sg19
S'climate'
p922
sg21
S'4762'
p923
sg23
S'Temperature Seasonality (standard deviation *100) GD RCP45 2050'
p924
sg25
g26
sg27
S'clim'
p925
sg29
g30
sg31
S'clim.gd4550_Bio4.tif'
p926
sg33
S'clim.gd4550_Bio4'
p927
sg35
g36
sg37
g38
sg39
S'2050'
p928
ssS'Bio11'
p929
(dp930
g6
S'gd4550_Bio11'
p931
sg8
I160
sg9
S'Bio11'
p932
sg11
S'Mean Temperature of Coldest Quarter'
p933
sg13
S'45'
p934
sg15
S'gd4550'
p935
sg17
S'../views/GTiff/clim.gd4550_Bio11.tif'
p936
sg19
S'climate'
p937
sg21
S'4763'
p938
sg23
S'Mean Temperature of Coldest Quarter GD RCP45 2050'
p939
sg25
g26
sg27
S'clim'
p940
sg29
g30
sg31
S'clim.gd4550_Bio11.tif'
p941
sg33
S'clim.gd4550_Bio11'
p942
sg35
g36
sg37
g38
sg39
S'2050'
p943
ssS'Bio17'
p944
(dp945
g6
S'gd4550_Bio17'
p946
sg8
I214
sg9
S'Bio17'
p947
sg11
S'Precipitation of Driest Quarter'
p948
sg13
S'45'
p949
sg15
S'gd4550'
p950
sg17
S'../views/GTiff/clim.gd4550_Bio17.tif'
p951
sg19
S'climate'
p952
sg21
S'4764'
p953
sg23
S'Precipitation of Driest Quarter GD RCP45 2050'
p954
sg25
g26
sg27
S'clim'
p955
sg29
g30
sg31
S'clim.gd4550_Bio17.tif'
p956
sg33
S'clim.gd4550_Bio17'
p957
sg35
g36
sg37
g38
sg39
S'2050'
p958
ssS'Bio2'
p959
(dp960
g6
S'gd4550_Bio2'
p961
sg8
I191
sg9
S'Bio2'
p962
sg11
S'Mean Diurnal Range (Mean of monthly (max temp - min temp))'
p963
sg13
S'45'
p964
sg15
S'gd4550'
p965
sg17
S'../views/GTiff/clim.gd4550_Bio2.tif'
p966
sg19
S'climate'
p967
sg21
S'4765'
p968
sg23
S'Mean Diurnal Range (Mean of monthly (max temp - min temp)) GD RCP45 2050'
p969
sg25
g26
sg27
S'clim'
p970
sg29
g30
sg31
S'clim.gd4550_Bio2.tif'
p971
sg33
S'clim.gd4550_Bio2'
p972
sg35
g36
sg37
g38
sg39
S'2050'
p973
ssS'Bio3'
p974
(dp975
g6
S'gd4550_Bio3'
p976
sg8
I158
sg9
S'Bio3'
p977
sg11
S'Isothermality (BIO2/BIO7) (* 100)'
p978
sg13
S'45'
p979
sg15
S'gd4550'
p980
sg17
S'../views/GTiff/clim.gd4550_Bio3.tif'
p981
sg19
S'climate'
p982
sg21
S'4766'
p983
sg23
S'Isothermality (BIO2/BIO7) (* 100) GD RCP45 2050'
p984
sg25
g26
sg27
S'clim'
p985
sg29
g30
sg31
S'clim.gd4550_Bio3.tif'
p986
sg33
S'clim.gd4550_Bio3'
p987
sg35
g36
sg37
g38
sg39
S'2050'
p988
ssS'Bio12'
p989
(dp990
g6
S'gd4550_Bio12'
p991
sg8
I126
sg9
S'Bio12'
p992
sg11
S'Annual Precipitation'
p993
sg13
S'45'
p994
sg15
S'gd4550'
p995
sg17
S'../views/GTiff/clim.gd4550_Bio12.tif'
p996
sg19
S'climate'
p997
sg21
S'4767'
p998
sg23
S'Annual Precipitation GD RCP45 2050'
p999
sg25
g26
sg27
S'clim'
p1000
sg29
g30
sg31
S'clim.gd4550_Bio12.tif'
p1001
sg33
S'clim.gd4550_Bio12'
p1002
sg35
g36
sg37
g38
sg39
S'2050'
p1003
ssS'Bio1'
p1004
(dp1005
g6
S'gd4550_Bio1'
p1006
sg8
I128
sg9
S'Bio1'
p1007
sg11
S'Annual Mean Temperature'
p1008
sg13
S'45'
p1009
sg15
S'gd4550'
p1010
sg17
S'../views/GTiff/clim.gd4550_Bio1.tif'
p1011
sg19
S'climate'
p1012
sg21
S'4768'
p1013
sg23
S'Annual Mean Temperature GD RCP45 2050'
p1014
sg25
g26
sg27
S'clim'
p1015
sg29
g30
sg31
S'clim.gd4550_Bio1.tif'
p1016
sg33
S'clim.gd4550_Bio1'
p1017
sg35
g36
sg37
g38
sg39
S'2050'
p1018
ssS'Bio14'
p1019
(dp1020
g6
S'gd4550_Bio14'
p1021
sg8
I56
sg9
S'Bio14'
p1022
sg11
S'Precipitation of Driest Month'
p1023
sg13
S'45'
p1024
sg15
S'gd4550'
p1025
sg17
S'../views/GTiff/clim.gd4550_Bio14.tif'
p1026
sg19
S'climate'
p1027
sg21
S'4769'
p1028
sg23
S'Precipitation of Driest Month GD RCP45 2050'
p1029
sg25
g26
sg27
S'clim'
p1030
sg29
g30
sg31
S'clim.gd4550_Bio14.tif'
p1031
sg33
S'clim.gd4550_Bio14'
p1032
sg35
g36
sg37
g38
sg39
S'2050'
p1033
ssS'Bio15'
p1034
(dp1035
g6
S'gd4550_Bio15'
p1036
sg8
I40
sg9
S'Bio15'
p1037
sg11
S'Precipitation Seasonality (Coefficient of Variation)'
p1038
sg13
S'45'
p1039
sg15
S'gd4550'
p1040
sg17
S'../views/GTiff/clim.gd4550_Bio15.tif'
p1041
sg19
S'climate'
p1042
sg21
S'4770'
p1043
sg23
S'Precipitation Seasonality (Coefficient of Variation) GD RCP45 2050'
p1044
sg25
g26
sg27
S'clim'
p1045
sg29
g30
sg31
S'clim.gd4550_Bio15.tif'
p1046
sg33
S'clim.gd4550_Bio15'
p1047
sg35
g36
sg37
g38
sg39
S'2050'
p1048
ssS'Bio16'
p1049
(dp1050
g6
S'gd4550_Bio16'
p1051
sg8
I122
sg9
S'Bio16'
p1052
sg11
S'Precipitation of Wettest Quarter'
p1053
sg13
S'45'
p1054
sg15
S'gd4550'
p1055
sg17
S'../views/GTiff/clim.gd4550_Bio16.tif'
p1056
sg19
S'climate'
p1057
sg21
S'4771'
p1058
sg23
S'Precipitation of Wettest Quarter GD RCP45 2050'
p1059
sg25
g26
sg27
S'clim'
p1060
sg29
g30
sg31
S'clim.gd4550_Bio16.tif'
p1061
sg33
S'clim.gd4550_Bio16'
p1062
sg35
g36
sg37
g38
sg39
S'2050'
p1063
ssS'Bio19'
p1064
(dp1065
g6
S'gd4550_Bio19'
p1066
sg8
I144
sg9
S'Bio19'
p1067
sg11
S'Precipitation of Coldest Quarter'
p1068
sg13
S'45'
p1069
sg15
S'gd4550'
p1070
sg17
S'../views/GTiff/clim.gd4550_Bio19.tif'
p1071
sg19
S'climate'
p1072
sg21
S'4772'
p1073
sg23
S'Precipitation of Coldest Quarter GD RCP45 2050'
p1074
sg25
g26
sg27
S'clim'
p1075
sg29
g30
sg31
S'clim.gd4550_Bio19.tif'
p1076
sg33
S'clim.gd4550_Bio19'
p1077
sg35
g36
sg37
g38
sg39
S'2050'
p1078
ssS'Bio18'
p1079
(dp1080
g6
S'gd4550_Bio18'
p1081
sg8
I150
sg9
S'Bio18'
p1082
sg11
S'Precipitation of Warmest Quarter'
p1083
sg13
S'45'
p1084
sg15
S'gd4550'
p1085
sg17
S'../views/GTiff/clim.gd4550_Bio18.tif'
p1086
sg19
S'climate'
p1087
sg21
S'4773'
p1088
sg23
S'Precipitation of Warmest Quarter GD RCP45 2050'
p1089
sg25
g26
sg27
S'clim'
p1090
sg29
g30
sg31
S'clim.gd4550_Bio18.tif'
p1091
sg33
S'clim.gd4550_Bio18'
p1092
sg35
g36
sg37
g38
sg39
S'2050'
p1093
ssS'Bio6'
p1094
(dp1095
g6
S'gd4550_Bio6'
p1096
sg8
I16
sg9
S'Bio6'
p1097
sg11
S'Min Temperature of Coldest Month'
p1098
sg13
S'45'
p1099
sg15
g882
sg17
S'../views/GTiff/clim.gd4550_Bio6.tif'
p1100
sg19
S'climate'
p1101
sg21
S'4774'
p1102
sg23
S'Min Temperature of Coldest Month GD RCP45 2050'
p1103
sg25
g26
sg27
S'clim'
p1104
sg29
g30
sg31
S'clim.gd4550_Bio6.tif'
p1105
sg33
S'clim.gd4550_Bio6'
p1106
sg35
g36
sg37
g38
sg39
S'2050'
p1107
ssS'Bio8'
p1108
(dp1109
g6
S'gd4550_Bio8'
p1110
sg8
I30
sg9
S'Bio8'
p1111
sg11
S'Mean Temperature of Wettest Quarter'
p1112
sg13
S'45'
p1113
sg15
S'gd4550'
p1114
sg17
S'../views/GTiff/clim.gd4550_Bio8.tif'
p1115
sg19
S'climate'
p1116
sg21
S'4775'
p1117
sg23
S'Mean Temperature of Wettest Quarter GD RCP45 2050'
p1118
sg25
g26
sg27
S'clim'
p1119
sg29
g30
sg31
S'clim.gd4550_Bio8.tif'
p1120
sg33
S'clim.gd4550_Bio8'
p1121
sg35
g36
sg37
g38
sg39
S'2050'
p1122
ssS'Bio9'
p1123
(dp1124
g6
S'gd4550_Bio9'
p1125
sg8
I58
sg9
S'Bio9'
p1126
sg11
S'Mean Temperature of Driest Quarter'
p1127
sg13
S'45'
p1128
sg15
S'gd4550'
p1129
sg17
S'../views/GTiff/clim.gd4550_Bio9.tif'
p1130
sg19
S'climate'
p1131
sg21
S'4776'
p1132
sg23
S'Mean Temperature of Driest Quarter GD RCP45 2050'
p1133
sg25
g26
sg27
S'clim'
p1134
sg29
g30
sg31
S'clim.gd4550_Bio9.tif'
p1135
sg33
S'clim.gd4550_Bio9'
p1136
sg35
g36
sg37
g38
sg39
S'2050'
p1137
ssS'Bio5'
p1138
(dp1139
g6
S'gd4550_Bio5'
p1140
sg8
I261
sg9
S'Bio5'
p1141
sg11
S'Max Temperature of Warmest Month'
p1142
sg13
S'45'
p1143
sg15
S'gd4550'
p1144
sg17
S'../views/GTiff/clim.gd4550_Bio5.tif'
p1145
sg19
S'climate'
p1146
sg21
S'4777'
p1147
sg23
S'Max Temperature of Warmest Month GD RCP45 2050'
p1148
sg25
g26
sg27
S'clim'
p1149
sg29
g30
sg31
S'clim.gd4550_Bio5.tif'
p1150
sg33
S'clim.gd4550_Bio5'
p1151
sg35
g36
sg37
g38
sg39
S'2050'
p1152
ssS'Bio7'
p1153
(dp1154
g6
S'gd4550_Bio7'
p1155
sg8
I188
sg9
S'Bio7'
p1156
sg11
S'Temperature Annual Range (BIO5-BIO6)'
p1157
sg13
S'45'
p1158
sg15
S'gd4550'
p1159
sg17
S'../views/GTiff/clim.gd4550_Bio7.tif'
p1160
sg19
S'climate'
p1161
sg21
S'4778'
p1162
sg23
S'Temperature Annual Range (BIO5-BIO6) GD RCP45 2050'
p1163
sg25
g26
sg27
S'clim'
p1164
sg29
g30
sg31
S'clim.gd4550_Bio7.tif'
p1165
sg33
S'clim.gd4550_Bio7'
p1166
sg35
g36
sg37
g38
sg39
S'2050'
p1167
sssS'he8570'
p1168
(dp1169
S'Bio10'
p1170
(dp1171
g6
S'he8570_Bio10'
p1172
sg8
I170
sg9
S'Bio10'
p1173
sg11
S'Mean Temperature of Warmest Quarter'
p1174
sg13
S'85'
p1175
sg15
S'he8570'
p1176
sg17
S'../views/GTiff/clim.he8570_Bio10.tif'
p1177
sg19
S'climate'
p1178
sg21
S'4779'
p1179
sg23
S'Mean Temperature of Warmest Quarter HE RCP85 2070'
p1180
sg25
g26
sg27
S'clim'
p1181
sg29
g30
sg31
S'clim.he8570_Bio10.tif'
p1182
sg33
S'clim.he8570_Bio10'
p1183
sg35
g36
sg37
g38
sg39
S'2070'
p1184
ssS'Bio19'
p1185
(dp1186
g6
S'he8570_Bio19'
p1187
sg8
I268
sg9
S'Bio19'
p1188
sg11
S'Precipitation of Coldest Quarter'
p1189
sg13
S'85'
p1190
sg15
S'he8570'
p1191
sg17
S'../views/GTiff/clim.he8570_Bio19.tif'
p1192
sg19
S'climate'
p1193
sg21
S'4780'
p1194
sg23
S'Precipitation of Coldest Quarter HE RCP85 2070'
p1195
sg25
g26
sg27
S'clim'
p1196
sg29
g30
sg31
S'clim.he8570_Bio19.tif'
p1197
sg33
S'clim.he8570_Bio19'
p1198
sg35
g36
sg37
g38
sg39
S'2070'
p1199
ssS'Bio16'
p1200
(dp1201
g6
S'he8570_Bio16'
p1202
sg8
I190
sg9
S'Bio16'
p1203
sg11
S'Precipitation of Wettest Quarter'
p1204
sg13
S'85'
p1205
sg15
S'he8570'
p1206
sg17
S'../views/GTiff/clim.he8570_Bio16.tif'
p1207
sg19
S'climate'
p1208
sg21
S'4781'
p1209
sg23
S'Precipitation of Wettest Quarter HE RCP85 2070'
p1210
sg25
g26
sg27
S'clim'
p1211
sg29
g30
sg31
S'clim.he8570_Bio16.tif'
p1212
sg33
S'clim.he8570_Bio16'
p1213
sg35
g36
sg37
g38
sg39
S'2070'
p1214
ssS'Bio1'
p1215
(dp1216
g6
S'he8570_Bio1'
p1217
sg8
I64
sg9
S'Bio1'
p1218
sg11
S'Annual Mean Temperature'
p1219
sg13
S'85'
p1220
sg15
S'he8570'
p1221
sg17
S'../views/GTiff/clim.he8570_Bio1.tif'
p1222
sg19
S'climate'
p1223
sg21
S'4782'
p1224
sg23
S'Annual Mean Temperature HE RCP85 2070'
p1225
sg25
g26
sg27
S'clim'
p1226
sg29
g30
sg31
S'clim.he8570_Bio1.tif'
p1227
sg33
S'clim.he8570_Bio1'
p1228
sg35
g36
sg37
g38
sg39
S'2070'
p1229
ssS'Bio11'
p1230
(dp1231
g6
S'he8570_Bio11'
p1232
sg8
I114
sg9
S'Bio11'
p1233
sg11
S'Mean Temperature of Coldest Quarter'
p1234
sg13
S'85'
p1235
sg15
S'he8570'
p1236
sg17
S'../views/GTiff/clim.he8570_Bio11.tif'
p1237
sg19
S'climate'
p1238
sg21
S'4783'
p1239
sg23
S'Mean Temperature of Coldest Quarter HE RCP85 2070'
p1240
sg25
g26
sg27
S'clim'
p1241
sg29
g30
sg31
S'clim.he8570_Bio11.tif'
p1242
sg33
S'clim.he8570_Bio11'
p1243
sg35
g36
sg37
g38
sg39
S'2070'
p1244
ssS'Bio5'
p1245
(dp1246
g6
S'he8570_Bio5'
p1247
sg8
I249
sg9
S'Bio5'
p1248
sg11
S'Max Temperature of Warmest Month'
p1249
sg13
S'85'
p1250
sg15
S'he8570'
p1251
sg17
S'../views/GTiff/clim.he8570_Bio5.tif'
p1252
sg19
S'climate'
p1253
sg21
S'4784'
p1254
sg23
S'Max Temperature of Warmest Month HE RCP85 2070'
p1255
sg25
g26
sg27
S'clim'
p1256
sg29
g30
sg31
S'clim.he8570_Bio5.tif'
p1257
sg33
S'clim.he8570_Bio5'
p1258
sg35
g36
sg37
g38
sg39
S'2070'
p1259
ssS'Bio2'
p1260
(dp1261
g6
S'he8570_Bio2'
p1262
sg8
I110
sg9
S'Bio2'
p1263
sg11
S'Mean Diurnal Range (Mean of monthly (max temp - min temp))'
p1264
sg13
S'85'
p1265
sg15
S'he8570'
p1266
sg17
S'../views/GTiff/clim.he8570_Bio2.tif'
p1267
sg19
S'climate'
p1268
sg21
S'4785'
p1269
sg23
S'Mean Diurnal Range (Mean of monthly (max temp - min temp)) HE RCP85 2070'
p1270
sg25
g26
sg27
S'clim'
p1271
sg29
g30
sg31
S'clim.he8570_Bio2.tif'
p1272
sg33
S'clim.he8570_Bio2'
p1273
sg35
g36
sg37
g38
sg39
S'2070'
p1274
ssS'Bio3'
p1275
(dp1276
g6
S'he8570_Bio3'
p1277
sg8
I5
sg9
S'Bio3'
p1278
sg11
S'Isothermality (BIO2/BIO7) (* 100)'
p1279
sg13
S'85'
p1280
sg15
g1168
sg17
S'../views/GTiff/clim.he8570_Bio3.tif'
p1281
sg19
S'climate'
p1282
sg21
S'4786'
p1283
sg23
S'Isothermality (BIO2/BIO7) (* 100) HE RCP85 2070'
p1284
sg25
g26
sg27
S'clim'
p1285
sg29
g30
sg31
S'clim.he8570_Bio3.tif'
p1286
sg33
S'clim.he8570_Bio3'
p1287
sg35
g36
sg37
g38
sg39
S'2070'
p1288
ssS'Bio12'
p1289
(dp1290
g6
S'he8570_Bio12'
p1291
sg8
I193
sg9
S'Bio12'
p1292
sg11
S'Annual Precipitation'
p1293
sg13
S'85'
p1294
sg15
S'he8570'
p1295
sg17
S'../views/GTiff/clim.he8570_Bio12.tif'
p1296
sg19
S'climate'
p1297
sg21
S'4787'
p1298
sg23
S'Annual Precipitation HE RCP85 2070'
p1299
sg25
g26
sg27
S'clim'
p1300
sg29
g30
sg31
S'clim.he8570_Bio12.tif'
p1301
sg33
S'clim.he8570_Bio12'
p1302
sg35
g36
sg37
g38
sg39
S'2070'
p1303
ssS'Bio13'
p1304
(dp1305
g6
S'he8570_Bio13'
p1306
sg8
I63
sg9
S'Bio13'
p1307
sg11
S'Precipitation of Wettest Month'
p1308
sg13
S'85'
p1309
sg15
S'he8570'
p1310
sg17
S'../views/GTiff/clim.he8570_Bio13.tif'
p1311
sg19
S'climate'
p1312
sg21
S'4788'
p1313
sg23
S'Precipitation of Wettest Month HE RCP85 2070'
p1314
sg25
g26
sg27
S'clim'
p1315
sg29
g30
sg31
S'clim.he8570_Bio13.tif'
p1316
sg33
S'clim.he8570_Bio13'
p1317
sg35
g36
sg37
g38
sg39
S'2070'
p1318
ssS'Bio6'
p1319
(dp1320
g6
S'he8570_Bio6'
p1321
sg8
I119
sg9
S'Bio6'
p1322
sg11
S'Min Temperature of Coldest Month'
p1323
sg13
S'85'
p1324
sg15
S'he8570'
p1325
sg17
S'../views/GTiff/clim.he8570_Bio6.tif'
p1326
sg19
S'climate'
p1327
sg21
S'4789'
p1328
sg23
S'Min Temperature of Coldest Month HE RCP85 2070'
p1329
sg25
g26
sg27
S'clim'
p1330
sg29
g30
sg31
S'clim.he8570_Bio6.tif'
p1331
sg33
S'clim.he8570_Bio6'
p1332
sg35
g36
sg37
g38
sg39
S'2070'
p1333
ssS'Bio7'
p1334
(dp1335
g6
S'he8570_Bio7'
p1336
sg8
I107
sg9
S'Bio7'
p1337
sg11
S'Temperature Annual Range (BIO5-BIO6)'
p1338
sg13
S'85'
p1339
sg15
S'he8570'
p1340
sg17
S'../views/GTiff/clim.he8570_Bio7.tif'
p1341
sg19
S'climate'
p1342
sg21
S'4790'
p1343
sg23
S'Temperature Annual Range (BIO5-BIO6) HE RCP85 2070'
p1344
sg25
g26
sg27
S'clim'
p1345
sg29
g30
sg31
S'clim.he8570_Bio7.tif'
p1346
sg33
S'clim.he8570_Bio7'
p1347
sg35
g36
sg37
g38
sg39
S'2070'
p1348
ssS'Bio4'
p1349
(dp1350
g6
S'he8570_Bio4'
p1351
sg8
I6
sg9
S'Bio4'
p1352
sg11
S'Temperature Seasonality (standard deviation *100)'
p1353
sg13
S'85'
p1354
sg15
S'he8570'
p1355
sg17
S'../views/GTiff/clim.he8570_Bio4.tif'
p1356
sg19
S'climate'
p1357
sg21
S'4791'
p1358
sg23
S'Temperature Seasonality (standard deviation *100) HE RCP85 2070'
p1359
sg25
g26
sg27
S'clim'
p1360
sg29
g30
sg31
S'clim.he8570_Bio4.tif'
p1361
sg33
S'clim.he8570_Bio4'
p1362
sg35
g36
sg37
g38
sg39
S'2070'
p1363
ssS'Bio17'
p1364
(dp1365
g6
S'he8570_Bio17'
p1366
sg8
I203
sg9
S'Bio17'
p1367
sg11
S'Precipitation of Driest Quarter'
p1368
sg13
S'85'
p1369
sg15
S'he8570'
p1370
sg17
S'../views/GTiff/clim.he8570_Bio17.tif'
p1371
sg19
S'climate'
p1372
sg21
S'4792'
p1373
sg23
S'Precipitation of Driest Quarter HE RCP85 2070'
p1374
sg25
g26
sg27
S'clim'
p1375
sg29
g30
sg31
S'clim.he8570_Bio17.tif'
p1376
sg33
S'clim.he8570_Bio17'
p1377
sg35
g36
sg37
g38
sg39
S'2070'
p1378
ssS'Bio18'
p1379
(dp1380
g6
S'he8570_Bio18'
p1381
sg8
I225
sg9
S'Bio18'
p1382
sg11
S'Precipitation of Warmest Quarter'
p1383
sg13
S'85'
p1384
sg15
S'he8570'
p1385
sg17
S'../views/GTiff/clim.he8570_Bio18.tif'
p1386
sg19
S'climate'
p1387
sg21
S'4793'
p1388
sg23
S'Precipitation of Warmest Quarter HE RCP85 2070'
p1389
sg25
g26
sg27
S'clim'
p1390
sg29
g30
sg31
S'clim.he8570_Bio18.tif'
p1391
sg33
S'clim.he8570_Bio18'
p1392
sg35
g36
sg37
g38
sg39
S'2070'
p1393
ssS'Bio14'
p1394
(dp1395
g6
S'he8570_Bio14'
p1396
sg8
I227
sg9
S'Bio14'
p1397
sg11
S'Precipitation of Driest Month'
p1398
sg13
S'85'
p1399
sg15
S'he8570'
p1400
sg17
S'../views/GTiff/clim.he8570_Bio14.tif'
p1401
sg19
S'climate'
p1402
sg21
S'4794'
p1403
sg23
S'Precipitation of Driest Month HE RCP85 2070'
p1404
sg25
g26
sg27
S'clim'
p1405
sg29
g30
sg31
S'clim.he8570_Bio14.tif'
p1406
sg33
S'clim.he8570_Bio14'
p1407
sg35
g36
sg37
g38
sg39
S'2070'
p1408
ssS'Bio8'
p1409
(dp1410
g6
S'he8570_Bio8'
p1411
sg8
I29
sg9
S'Bio8'
p1412
sg11
S'Mean Temperature of Wettest Quarter'
p1413
sg13
S'85'
p1414
sg15
S'he8570'
p1415
sg17
S'../views/GTiff/clim.he8570_Bio8.tif'
p1416
sg19
S'climate'
p1417
sg21
S'4795'
p1418
sg23
S'Mean Temperature of Wettest Quarter HE RCP85 2070'
p1419
sg25
g26
sg27
S'clim'
p1420
sg29
g30
sg31
S'clim.he8570_Bio8.tif'
p1421
sg33
S'clim.he8570_Bio8'
p1422
sg35
g36
sg37
g38
sg39
S'2070'
p1423
ssS'Bio9'
p1424
(dp1425
g6
S'he8570_Bio9'
p1426
sg8
I135
sg9
S'Bio9'
p1427
sg11
S'Mean Temperature of Driest Quarter'
p1428
sg13
S'85'
p1429
sg15
S'he8570'
p1430
sg17
S'../views/GTiff/clim.he8570_Bio9.tif'
p1431
sg19
S'climate'
p1432
sg21
S'4796'
p1433
sg23
S'Mean Temperature of Driest Quarter HE RCP85 2070'
p1434
sg25
g26
sg27
S'clim'
p1435
sg29
g30
sg31
S'clim.he8570_Bio9.tif'
p1436
sg33
S'clim.he8570_Bio9'
p1437
sg35
g36
sg37
g38
sg39
S'2070'
p1438
ssS'Bio15'
p1439
(dp1440
g6
S'he8570_Bio15'
p1441
sg8
I148
sg9
S'Bio15'
p1442
sg11
S'Precipitation Seasonality (Coefficient of Variation)'
p1443
sg13
S'85'
p1444
sg15
S'he8570'
p1445
sg17
S'../views/GTiff/clim.he8570_Bio15.tif'
p1446
sg19
S'climate'
p1447
sg21
S'4797'
p1448
sg23
S'Precipitation Seasonality (Coefficient of Variation) HE RCP85 2070'
p1449
sg25
g26
sg27
S'clim'
p1450
sg29
g30
sg31
S'clim.he8570_Bio15.tif'
p1451
sg33
S'clim.he8570_Bio15'
p1452
sg35
g36
sg37
g38
sg39
S'2070'
p1453
sssS'he2650'
p1454
(dp1455
S'Bio10'
p1456
(dp1457
g6
S'he2650_Bio10'
p1458
sg8
I238
sg9
S'Bio10'
p1459
sg11
S'Mean Temperature of Warmest Quarter'
p1460
sg13
S'26'
p1461
sg15
S'he2650'
p1462
sg17
S'../views/GTiff/clim.he2650_Bio10.tif'
p1463
sg19
S'climate'
p1464
sg21
S'4798'
p1465
sg23
S'Mean Temperature of Warmest Quarter HE RCP26 2050'
p1466
sg25
g26
sg27
S'clim'
p1467
sg29
g30
sg31
S'clim.he2650_Bio10.tif'
p1468
sg33
S'clim.he2650_Bio10'
p1469
sg35
g36
sg37
g38
sg39
S'2050'
p1470
ssS'Bio13'
p1471
(dp1472
g6
S'he2650_Bio13'
p1473
sg8
I161
sg9
S'Bio13'
p1474
sg11
S'Precipitation of Wettest Month'
p1475
sg13
S'26'
p1476
sg15
S'he2650'
p1477
sg17
S'../views/GTiff/clim.he2650_Bio13.tif'
p1478
sg19
S'climate'
p1479
sg21
S'4799'
p1480
sg23
S'Precipitation of Wettest Month HE RCP26 2050'
p1481
sg25
g26
sg27
S'clim'
p1482
sg29
g30
sg31
S'clim.he2650_Bio13.tif'
p1483
sg33
S'clim.he2650_Bio13'
p1484
sg35
g36
sg37
g38
sg39
S'2050'
p1485
ssS'Bio4'
p1486
(dp1487
g6
S'he2650_Bio4'
p1488
sg8
I280
sg9
S'Bio4'
p1489
sg11
S'Temperature Seasonality (standard deviation *100)'
p1490
sg13
S'26'
p1491
sg15
S'he2650'
p1492
sg17
S'../views/GTiff/clim.he2650_Bio4.tif'
p1493
sg19
S'climate'
p1494
sg21
S'4800'
p1495
sg23
S'Temperature Seasonality (standard deviation *100) HE RCP26 2050'
p1496
sg25
g26
sg27
S'clim'
p1497
sg29
g30
sg31
S'clim.he2650_Bio4.tif'
p1498
sg33
S'clim.he2650_Bio4'
p1499
sg35
g36
sg37
g38
sg39
S'2050'
p1500
ssS'Bio11'
p1501
(dp1502
g6
S'he2650_Bio11'
p1503
sg8
I247
sg9
S'Bio11'
p1504
sg11
S'Mean Temperature of Coldest Quarter'
p1505
sg13
S'26'
p1506
sg15
S'he2650'
p1507
sg17
S'../views/GTiff/clim.he2650_Bio11.tif'
p1508
sg19
S'climate'
p1509
sg21
S'4801'
p1510
sg23
S'Mean Temperature of Coldest Quarter HE RCP26 2050'
p1511
sg25
g26
sg27
S'clim'
p1512
sg29
g30
sg31
S'clim.he2650_Bio11.tif'
p1513
sg33
S'clim.he2650_Bio11'
p1514
sg35
g36
sg37
g38
sg39
S'2050'
p1515
ssS'Bio5'
p1516
(dp1517
g6
S'he2650_Bio5'
p1518
sg8
I146
sg9
S'Bio5'
p1519
sg11
S'Max Temperature of Warmest Month'
p1520
sg13
S'26'
p1521
sg15
S'he2650'
p1522
sg17
S'../views/GTiff/clim.he2650_Bio5.tif'
p1523
sg19
S'climate'
p1524
sg21
S'4802'
p1525
sg23
S'Max Temperature of Warmest Month HE RCP26 2050'
p1526
sg25
g26
sg27
S'clim'
p1527
sg29
g30
sg31
S'clim.he2650_Bio5.tif'
p1528
sg33
S'clim.he2650_Bio5'
p1529
sg35
g36
sg37
g38
sg39
S'2050'
p1530
ssS'Bio14'
p1531
(dp1532
g6
S'he2650_Bio14'
p1533
sg8
I273
sg9
S'Bio14'
p1534
sg11
S'Precipitation of Driest Month'
p1535
sg13
S'26'
p1536
sg15
S'he2650'
p1537
sg17
S'../views/GTiff/clim.he2650_Bio14.tif'
p1538
sg19
S'climate'
p1539
sg21
S'4803'
p1540
sg23
S'Precipitation of Driest Month HE RCP26 2050'
p1541
sg25
g26
sg27
S'clim'
p1542
sg29
g30
sg31
S'clim.he2650_Bio14.tif'
p1543
sg33
S'clim.he2650_Bio14'
p1544
sg35
g36
sg37
g38
sg39
S'2050'
p1545
ssS'Bio2'
p1546
(dp1547
g6
S'he2650_Bio2'
p1548
sg8
I185
sg9
S'Bio2'
p1549
sg11
S'Mean Diurnal Range (Mean of monthly (max temp - min temp))'
p1550
sg13
S'26'
p1551
sg15
S'he2650'
p1552
sg17
S'../views/GTiff/clim.he2650_Bio2.tif'
p1553
sg19
S'climate'
p1554
sg21
S'4804'
p1555
sg23
S'Mean Diurnal Range (Mean of monthly (max temp - min temp)) HE RCP26 2050'
p1556
sg25
g26
sg27
S'clim'
p1557
sg29
g30
sg31
S'clim.he2650_Bio2.tif'
p1558
sg33
S'clim.he2650_Bio2'
p1559
sg35
g36
sg37
g38
sg39
S'2050'
p1560
ssS'Bio3'
p1561
(dp1562
g6
S'he2650_Bio3'
p1563
sg8
I177
sg9
S'Bio3'
p1564
sg11
S'Isothermality (BIO2/BIO7) (* 100)'
p1565
sg13
S'26'
p1566
sg15
S'he2650'
p1567
sg17
S'../views/GTiff/clim.he2650_Bio3.tif'
p1568
sg19
S'climate'
p1569
sg21
S'4805'
p1570
sg23
S'Isothermality (BIO2/BIO7) (* 100) HE RCP26 2050'
p1571
sg25
g26
sg27
S'clim'
p1572
sg29
g30
sg31
S'clim.he2650_Bio3.tif'
p1573
sg33
S'clim.he2650_Bio3'
p1574
sg35
g36
sg37
g38
sg39
S'2050'
p1575
ssS'Bio12'
p1576
(dp1577
g6
S'he2650_Bio12'
p1578
sg8
I256
sg9
S'Bio12'
p1579
sg11
S'Annual Precipitation'
p1580
sg13
S'26'
p1581
sg15
S'he2650'
p1582
sg17
S'../views/GTiff/clim.he2650_Bio12.tif'
p1583
sg19
S'climate'
p1584
sg21
S'4806'
p1585
sg23
S'Annual Precipitation HE RCP26 2050'
p1586
sg25
g26
sg27
S'clim'
p1587
sg29
g30
sg31
S'clim.he2650_Bio12.tif'
p1588
sg33
S'clim.he2650_Bio12'
p1589
sg35
g36
sg37
g38
sg39
S'2050'
p1590
ssS'Bio1'
p1591
(dp1592
g6
S'he2650_Bio1'
p1593
sg8
I120
sg9
S'Bio1'
p1594
sg11
S'Annual Mean Temperature'
p1595
sg13
S'26'
p1596
sg15
S'he2650'
p1597
sg17
S'../views/GTiff/clim.he2650_Bio1.tif'
p1598
sg19
S'climate'
p1599
sg21
S'4807'
p1600
sg23
S'Annual Mean Temperature HE RCP26 2050'
p1601
sg25
g26
sg27
S'clim'
p1602
sg29
g30
sg31
S'clim.he2650_Bio1.tif'
p1603
sg33
S'clim.he2650_Bio1'
p1604
sg35
g36
sg37
g38
sg39
S'2050'
p1605
ssS'Bio6'
p1606
(dp1607
g6
S'he2650_Bio6'
p1608
sg8
I142
sg9
S'Bio6'
p1609
sg11
S'Min Temperature of Coldest Month'
p1610
sg13
S'26'
p1611
sg15
S'he2650'
p1612
sg17
S'../views/GTiff/clim.he2650_Bio6.tif'
p1613
sg19
S'climate'
p1614
sg21
S'4808'
p1615
sg23
S'Min Temperature of Coldest Month HE RCP26 2050'
p1616
sg25
g26
sg27
S'clim'
p1617
sg29
g30
sg31
S'clim.he2650_Bio6.tif'
p1618
sg33
S'clim.he2650_Bio6'
p1619
sg35
g36
sg37
g38
sg39
S'2050'
p1620
ssS'Bio15'
p1621
(dp1622
g6
S'he2650_Bio15'
p1623
sg8
I60
sg9
S'Bio15'
p1624
sg11
S'Precipitation Seasonality (Coefficient of Variation)'
p1625
sg13
S'26'
p1626
sg15
S'he2650'
p1627
sg17
S'../views/GTiff/clim.he2650_Bio15.tif'
p1628
sg19
S'climate'
p1629
sg21
S'4809'
p1630
sg23
S'Precipitation Seasonality (Coefficient of Variation) HE RCP26 2050'
p1631
sg25
g26
sg27
S'clim'
p1632
sg29
g30
sg31
S'clim.he2650_Bio15.tif'
p1633
sg33
S'clim.he2650_Bio15'
p1634
sg35
g36
sg37
g38
sg39
S'2050'
p1635
ssS'Bio16'
p1636
(dp1637
g6
S'he2650_Bio16'
p1638
sg8
I229
sg9
S'Bio16'
p1639
sg11
S'Precipitation of Wettest Quarter'
p1640
sg13
S'26'
p1641
sg15
S'he2650'
p1642
sg17
S'../views/GTiff/clim.he2650_Bio16.tif'
p1643
sg19
S'climate'
p1644
sg21
S'4810'
p1645
sg23
S'Precipitation of Wettest Quarter HE RCP26 2050'
p1646
sg25
g26
sg27
S'clim'
p1647
sg29
g30
sg31
S'clim.he2650_Bio16.tif'
p1648
sg33
S'clim.he2650_Bio16'
p1649
sg35
g36
sg37
g38
sg39
S'2050'
p1650
ssS'Bio17'
p1651
(dp1652
g6
S'he2650_Bio17'
p1653
sg8
I59
sg9
S'Bio17'
p1654
sg11
S'Precipitation of Driest Quarter'
p1655
sg13
S'26'
p1656
sg15
S'he2650'
p1657
sg17
S'../views/GTiff/clim.he2650_Bio17.tif'
p1658
sg19
S'climate'
p1659
sg21
S'4811'
p1660
sg23
S'Precipitation of Driest Quarter HE RCP26 2050'
p1661
sg25
g26
sg27
S'clim'
p1662
sg29
g30
sg31
S'clim.he2650_Bio17.tif'
p1663
sg33
S'clim.he2650_Bio17'
p1664
sg35
g36
sg37
g38
sg39
S'2050'
p1665
ssS'Bio18'
p1666
(dp1667
g6
S'he2650_Bio18'
p1668
sg8
I7
sg9
S'Bio18'
p1669
sg11
S'Precipitation of Warmest Quarter'
p1670
sg13
S'26'
p1671
sg15
S'he2650'
p1672
sg17
S'../views/GTiff/clim.he2650_Bio18.tif'
p1673
sg19
S'climate'
p1674
sg21
S'4812'
p1675
sg23
S'Precipitation of Warmest Quarter HE RCP26 2050'
p1676
sg25
g26
sg27
S'clim'
p1677
sg29
g30
sg31
S'clim.he2650_Bio18.tif'
p1678
sg33
S'clim.he2650_Bio18'
p1679
sg35
g36
sg37
g38
sg39
S'2050'
p1680
ssS'Bio19'
p1681
(dp1682
g6
S'he2650_Bio19'
p1683
sg8
I178
sg9
S'Bio19'
p1684
sg11
S'Precipitation of Coldest Quarter'
p1685
sg13
S'26'
p1686
sg15
S'he2650'
p1687
sg17
S'../views/GTiff/clim.he2650_Bio19.tif'
p1688
sg19
S'climate'
p1689
sg21
S'4813'
p1690
sg23
S'Precipitation of Coldest Quarter HE RCP26 2050'
p1691
sg25
g26
sg27
S'clim'
p1692
sg29
g30
sg31
S'clim.he2650_Bio19.tif'
p1693
sg33
S'clim.he2650_Bio19'
p1694
sg35
g36
sg37
g38
sg39
S'2050'
p1695
ssS'Bio8'
p1696
(dp1697
g6
S'he2650_Bio8'
p1698
sg8
I257
sg9
S'Bio8'
p1699
sg11
S'Mean Temperature of Wettest Quarter'
p1700
sg13
S'26'
p1701
sg15
S'he2650'
p1702
sg17
S'../views/GTiff/clim.he2650_Bio8.tif'
p1703
sg19
S'climate'
p1704
sg21
S'4814'
p1705
sg23
S'Mean Temperature of Wettest Quarter HE RCP26 2050'
p1706
sg25
g26
sg27
S'clim'
p1707
sg29
g30
sg31
S'clim.he2650_Bio8.tif'
p1708
sg33
S'clim.he2650_Bio8'
p1709
sg35
g36
sg37
g38
sg39
S'2050'
p1710
ssS'Bio9'
p1711
(dp1712
g6
S'he2650_Bio9'
p1713
sg8
I200
sg9
S'Bio9'
p1714
sg11
S'Mean Temperature of Driest Quarter'
p1715
sg13
S'26'
p1716
sg15
S'he2650'
p1717
sg17
S'../views/GTiff/clim.he2650_Bio9.tif'
p1718
sg19
S'climate'
p1719
sg21
S'4815'
p1720
sg23
S'Mean Temperature of Driest Quarter HE RCP26 2050'
p1721
sg25
g26
sg27
S'clim'
p1722
sg29
g30
sg31
S'clim.he2650_Bio9.tif'
p1723
sg33
S'clim.he2650_Bio9'
p1724
sg35
g36
sg37
g38
sg39
S'2050'
p1725
ssS'Bio7'
p1726
(dp1727
g6
S'he2650_Bio7'
p1728
sg8
I3
sg9
S'Bio7'
p1729
sg11
S'Temperature Annual Range (BIO5-BIO6)'
p1730
sg13
S'26'
p1731
sg15
g1454
sg17
S'../views/GTiff/clim.he2650_Bio7.tif'
p1732
sg19
S'climate'
p1733
sg21
S'4816'
p1734
sg23
S'Temperature Annual Range (BIO5-BIO6) HE RCP26 2050'
p1735
sg25
g26
sg27
S'clim'
p1736
sg29
g30
sg31
S'clim.he2650_Bio7.tif'
p1737
sg33
S'clim.he2650_Bio7'
p1738
sg35
g36
sg37
g38
sg39
S'2050'
p1739
sssS'he6050'
p1740
(dp1741
S'Bio10'
p1742
(dp1743
g6
S'he6050_Bio10'
p1744
sg8
I123
sg9
S'Bio10'
p1745
sg11
S'Mean Temperature of Warmest Quarter'
p1746
sg13
S'60'
p1747
sg15
S'he6050'
p1748
sg17
S'../views/GTiff/clim.he6050_Bio10.tif'
p1749
sg19
S'climate'
p1750
sg21
S'4817'
p1751
sg23
S'Mean Temperature of Warmest Quarter HE RCP60 2050'
p1752
sg25
g26
sg27
S'clim'
p1753
sg29
g30
sg31
S'clim.he6050_Bio10.tif'
p1754
sg33
S'clim.he6050_Bio10'
p1755
sg35
g36
sg37
g38
sg39
S'2050'
p1756
ssS'Bio6'
p1757
(dp1758
g6
S'he6050_Bio6'
p1759
sg8
I241
sg9
S'Bio6'
p1760
sg11
S'Min Temperature of Coldest Month'
p1761
sg13
S'60'
p1762
sg15
S'he6050'
p1763
sg17
S'../views/GTiff/clim.he6050_Bio6.tif'
p1764
sg19
S'climate'
p1765
sg21
S'4818'
p1766
sg23
S'Min Temperature of Coldest Month HE RCP60 2050'
p1767
sg25
g26
sg27
S'clim'
p1768
sg29
g30
sg31
S'clim.he6050_Bio6.tif'
p1769
sg33
S'clim.he6050_Bio6'
p1770
sg35
g36
sg37
g38
sg39
S'2050'
p1771
ssS'Bio16'
p1772
(dp1773
g6
S'he6050_Bio16'
p1774
sg8
I124
sg9
S'Bio16'
p1775
sg11
S'Precipitation of Wettest Quarter'
p1776
sg13
S'60'
p1777
sg15
S'he6050'
p1778
sg17
S'../views/GTiff/clim.he6050_Bio16.tif'
p1779
sg19
S'climate'
p1780
sg21
S'4819'
p1781
sg23
S'Precipitation of Wettest Quarter HE RCP60 2050'
p1782
sg25
g26
sg27
S'clim'
p1783
sg29
g30
sg31
S'clim.he6050_Bio16.tif'
p1784
sg33
S'clim.he6050_Bio16'
p1785
sg35
g36
sg37
g38
sg39
S'2050'
p1786
ssS'Bio1'
p1787
(dp1788
g6
S'he6050_Bio1'
p1789
sg8
I145
sg9
S'Bio1'
p1790
sg11
S'Annual Mean Temperature'
p1791
sg13
S'60'
p1792
sg15
S'he6050'
p1793
sg17
S'../views/GTiff/clim.he6050_Bio1.tif'
p1794
sg19
S'climate'
p1795
sg21
S'4820'
p1796
sg23
S'Annual Mean Temperature HE RCP60 2050'
p1797
sg25
g26
sg27
S'clim'
p1798
sg29
g30
sg31
S'clim.he6050_Bio1.tif'
p1799
sg33
S'clim.he6050_Bio1'
p1800
sg35
g36
sg37
g38
sg39
S'2050'
p1801
ssS'Bio3'
p1802
(dp1803
g6
S'he6050_Bio3'
p1804
sg8
I234
sg9
S'Bio3'
p1805
sg11
S'Isothermality (BIO2/BIO7) (* 100)'
p1806
sg13
S'60'
p1807
sg15
S'he6050'
p1808
sg17
S'../views/GTiff/clim.he6050_Bio3.tif'
p1809
sg19
S'climate'
p1810
sg21
S'4821'
p1811
sg23
S'Isothermality (BIO2/BIO7) (* 100) HE RCP60 2050'
p1812
sg25
g26
sg27
S'clim'
p1813
sg29
g30
sg31
S'clim.he6050_Bio3.tif'
p1814
sg33
S'clim.he6050_Bio3'
p1815
sg35
g36
sg37
g38
sg39
S'2050'
p1816
ssS'Bio5'
p1817
(dp1818
g6
S'he6050_Bio5'
p1819
sg8
I157
sg9
S'Bio5'
p1820
sg11
S'Max Temperature of Warmest Month'
p1821
sg13
S'60'
p1822
sg15
S'he6050'
p1823
sg17
S'../views/GTiff/clim.he6050_Bio5.tif'
p1824
sg19
S'climate'
p1825
sg21
S'4822'
p1826
sg23
S'Max Temperature of Warmest Month HE RCP60 2050'
p1827
sg25
g26
sg27
S'clim'
p1828
sg29
g30
sg31
S'clim.he6050_Bio5.tif'
p1829
sg33
S'clim.he6050_Bio5'
p1830
sg35
g36
sg37
g38
sg39
S'2050'
p1831
ssS'Bio2'
p1832
(dp1833
g6
S'he6050_Bio2'
p1834
sg8
I99
sg9
S'Bio2'
p1835
sg11
S'Mean Diurnal Range (Mean of monthly (max temp - min temp))'
p1836
sg13
S'60'
p1837
sg15
S'he6050'
p1838
sg17
S'../views/GTiff/clim.he6050_Bio2.tif'
p1839
sg19
S'climate'
p1840
sg21
S'4823'
p1841
sg23
S'Mean Diurnal Range (Mean of monthly (max temp - min temp)) HE RCP60 2050'
p1842
sg25
g26
sg27
S'clim'
p1843
sg29
g30
sg31
S'clim.he6050_Bio2.tif'
p1844
sg33
S'clim.he6050_Bio2'
p1845
sg35
g36
sg37
g38
sg39
S'2050'
p1846
ssS'Bio11'
p1847
(dp1848
g6
S'he6050_Bio11'
p1849
sg8
I121
sg9
S'Bio11'
p1850
sg11
S'Mean Temperature of Coldest Quarter'
p1851
sg13
S'60'
p1852
sg15
S'he6050'
p1853
sg17
S'../views/GTiff/clim.he6050_Bio11.tif'
p1854
sg19
S'climate'
p1855
sg21
S'4824'
p1856
sg23
S'Mean Temperature of Coldest Quarter HE RCP60 2050'
p1857
sg25
g26
sg27
S'clim'
p1858
sg29
g30
sg31
S'clim.he6050_Bio11.tif'
p1859
sg33
S'clim.he6050_Bio11'
p1860
sg35
g36
sg37
g38
sg39
S'2050'
p1861
ssS'Bio12'
p1862
(dp1863
g6
S'he6050_Bio12'
p1864
sg8
I47
sg9
S'Bio12'
p1865
sg11
S'Annual Precipitation'
p1866
sg13
S'60'
p1867
sg15
S'he6050'
p1868
sg17
S'../views/GTiff/clim.he6050_Bio12.tif'
p1869
sg19
S'climate'
p1870
sg21
S'4825'
p1871
sg23
S'Annual Precipitation HE RCP60 2050'
p1872
sg25
g26
sg27
S'clim'
p1873
sg29
g30
sg31
S'clim.he6050_Bio12.tif'
p1874
sg33
S'clim.he6050_Bio12'
p1875
sg35
g36
sg37
g38
sg39
S'2050'
p1876
ssS'Bio13'
p1877
(dp1878
g6
S'he6050_Bio13'
p1879
sg8
I137
sg9
S'Bio13'
p1880
sg11
S'Precipitation of Wettest Month'
p1881
sg13
S'60'
p1882
sg15
S'he6050'
p1883
sg17
S'../views/GTiff/clim.he6050_Bio13.tif'
p1884
sg19
S'climate'
p1885
sg21
S'4826'
p1886
sg23
S'Precipitation of Wettest Month HE RCP60 2050'
p1887
sg25
g26
sg27
S'clim'
p1888
sg29
g30
sg31
S'clim.he6050_Bio13.tif'
p1889
sg33
S'clim.he6050_Bio13'
p1890
sg35
g36
sg37
g38
sg39
S'2050'
p1891
ssS'Bio14'
p1892
(dp1893
g6
S'he6050_Bio14'
p1894
sg8
I140
sg9
S'Bio14'
p1895
sg11
S'Precipitation of Driest Month'
p1896
sg13
S'60'
p1897
sg15
S'he6050'
p1898
sg17
S'../views/GTiff/clim.he6050_Bio14.tif'
p1899
sg19
S'climate'
p1900
sg21
S'4827'
p1901
sg23
S'Precipitation of Driest Month HE RCP60 2050'
p1902
sg25
g26
sg27
S'clim'
p1903
sg29
g30
sg31
S'clim.he6050_Bio14.tif'
p1904
sg33
S'clim.he6050_Bio14'
p1905
sg35
g36
sg37
g38
sg39
S'2050'
p1906
ssS'Bio7'
p1907
(dp1908
g6
S'he6050_Bio7'
p1909
sg8
I14
sg9
S'Bio7'
p1910
sg11
S'Temperature Annual Range (BIO5-BIO6)'
p1911
sg13
S'60'
p1912
sg15
S'he6050'
p1913
sg17
S'../views/GTiff/clim.he6050_Bio7.tif'
p1914
sg19
S'climate'
p1915
sg21
S'4828'
p1916
sg23
S'Temperature Annual Range (BIO5-BIO6) HE RCP60 2050'
p1917
sg25
g26
sg27
S'clim'
p1918
sg29
g30
sg31
S'clim.he6050_Bio7.tif'
p1919
sg33
S'clim.he6050_Bio7'
p1920
sg35
g36
sg37
g38
sg39
S'2050'
p1921
ssS'Bio4'
p1922
(dp1923
g6
S'he6050_Bio4'
p1924
sg8
I52
sg9
S'Bio4'
p1925
sg11
S'Temperature Seasonality (standard deviation *100)'
p1926
sg13
S'60'
p1927
sg15
S'he6050'
p1928
sg17
S'../views/GTiff/clim.he6050_Bio4.tif'
p1929
sg19
S'climate'
p1930
sg21
S'4829'
p1931
sg23
S'Temperature Seasonality (standard deviation *100) HE RCP60 2050'
p1932
sg25
g26
sg27
S'clim'
p1933
sg29
g30
sg31
S'clim.he6050_Bio4.tif'
p1934
sg33
S'clim.he6050_Bio4'
p1935
sg35
g36
sg37
g38
sg39
S'2050'
p1936
ssS'Bio17'
p1937
(dp1938
g6
S'he6050_Bio17'
p1939
sg8
I33
sg9
S'Bio17'
p1940
sg11
S'Precipitation of Driest Quarter'
p1941
sg13
S'60'
p1942
sg15
S'he6050'
p1943
sg17
S'../views/GTiff/clim.he6050_Bio17.tif'
p1944
sg19
S'climate'
p1945
sg21
S'4830'
p1946
sg23
S'Precipitation of Driest Quarter HE RCP60 2050'
p1947
sg25
g26
sg27
S'clim'
p1948
sg29
g30
sg31
S'clim.he6050_Bio17.tif'
p1949
sg33
S'clim.he6050_Bio17'
p1950
sg35
g36
sg37
g38
sg39
S'2050'
p1951
ssS'Bio18'
p1952
(dp1953
g6
S'he6050_Bio18'
p1954
sg8
I2
sg9
S'Bio18'
p1955
sg11
S'Precipitation of Warmest Quarter'
p1956
sg13
S'60'
p1957
sg15
g1740
sg17
S'../views/GTiff/clim.he6050_Bio18.tif'
p1958
sg19
S'climate'
p1959
sg21
S'4831'
p1960
sg23
S'Precipitation of Warmest Quarter HE RCP60 2050'
p1961
sg25
g26
sg27
S'clim'
p1962
sg29
g30
sg31
S'clim.he6050_Bio18.tif'
p1963
sg33
S'clim.he6050_Bio18'
p1964
sg35
g36
sg37
g38
sg39
S'2050'
p1965
ssS'Bio19'
p1966
(dp1967
g6
S'he6050_Bio19'
p1968
sg8
I46
sg9
S'Bio19'
p1969
sg11
S'Precipitation of Coldest Quarter'
p1970
sg13
S'60'
p1971
sg15
S'he6050'
p1972
sg17
S'../views/GTiff/clim.he6050_Bio19.tif'
p1973
sg19
S'climate'
p1974
sg21
S'4832'
p1975
sg23
S'Precipitation of Coldest Quarter HE RCP60 2050'
p1976
sg25
g26
sg27
S'clim'
p1977
sg29
g30
sg31
S'clim.he6050_Bio19.tif'
p1978
sg33
S'clim.he6050_Bio19'
p1979
sg35
g36
sg37
g38
sg39
S'2050'
p1980
ssS'Bio8'
p1981
(dp1982
g6
S'he6050_Bio8'
p1983
sg8
I230
sg9
S'Bio8'
p1984
sg11
S'Mean Temperature of Wettest Quarter'
p1985
sg13
S'60'
p1986
sg15
S'he6050'
p1987
sg17
S'../views/GTiff/clim.he6050_Bio8.tif'
p1988
sg19
S'climate'
p1989
sg21
S'4833'
p1990
sg23
S'Mean Temperature of Wettest Quarter HE RCP60 2050'
p1991
sg25
g26
sg27
S'clim'
p1992
sg29
g30
sg31
S'clim.he6050_Bio8.tif'
p1993
sg33
S'clim.he6050_Bio8'
p1994
sg35
g36
sg37
g38
sg39
S'2050'
p1995
ssS'Bio9'
p1996
(dp1997
g6
S'he6050_Bio9'
p1998
sg8
I38
sg9
S'Bio9'
p1999
sg11
S'Mean Temperature of Driest Quarter'
p2000
sg13
S'60'
p2001
sg15
S'he6050'
p2002
sg17
S'../views/GTiff/clim.he6050_Bio9.tif'
p2003
sg19
S'climate'
p2004
sg21
S'4834'
p2005
sg23
S'Mean Temperature of Driest Quarter HE RCP60 2050'
p2006
sg25
g26
sg27
S'clim'
p2007
sg29
g30
sg31
S'clim.he6050_Bio9.tif'
p2008
sg33
S'clim.he6050_Bio9'
p2009
sg35
g36
sg37
g38
sg39
S'2050'
p2010
ssS'Bio15'
p2011
(dp2012
g6
S'he6050_Bio15'
p2013
sg8
I70
sg9
S'Bio15'
p2014
sg11
S'Precipitation Seasonality (Coefficient of Variation)'
p2015
sg13
S'60'
p2016
sg15
S'he6050'
p2017
sg17
S'../views/GTiff/clim.he6050_Bio15.tif'
p2018
sg19
S'climate'
p2019
sg21
S'4835'
p2020
sg23
S'Precipitation Seasonality (Coefficient of Variation) HE RCP60 2050'
p2021
sg25
g26
sg27
S'clim'
p2022
sg29
g30
sg31
S'clim.he6050_Bio15.tif'
p2023
sg33
S'clim.he6050_Bio15'
p2024
sg35
g36
sg37
g38
sg39
S'2050'
p2025
sssS'gs4570'
p2026
(dp2027
S'Bio10'
p2028
(dp2029
g6
S'gs4570_Bio10'
p2030
sg8
I81
sg9
S'Bio10'
p2031
sg11
S'Mean Temperature of Warmest Quarter'
p2032
sg13
S'45'
p2033
sg15
S'gs4570'
p2034
sg17
S'../views/GTiff/clim.gs4570_Bio10.tif'
p2035
sg19
S'climate'
p2036
sg21
S'4836'
p2037
sg23
S'Mean Temperature of Warmest Quarter GS RCP45 2070'
p2038
sg25
g26
sg27
S'clim'
p2039
sg29
g30
sg31
S'clim.gs4570_Bio10.tif'
p2040
sg33
S'clim.gs4570_Bio10'
p2041
sg35
g36
sg37
g38
sg39
S'2070'
p2042
ssS'Bio4'
p2043
(dp2044
g6
S'gs4570_Bio4'
p2045
sg8
I258
sg9
S'Bio4'
p2046
sg11
S'Temperature Seasonality (standard deviation *100)'
p2047
sg13
S'45'
p2048
sg15
S'gs4570'
p2049
sg17
S'../views/GTiff/clim.gs4570_Bio4.tif'
p2050
sg19
S'climate'
p2051
sg21
S'4837'
p2052
sg23
S'Temperature Seasonality (standard deviation *100) GS RCP45 2070'
p2053
sg25
g26
sg27
S'clim'
p2054
sg29
g30
sg31
S'clim.gs4570_Bio4.tif'
p2055
sg33
S'clim.gs4570_Bio4'
p2056
sg35
g36
sg37
g38
sg39
S'2070'
p2057
ssS'Bio1'
p2058
(dp2059
g6
S'gs4570_Bio1'
p2060
sg8
I242
sg9
S'Bio1'
p2061
sg11
S'Annual Mean Temperature'
p2062
sg13
S'45'
p2063
sg15
S'gs4570'
p2064
sg17
S'../views/GTiff/clim.gs4570_Bio1.tif'
p2065
sg19
S'climate'
p2066
sg21
S'4838'
p2067
sg23
S'Annual Mean Temperature GS RCP45 2070'
p2068
sg25
g26
sg27
S'clim'
p2069
sg29
g30
sg31
S'clim.gs4570_Bio1.tif'
p2070
sg33
S'clim.gs4570_Bio1'
p2071
sg35
g36
sg37
g38
sg39
S'2070'
p2072
ssS'Bio11'
p2073
(dp2074
g6
S'gs4570_Bio11'
p2075
sg8
I106
sg9
S'Bio11'
p2076
sg11
S'Mean Temperature of Coldest Quarter'
p2077
sg13
S'45'
p2078
sg15
S'gs4570'
p2079
sg17
S'../views/GTiff/clim.gs4570_Bio11.tif'
p2080
sg19
S'climate'
p2081
sg21
S'4839'
p2082
sg23
S'Mean Temperature of Coldest Quarter GS RCP45 2070'
p2083
sg25
g26
sg27
S'clim'
p2084
sg29
g30
sg31
S'clim.gs4570_Bio11.tif'
p2085
sg33
S'clim.gs4570_Bio11'
p2086
sg35
g36
sg37
g38
sg39
S'2070'
p2087
ssS'Bio17'
p2088
(dp2089
g6
S'gs4570_Bio17'
p2090
sg8
I153
sg9
S'Bio17'
p2091
sg11
S'Precipitation of Driest Quarter'
p2092
sg13
S'45'
p2093
sg15
S'gs4570'
p2094
sg17
S'../views/GTiff/clim.gs4570_Bio17.tif'
p2095
sg19
S'climate'
p2096
sg21
S'4840'
p2097
sg23
S'Precipitation of Driest Quarter GS RCP45 2070'
p2098
sg25
g26
sg27
S'clim'
p2099
sg29
g30
sg31
S'clim.gs4570_Bio17.tif'
p2100
sg33
S'clim.gs4570_Bio17'
p2101
sg35
g36
sg37
g38
sg39
S'2070'
p2102
ssS'Bio14'
p2103
(dp2104
g6
S'gs4570_Bio14'
p2105
sg8
I221
sg9
S'Bio14'
p2106
sg11
S'Precipitation of Driest Month'
p2107
sg13
S'45'
p2108
sg15
S'gs4570'
p2109
sg17
S'../views/GTiff/clim.gs4570_Bio14.tif'
p2110
sg19
S'climate'
p2111
sg21
S'4841'
p2112
sg23
S'Precipitation of Driest Month GS RCP45 2070'
p2113
sg25
g26
sg27
S'clim'
p2114
sg29
g30
sg31
S'clim.gs4570_Bio14.tif'
p2115
sg33
S'clim.gs4570_Bio14'
p2116
sg35
g36
sg37
g38
sg39
S'2070'
p2117
ssS'Bio2'
p2118
(dp2119
g6
S'gs4570_Bio2'
p2120
sg8
I32
sg9
S'Bio2'
p2121
sg11
S'Mean Diurnal Range (Mean of monthly (max temp - min temp))'
p2122
sg13
S'45'
p2123
sg15
S'gs4570'
p2124
sg17
S'../views/GTiff/clim.gs4570_Bio2.tif'
p2125
sg19
S'climate'
p2126
sg21
S'4842'
p2127
sg23
S'Mean Diurnal Range (Mean of monthly (max temp - min temp)) GS RCP45 2070'
p2128
sg25
g26
sg27
S'clim'
p2129
sg29
g30
sg31
S'clim.gs4570_Bio2.tif'
p2130
sg33
S'clim.gs4570_Bio2'
p2131
sg35
g36
sg37
g38
sg39
S'2070'
p2132
ssS'Bio3'
p2133
(dp2134
g6
S'gs4570_Bio3'
p2135
sg8
I68
sg9
S'Bio3'
p2136
sg11
S'Isothermality (BIO2/BIO7) (* 100)'
p2137
sg13
S'45'
p2138
sg15
S'gs4570'
p2139
sg17
S'../views/GTiff/clim.gs4570_Bio3.tif'
p2140
sg19
S'climate'
p2141
sg21
S'4843'
p2142
sg23
S'Isothermality (BIO2/BIO7) (* 100) GS RCP45 2070'
p2143
sg25
g26
sg27
S'clim'
p2144
sg29
g30
sg31
S'clim.gs4570_Bio3.tif'
p2145
sg33
S'clim.gs4570_Bio3'
p2146
sg35
g36
sg37
g38
sg39
S'2070'
p2147
ssS'Bio12'
p2148
(dp2149
g6
S'gs4570_Bio12'
p2150
sg8
I240
sg9
S'Bio12'
p2151
sg11
S'Annual Precipitation'
p2152
sg13
S'45'
p2153
sg15
S'gs4570'
p2154
sg17
S'../views/GTiff/clim.gs4570_Bio12.tif'
p2155
sg19
S'climate'
p2156
sg21
S'4844'
p2157
sg23
S'Annual Precipitation GS RCP45 2070'
p2158
sg25
g26
sg27
S'clim'
p2159
sg29
g30
sg31
S'clim.gs4570_Bio12.tif'
p2160
sg33
S'clim.gs4570_Bio12'
p2161
sg35
g36
sg37
g38
sg39
S'2070'
p2162
ssS'Bio13'
p2163
(dp2164
g6
S'gs4570_Bio13'
p2165
sg8
I88
sg9
S'Bio13'
p2166
sg11
S'Precipitation of Wettest Month'
p2167
sg13
S'45'
p2168
sg15
S'gs4570'
p2169
sg17
S'../views/GTiff/clim.gs4570_Bio13.tif'
p2170
sg19
S'climate'
p2171
sg21
S'4845'
p2172
sg23
S'Precipitation of Wettest Month GS RCP45 2070'
p2173
sg25
g26
sg27
S'clim'
p2174
sg29
g30
sg31
S'clim.gs4570_Bio13.tif'
p2175
sg33
S'clim.gs4570_Bio13'
p2176
sg35
g36
sg37
g38
sg39
S'2070'
p2177
ssS'Bio6'
p2178
(dp2179
g6
S'gs4570_Bio6'
p2180
sg8
I79
sg9
S'Bio6'
p2181
sg11
S'Min Temperature of Coldest Month'
p2182
sg13
S'45'
p2183
sg15
S'gs4570'
p2184
sg17
S'../views/GTiff/clim.gs4570_Bio6.tif'
p2185
sg19
S'climate'
p2186
sg21
S'4846'
p2187
sg23
S'Min Temperature of Coldest Month GS RCP45 2070'
p2188
sg25
g26
sg27
S'clim'
p2189
sg29
g30
sg31
S'clim.gs4570_Bio6.tif'
p2190
sg33
S'clim.gs4570_Bio6'
p2191
sg35
g36
sg37
g38
sg39
S'2070'
p2192
ssS'Bio7'
p2193
(dp2194
g6
S'gs4570_Bio7'
p2195
sg8
I21
sg9
S'Bio7'
p2196
sg11
S'Temperature Annual Range (BIO5-BIO6)'
p2197
sg13
S'45'
p2198
sg15
g2026
sg17
S'../views/GTiff/clim.gs4570_Bio7.tif'
p2199
sg19
S'climate'
p2200
sg21
S'4847'
p2201
sg23
S'Temperature Annual Range (BIO5-BIO6) GS RCP45 2070'
p2202
sg25
g26
sg27
S'clim'
p2203
sg29
g30
sg31
S'clim.gs4570_Bio7.tif'
p2204
sg33
S'clim.gs4570_Bio7'
p2205
sg35
g36
sg37
g38
sg39
S'2070'
p2206
ssS'Bio16'
p2207
(dp2208
g6
S'gs4570_Bio16'
p2209
sg8
I132
sg9
S'Bio16'
p2210
sg11
S'Precipitation of Wettest Quarter'
p2211
sg13
S'45'
p2212
sg15
S'gs4570'
p2213
sg17
S'../views/GTiff/clim.gs4570_Bio16.tif'
p2214
sg19
S'climate'
p2215
sg21
S'4848'
p2216
sg23
S'Precipitation of Wettest Quarter GS RCP45 2070'
p2217
sg25
g26
sg27
S'clim'
p2218
sg29
g30
sg31
S'clim.gs4570_Bio16.tif'
p2219
sg33
S'clim.gs4570_Bio16'
p2220
sg35
g36
sg37
g38
sg39
S'2070'
p2221
ssS'Bio5'
p2222
(dp2223
g6
S'gs4570_Bio5'
p2224
sg8
I111
sg9
S'Bio5'
p2225
sg11
S'Max Temperature of Warmest Month'
p2226
sg13
S'45'
p2227
sg15
S'gs4570'
p2228
sg17
S'../views/GTiff/clim.gs4570_Bio5.tif'
p2229
sg19
S'climate'
p2230
sg21
S'4849'
p2231
sg23
S'Max Temperature of Warmest Month GS RCP45 2070'
p2232
sg25
g26
sg27
S'clim'
p2233
sg29
g30
sg31
S'clim.gs4570_Bio5.tif'
p2234
sg33
S'clim.gs4570_Bio5'
p2235
sg35
g36
sg37
g38
sg39
S'2070'
p2236
ssS'Bio18'
p2237
(dp2238
g6
S'gs4570_Bio18'
p2239
sg8
I155
sg9
S'Bio18'
p2240
sg11
S'Precipitation of Warmest Quarter'
p2241
sg13
S'45'
p2242
sg15
S'gs4570'
p2243
sg17
S'../views/GTiff/clim.gs4570_Bio18.tif'
p2244
sg19
S'climate'
p2245
sg21
S'4850'
p2246
sg23
S'Precipitation of Warmest Quarter GS RCP45 2070'
p2247
sg25
g26
sg27
S'clim'
p2248
sg29
g30
sg31
S'clim.gs4570_Bio18.tif'
p2249
sg33
S'clim.gs4570_Bio18'
p2250
sg35
g36
sg37
g38
sg39
S'2070'
p2251
ssS'Bio19'
p2252
(dp2253
g6
S'gs4570_Bio19'
p2254
sg8
I219
sg9
S'Bio19'
p2255
sg11
S'Precipitation of Coldest Quarter'
p2256
sg13
S'45'
p2257
sg15
S'gs4570'
p2258
sg17
S'../views/GTiff/clim.gs4570_Bio19.tif'
p2259
sg19
S'climate'
p2260
sg21
S'4851'
p2261
sg23
S'Precipitation of Coldest Quarter GS RCP45 2070'
p2262
sg25
g26
sg27
S'clim'
p2263
sg29
g30
sg31
S'clim.gs4570_Bio19.tif'
p2264
sg33
S'clim.gs4570_Bio19'
p2265
sg35
g36
sg37
g38
sg39
S'2070'
p2266
ssS'Bio8'
p2267
(dp2268
g6
S'gs4570_Bio8'
p2269
sg8
I61
sg9
S'Bio8'
p2270
sg11
S'Mean Temperature of Wettest Quarter'
p2271
sg13
S'45'
p2272
sg15
S'gs4570'
p2273
sg17
S'../views/GTiff/clim.gs4570_Bio8.tif'
p2274
sg19
S'climate'
p2275
sg21
S'4852'
p2276
sg23
S'Mean Temperature of Wettest Quarter GS RCP45 2070'
p2277
sg25
g26
sg27
S'clim'
p2278
sg29
g30
sg31
S'clim.gs4570_Bio8.tif'
p2279
sg33
S'clim.gs4570_Bio8'
p2280
sg35
g36
sg37
g38
sg39
S'2070'
p2281
ssS'Bio9'
p2282
(dp2283
g6
S'gs4570_Bio9'
p2284
sg8
I44
sg9
S'Bio9'
p2285
sg11
S'Mean Temperature of Driest Quarter'
p2286
sg13
S'45'
p2287
sg15
S'gs4570'
p2288
sg17
S'../views/GTiff/clim.gs4570_Bio9.tif'
p2289
sg19
S'climate'
p2290
sg21
S'4853'
p2291
sg23
S'Mean Temperature of Driest Quarter GS RCP45 2070'
p2292
sg25
g26
sg27
S'clim'
p2293
sg29
g30
sg31
S'clim.gs4570_Bio9.tif'
p2294
sg33
S'clim.gs4570_Bio9'
p2295
sg35
g36
sg37
g38
sg39
S'2070'
p2296
ssS'Bio15'
p2297
(dp2298
g6
S'gs4570_Bio15'
p2299
sg8
I78
sg9
S'Bio15'
p2300
sg11
S'Precipitation Seasonality (Coefficient of Variation)'
p2301
sg13
S'45'
p2302
sg15
S'gs4570'
p2303
sg17
S'../views/GTiff/clim.gs4570_Bio15.tif'
p2304
sg19
S'climate'
p2305
sg21
S'4854'
p2306
sg23
S'Precipitation Seasonality (Coefficient of Variation) GS RCP45 2070'
p2307
sg25
g26
sg27
S'clim'
p2308
sg29
g30
sg31
S'clim.gs4570_Bio15.tif'
p2309
sg33
S'clim.gs4570_Bio15'
p2310
sg35
g36
sg37
g38
sg39
S'2070'
p2311
sssS'ac4570'
p2312
(dp2313
S'Bio10'
p2314
(dp2315
g6
S'ac4570_Bio10'
p2316
sg8
I162
sg9
S'Bio10'
p2317
sg11
S'Mean Temperature of Warmest Quarter'
p2318
sg13
S'45'
p2319
sg15
S'ac4570'
p2320
sg17
S'../views/GTiff/clim.ac4570_Bio10.tif'
p2321
sg19
S'climate'
p2322
sg21
S'4855'
p2323
sg23
S'Mean Temperature of Warmest Quarter AC RCP45 2070'
p2324
sg25
g26
sg27
S'clim'
p2325
sg29
g30
sg31
S'clim.ac4570_Bio10.tif'
p2326
sg33
S'clim.ac4570_Bio10'
p2327
sg35
g36
sg37
g38
sg39
S'2070'
p2328
ssS'Bio17'
p2329
(dp2330
g6
S'ac4570_Bio17'
p2331
sg8
I282
sg9
S'Bio17'
p2332
sg11
S'Precipitation of Driest Quarter'
p2333
sg13
S'45'
p2334
sg15
S'ac4570'
p2335
sg17
S'../views/GTiff/clim.ac4570_Bio17.tif'
p2336
sg19
S'climate'
p2337
sg21
S'4856'
p2338
sg23
S'Precipitation of Driest Quarter AC RCP45 2070'
p2339
sg25
g26
sg27
S'clim'
p2340
sg29
g30
sg31
S'clim.ac4570_Bio17.tif'
p2341
sg33
S'clim.ac4570_Bio17'
p2342
sg35
g36
sg37
g38
sg39
S'2070'
p2343
ssS'Bio4'
p2344
(dp2345
g6
S'ac4570_Bio4'
p2346
sg8
I244
sg9
S'Bio4'
p2347
sg11
S'Temperature Seasonality (standard deviation *100)'
p2348
sg13
S'45'
p2349
sg15
S'ac4570'
p2350
sg17
S'../views/GTiff/clim.ac4570_Bio4.tif'
p2351
sg19
S'climate'
p2352
sg21
S'4857'
p2353
sg23
S'Temperature Seasonality (standard deviation *100) AC RCP45 2070'
p2354
sg25
g26
sg27
S'clim'
p2355
sg29
g30
sg31
S'clim.ac4570_Bio4.tif'
p2356
sg33
S'clim.ac4570_Bio4'
p2357
sg35
g36
sg37
g38
sg39
S'2070'
p2358
ssS'Bio1'
p2359
(dp2360
g6
S'ac4570_Bio1'
p2361
sg8
I168
sg9
S'Bio1'
p2362
sg11
S'Annual Mean Temperature'
p2363
sg13
S'45'
p2364
sg15
S'ac4570'
p2365
sg17
S'../views/GTiff/clim.ac4570_Bio1.tif'
p2366
sg19
S'climate'
p2367
sg21
S'4858'
p2368
sg23
S'Annual Mean Temperature AC RCP45 2070'
p2369
sg25
g26
sg27
S'clim'
p2370
sg29
g30
sg31
S'clim.ac4570_Bio1.tif'
p2371
sg33
S'clim.ac4570_Bio1'
p2372
sg35
g36
sg37
g38
sg39
S'2070'
p2373
ssS'Bio11'
p2374
(dp2375
g6
S'ac4570_Bio11'
p2376
sg8
I264
sg9
S'Bio11'
p2377
sg11
S'Mean Temperature of Coldest Quarter'
p2378
sg13
S'45'
p2379
sg15
S'ac4570'
p2380
sg17
S'../views/GTiff/clim.ac4570_Bio11.tif'
p2381
sg19
S'climate'
p2382
sg21
S'4859'
p2383
sg23
S'Mean Temperature of Coldest Quarter AC RCP45 2070'
p2384
sg25
g26
sg27
S'clim'
p2385
sg29
g30
sg31
S'clim.ac4570_Bio11.tif'
p2386
sg33
S'clim.ac4570_Bio11'
p2387
sg35
g36
sg37
g38
sg39
S'2070'
p2388
ssS'Bio5'
p2389
(dp2390
g6
S'ac4570_Bio5'
p2391
sg8
I275
sg9
S'Bio5'
p2392
sg11
S'Max Temperature of Warmest Month'
p2393
sg13
S'45'
p2394
sg15
S'ac4570'
p2395
sg17
S'../views/GTiff/clim.ac4570_Bio5.tif'
p2396
sg19
S'climate'
p2397
sg21
S'4860'
p2398
sg23
S'Max Temperature of Warmest Month AC RCP45 2070'
p2399
sg25
g26
sg27
S'clim'
p2400
sg29
g30
sg31
S'clim.ac4570_Bio5.tif'
p2401
sg33
S'clim.ac4570_Bio5'
p2402
sg35
g36
sg37
g38
sg39
S'2070'
p2403
ssS'Bio2'
p2404
(dp2405
g6
S'ac4570_Bio2'
p2406
sg8
I50
sg9
S'Bio2'
p2407
sg11
S'Mean Diurnal Range (Mean of monthly (max temp - min temp))'
p2408
sg13
S'45'
p2409
sg15
S'ac4570'
p2410
sg17
S'../views/GTiff/clim.ac4570_Bio2.tif'
p2411
sg19
S'climate'
p2412
sg21
S'4861'
p2413
sg23
S'Mean Diurnal Range (Mean of monthly (max temp - min temp)) AC RCP45 2070'
p2414
sg25
g26
sg27
S'clim'
p2415
sg29
g30
sg31
S'clim.ac4570_Bio2.tif'
p2416
sg33
S'clim.ac4570_Bio2'
p2417
sg35
g36
sg37
g38
sg39
S'2070'
p2418
ssS'Bio3'
p2419
(dp2420
g6
S'ac4570_Bio3'
p2421
sg8
I0
sg9
S'Bio3'
p2422
sg11
S'Isothermality (BIO2/BIO7) (* 100)'
p2423
sg13
S'45'
p2424
sg15
g2312
sg17
S'../views/GTiff/clim.ac4570_Bio3.tif'
p2425
sg19
S'climate'
p2426
sg21
S'4862'
p2427
sg23
S'Isothermality (BIO2/BIO7) (* 100) AC RCP45 2070'
p2428
sg25
g26
sg27
S'clim'
p2429
sg29
g30
sg31
S'clim.ac4570_Bio3.tif'
p2430
sg33
S'clim.ac4570_Bio3'
p2431
sg35
g36
sg37
g38
sg39
S'2070'
p2432
ssS'Bio12'
p2433
(dp2434
g6
S'ac4570_Bio12'
p2435
sg8
I265
sg9
S'Bio12'
p2436
sg11
S'Annual Precipitation'
p2437
sg13
S'45'
p2438
sg15
S'ac4570'
p2439
sg17
S'../views/GTiff/clim.ac4570_Bio12.tif'
p2440
sg19
S'climate'
p2441
sg21
S'4863'
p2442
sg23
S'Annual Precipitation AC RCP45 2070'
p2443
sg25
g26
sg27
S'clim'
p2444
sg29
g30
sg31
S'clim.ac4570_Bio12.tif'
p2445
sg33
S'clim.ac4570_Bio12'
p2446
sg35
g36
sg37
g38
sg39
S'2070'
p2447
ssS'Bio13'
p2448
(dp2449
g6
S'ac4570_Bio13'
p2450
sg8
I105
sg9
S'Bio13'
p2451
sg11
S'Precipitation of Wettest Month'
p2452
sg13
S'45'
p2453
sg15
S'ac4570'
p2454
sg17
S'../views/GTiff/clim.ac4570_Bio13.tif'
p2455
sg19
S'climate'
p2456
sg21
S'4864'
p2457
sg23
S'Precipitation of Wettest Month AC RCP45 2070'
p2458
sg25
g26
sg27
S'clim'
p2459
sg29
g30
sg31
S'clim.ac4570_Bio13.tif'
p2460
sg33
S'clim.ac4570_Bio13'
p2461
sg35
g36
sg37
g38
sg39
S'2070'
p2462
ssS'Bio6'
p2463
(dp2464
g6
S'ac4570_Bio6'
p2465
sg8
I23
sg9
S'Bio6'
p2466
sg11
S'Min Temperature of Coldest Month'
p2467
sg13
S'45'
p2468
sg15
S'ac4570'
p2469
sg17
S'../views/GTiff/clim.ac4570_Bio6.tif'
p2470
sg19
S'climate'
p2471
sg21
S'4865'
p2472
sg23
S'Min Temperature of Coldest Month AC RCP45 2070'
p2473
sg25
g26
sg27
S'clim'
p2474
sg29
g30
sg31
S'clim.ac4570_Bio6.tif'
p2475
sg33
S'clim.ac4570_Bio6'
p2476
sg35
g36
sg37
g38
sg39
S'2070'
p2477
ssS'Bio15'
p2478
(dp2479
g6
S'ac4570_Bio15'
p2480
sg8
I57
sg9
S'Bio15'
p2481
sg11
S'Precipitation Seasonality (Coefficient of Variation)'
p2482
sg13
S'45'
p2483
sg15
S'ac4570'
p2484
sg17
S'../views/GTiff/clim.ac4570_Bio15.tif'
p2485
sg19
S'climate'
p2486
sg21
S'4866'
p2487
sg23
S'Precipitation Seasonality (Coefficient of Variation) AC RCP45 2070'
p2488
sg25
g26
sg27
S'clim'
p2489
sg29
g30
sg31
S'clim.ac4570_Bio15.tif'
p2490
sg33
S'clim.ac4570_Bio15'
p2491
sg35
g36
sg37
g38
sg39
S'2070'
p2492
ssS'Bio16'
p2493
(dp2494
g6
S'ac4570_Bio16'
p2495
sg8
I25
sg9
S'Bio16'
p2496
sg11
S'Precipitation of Wettest Quarter'
p2497
sg13
S'45'
p2498
sg15
S'ac4570'
p2499
sg17
S'../views/GTiff/clim.ac4570_Bio16.tif'
p2500
sg19
S'climate'
p2501
sg21
S'4867'
p2502
sg23
S'Precipitation of Wettest Quarter AC RCP45 2070'
p2503
sg25
g26
sg27
S'clim'
p2504
sg29
g30
sg31
S'clim.ac4570_Bio16.tif'
p2505
sg33
S'clim.ac4570_Bio16'
p2506
sg35
g36
sg37
g38
sg39
S'2070'
p2507
ssS'Bio19'
p2508
(dp2509
g6
S'ac4570_Bio19'
p2510
sg8
I267
sg9
S'Bio19'
p2511
sg11
S'Precipitation of Coldest Quarter'
p2512
sg13
S'45'
p2513
sg15
S'ac4570'
p2514
sg17
S'../views/GTiff/clim.ac4570_Bio19.tif'
p2515
sg19
S'climate'
p2516
sg21
S'4868'
p2517
sg23
S'Precipitation of Coldest Quarter AC RCP45 2070'
p2518
sg25
g26
sg27
S'clim'
p2519
sg29
g30
sg31
S'clim.ac4570_Bio19.tif'
p2520
sg33
S'clim.ac4570_Bio19'
p2521
sg35
g36
sg37
g38
sg39
S'2070'
p2522
ssS'Bio18'
p2523
(dp2524
g6
S'ac4570_Bio18'
p2525
sg8
I202
sg9
S'Bio18'
p2526
sg11
S'Precipitation of Warmest Quarter'
p2527
sg13
S'45'
p2528
sg15
S'ac4570'
p2529
sg17
S'../views/GTiff/clim.ac4570_Bio18.tif'
p2530
sg19
S'climate'
p2531
sg21
S'4869'
p2532
sg23
S'Precipitation of Warmest Quarter AC RCP45 2070'
p2533
sg25
g26
sg27
S'clim'
p2534
sg29
g30
sg31
S'clim.ac4570_Bio18.tif'
p2535
sg33
S'clim.ac4570_Bio18'
p2536
sg35
g36
sg37
g38
sg39
S'2070'
p2537
ssS'Bio14'
p2538
(dp2539
g6
S'ac4570_Bio14'
p2540
sg8
I212
sg9
S'Bio14'
p2541
sg11
S'Precipitation of Driest Month'
p2542
sg13
S'45'
p2543
sg15
S'ac4570'
p2544
sg17
S'../views/GTiff/clim.ac4570_Bio14.tif'
p2545
sg19
S'climate'
p2546
sg21
S'4870'
p2547
sg23
S'Precipitation of Driest Month AC RCP45 2070'
p2548
sg25
g26
sg27
S'clim'
p2549
sg29
g30
sg31
S'clim.ac4570_Bio14.tif'
p2550
sg33
S'clim.ac4570_Bio14'
p2551
sg35
g36
sg37
g38
sg39
S'2070'
p2552
ssS'Bio8'
p2553
(dp2554
g6
S'ac4570_Bio8'
p2555
sg8
I72
sg9
S'Bio8'
p2556
sg11
S'Mean Temperature of Wettest Quarter'
p2557
sg13
S'45'
p2558
sg15
S'ac4570'
p2559
sg17
S'../views/GTiff/clim.ac4570_Bio8.tif'
p2560
sg19
S'climate'
p2561
sg21
S'4871'
p2562
sg23
S'Mean Temperature of Wettest Quarter AC RCP45 2070'
p2563
sg25
g26
sg27
S'clim'
p2564
sg29
g30
sg31
S'clim.ac4570_Bio8.tif'
p2565
sg33
S'clim.ac4570_Bio8'
p2566
sg35
g36
sg37
g38
sg39
S'2070'
p2567
ssS'Bio9'
p2568
(dp2569
g6
S'ac4570_Bio9'
p2570
sg8
I260
sg9
S'Bio9'
p2571
sg11
S'Mean Temperature of Driest Quarter'
p2572
sg13
S'45'
p2573
sg15
S'ac4570'
p2574
sg17
S'../views/GTiff/clim.ac4570_Bio9.tif'
p2575
sg19
S'climate'
p2576
sg21
S'4872'
p2577
sg23
S'Mean Temperature of Driest Quarter AC RCP45 2070'
p2578
sg25
g26
sg27
S'clim'
p2579
sg29
g30
sg31
S'clim.ac4570_Bio9.tif'
p2580
sg33
S'clim.ac4570_Bio9'
p2581
sg35
g36
sg37
g38
sg39
S'2070'
p2582
ssS'Bio7'
p2583
(dp2584
g6
S'ac4570_Bio7'
p2585
sg8
I226
sg9
S'Bio7'
p2586
sg11
S'Temperature Annual Range (BIO5-BIO6)'
p2587
sg13
S'45'
p2588
sg15
S'ac4570'
p2589
sg17
S'../views/GTiff/clim.ac4570_Bio7.tif'
p2590
sg19
S'climate'
p2591
sg21
S'4873'
p2592
sg23
S'Temperature Annual Range (BIO5-BIO6) AC RCP45 2070'
p2593
sg25
g26
sg27
S'clim'
p2594
sg29
g30
sg31
S'clim.ac4570_Bio7.tif'
p2595
sg33
S'clim.ac4570_Bio7'
p2596
sg35
g36
sg37
g38
sg39
S'2070'
p2597
sssS'gd4570'
p2598
(dp2599
S'Bio2'
p2600
(dp2601
g6
S'gd4570_Bio2'
p2602
sg8
I283
sg9
S'Bio2'
p2603
sg11
S'Mean Diurnal Range (Mean of monthly (max temp - min temp))'
p2604
sg13
S'45'
p2605
sg15
S'gd4570'
p2606
sg17
S'../views/GTiff/clim.gd4570_Bio2.tif'
p2607
sg19
S'climate'
p2608
sg21
S'4874'
p2609
sg23
S'Mean Diurnal Range (Mean of monthly (max temp - min temp)) GD RCP45 2070'
p2610
sg25
g26
sg27
S'clim'
p2611
sg29
g30
sg31
S'clim.gd4570_Bio2.tif'
p2612
sg33
S'clim.gd4570_Bio2'
p2613
sg35
g36
sg37
g38
sg39
S'2070'
p2614
ssS'Bio6'
p2615
(dp2616
g6
S'gd4570_Bio6'
p2617
sg8
I82
sg9
S'Bio6'
p2618
sg11
S'Min Temperature of Coldest Month'
p2619
sg13
S'45'
p2620
sg15
S'gd4570'
p2621
sg17
S'../views/GTiff/clim.gd4570_Bio6.tif'
p2622
sg19
S'climate'
p2623
sg21
S'4875'
p2624
sg23
S'Min Temperature of Coldest Month GD RCP45 2070'
p2625
sg25
g26
sg27
S'clim'
p2626
sg29
g30
sg31
S'clim.gd4570_Bio6.tif'
p2627
sg33
S'clim.gd4570_Bio6'
p2628
sg35
g36
sg37
g38
sg39
S'2070'
p2629
ssS'Bio4'
p2630
(dp2631
g6
S'gd4570_Bio4'
p2632
sg8
I269
sg9
S'Bio4'
p2633
sg11
S'Temperature Seasonality (standard deviation *100)'
p2634
sg13
S'45'
p2635
sg15
S'gd4570'
p2636
sg17
S'../views/GTiff/clim.gd4570_Bio4.tif'
p2637
sg19
S'climate'
p2638
sg21
S'4876'
p2639
sg23
S'Temperature Seasonality (standard deviation *100) GD RCP45 2070'
p2640
sg25
g26
sg27
S'clim'
p2641
sg29
g30
sg31
S'clim.gd4570_Bio4.tif'
p2642
sg33
S'clim.gd4570_Bio4'
p2643
sg35
g36
sg37
g38
sg39
S'2070'
p2644
ssS'Bio1'
p2645
(dp2646
g6
S'gd4570_Bio1'
p2647
sg8
I195
sg9
S'Bio1'
p2648
sg11
S'Annual Mean Temperature'
p2649
sg13
S'45'
p2650
sg15
S'gd4570'
p2651
sg17
S'../views/GTiff/clim.gd4570_Bio1.tif'
p2652
sg19
S'climate'
p2653
sg21
S'4877'
p2654
sg23
S'Annual Mean Temperature GD RCP45 2070'
p2655
sg25
g26
sg27
S'clim'
p2656
sg29
g30
sg31
S'clim.gd4570_Bio1.tif'
p2657
sg33
S'clim.gd4570_Bio1'
p2658
sg35
g36
sg37
g38
sg39
S'2070'
p2659
ssS'Bio3'
p2660
(dp2661
g6
S'gd4570_Bio3'
p2662
sg8
I98
sg9
S'Bio3'
p2663
sg11
S'Isothermality (BIO2/BIO7) (* 100)'
p2664
sg13
S'45'
p2665
sg15
S'gd4570'
p2666
sg17
S'../views/GTiff/clim.gd4570_Bio3.tif'
p2667
sg19
S'climate'
p2668
sg21
S'4878'
p2669
sg23
S'Isothermality (BIO2/BIO7) (* 100) GD RCP45 2070'
p2670
sg25
g26
sg27
S'clim'
p2671
sg29
g30
sg31
S'clim.gd4570_Bio3.tif'
p2672
sg33
S'clim.gd4570_Bio3'
p2673
sg35
g36
sg37
g38
sg39
S'2070'
p2674
ssS'Bio17'
p2675
(dp2676
g6
S'gd4570_Bio17'
p2677
sg8
I216
sg9
S'Bio17'
p2678
sg11
S'Precipitation of Driest Quarter'
p2679
sg13
S'45'
p2680
sg15
S'gd4570'
p2681
sg17
S'../views/GTiff/clim.gd4570_Bio17.tif'
p2682
sg19
S'climate'
p2683
sg21
S'4879'
p2684
sg23
S'Precipitation of Driest Quarter GD RCP45 2070'
p2685
sg25
g26
sg27
S'clim'
p2686
sg29
g30
sg31
S'clim.gd4570_Bio17.tif'
p2687
sg33
S'clim.gd4570_Bio17'
p2688
sg35
g36
sg37
g38
sg39
S'2070'
p2689
ssS'Bio10'
p2690
(dp2691
g6
S'gd4570_Bio10'
p2692
sg8
I55
sg9
S'Bio10'
p2693
sg11
S'Mean Temperature of Warmest Quarter'
p2694
sg13
S'45'
p2695
sg15
S'gd4570'
p2696
sg17
S'../views/GTiff/clim.gd4570_Bio10.tif'
p2697
sg19
S'climate'
p2698
sg21
S'4880'
p2699
sg23
S'Mean Temperature of Warmest Quarter GD RCP45 2070'
p2700
sg25
g26
sg27
S'clim'
p2701
sg29
g30
sg31
S'clim.gd4570_Bio10.tif'
p2702
sg33
S'clim.gd4570_Bio10'
p2703
sg35
g36
sg37
g38
sg39
S'2070'
p2704
ssS'Bio11'
p2705
(dp2706
g6
S'gd4570_Bio11'
p2707
sg8
I80
sg9
S'Bio11'
p2708
sg11
S'Mean Temperature of Coldest Quarter'
p2709
sg13
S'45'
p2710
sg15
S'gd4570'
p2711
sg17
S'../views/GTiff/clim.gd4570_Bio11.tif'
p2712
sg19
S'climate'
p2713
sg21
S'4881'
p2714
sg23
S'Mean Temperature of Coldest Quarter GD RCP45 2070'
p2715
sg25
g26
sg27
S'clim'
p2716
sg29
g30
sg31
S'clim.gd4570_Bio11.tif'
p2717
sg33
S'clim.gd4570_Bio11'
p2718
sg35
g36
sg37
g38
sg39
S'2070'
p2719
ssS'Bio12'
p2720
(dp2721
g6
S'gd4570_Bio12'
p2722
sg8
I228
sg9
S'Bio12'
p2723
sg11
S'Annual Precipitation'
p2724
sg13
S'45'
p2725
sg15
S'gd4570'
p2726
sg17
S'../views/GTiff/clim.gd4570_Bio12.tif'
p2727
sg19
S'climate'
p2728
sg21
S'4882'
p2729
sg23
S'Annual Precipitation GD RCP45 2070'
p2730
sg25
g26
sg27
S'clim'
p2731
sg29
g30
sg31
S'clim.gd4570_Bio12.tif'
p2732
sg33
S'clim.gd4570_Bio12'
p2733
sg35
g36
sg37
g38
sg39
S'2070'
p2734
ssS'Bio13'
p2735
(dp2736
g6
S'gd4570_Bio13'
p2737
sg8
I67
sg9
S'Bio13'
p2738
sg11
S'Precipitation of Wettest Month'
p2739
sg13
S'45'
p2740
sg15
S'gd4570'
p2741
sg17
S'../views/GTiff/clim.gd4570_Bio13.tif'
p2742
sg19
S'climate'
p2743
sg21
S'4883'
p2744
sg23
S'Precipitation of Wettest Month GD RCP45 2070'
p2745
sg25
g26
sg27
S'clim'
p2746
sg29
g30
sg31
S'clim.gd4570_Bio13.tif'
p2747
sg33
S'clim.gd4570_Bio13'
p2748
sg35
g36
sg37
g38
sg39
S'2070'
p2749
ssS'Bio14'
p2750
(dp2751
g6
S'gd4570_Bio14'
p2752
sg8
I71
sg9
S'Bio14'
p2753
sg11
S'Precipitation of Driest Month'
p2754
sg13
S'45'
p2755
sg15
S'gd4570'
p2756
sg17
S'../views/GTiff/clim.gd4570_Bio14.tif'
p2757
sg19
S'climate'
p2758
sg21
S'4884'
p2759
sg23
S'Precipitation of Driest Month GD RCP45 2070'
p2760
sg25
g26
sg27
S'clim'
p2761
sg29
g30
sg31
S'clim.gd4570_Bio14.tif'
p2762
sg33
S'clim.gd4570_Bio14'
p2763
sg35
g36
sg37
g38
sg39
S'2070'
p2764
ssS'Bio7'
p2765
(dp2766
g6
S'gd4570_Bio7'
p2767
sg8
I102
sg9
S'Bio7'
p2768
sg11
S'Temperature Annual Range (BIO5-BIO6)'
p2769
sg13
S'45'
p2770
sg15
S'gd4570'
p2771
sg17
S'../views/GTiff/clim.gd4570_Bio7.tif'
p2772
sg19
S'climate'
p2773
sg21
S'4885'
p2774
sg23
S'Temperature Annual Range (BIO5-BIO6) GD RCP45 2070'
p2775
sg25
g26
sg27
S'clim'
p2776
sg29
g30
sg31
S'clim.gd4570_Bio7.tif'
p2777
sg33
S'clim.gd4570_Bio7'
p2778
sg35
g36
sg37
g38
sg39
S'2070'
p2779
ssS'Bio16'
p2780
(dp2781
g6
S'gd4570_Bio16'
p2782
sg8
I20
sg9
S'Bio16'
p2783
sg11
S'Precipitation of Wettest Quarter'
p2784
sg13
S'45'
p2785
sg15
S'gd4570'
p2786
sg17
S'../views/GTiff/clim.gd4570_Bio16.tif'
p2787
sg19
S'climate'
p2788
sg21
S'4886'
p2789
sg23
S'Precipitation of Wettest Quarter GD RCP45 2070'
p2790
sg25
g26
sg27
S'clim'
p2791
sg29
g30
sg31
S'clim.gd4570_Bio16.tif'
p2792
sg33
S'clim.gd4570_Bio16'
p2793
sg35
g36
sg37
g38
sg39
S'2070'
p2794
ssS'Bio5'
p2795
(dp2796
g6
S'gd4570_Bio5'
p2797
sg8
I15
sg9
S'Bio5'
p2798
sg11
S'Max Temperature of Warmest Month'
p2799
sg13
S'45'
p2800
sg15
S'gd4570'
p2801
sg17
S'../views/GTiff/clim.gd4570_Bio5.tif'
p2802
sg19
S'climate'
p2803
sg21
S'4887'
p2804
sg23
S'Max Temperature of Warmest Month GD RCP45 2070'
p2805
sg25
g26
sg27
S'clim'
p2806
sg29
g30
sg31
S'clim.gd4570_Bio5.tif'
p2807
sg33
S'clim.gd4570_Bio5'
p2808
sg35
g36
sg37
g38
sg39
S'2070'
p2809
ssS'Bio18'
p2810
(dp2811
g6
S'gd4570_Bio18'
p2812
sg8
I1
sg9
S'Bio18'
p2813
sg11
S'Precipitation of Warmest Quarter'
p2814
sg13
S'45'
p2815
sg15
g2598
sg17
S'../views/GTiff/clim.gd4570_Bio18.tif'
p2816
sg19
S'climate'
p2817
sg21
S'4888'
p2818
sg23
S'Precipitation of Warmest Quarter GD RCP45 2070'
p2819
sg25
g26
sg27
S'clim'
p2820
sg29
g30
sg31
S'clim.gd4570_Bio18.tif'
p2821
sg33
S'clim.gd4570_Bio18'
p2822
sg35
g36
sg37
g38
sg39
S'2070'
p2823
ssS'Bio19'
p2824
(dp2825
g6
S'gd4570_Bio19'
p2826
sg8
I11
sg9
S'Bio19'
p2827
sg11
S'Precipitation of Coldest Quarter'
p2828
sg13
S'45'
p2829
sg15
S'gd4570'
p2830
sg17
S'../views/GTiff/clim.gd4570_Bio19.tif'
p2831
sg19
S'climate'
p2832
sg21
S'4889'
p2833
sg23
S'Precipitation of Coldest Quarter GD RCP45 2070'
p2834
sg25
g26
sg27
S'clim'
p2835
sg29
g30
sg31
S'clim.gd4570_Bio19.tif'
p2836
sg33
S'clim.gd4570_Bio19'
p2837
sg35
g36
sg37
g38
sg39
S'2070'
p2838
ssS'Bio8'
p2839
(dp2840
g6
S'gd4570_Bio8'
p2841
sg8
I181
sg9
S'Bio8'
p2842
sg11
S'Mean Temperature of Wettest Quarter'
p2843
sg13
S'45'
p2844
sg15
S'gd4570'
p2845
sg17
S'../views/GTiff/clim.gd4570_Bio8.tif'
p2846
sg19
S'climate'
p2847
sg21
S'4890'
p2848
sg23
S'Mean Temperature of Wettest Quarter GD RCP45 2070'
p2849
sg25
g26
sg27
S'clim'
p2850
sg29
g30
sg31
S'clim.gd4570_Bio8.tif'
p2851
sg33
S'clim.gd4570_Bio8'
p2852
sg35
g36
sg37
g38
sg39
S'2070'
p2853
ssS'Bio9'
p2854
(dp2855
g6
S'gd4570_Bio9'
p2856
sg8
I27
sg9
S'Bio9'
p2857
sg11
S'Mean Temperature of Driest Quarter'
p2858
sg13
S'45'
p2859
sg15
S'gd4570'
p2860
sg17
S'../views/GTiff/clim.gd4570_Bio9.tif'
p2861
sg19
S'climate'
p2862
sg21
S'4891'
p2863
sg23
S'Mean Temperature of Driest Quarter GD RCP45 2070'
p2864
sg25
g26
sg27
S'clim'
p2865
sg29
g30
sg31
S'clim.gd4570_Bio9.tif'
p2866
sg33
S'clim.gd4570_Bio9'
p2867
sg35
g36
sg37
g38
sg39
S'2070'
p2868
ssS'Bio15'
p2869
(dp2870
g6
S'gd4570_Bio15'
p2871
sg8
I138
sg9
S'Bio15'
p2872
sg11
S'Precipitation Seasonality (Coefficient of Variation)'
p2873
sg13
S'45'
p2874
sg15
S'gd4570'
p2875
sg17
S'../views/GTiff/clim.gd4570_Bio15.tif'
p2876
sg19
S'climate'
p2877
sg21
S'4892'
p2878
sg23
S'Precipitation Seasonality (Coefficient of Variation) GD RCP45 2070'
p2879
sg25
g26
sg27
S'clim'
p2880
sg29
g30
sg31
S'clim.gd4570_Bio15.tif'
p2881
sg33
S'clim.gd4570_Bio15'
p2882
sg35
g36
sg37
g38
sg39
S'2070'
p2883
sssS'he4550'
p2884
(dp2885
S'Bio2'
p2886
(dp2887
g6
S'he4550_Bio2'
p2888
sg8
I255
sg9
S'Bio2'
p2889
sg11
S'Mean Diurnal Range (Mean of monthly (max temp - min temp))'
p2890
sg13
S'45'
p2891
sg15
S'he4550'
p2892
sg17
S'../views/GTiff/clim.he4550_Bio2.tif'
p2893
sg19
S'climate'
p2894
sg21
S'4893'
p2895
sg23
S'Mean Diurnal Range (Mean of monthly (max temp - min temp)) HE RCP45 2050'
p2896
sg25
g26
sg27
S'clim'
p2897
sg29
g30
sg31
S'clim.he4550_Bio2.tif'
p2898
sg33
S'clim.he4550_Bio2'
p2899
sg35
g36
sg37
g38
sg39
S'2050'
p2900
ssS'Bio13'
p2901
(dp2902
g6
S'he4550_Bio13'
p2903
sg8
I218
sg9
S'Bio13'
p2904
sg11
S'Precipitation of Wettest Month'
p2905
sg13
S'45'
p2906
sg15
S'he4550'
p2907
sg17
S'../views/GTiff/clim.he4550_Bio13.tif'
p2908
sg19
S'climate'
p2909
sg21
S'4894'
p2910
sg23
S'Precipitation of Wettest Month HE RCP45 2050'
p2911
sg25
g26
sg27
S'clim'
p2912
sg29
g30
sg31
S'clim.he4550_Bio13.tif'
p2913
sg33
S'clim.he4550_Bio13'
p2914
sg35
g36
sg37
g38
sg39
S'2050'
p2915
ssS'Bio6'
p2916
(dp2917
g6
S'he4550_Bio6'
p2918
sg8
I167
sg9
S'Bio6'
p2919
sg11
S'Min Temperature of Coldest Month'
p2920
sg13
S'45'
p2921
sg15
S'he4550'
p2922
sg17
S'../views/GTiff/clim.he4550_Bio6.tif'
p2923
sg19
S'climate'
p2924
sg21
S'4895'
p2925
sg23
S'Min Temperature of Coldest Month HE RCP45 2050'
p2926
sg25
g26
sg27
S'clim'
p2927
sg29
g30
sg31
S'clim.he4550_Bio6.tif'
p2928
sg33
S'clim.he4550_Bio6'
p2929
sg35
g36
sg37
g38
sg39
S'2050'
p2930
ssS'Bio4'
p2931
(dp2932
g6
S'he4550_Bio4'
p2933
sg8
I169
sg9
S'Bio4'
p2934
sg11
S'Temperature Seasonality (standard deviation *100)'
p2935
sg13
S'45'
p2936
sg15
S'he4550'
p2937
sg17
S'../views/GTiff/clim.he4550_Bio4.tif'
p2938
sg19
S'climate'
p2939
sg21
S'4896'
p2940
sg23
S'Temperature Seasonality (standard deviation *100) HE RCP45 2050'
p2941
sg25
g26
sg27
S'clim'
p2942
sg29
g30
sg31
S'clim.he4550_Bio4.tif'
p2943
sg33
S'clim.he4550_Bio4'
p2944
sg35
g36
sg37
g38
sg39
S'2050'
p2945
ssS'Bio11'
p2946
(dp2947
g6
S'he4550_Bio11'
p2948
sg8
I76
sg9
S'Bio11'
p2949
sg11
S'Mean Temperature of Coldest Quarter'
p2950
sg13
S'45'
p2951
sg15
S'he4550'
p2952
sg17
S'../views/GTiff/clim.he4550_Bio11.tif'
p2953
sg19
S'climate'
p2954
sg21
S'4897'
p2955
sg23
S'Mean Temperature of Coldest Quarter HE RCP45 2050'
p2956
sg25
g26
sg27
S'clim'
p2957
sg29
g30
sg31
S'clim.he4550_Bio11.tif'
p2958
sg33
S'clim.he4550_Bio11'
p2959
sg35
g36
sg37
g38
sg39
S'2050'
p2960
ssS'Bio5'
p2961
(dp2962
g6
S'he4550_Bio5'
p2963
sg8
I209
sg9
S'Bio5'
p2964
sg11
S'Max Temperature of Warmest Month'
p2965
sg13
S'45'
p2966
sg15
S'he4550'
p2967
sg17
S'../views/GTiff/clim.he4550_Bio5.tif'
p2968
sg19
S'climate'
p2969
sg21
S'4898'
p2970
sg23
S'Max Temperature of Warmest Month HE RCP45 2050'
p2971
sg25
g26
sg27
S'clim'
p2972
sg29
g30
sg31
S'clim.he4550_Bio5.tif'
p2973
sg33
S'clim.he4550_Bio5'
p2974
sg35
g36
sg37
g38
sg39
S'2050'
p2975
ssS'Bio10'
p2976
(dp2977
g6
S'he4550_Bio10'
p2978
sg8
I66
sg9
S'Bio10'
p2979
sg11
S'Mean Temperature of Warmest Quarter'
p2980
sg13
S'45'
p2981
sg15
S'he4550'
p2982
sg17
S'../views/GTiff/clim.he4550_Bio10.tif'
p2983
sg19
S'climate'
p2984
sg21
S'4899'
p2985
sg23
S'Mean Temperature of Warmest Quarter HE RCP45 2050'
p2986
sg25
g26
sg27
S'clim'
p2987
sg29
g30
sg31
S'clim.he4550_Bio10.tif'
p2988
sg33
S'clim.he4550_Bio10'
p2989
sg35
g36
sg37
g38
sg39
S'2050'
p2990
ssS'Bio3'
p2991
(dp2992
g6
S'he4550_Bio3'
p2993
sg8
I74
sg9
S'Bio3'
p2994
sg11
S'Isothermality (BIO2/BIO7) (* 100)'
p2995
sg13
S'45'
p2996
sg15
S'he4550'
p2997
sg17
S'../views/GTiff/clim.he4550_Bio3.tif'
p2998
sg19
S'climate'
p2999
sg21
S'4900'
p3000
sg23
S'Isothermality (BIO2/BIO7) (* 100) HE RCP45 2050'
p3001
sg25
g26
sg27
S'clim'
p3002
sg29
g30
sg31
S'clim.he4550_Bio3.tif'
p3003
sg33
S'clim.he4550_Bio3'
p3004
sg35
g36
sg37
g38
sg39
S'2050'
p3005
ssS'Bio12'
p3006
(dp3007
g6
S'he4550_Bio12'
p3008
sg8
I189
sg9
S'Bio12'
p3009
sg11
S'Annual Precipitation'
p3010
sg13
S'45'
p3011
sg15
S'he4550'
p3012
sg17
S'../views/GTiff/clim.he4550_Bio12.tif'
p3013
sg19
S'climate'
p3014
sg21
S'4901'
p3015
sg23
S'Annual Precipitation HE RCP45 2050'
p3016
sg25
g26
sg27
S'clim'
p3017
sg29
g30
sg31
S'clim.he4550_Bio12.tif'
p3018
sg33
S'clim.he4550_Bio12'
p3019
sg35
g36
sg37
g38
sg39
S'2050'
p3020
ssS'Bio1'
p3021
(dp3022
g6
S'he4550_Bio1'
p3023
sg8
I136
sg9
S'Bio1'
p3024
sg11
S'Annual Mean Temperature'
p3025
sg13
S'45'
p3026
sg15
S'he4550'
p3027
sg17
S'../views/GTiff/clim.he4550_Bio1.tif'
p3028
sg19
S'climate'
p3029
sg21
S'4902'
p3030
sg23
S'Annual Mean Temperature HE RCP45 2050'
p3031
sg25
g26
sg27
S'clim'
p3032
sg29
g30
sg31
S'clim.he4550_Bio1.tif'
p3033
sg33
S'clim.he4550_Bio1'
p3034
sg35
g36
sg37
g38
sg39
S'2050'
p3035
ssS'Bio14'
p3036
(dp3037
g6
S'he4550_Bio14'
p3038
sg8
I34
sg9
S'Bio14'
p3039
sg11
S'Precipitation of Driest Month'
p3040
sg13
S'45'
p3041
sg15
S'he4550'
p3042
sg17
S'../views/GTiff/clim.he4550_Bio14.tif'
p3043
sg19
S'climate'
p3044
sg21
S'4903'
p3045
sg23
S'Precipitation of Driest Month HE RCP45 2050'
p3046
sg25
g26
sg27
S'clim'
p3047
sg29
g30
sg31
S'clim.he4550_Bio14.tif'
p3048
sg33
S'clim.he4550_Bio14'
p3049
sg35
g36
sg37
g38
sg39
S'2050'
p3050
ssS'Bio15'
p3051
(dp3052
g6
S'he4550_Bio15'
p3053
sg8
I49
sg9
S'Bio15'
p3054
sg11
S'Precipitation Seasonality (Coefficient of Variation)'
p3055
sg13
S'45'
p3056
sg15
S'he4550'
p3057
sg17
S'../views/GTiff/clim.he4550_Bio15.tif'
p3058
sg19
S'climate'
p3059
sg21
S'4904'
p3060
sg23
S'Precipitation Seasonality (Coefficient of Variation) HE RCP45 2050'
p3061
sg25
g26
sg27
S'clim'
p3062
sg29
g30
sg31
S'clim.he4550_Bio15.tif'
p3063
sg33
S'clim.he4550_Bio15'
p3064
sg35
g36
sg37
g38
sg39
S'2050'
p3065
ssS'Bio16'
p3066
(dp3067
g6
S'he4550_Bio16'
p3068
sg8
I51
sg9
S'Bio16'
p3069
sg11
S'Precipitation of Wettest Quarter'
p3070
sg13
S'45'
p3071
sg15
S'he4550'
p3072
sg17
S'../views/GTiff/clim.he4550_Bio16.tif'
p3073
sg19
S'climate'
p3074
sg21
S'4905'
p3075
sg23
S'Precipitation of Wettest Quarter HE RCP45 2050'
p3076
sg25
g26
sg27
S'clim'
p3077
sg29
g30
sg31
S'clim.he4550_Bio16.tif'
p3078
sg33
S'clim.he4550_Bio16'
p3079
sg35
g36
sg37
g38
sg39
S'2050'
p3080
ssS'Bio17'
p3081
(dp3082
g6
S'he4550_Bio17'
p3083
sg8
I180
sg9
S'Bio17'
p3084
sg11
S'Precipitation of Driest Quarter'
p3085
sg13
S'45'
p3086
sg15
S'he4550'
p3087
sg17
S'../views/GTiff/clim.he4550_Bio17.tif'
p3088
sg19
S'climate'
p3089
sg21
S'4906'
p3090
sg23
S'Precipitation of Driest Quarter HE RCP45 2050'
p3091
sg25
g26
sg27
S'clim'
p3092
sg29
g30
sg31
S'clim.he4550_Bio17.tif'
p3093
sg33
S'clim.he4550_Bio17'
p3094
sg35
g36
sg37
g38
sg39
S'2050'
p3095
ssS'Bio18'
p3096
(dp3097
g6
S'he4550_Bio18'
p3098
sg8
I26
sg9
S'Bio18'
p3099
sg11
S'Precipitation of Warmest Quarter'
p3100
sg13
S'45'
p3101
sg15
S'he4550'
p3102
sg17
S'../views/GTiff/clim.he4550_Bio18.tif'
p3103
sg19
S'climate'
p3104
sg21
S'4907'
p3105
sg23
S'Precipitation of Warmest Quarter HE RCP45 2050'
p3106
sg25
g26
sg27
S'clim'
p3107
sg29
g30
sg31
S'clim.he4550_Bio18.tif'
p3108
sg33
S'clim.he4550_Bio18'
p3109
sg35
g36
sg37
g38
sg39
S'2050'
p3110
ssS'Bio19'
p3111
(dp3112
g6
S'he4550_Bio19'
p3113
sg8
I10
sg9
S'Bio19'
p3114
sg11
S'Precipitation of Coldest Quarter'
p3115
sg13
S'45'
p3116
sg15
g2884
sg17
S'../views/GTiff/clim.he4550_Bio19.tif'
p3117
sg19
S'climate'
p3118
sg21
S'4908'
p3119
sg23
S'Precipitation of Coldest Quarter HE RCP45 2050'
p3120
sg25
g26
sg27
S'clim'
p3121
sg29
g30
sg31
S'clim.he4550_Bio19.tif'
p3122
sg33
S'clim.he4550_Bio19'
p3123
sg35
g36
sg37
g38
sg39
S'2050'
p3124
ssS'Bio8'
p3125
(dp3126
g6
S'he4550_Bio8'
p3127
sg8
I127
sg9
S'Bio8'
p3128
sg11
S'Mean Temperature of Wettest Quarter'
p3129
sg13
S'45'
p3130
sg15
S'he4550'
p3131
sg17
S'../views/GTiff/clim.he4550_Bio8.tif'
p3132
sg19
S'climate'
p3133
sg21
S'4909'
p3134
sg23
S'Mean Temperature of Wettest Quarter HE RCP45 2050'
p3135
sg25
g26
sg27
S'clim'
p3136
sg29
g30
sg31
S'clim.he4550_Bio8.tif'
p3137
sg33
S'clim.he4550_Bio8'
p3138
sg35
g36
sg37
g38
sg39
S'2050'
p3139
ssS'Bio9'
p3140
(dp3141
g6
S'he4550_Bio9'
p3142
sg8
I206
sg9
S'Bio9'
p3143
sg11
S'Mean Temperature of Driest Quarter'
p3144
sg13
S'45'
p3145
sg15
S'he4550'
p3146
sg17
S'../views/GTiff/clim.he4550_Bio9.tif'
p3147
sg19
S'climate'
p3148
sg21
S'4910'
p3149
sg23
S'Mean Temperature of Driest Quarter HE RCP45 2050'
p3150
sg25
g26
sg27
S'clim'
p3151
sg29
g30
sg31
S'clim.he4550_Bio9.tif'
p3152
sg33
S'clim.he4550_Bio9'
p3153
sg35
g36
sg37
g38
sg39
S'2050'
p3154
ssS'Bio7'
p3155
(dp3156
g6
S'he4550_Bio7'
p3157
sg8
I210
sg9
S'Bio7'
p3158
sg11
S'Temperature Annual Range (BIO5-BIO6)'
p3159
sg13
S'45'
p3160
sg15
S'he4550'
p3161
sg17
S'../views/GTiff/clim.he4550_Bio7.tif'
p3162
sg19
S'climate'
p3163
sg21
S'4911'
p3164
sg23
S'Temperature Annual Range (BIO5-BIO6) HE RCP45 2050'
p3165
sg25
g26
sg27
S'clim'
p3166
sg29
g30
sg31
S'clim.he4550_Bio7.tif'
p3167
sg33
S'clim.he4550_Bio7'
p3168
sg35
g36
sg37
g38
sg39
S'2050'
p3169
sssS'gs4550'
p3170
(dp3171
S'Bio2'
p3172
(dp3173
g6
S'gs4550_Bio2'
p3174
sg8
I271
sg9
S'Bio2'
p3175
sg11
S'Mean Diurnal Range (Mean of monthly (max temp - min temp))'
p3176
sg13
S'45'
p3177
sg15
S'gs4550'
p3178
sg17
S'../views/GTiff/clim.gs4550_Bio2.tif'
p3179
sg19
S'climate'
p3180
sg21
S'4912'
p3181
sg23
S'Mean Diurnal Range (Mean of monthly (max temp - min temp)) GS RCP45 2050'
p3182
sg25
g26
sg27
S'clim'
p3183
sg29
g30
sg31
S'clim.gs4550_Bio2.tif'
p3184
sg33
S'clim.gs4550_Bio2'
p3185
sg35
g36
sg37
g38
sg39
S'2050'
p3186
ssS'Bio4'
p3187
(dp3188
g6
S'gs4550_Bio4'
p3189
sg8
I276
sg9
S'Bio4'
p3190
sg11
S'Temperature Seasonality (standard deviation *100)'
p3191
sg13
S'45'
p3192
sg15
S'gs4550'
p3193
sg17
S'../views/GTiff/clim.gs4550_Bio4.tif'
p3194
sg19
S'climate'
p3195
sg21
S'4913'
p3196
sg23
S'Temperature Seasonality (standard deviation *100) GS RCP45 2050'
p3197
sg25
g26
sg27
S'clim'
p3198
sg29
g30
sg31
S'clim.gs4550_Bio4.tif'
p3199
sg33
S'clim.gs4550_Bio4'
p3200
sg35
g36
sg37
g38
sg39
S'2050'
p3201
ssS'Bio1'
p3202
(dp3203
g6
S'gs4550_Bio1'
p3204
sg8
I246
sg9
S'Bio1'
p3205
sg11
S'Annual Mean Temperature'
p3206
sg13
S'45'
p3207
sg15
S'gs4550'
p3208
sg17
S'../views/GTiff/clim.gs4550_Bio1.tif'
p3209
sg19
S'climate'
p3210
sg21
S'4914'
p3211
sg23
S'Annual Mean Temperature GS RCP45 2050'
p3212
sg25
g26
sg27
S'clim'
p3213
sg29
g30
sg31
S'clim.gs4550_Bio1.tif'
p3214
sg33
S'clim.gs4550_Bio1'
p3215
sg35
g36
sg37
g38
sg39
S'2050'
p3216
ssS'Bio19'
p3217
(dp3218
g6
S'gs4550_Bio19'
p3219
sg8
I143
sg9
S'Bio19'
p3220
sg11
S'Precipitation of Coldest Quarter'
p3221
sg13
S'45'
p3222
sg15
S'gs4550'
p3223
sg17
S'../views/GTiff/clim.gs4550_Bio19.tif'
p3224
sg19
S'climate'
p3225
sg21
S'4915'
p3226
sg23
S'Precipitation of Coldest Quarter GS RCP45 2050'
p3227
sg25
g26
sg27
S'clim'
p3228
sg29
g30
sg31
S'clim.gs4550_Bio19.tif'
p3229
sg33
S'clim.gs4550_Bio19'
p3230
sg35
g36
sg37
g38
sg39
S'2050'
p3231
ssS'Bio3'
p3232
(dp3233
g6
S'gs4550_Bio3'
p3234
sg8
I208
sg9
S'Bio3'
p3235
sg11
S'Isothermality (BIO2/BIO7) (* 100)'
p3236
sg13
S'45'
p3237
sg15
S'gs4550'
p3238
sg17
S'../views/GTiff/clim.gs4550_Bio3.tif'
p3239
sg19
S'climate'
p3240
sg21
S'4916'
p3241
sg23
S'Isothermality (BIO2/BIO7) (* 100) GS RCP45 2050'
p3242
sg25
g26
sg27
S'clim'
p3243
sg29
g30
sg31
S'clim.gs4550_Bio3.tif'
p3244
sg33
S'clim.gs4550_Bio3'
p3245
sg35
g36
sg37
g38
sg39
S'2050'
p3246
ssS'Bio17'
p3247
(dp3248
g6
S'gs4550_Bio17'
p3249
sg8
I173
sg9
S'Bio17'
p3250
sg11
S'Precipitation of Driest Quarter'
p3251
sg13
S'45'
p3252
sg15
S'gs4550'
p3253
sg17
S'../views/GTiff/clim.gs4550_Bio17.tif'
p3254
sg19
S'climate'
p3255
sg21
S'4917'
p3256
sg23
S'Precipitation of Driest Quarter GS RCP45 2050'
p3257
sg25
g26
sg27
S'clim'
p3258
sg29
g30
sg31
S'clim.gs4550_Bio17.tif'
p3259
sg33
S'clim.gs4550_Bio17'
p3260
sg35
g36
sg37
g38
sg39
S'2050'
p3261
ssS'Bio10'
p3262
(dp3263
g6
S'gs4550_Bio10'
p3264
sg8
I163
sg9
S'Bio10'
p3265
sg11
S'Mean Temperature of Warmest Quarter'
p3266
sg13
S'45'
p3267
sg15
S'gs4550'
p3268
sg17
S'../views/GTiff/clim.gs4550_Bio10.tif'
p3269
sg19
S'climate'
p3270
sg21
S'4918'
p3271
sg23
S'Mean Temperature of Warmest Quarter GS RCP45 2050'
p3272
sg25
g26
sg27
S'clim'
p3273
sg29
g30
sg31
S'clim.gs4550_Bio10.tif'
p3274
sg33
S'clim.gs4550_Bio10'
p3275
sg35
g36
sg37
g38
sg39
S'2050'
p3276
ssS'Bio11'
p3277
(dp3278
g6
S'gs4550_Bio11'
p3279
sg8
I13
sg9
S'Bio11'
p3280
sg11
S'Mean Temperature of Coldest Quarter'
p3281
sg13
S'45'
p3282
sg15
g3170
sg17
S'../views/GTiff/clim.gs4550_Bio11.tif'
p3283
sg19
S'climate'
p3284
sg21
S'4919'
p3285
sg23
S'Mean Temperature of Coldest Quarter GS RCP45 2050'
p3286
sg25
g26
sg27
S'clim'
p3287
sg29
g30
sg31
S'clim.gs4550_Bio11.tif'
p3288
sg33
S'clim.gs4550_Bio11'
p3289
sg35
g36
sg37
g38
sg39
S'2050'
p3290
ssS'Bio12'
p3291
(dp3292
g6
S'gs4550_Bio12'
p3293
sg8
I182
sg9
S'Bio12'
p3294
sg11
S'Annual Precipitation'
p3295
sg13
S'45'
p3296
sg15
S'gs4550'
p3297
sg17
S'../views/GTiff/clim.gs4550_Bio12.tif'
p3298
sg19
S'climate'
p3299
sg21
S'4920'
p3300
sg23
S'Annual Precipitation GS RCP45 2050'
p3301
sg25
g26
sg27
S'clim'
p3302
sg29
g30
sg31
S'clim.gs4550_Bio12.tif'
p3303
sg33
S'clim.gs4550_Bio12'
p3304
sg35
g36
sg37
g38
sg39
S'2050'
p3305
ssS'Bio13'
p3306
(dp3307
g6
S'gs4550_Bio13'
p3308
sg8
I171
sg9
S'Bio13'
p3309
sg11
S'Precipitation of Wettest Month'
p3310
sg13
S'45'
p3311
sg15
S'gs4550'
p3312
sg17
S'../views/GTiff/clim.gs4550_Bio13.tif'
p3313
sg19
S'climate'
p3314
sg21
S'4921'
p3315
sg23
S'Precipitation of Wettest Month GS RCP45 2050'
p3316
sg25
g26
sg27
S'clim'
p3317
sg29
g30
sg31
S'clim.gs4550_Bio13.tif'
p3318
sg33
S'clim.gs4550_Bio13'
p3319
sg35
g36
sg37
g38
sg39
S'2050'
p3320
ssS'Bio14'
p3321
(dp3322
g6
S'gs4550_Bio14'
p3323
sg8
I92
sg9
S'Bio14'
p3324
sg11
S'Precipitation of Driest Month'
p3325
sg13
S'45'
p3326
sg15
S'gs4550'
p3327
sg17
S'../views/GTiff/clim.gs4550_Bio14.tif'
p3328
sg19
S'climate'
p3329
sg21
S'4922'
p3330
sg23
S'Precipitation of Driest Month GS RCP45 2050'
p3331
sg25
g26
sg27
S'clim'
p3332
sg29
g30
sg31
S'clim.gs4550_Bio14.tif'
p3333
sg33
S'clim.gs4550_Bio14'
p3334
sg35
g36
sg37
g38
sg39
S'2050'
p3335
ssS'Bio15'
p3336
(dp3337
g6
S'gs4550_Bio15'
p3338
sg8
I109
sg9
S'Bio15'
p3339
sg11
S'Precipitation Seasonality (Coefficient of Variation)'
p3340
sg13
S'45'
p3341
sg15
S'gs4550'
p3342
sg17
S'../views/GTiff/clim.gs4550_Bio15.tif'
p3343
sg19
S'climate'
p3344
sg21
S'4923'
p3345
sg23
S'Precipitation Seasonality (Coefficient of Variation) GS RCP45 2050'
p3346
sg25
g26
sg27
S'clim'
p3347
sg29
g30
sg31
S'clim.gs4550_Bio15.tif'
p3348
sg33
S'clim.gs4550_Bio15'
p3349
sg35
g36
sg37
g38
sg39
S'2050'
p3350
ssS'Bio16'
p3351
(dp3352
g6
S'gs4550_Bio16'
p3353
sg8
I104
sg9
S'Bio16'
p3354
sg11
S'Precipitation of Wettest Quarter'
p3355
sg13
S'45'
p3356
sg15
S'gs4550'
p3357
sg17
S'../views/GTiff/clim.gs4550_Bio16.tif'
p3358
sg19
S'climate'
p3359
sg21
S'4924'
p3360
sg23
S'Precipitation of Wettest Quarter GS RCP45 2050'
p3361
sg25
g26
sg27
S'clim'
p3362
sg29
g30
sg31
S'clim.gs4550_Bio16.tif'
p3363
sg33
S'clim.gs4550_Bio16'
p3364
sg35
g36
sg37
g38
sg39
S'2050'
p3365
ssS'Bio5'
p3366
(dp3367
g6
S'gs4550_Bio5'
p3368
sg8
I96
sg9
S'Bio5'
p3369
sg11
S'Max Temperature of Warmest Month'
p3370
sg13
S'45'
p3371
sg15
S'gs4550'
p3372
sg17
S'../views/GTiff/clim.gs4550_Bio5.tif'
p3373
sg19
S'climate'
p3374
sg21
S'4925'
p3375
sg23
S'Max Temperature of Warmest Month GS RCP45 2050'
p3376
sg25
g26
sg27
S'clim'
p3377
sg29
g30
sg31
S'clim.gs4550_Bio5.tif'
p3378
sg33
S'clim.gs4550_Bio5'
p3379
sg35
g36
sg37
g38
sg39
S'2050'
p3380
ssS'Bio18'
p3381
(dp3382
g6
S'gs4550_Bio18'
p3383
sg8
I36
sg9
S'Bio18'
p3384
sg11
S'Precipitation of Warmest Quarter'
p3385
sg13
S'45'
p3386
sg15
S'gs4550'
p3387
sg17
S'../views/GTiff/clim.gs4550_Bio18.tif'
p3388
sg19
S'climate'
p3389
sg21
S'4926'
p3390
sg23
S'Precipitation of Warmest Quarter GS RCP45 2050'
p3391
sg25
g26
sg27
S'clim'
p3392
sg29
g30
sg31
S'clim.gs4550_Bio18.tif'
p3393
sg33
S'clim.gs4550_Bio18'
p3394
sg35
g36
sg37
g38
sg39
S'2050'
p3395
ssS'Bio6'
p3396
(dp3397
g6
S'gs4550_Bio6'
p3398
sg8
I103
sg9
S'Bio6'
p3399
sg11
S'Min Temperature of Coldest Month'
p3400
sg13
S'45'
p3401
sg15
S'gs4550'
p3402
sg17
S'../views/GTiff/clim.gs4550_Bio6.tif'
p3403
sg19
S'climate'
p3404
sg21
S'4927'
p3405
sg23
S'Min Temperature of Coldest Month GS RCP45 2050'
p3406
sg25
g26
sg27
S'clim'
p3407
sg29
g30
sg31
S'clim.gs4550_Bio6.tif'
p3408
sg33
S'clim.gs4550_Bio6'
p3409
sg35
g36
sg37
g38
sg39
S'2050'
p3410
ssS'Bio8'
p3411
(dp3412
g6
S'gs4550_Bio8'
p3413
sg8
I86
sg9
S'Bio8'
p3414
sg11
S'Mean Temperature of Wettest Quarter'
p3415
sg13
S'45'
p3416
sg15
S'gs4550'
p3417
sg17
S'../views/GTiff/clim.gs4550_Bio8.tif'
p3418
sg19
S'climate'
p3419
sg21
S'4928'
p3420
sg23
S'Mean Temperature of Wettest Quarter GS RCP45 2050'
p3421
sg25
g26
sg27
S'clim'
p3422
sg29
g30
sg31
S'clim.gs4550_Bio8.tif'
p3423
sg33
S'clim.gs4550_Bio8'
p3424
sg35
g36
sg37
g38
sg39
S'2050'
p3425
ssS'Bio9'
p3426
(dp3427
g6
S'gs4550_Bio9'
p3428
sg8
I37
sg9
S'Bio9'
p3429
sg11
S'Mean Temperature of Driest Quarter'
p3430
sg13
S'45'
p3431
sg15
S'gs4550'
p3432
sg17
S'../views/GTiff/clim.gs4550_Bio9.tif'
p3433
sg19
S'climate'
p3434
sg21
S'4929'
p3435
sg23
S'Mean Temperature of Driest Quarter GS RCP45 2050'
p3436
sg25
g26
sg27
S'clim'
p3437
sg29
g30
sg31
S'clim.gs4550_Bio9.tif'
p3438
sg33
S'clim.gs4550_Bio9'
p3439
sg35
g36
sg37
g38
sg39
S'2050'
p3440
ssS'Bio7'
p3441
(dp3442
g6
S'gs4550_Bio7'
p3443
sg8
I116
sg9
S'Bio7'
p3444
sg11
S'Temperature Annual Range (BIO5-BIO6)'
p3445
sg13
S'45'
p3446
sg15
S'gs4550'
p3447
sg17
S'../views/GTiff/clim.gs4550_Bio7.tif'
p3448
sg19
S'climate'
p3449
sg21
S'4930'
p3450
sg23
S'Temperature Annual Range (BIO5-BIO6) GS RCP45 2050'
p3451
sg25
g26
sg27
S'clim'
p3452
sg29
g30
sg31
S'clim.gs4550_Bio7.tif'
p3453
sg33
S'clim.gs4550_Bio7'
p3454
sg35
g36
sg37
g38
sg39
S'2050'
p3455
sssS'ac4550'
p3456
(dp3457
S'Bio2'
p3458
(dp3459
g6
S'ac4550_Bio2'
p3460
sg8
I277
sg9
S'Bio2'
p3461
sg11
S'Mean Diurnal Range (Mean of monthly (max temp - min temp))'
p3462
sg13
S'45'
p3463
sg15
S'ac4550'
p3464
sg17
S'../views/GTiff/clim.ac4550_Bio2.tif'
p3465
sg19
S'climate'
p3466
sg21
S'4931'
p3467
sg23
S'Mean Diurnal Range (Mean of monthly (max temp - min temp)) AC RCP45 2050'
p3468
sg25
g26
sg27
S'clim'
p3469
sg29
g30
sg31
S'clim.ac4550_Bio2.tif'
p3470
sg33
S'clim.ac4550_Bio2'
p3471
sg35
g36
sg37
g38
sg39
S'2050'
p3472
ssS'Bio4'
p3473
(dp3474
g6
S'ac4550_Bio4'
p3475
sg8
I166
sg9
S'Bio4'
p3476
sg11
S'Temperature Seasonality (standard deviation *100)'
p3477
sg13
S'45'
p3478
sg15
S'ac4550'
p3479
sg17
S'../views/GTiff/clim.ac4550_Bio4.tif'
p3480
sg19
S'climate'
p3481
sg21
S'4932'
p3482
sg23
S'Temperature Seasonality (standard deviation *100) AC RCP45 2050'
p3483
sg25
g26
sg27
S'clim'
p3484
sg29
g30
sg31
S'clim.ac4550_Bio4.tif'
p3485
sg33
S'clim.ac4550_Bio4'
p3486
sg35
g36
sg37
g38
sg39
S'2050'
p3487
ssS'Bio1'
p3488
(dp3489
g6
S'ac4550_Bio1'
p3490
sg8
I207
sg9
S'Bio1'
p3491
sg11
S'Annual Mean Temperature'
p3492
sg13
S'45'
p3493
sg15
S'ac4550'
p3494
sg17
S'../views/GTiff/clim.ac4550_Bio1.tif'
p3495
sg19
S'climate'
p3496
sg21
S'4933'
p3497
sg23
S'Annual Mean Temperature AC RCP45 2050'
p3498
sg25
g26
sg27
S'clim'
p3499
sg29
g30
sg31
S'clim.ac4550_Bio1.tif'
p3500
sg33
S'clim.ac4550_Bio1'
p3501
sg35
g36
sg37
g38
sg39
S'2050'
p3502
ssS'Bio3'
p3503
(dp3504
g6
S'ac4550_Bio3'
p3505
sg8
I147
sg9
S'Bio3'
p3506
sg11
S'Isothermality (BIO2/BIO7) (* 100)'
p3507
sg13
S'45'
p3508
sg15
S'ac4550'
p3509
sg17
S'../views/GTiff/clim.ac4550_Bio3.tif'
p3510
sg19
S'climate'
p3511
sg21
S'4934'
p3512
sg23
S'Isothermality (BIO2/BIO7) (* 100) AC RCP45 2050'
p3513
sg25
g26
sg27
S'clim'
p3514
sg29
g30
sg31
S'clim.ac4550_Bio3.tif'
p3515
sg33
S'clim.ac4550_Bio3'
p3516
sg35
g36
sg37
g38
sg39
S'2050'
p3517
ssS'Bio5'
p3518
(dp3519
g6
S'ac4550_Bio5'
p3520
sg8
I254
sg9
S'Bio5'
p3521
sg11
S'Max Temperature of Warmest Month'
p3522
sg13
S'45'
p3523
sg15
S'ac4550'
p3524
sg17
S'../views/GTiff/clim.ac4550_Bio5.tif'
p3525
sg19
S'climate'
p3526
sg21
S'4935'
p3527
sg23
S'Max Temperature of Warmest Month AC RCP45 2050'
p3528
sg25
g26
sg27
S'clim'
p3529
sg29
g30
sg31
S'clim.ac4550_Bio5.tif'
p3530
sg33
S'clim.ac4550_Bio5'
p3531
sg35
g36
sg37
g38
sg39
S'2050'
p3532
ssS'Bio14'
p3533
(dp3534
g6
S'ac4550_Bio14'
p3535
sg8
I117
sg9
S'Bio14'
p3536
sg11
S'Precipitation of Driest Month'
p3537
sg13
S'45'
p3538
sg15
S'ac4550'
p3539
sg17
S'../views/GTiff/clim.ac4550_Bio14.tif'
p3540
sg19
S'climate'
p3541
sg21
S'4936'
p3542
sg23
S'Precipitation of Driest Month AC RCP45 2050'
p3543
sg25
g26
sg27
S'clim'
p3544
sg29
g30
sg31
S'clim.ac4550_Bio14.tif'
p3545
sg33
S'clim.ac4550_Bio14'
p3546
sg35
g36
sg37
g38
sg39
S'2050'
p3547
ssS'Bio10'
p3548
(dp3549
g6
S'ac4550_Bio10'
p3550
sg8
I100
sg9
S'Bio10'
p3551
sg11
S'Mean Temperature of Warmest Quarter'
p3552
sg13
S'45'
p3553
sg15
S'ac4550'
p3554
sg17
S'../views/GTiff/clim.ac4550_Bio10.tif'
p3555
sg19
S'climate'
p3556
sg21
S'4937'
p3557
sg23
S'Mean Temperature of Warmest Quarter AC RCP45 2050'
p3558
sg25
g26
sg27
S'clim'
p3559
sg29
g30
sg31
S'clim.ac4550_Bio10.tif'
p3560
sg33
S'clim.ac4550_Bio10'
p3561
sg35
g36
sg37
g38
sg39
S'2050'
p3562
ssS'Bio11'
p3563
(dp3564
g6
S'ac4550_Bio11'
p3565
sg8
I54
sg9
S'Bio11'
p3566
sg11
S'Mean Temperature of Coldest Quarter'
p3567
sg13
S'45'
p3568
sg15
S'ac4550'
p3569
sg17
S'../views/GTiff/clim.ac4550_Bio11.tif'
p3570
sg19
S'climate'
p3571
sg21
S'4938'
p3572
sg23
S'Mean Temperature of Coldest Quarter AC RCP45 2050'
p3573
sg25
g26
sg27
S'clim'
p3574
sg29
g30
sg31
S'clim.ac4550_Bio11.tif'
p3575
sg33
S'clim.ac4550_Bio11'
p3576
sg35
g36
sg37
g38
sg39
S'2050'
p3577
ssS'Bio12'
p3578
(dp3579
g6
S'ac4550_Bio12'
p3580
sg8
I239
sg9
S'Bio12'
p3581
sg11
S'Annual Precipitation'
p3582
sg13
S'45'
p3583
sg15
S'ac4550'
p3584
sg17
S'../views/GTiff/clim.ac4550_Bio12.tif'
p3585
sg19
S'climate'
p3586
sg21
S'4939'
p3587
sg23
S'Annual Precipitation AC RCP45 2050'
p3588
sg25
g26
sg27
S'clim'
p3589
sg29
g30
sg31
S'clim.ac4550_Bio12.tif'
p3590
sg33
S'clim.ac4550_Bio12'
p3591
sg35
g36
sg37
g38
sg39
S'2050'
p3592
ssS'Bio13'
p3593
(dp3594
g6
S'ac4550_Bio13'
p3595
sg8
I19
sg9
S'Bio13'
p3596
sg11
S'Precipitation of Wettest Month'
p3597
sg13
S'45'
p3598
sg15
g3456
sg17
S'../views/GTiff/clim.ac4550_Bio13.tif'
p3599
sg19
S'climate'
p3600
sg21
S'4940'
p3601
sg23
S'Precipitation of Wettest Month AC RCP45 2050'
p3602
sg25
g26
sg27
S'clim'
p3603
sg29
g30
sg31
S'clim.ac4550_Bio13.tif'
p3604
sg33
S'clim.ac4550_Bio13'
p3605
sg35
g36
sg37
g38
sg39
S'2050'
p3606
ssS'Bio6'
p3607
(dp3608
g6
S'ac4550_Bio6'
p3609
sg8
I94
sg9
S'Bio6'
p3610
sg11
S'Min Temperature of Coldest Month'
p3611
sg13
S'45'
p3612
sg15
S'ac4550'
p3613
sg17
S'../views/GTiff/clim.ac4550_Bio6.tif'
p3614
sg19
S'climate'
p3615
sg21
S'4941'
p3616
sg23
S'Min Temperature of Coldest Month AC RCP45 2050'
p3617
sg25
g26
sg27
S'clim'
p3618
sg29
g30
sg31
S'clim.ac4550_Bio6.tif'
p3619
sg33
S'clim.ac4550_Bio6'
p3620
sg35
g36
sg37
g38
sg39
S'2050'
p3621
ssS'Bio15'
p3622
(dp3623
g6
S'ac4550_Bio15'
p3624
sg8
I93
sg9
S'Bio15'
p3625
sg11
S'Precipitation Seasonality (Coefficient of Variation)'
p3626
sg13
S'45'
p3627
sg15
S'ac4550'
p3628
sg17
S'../views/GTiff/clim.ac4550_Bio15.tif'
p3629
sg19
S'climate'
p3630
sg21
S'4942'
p3631
sg23
S'Precipitation Seasonality (Coefficient of Variation) AC RCP45 2050'
p3632
sg25
g26
sg27
S'clim'
p3633
sg29
g30
sg31
S'clim.ac4550_Bio15.tif'
p3634
sg33
S'clim.ac4550_Bio15'
p3635
sg35
g36
sg37
g38
sg39
S'2050'
p3636
ssS'Bio16'
p3637
(dp3638
g6
S'ac4550_Bio16'
p3639
sg8
I125
sg9
S'Bio16'
p3640
sg11
S'Precipitation of Wettest Quarter'
p3641
sg13
S'45'
p3642
sg15
S'ac4550'
p3643
sg17
S'../views/GTiff/clim.ac4550_Bio16.tif'
p3644
sg19
S'climate'
p3645
sg21
S'4943'
p3646
sg23
S'Precipitation of Wettest Quarter AC RCP45 2050'
p3647
sg25
g26
sg27
S'clim'
p3648
sg29
g30
sg31
S'clim.ac4550_Bio16.tif'
p3649
sg33
S'clim.ac4550_Bio16'
p3650
sg35
g36
sg37
g38
sg39
S'2050'
p3651
ssS'Bio17'
p3652
(dp3653
g6
S'ac4550_Bio17'
p3654
sg8
I28
sg9
S'Bio17'
p3655
sg11
S'Precipitation of Driest Quarter'
p3656
sg13
S'45'
p3657
sg15
S'ac4550'
p3658
sg17
S'../views/GTiff/clim.ac4550_Bio17.tif'
p3659
sg19
S'climate'
p3660
sg21
S'4944'
p3661
sg23
S'Precipitation of Driest Quarter AC RCP45 2050'
p3662
sg25
g26
sg27
S'clim'
p3663
sg29
g30
sg31
S'clim.ac4550_Bio17.tif'
p3664
sg33
S'clim.ac4550_Bio17'
p3665
sg35
g36
sg37
g38
sg39
S'2050'
p3666
ssS'Bio18'
p3667
(dp3668
g6
S'ac4550_Bio18'
p3669
sg8
I211
sg9
S'Bio18'
p3670
sg11
S'Precipitation of Warmest Quarter'
p3671
sg13
S'45'
p3672
sg15
S'ac4550'
p3673
sg17
S'../views/GTiff/clim.ac4550_Bio18.tif'
p3674
sg19
S'climate'
p3675
sg21
S'4945'
p3676
sg23
S'Precipitation of Warmest Quarter AC RCP45 2050'
p3677
sg25
g26
sg27
S'clim'
p3678
sg29
g30
sg31
S'clim.ac4550_Bio18.tif'
p3679
sg33
S'clim.ac4550_Bio18'
p3680
sg35
g36
sg37
g38
sg39
S'2050'
p3681
ssS'Bio19'
p3682
(dp3683
g6
S'ac4550_Bio19'
p3684
sg8
I101
sg9
S'Bio19'
p3685
sg11
S'Precipitation of Coldest Quarter'
p3686
sg13
S'45'
p3687
sg15
S'ac4550'
p3688
sg17
S'../views/GTiff/clim.ac4550_Bio19.tif'
p3689
sg19
S'climate'
p3690
sg21
S'4946'
p3691
sg23
S'Precipitation of Coldest Quarter AC RCP45 2050'
p3692
sg25
g26
sg27
S'clim'
p3693
sg29
g30
sg31
S'clim.ac4550_Bio19.tif'
p3694
sg33
S'clim.ac4550_Bio19'
p3695
sg35
g36
sg37
g38
sg39
S'2050'
p3696
ssS'Bio8'
p3697
(dp3698
g6
S'ac4550_Bio8'
p3699
sg8
I118
sg9
S'Bio8'
p3700
sg11
S'Mean Temperature of Wettest Quarter'
p3701
sg13
S'45'
p3702
sg15
S'ac4550'
p3703
sg17
S'../views/GTiff/clim.ac4550_Bio8.tif'
p3704
sg19
S'climate'
p3705
sg21
S'4947'
p3706
sg23
S'Mean Temperature of Wettest Quarter AC RCP45 2050'
p3707
sg25
g26
sg27
S'clim'
p3708
sg29
g30
sg31
S'clim.ac4550_Bio8.tif'
p3709
sg33
S'clim.ac4550_Bio8'
p3710
sg35
g36
sg37
g38
sg39
S'2050'
p3711
ssS'Bio9'
p3712
(dp3713
g6
S'ac4550_Bio9'
p3714
sg8
I165
sg9
S'Bio9'
p3715
sg11
S'Mean Temperature of Driest Quarter'
p3716
sg13
S'45'
p3717
sg15
S'ac4550'
p3718
sg17
S'../views/GTiff/clim.ac4550_Bio9.tif'
p3719
sg19
S'climate'
p3720
sg21
S'4948'
p3721
sg23
S'Mean Temperature of Driest Quarter AC RCP45 2050'
p3722
sg25
g26
sg27
S'clim'
p3723
sg29
g30
sg31
S'clim.ac4550_Bio9.tif'
p3724
sg33
S'clim.ac4550_Bio9'
p3725
sg35
g36
sg37
g38
sg39
S'2050'
p3726
ssS'Bio7'
p3727
(dp3728
g6
S'ac4550_Bio7'
p3729
sg8
I131
sg9
S'Bio7'
p3730
sg11
S'Temperature Annual Range (BIO5-BIO6)'
p3731
sg13
S'45'
p3732
sg15
S'ac4550'
p3733
sg17
S'../views/GTiff/clim.ac4550_Bio7.tif'
p3734
sg19
S'climate'
p3735
sg21
S'4949'
p3736
sg23
S'Temperature Annual Range (BIO5-BIO6) AC RCP45 2050'
p3737
sg25
g26
sg27
S'clim'
p3738
sg29
g30
sg31
S'clim.ac4550_Bio7.tif'
p3739
sg33
S'clim.ac4550_Bio7'
p3740
sg35
g36
sg37
g38
sg39
S'2050'
p3741
sssS'he6070'
p3742
(dp3743
S'Bio10'
p3744
(dp3745
g6
S'he6070_Bio10'
p3746
sg8
I259
sg9
S'Bio10'
p3747
sg11
S'Mean Temperature of Warmest Quarter'
p3748
sg13
S'60'
p3749
sg15
S'he6070'
p3750
sg17
S'../views/GTiff/clim.he6070_Bio10.tif'
p3751
sg19
S'climate'
p3752
sg21
S'4950'
p3753
sg23
S'Mean Temperature of Warmest Quarter HE RCP60 2070'
p3754
sg25
g26
sg27
S'clim'
p3755
sg29
g30
sg31
S'clim.he6070_Bio10.tif'
p3756
sg33
S'clim.he6070_Bio10'
p3757
sg35
g36
sg37
g38
sg39
S'2070'
p3758
ssS'Bio6'
p3759
(dp3760
g6
S'he6070_Bio6'
p3761
sg8
I215
sg9
S'Bio6'
p3762
sg11
S'Min Temperature of Coldest Month'
p3763
sg13
S'60'
p3764
sg15
S'he6070'
p3765
sg17
S'../views/GTiff/clim.he6070_Bio6.tif'
p3766
sg19
S'climate'
p3767
sg21
S'4951'
p3768
sg23
S'Min Temperature of Coldest Month HE RCP60 2070'
p3769
sg25
g26
sg27
S'clim'
p3770
sg29
g30
sg31
S'clim.he6070_Bio6.tif'
p3771
sg33
S'clim.he6070_Bio6'
p3772
sg35
g36
sg37
g38
sg39
S'2070'
p3773
ssS'Bio16'
p3774
(dp3775
g6
S'he6070_Bio16'
p3776
sg8
I250
sg9
S'Bio16'
p3777
sg11
S'Precipitation of Wettest Quarter'
p3778
sg13
S'60'
p3779
sg15
S'he6070'
p3780
sg17
S'../views/GTiff/clim.he6070_Bio16.tif'
p3781
sg19
S'climate'
p3782
sg21
S'4952'
p3783
sg23
S'Precipitation of Wettest Quarter HE RCP60 2070'
p3784
sg25
g26
sg27
S'clim'
p3785
sg29
g30
sg31
S'clim.he6070_Bio16.tif'
p3786
sg33
S'clim.he6070_Bio16'
p3787
sg35
g36
sg37
g38
sg39
S'2070'
p3788
ssS'Bio1'
p3789
(dp3790
g6
S'he6070_Bio1'
p3791
sg8
I252
sg9
S'Bio1'
p3792
sg11
S'Annual Mean Temperature'
p3793
sg13
S'60'
p3794
sg15
S'he6070'
p3795
sg17
S'../views/GTiff/clim.he6070_Bio1.tif'
p3796
sg19
S'climate'
p3797
sg21
S'4953'
p3798
sg23
S'Annual Mean Temperature HE RCP60 2070'
p3799
sg25
g26
sg27
S'clim'
p3800
sg29
g30
sg31
S'clim.he6070_Bio1.tif'
p3801
sg33
S'clim.he6070_Bio1'
p3802
sg35
g36
sg37
g38
sg39
S'2070'
p3803
ssS'Bio3'
p3804
(dp3805
g6
S'he6070_Bio3'
p3806
sg8
I284
sg9
S'Bio3'
p3807
sg11
S'Isothermality (BIO2/BIO7) (* 100)'
p3808
sg13
S'60'
p3809
sg15
S'he6070'
p3810
sg17
S'../views/GTiff/clim.he6070_Bio3.tif'
p3811
sg19
S'climate'
p3812
sg21
S'4954'
p3813
sg23
S'Isothermality (BIO2/BIO7) (* 100) HE RCP60 2070'
p3814
sg25
g26
sg27
S'clim'
p3815
sg29
g30
sg31
S'clim.he6070_Bio3.tif'
p3816
sg33
S'clim.he6070_Bio3'
p3817
sg35
g36
sg37
g38
sg39
S'2070'
p3818
ssS'Bio17'
p3819
(dp3820
g6
S'he6070_Bio17'
p3821
sg8
I270
sg9
S'Bio17'
p3822
sg11
S'Precipitation of Driest Quarter'
p3823
sg13
S'60'
p3824
sg15
S'he6070'
p3825
sg17
S'../views/GTiff/clim.he6070_Bio17.tif'
p3826
sg19
S'climate'
p3827
sg21
S'4955'
p3828
sg23
S'Precipitation of Driest Quarter HE RCP60 2070'
p3829
sg25
g26
sg27
S'clim'
p3830
sg29
g30
sg31
S'clim.he6070_Bio17.tif'
p3831
sg33
S'clim.he6070_Bio17'
p3832
sg35
g36
sg37
g38
sg39
S'2070'
p3833
ssS'Bio2'
p3834
(dp3835
g6
S'he6070_Bio2'
p3836
sg8
I113
sg9
S'Bio2'
p3837
sg11
S'Mean Diurnal Range (Mean of monthly (max temp - min temp))'
p3838
sg13
S'60'
p3839
sg15
S'he6070'
p3840
sg17
S'../views/GTiff/clim.he6070_Bio2.tif'
p3841
sg19
S'climate'
p3842
sg21
S'4956'
p3843
sg23
S'Mean Diurnal Range (Mean of monthly (max temp - min temp)) HE RCP60 2070'
p3844
sg25
g26
sg27
S'clim'
p3845
sg29
g30
sg31
S'clim.he6070_Bio2.tif'
p3846
sg33
S'clim.he6070_Bio2'
p3847
sg35
g36
sg37
g38
sg39
S'2070'
p3848
ssS'Bio11'
p3849
(dp3850
g6
S'he6070_Bio11'
p3851
sg8
I204
sg9
S'Bio11'
p3852
sg11
S'Mean Temperature of Coldest Quarter'
p3853
sg13
S'60'
p3854
sg15
S'he6070'
p3855
sg17
S'../views/GTiff/clim.he6070_Bio11.tif'
p3856
sg19
S'climate'
p3857
sg21
S'4957'
p3858
sg23
S'Mean Temperature of Coldest Quarter HE RCP60 2070'
p3859
sg25
g26
sg27
S'clim'
p3860
sg29
g30
sg31
S'clim.he6070_Bio11.tif'
p3861
sg33
S'clim.he6070_Bio11'
p3862
sg35
g36
sg37
g38
sg39
S'2070'
p3863
ssS'Bio12'
p3864
(dp3865
g6
S'he6070_Bio12'
p3866
sg8
I220
sg9
S'Bio12'
p3867
sg11
S'Annual Precipitation'
p3868
sg13
S'60'
p3869
sg15
S'he6070'
p3870
sg17
S'../views/GTiff/clim.he6070_Bio12.tif'
p3871
sg19
S'climate'
p3872
sg21
S'4958'
p3873
sg23
S'Annual Precipitation HE RCP60 2070'
p3874
sg25
g26
sg27
S'clim'
p3875
sg29
g30
sg31
S'clim.he6070_Bio12.tif'
p3876
sg33
S'clim.he6070_Bio12'
p3877
sg35
g36
sg37
g38
sg39
S'2070'
p3878
ssS'Bio13'
p3879
(dp3880
g6
S'he6070_Bio13'
p3881
sg8
I139
sg9
S'Bio13'
p3882
sg11
S'Precipitation of Wettest Month'
p3883
sg13
S'60'
p3884
sg15
S'he6070'
p3885
sg17
S'../views/GTiff/clim.he6070_Bio13.tif'
p3886
sg19
S'climate'
p3887
sg21
S'4959'
p3888
sg23
S'Precipitation of Wettest Month HE RCP60 2070'
p3889
sg25
g26
sg27
S'clim'
p3890
sg29
g30
sg31
S'clim.he6070_Bio13.tif'
p3891
sg33
S'clim.he6070_Bio13'
p3892
sg35
g36
sg37
g38
sg39
S'2070'
p3893
ssS'Bio14'
p3894
(dp3895
g6
S'he6070_Bio14'
p3896
sg8
I77
sg9
S'Bio14'
p3897
sg11
S'Precipitation of Driest Month'
p3898
sg13
S'60'
p3899
sg15
S'he6070'
p3900
sg17
S'../views/GTiff/clim.he6070_Bio14.tif'
p3901
sg19
S'climate'
p3902
sg21
S'4960'
p3903
sg23
S'Precipitation of Driest Month HE RCP60 2070'
p3904
sg25
g26
sg27
S'clim'
p3905
sg29
g30
sg31
S'clim.he6070_Bio14.tif'
p3906
sg33
S'clim.he6070_Bio14'
p3907
sg35
g36
sg37
g38
sg39
S'2070'
p3908
ssS'Bio7'
p3909
(dp3910
g6
S'he6070_Bio7'
p3911
sg8
I45
sg9
S'Bio7'
p3912
sg11
S'Temperature Annual Range (BIO5-BIO6)'
p3913
sg13
S'60'
p3914
sg15
S'he6070'
p3915
sg17
S'../views/GTiff/clim.he6070_Bio7.tif'
p3916
sg19
S'climate'
p3917
sg21
S'4961'
p3918
sg23
S'Temperature Annual Range (BIO5-BIO6) HE RCP60 2070'
p3919
sg25
g26
sg27
S'clim'
p3920
sg29
g30
sg31
S'clim.he6070_Bio7.tif'
p3921
sg33
S'clim.he6070_Bio7'
p3922
sg35
g36
sg37
g38
sg39
S'2070'
p3923
ssS'Bio4'
p3924
(dp3925
g6
S'he6070_Bio4'
p3926
sg8
I24
sg9
S'Bio4'
p3927
sg11
S'Temperature Seasonality (standard deviation *100)'
p3928
sg13
S'60'
p3929
sg15
g3742
sg17
S'../views/GTiff/clim.he6070_Bio4.tif'
p3930
sg19
S'climate'
p3931
sg21
S'4962'
p3932
sg23
S'Temperature Seasonality (standard deviation *100) HE RCP60 2070'
p3933
sg25
g26
sg27
S'clim'
p3934
sg29
g30
sg31
S'clim.he6070_Bio4.tif'
p3935
sg33
S'clim.he6070_Bio4'
p3936
sg35
g36
sg37
g38
sg39
S'2070'
p3937
ssS'Bio5'
p3938
(dp3939
g6
S'he6070_Bio5'
p3940
sg8
I90
sg9
S'Bio5'
p3941
sg11
S'Max Temperature of Warmest Month'
p3942
sg13
S'60'
p3943
sg15
S'he6070'
p3944
sg17
S'../views/GTiff/clim.he6070_Bio5.tif'
p3945
sg19
S'climate'
p3946
sg21
S'4963'
p3947
sg23
S'Max Temperature of Warmest Month HE RCP60 2070'
p3948
sg25
g26
sg27
S'clim'
p3949
sg29
g30
sg31
S'clim.he6070_Bio5.tif'
p3950
sg33
S'clim.he6070_Bio5'
p3951
sg35
g36
sg37
g38
sg39
S'2070'
p3952
ssS'Bio18'
p3953
(dp3954
g6
S'he6070_Bio18'
p3955
sg8
I278
sg9
S'Bio18'
p3956
sg11
S'Precipitation of Warmest Quarter'
p3957
sg13
S'60'
p3958
sg15
S'he6070'
p3959
sg17
S'../views/GTiff/clim.he6070_Bio18.tif'
p3960
sg19
S'climate'
p3961
sg21
S'4964'
p3962
sg23
S'Precipitation of Warmest Quarter HE RCP60 2070'
p3963
sg25
g26
sg27
S'clim'
p3964
sg29
g30
sg31
S'clim.he6070_Bio18.tif'
p3965
sg33
S'clim.he6070_Bio18'
p3966
sg35
g36
sg37
g38
sg39
S'2070'
p3967
ssS'Bio19'
p3968
(dp3969
g6
S'he6070_Bio19'
p3970
sg8
I152
sg9
S'Bio19'
p3971
sg11
S'Precipitation of Coldest Quarter'
p3972
sg13
S'60'
p3973
sg15
S'he6070'
p3974
sg17
S'../views/GTiff/clim.he6070_Bio19.tif'
p3975
sg19
S'climate'
p3976
sg21
S'4965'
p3977
sg23
S'Precipitation of Coldest Quarter HE RCP60 2070'
p3978
sg25
g26
sg27
S'clim'
p3979
sg29
g30
sg31
S'clim.he6070_Bio19.tif'
p3980
sg33
S'clim.he6070_Bio19'
p3981
sg35
g36
sg37
g38
sg39
S'2070'
p3982
ssS'Bio8'
p3983
(dp3984
g6
S'he6070_Bio8'
p3985
sg8
I187
sg9
S'Bio8'
p3986
sg11
S'Mean Temperature of Wettest Quarter'
p3987
sg13
S'60'
p3988
sg15
S'he6070'
p3989
sg17
S'../views/GTiff/clim.he6070_Bio8.tif'
p3990
sg19
S'climate'
p3991
sg21
S'4966'
p3992
sg23
S'Mean Temperature of Wettest Quarter HE RCP60 2070'
p3993
sg25
g26
sg27
S'clim'
p3994
sg29
g30
sg31
S'clim.he6070_Bio8.tif'
p3995
sg33
S'clim.he6070_Bio8'
p3996
sg35
g36
sg37
g38
sg39
S'2070'
p3997
ssS'Bio9'
p3998
(dp3999
g6
S'he6070_Bio9'
p4000
sg8
I253
sg9
S'Bio9'
p4001
sg11
S'Mean Temperature of Driest Quarter'
p4002
sg13
S'60'
p4003
sg15
S'he6070'
p4004
sg17
S'../views/GTiff/clim.he6070_Bio9.tif'
p4005
sg19
S'climate'
p4006
sg21
S'4967'
p4007
sg23
S'Mean Temperature of Driest Quarter HE RCP60 2070'
p4008
sg25
g26
sg27
S'clim'
p4009
sg29
g30
sg31
S'clim.he6070_Bio9.tif'
p4010
sg33
S'clim.he6070_Bio9'
p4011
sg35
g36
sg37
g38
sg39
S'2070'
p4012
ssS'Bio15'
p4013
(dp4014
g6
S'he6070_Bio15'
p4015
sg8
I154
sg9
S'Bio15'
p4016
sg11
S'Precipitation Seasonality (Coefficient of Variation)'
p4017
sg13
S'60'
p4018
sg15
S'he6070'
p4019
sg17
S'../views/GTiff/clim.he6070_Bio15.tif'
p4020
sg19
S'climate'
p4021
sg21
S'4968'
p4022
sg23
S'Precipitation Seasonality (Coefficient of Variation) HE RCP60 2070'
p4023
sg25
g26
sg27
S'clim'
p4024
sg29
g30
sg31
S'clim.he6070_Bio15.tif'
p4025
sg33
S'clim.he6070_Bio15'
p4026
sg35
g36
sg37
g38
sg39
S'2070'
p4027
sssS'he4570'
p4028
(dp4029
S'Bio2'
p4030
(dp4031
g6
S'he4570_Bio2'
p4032
sg8
I222
sg9
S'Bio2'
p4033
sg11
S'Mean Diurnal Range (Mean of monthly (max temp - min temp))'
p4034
sg13
S'45'
p4035
sg15
S'he4570'
p4036
sg17
S'../views/GTiff/clim.he4570_Bio2.tif'
p4037
sg19
S'climate'
p4038
sg21
S'4969'
p4039
sg23
S'Mean Diurnal Range (Mean of monthly (max temp - min temp)) HE RCP45 2070'
p4040
sg25
g26
sg27
S'clim'
p4041
sg29
g30
sg31
S'clim.he4570_Bio2.tif'
p4042
sg33
S'clim.he4570_Bio2'
p4043
sg35
g36
sg37
g38
sg39
S'2070'
p4044
ssS'Bio6'
p4045
(dp4046
g6
S'he4570_Bio6'
p4047
sg8
I194
sg9
S'Bio6'
p4048
sg11
S'Min Temperature of Coldest Month'
p4049
sg13
S'45'
p4050
sg15
S'he4570'
p4051
sg17
S'../views/GTiff/clim.he4570_Bio6.tif'
p4052
sg19
S'climate'
p4053
sg21
S'4970'
p4054
sg23
S'Min Temperature of Coldest Month HE RCP45 2070'
p4055
sg25
g26
sg27
S'clim'
p4056
sg29
g30
sg31
S'clim.he4570_Bio6.tif'
p4057
sg33
S'clim.he4570_Bio6'
p4058
sg35
g36
sg37
g38
sg39
S'2070'
p4059
ssS'Bio4'
p4060
(dp4061
g6
S'he4570_Bio4'
p4062
sg8
I266
sg9
S'Bio4'
p4063
sg11
S'Temperature Seasonality (standard deviation *100)'
p4064
sg13
S'45'
p4065
sg15
S'he4570'
p4066
sg17
S'../views/GTiff/clim.he4570_Bio4.tif'
p4067
sg19
S'climate'
p4068
sg21
S'4971'
p4069
sg23
S'Temperature Seasonality (standard deviation *100) HE RCP45 2070'
p4070
sg25
g26
sg27
S'clim'
p4071
sg29
g30
sg31
S'clim.he4570_Bio4.tif'
p4072
sg33
S'clim.he4570_Bio4'
p4073
sg35
g36
sg37
g38
sg39
S'2070'
p4074
ssS'Bio1'
p4075
(dp4076
g6
S'he4570_Bio1'
p4077
sg8
I197
sg9
S'Bio1'
p4078
sg11
S'Annual Mean Temperature'
p4079
sg13
S'45'
p4080
sg15
S'he4570'
p4081
sg17
S'../views/GTiff/clim.he4570_Bio1.tif'
p4082
sg19
S'climate'
p4083
sg21
S'4972'
p4084
sg23
S'Annual Mean Temperature HE RCP45 2070'
p4085
sg25
g26
sg27
S'clim'
p4086
sg29
g30
sg31
S'clim.he4570_Bio1.tif'
p4087
sg33
S'clim.he4570_Bio1'
p4088
sg35
g36
sg37
g38
sg39
S'2070'
p4089
ssS'Bio11'
p4090
(dp4091
g6
S'he4570_Bio11'
p4092
sg8
I281
sg9
S'Bio11'
p4093
sg11
S'Mean Temperature of Coldest Quarter'
p4094
sg13
S'45'
p4095
sg15
S'he4570'
p4096
sg17
S'../views/GTiff/clim.he4570_Bio11.tif'
p4097
sg19
S'climate'
p4098
sg21
S'4973'
p4099
sg23
S'Mean Temperature of Coldest Quarter HE RCP45 2070'
p4100
sg25
g26
sg27
S'clim'
p4101
sg29
g30
sg31
S'clim.he4570_Bio11.tif'
p4102
sg33
S'clim.he4570_Bio11'
p4103
sg35
g36
sg37
g38
sg39
S'2070'
p4104
ssS'Bio5'
p4105
(dp4106
g6
S'he4570_Bio5'
p4107
sg8
I184
sg9
S'Bio5'
p4108
sg11
S'Max Temperature of Warmest Month'
p4109
sg13
S'45'
p4110
sg15
S'he4570'
p4111
sg17
S'../views/GTiff/clim.he4570_Bio5.tif'
p4112
sg19
S'climate'
p4113
sg21
S'4974'
p4114
sg23
S'Max Temperature of Warmest Month HE RCP45 2070'
p4115
sg25
g26
sg27
S'clim'
p4116
sg29
g30
sg31
S'clim.he4570_Bio5.tif'
p4117
sg33
S'clim.he4570_Bio5'
p4118
sg35
g36
sg37
g38
sg39
S'2070'
p4119
ssS'Bio10'
p4120
(dp4121
g6
S'he4570_Bio10'
p4122
sg8
I89
sg9
S'Bio10'
p4123
sg11
S'Mean Temperature of Warmest Quarter'
p4124
sg13
S'45'
p4125
sg15
S'he4570'
p4126
sg17
S'../views/GTiff/clim.he4570_Bio10.tif'
p4127
sg19
S'climate'
p4128
sg21
S'4975'
p4129
sg23
S'Mean Temperature of Warmest Quarter HE RCP45 2070'
p4130
sg25
g26
sg27
S'clim'
p4131
sg29
g30
sg31
S'clim.he4570_Bio10.tif'
p4132
sg33
S'clim.he4570_Bio10'
p4133
sg35
g36
sg37
g38
sg39
S'2070'
p4134
ssS'Bio3'
p4135
(dp4136
g6
S'he4570_Bio3'
p4137
sg8
I274
sg9
S'Bio3'
p4138
sg11
S'Isothermality (BIO2/BIO7) (* 100)'
p4139
sg13
S'45'
p4140
sg15
S'he4570'
p4141
sg17
S'../views/GTiff/clim.he4570_Bio3.tif'
p4142
sg19
S'climate'
p4143
sg21
S'4976'
p4144
sg23
S'Isothermality (BIO2/BIO7) (* 100) HE RCP45 2070'
p4145
sg25
g26
sg27
S'clim'
p4146
sg29
g30
sg31
S'clim.he4570_Bio3.tif'
p4147
sg33
S'clim.he4570_Bio3'
p4148
sg35
g36
sg37
g38
sg39
S'2070'
p4149
ssS'Bio12'
p4150
(dp4151
g6
S'he4570_Bio12'
p4152
sg8
I245
sg9
S'Bio12'
p4153
sg11
S'Annual Precipitation'
p4154
sg13
S'45'
p4155
sg15
S'he4570'
p4156
sg17
S'../views/GTiff/clim.he4570_Bio12.tif'
p4157
sg19
S'climate'
p4158
sg21
S'4977'
p4159
sg23
S'Annual Precipitation HE RCP45 2070'
p4160
sg25
g26
sg27
S'clim'
p4161
sg29
g30
sg31
S'clim.he4570_Bio12.tif'
p4162
sg33
S'clim.he4570_Bio12'
p4163
sg35
g36
sg37
g38
sg39
S'2070'
p4164
ssS'Bio13'
p4165
(dp4166
g6
S'he4570_Bio13'
p4167
sg8
I31
sg9
S'Bio13'
p4168
sg11
S'Precipitation of Wettest Month'
p4169
sg13
S'45'
p4170
sg15
g4028
sg17
S'../views/GTiff/clim.he4570_Bio13.tif'
p4171
sg19
S'climate'
p4172
sg21
S'4978'
p4173
sg23
S'Precipitation of Wettest Month HE RCP45 2070'
p4174
sg25
g26
sg27
S'clim'
p4175
sg29
g30
sg31
S'clim.he4570_Bio13.tif'
p4176
sg33
S'clim.he4570_Bio13'
p4177
sg35
g36
sg37
g38
sg39
S'2070'
p4178
ssS'Bio14'
p4179
(dp4180
g6
S'he4570_Bio14'
p4181
sg8
I35
sg9
S'Bio14'
p4182
sg11
S'Precipitation of Driest Month'
p4183
sg13
S'45'
p4184
sg15
S'he4570'
p4185
sg17
S'../views/GTiff/clim.he4570_Bio14.tif'
p4186
sg19
S'climate'
p4187
sg21
S'4979'
p4188
sg23
S'Precipitation of Driest Month HE RCP45 2070'
p4189
sg25
g26
sg27
S'clim'
p4190
sg29
g30
sg31
S'clim.he4570_Bio14.tif'
p4191
sg33
S'clim.he4570_Bio14'
p4192
sg35
g36
sg37
g38
sg39
S'2070'
p4193
ssS'Bio15'
p4194
(dp4195
g6
S'he4570_Bio15'
p4196
sg8
I42
sg9
S'Bio15'
p4197
sg11
S'Precipitation Seasonality (Coefficient of Variation)'
p4198
sg13
S'45'
p4199
sg15
S'he4570'
p4200
sg17
S'../views/GTiff/clim.he4570_Bio15.tif'
p4201
sg19
S'climate'
p4202
sg21
S'4980'
p4203
sg23
S'Precipitation Seasonality (Coefficient of Variation) HE RCP45 2070'
p4204
sg25
g26
sg27
S'clim'
p4205
sg29
g30
sg31
S'clim.he4570_Bio15.tif'
p4206
sg33
S'clim.he4570_Bio15'
p4207
sg35
g36
sg37
g38
sg39
S'2070'
p4208
ssS'Bio16'
p4209
(dp4210
g6
S'he4570_Bio16'
p4211
sg8
I48
sg9
S'Bio16'
p4212
sg11
S'Precipitation of Wettest Quarter'
p4213
sg13
S'45'
p4214
sg15
S'he4570'
p4215
sg17
S'../views/GTiff/clim.he4570_Bio16.tif'
p4216
sg19
S'climate'
p4217
sg21
S'4981'
p4218
sg23
S'Precipitation of Wettest Quarter HE RCP45 2070'
p4219
sg25
g26
sg27
S'clim'
p4220
sg29
g30
sg31
S'clim.he4570_Bio16.tif'
p4221
sg33
S'clim.he4570_Bio16'
p4222
sg35
g36
sg37
g38
sg39
S'2070'
p4223
ssS'Bio17'
p4224
(dp4225
g6
S'he4570_Bio17'
p4226
sg8
I156
sg9
S'Bio17'
p4227
sg11
S'Precipitation of Driest Quarter'
p4228
sg13
S'45'
p4229
sg15
S'he4570'
p4230
sg17
S'../views/GTiff/clim.he4570_Bio17.tif'
p4231
sg19
S'climate'
p4232
sg21
S'4982'
p4233
sg23
S'Precipitation of Driest Quarter HE RCP45 2070'
p4234
sg25
g26
sg27
S'clim'
p4235
sg29
g30
sg31
S'clim.he4570_Bio17.tif'
p4236
sg33
S'clim.he4570_Bio17'
p4237
sg35
g36
sg37
g38
sg39
S'2070'
p4238
ssS'Bio18'
p4239
(dp4240
g6
S'he4570_Bio18'
p4241
sg8
I175
sg9
S'Bio18'
p4242
sg11
S'Precipitation of Warmest Quarter'
p4243
sg13
S'45'
p4244
sg15
S'he4570'
p4245
sg17
S'../views/GTiff/clim.he4570_Bio18.tif'
p4246
sg19
S'climate'
p4247
sg21
S'4983'
p4248
sg23
S'Precipitation of Warmest Quarter HE RCP45 2070'
p4249
sg25
g26
sg27
S'clim'
p4250
sg29
g30
sg31
S'clim.he4570_Bio18.tif'
p4251
sg33
S'clim.he4570_Bio18'
p4252
sg35
g36
sg37
g38
sg39
S'2070'
p4253
ssS'Bio19'
p4254
(dp4255
g6
S'he4570_Bio19'
p4256
sg8
I179
sg9
S'Bio19'
p4257
sg11
S'Precipitation of Coldest Quarter'
p4258
sg13
S'45'
p4259
sg15
S'he4570'
p4260
sg17
S'../views/GTiff/clim.he4570_Bio19.tif'
p4261
sg19
S'climate'
p4262
sg21
S'4984'
p4263
sg23
S'Precipitation of Coldest Quarter HE RCP45 2070'
p4264
sg25
g26
sg27
S'clim'
p4265
sg29
g30
sg31
S'clim.he4570_Bio19.tif'
p4266
sg33
S'clim.he4570_Bio19'
p4267
sg35
g36
sg37
g38
sg39
S'2070'
p4268
ssS'Bio8'
p4269
(dp4270
g6
S'he4570_Bio8'
p4271
sg8
I213
sg9
S'Bio8'
p4272
sg11
S'Mean Temperature of Wettest Quarter'
p4273
sg13
S'45'
p4274
sg15
S'he4570'
p4275
sg17
S'../views/GTiff/clim.he4570_Bio8.tif'
p4276
sg19
S'climate'
p4277
sg21
S'4985'
p4278
sg23
S'Mean Temperature of Wettest Quarter HE RCP45 2070'
p4279
sg25
g26
sg27
S'clim'
p4280
sg29
g30
sg31
S'clim.he4570_Bio8.tif'
p4281
sg33
S'clim.he4570_Bio8'
p4282
sg35
g36
sg37
g38
sg39
S'2070'
p4283
ssS'Bio9'
p4284
(dp4285
g6
S'he4570_Bio9'
p4286
sg8
I84
sg9
S'Bio9'
p4287
sg11
S'Mean Temperature of Driest Quarter'
p4288
sg13
S'45'
p4289
sg15
S'he4570'
p4290
sg17
S'../views/GTiff/clim.he4570_Bio9.tif'
p4291
sg19
S'climate'
p4292
sg21
S'4986'
p4293
sg23
S'Mean Temperature of Driest Quarter HE RCP45 2070'
p4294
sg25
g26
sg27
S'clim'
p4295
sg29
g30
sg31
S'clim.he4570_Bio9.tif'
p4296
sg33
S'clim.he4570_Bio9'
p4297
sg35
g36
sg37
g38
sg39
S'2070'
p4298
ssS'Bio7'
p4299
(dp4300
g6
S'he4570_Bio7'
p4301
sg8
I159
sg9
S'Bio7'
p4302
sg11
S'Temperature Annual Range (BIO5-BIO6)'
p4303
sg13
S'45'
p4304
sg15
S'he4570'
p4305
sg17
S'../views/GTiff/clim.he4570_Bio7.tif'
p4306
sg19
S'climate'
p4307
sg21
S'4987'
p4308
sg23
S'Temperature Annual Range (BIO5-BIO6) HE RCP45 2070'
p4309
sg25
g26
sg27
S'clim'
p4310
sg29
g30
sg31
S'clim.he4570_Bio7.tif'
p4311
sg33
S'clim.he4570_Bio7'
p4312
sg35
g36
sg37
g38
sg39
S'2070'
p4313
sss.