(dp1
S'ac4550'
p2
(dp3
S'Bio2'
p4
(dp5
S'envLayerType'
p6
S'ac4550_Bio2'
p7
sS'Name'
p8
I55
sS'typeCode'
p9
S'Bio2'
p10
sS'typeCodeDescription'
p11
S'Mean Diurnal Range (Mean of monthly (max temp - min temp))'
p12
sS'RCP'
p13
S'45'
p14
sS'bioclim'
p15
S'ac4550'
p16
sS'filePath'
p17
S'../views/GTiff/clim.ac4550_Bio2.tif'
p18
sS'filterType'
p19
S'climate'
p20
sS'lyrID'
p21
S'5201'
p22
sS'layerDescription'
p23
S'Mean Diurnal Range (Mean of monthly (max temp - min temp)) AC RCP45 2050'
p24
sS'dataFormat'
p25
S'GTiff'
p26
sS'base'
p27
S'clim'
p28
sS'units'
p29
S'dd'
p30
sS'title'
p31
S'clim.ac4550_Bio2.tif'
p32
sS'fullname'
p33
S'clim.ac4550_Bio2'
p34
sS'resolution'
p35
S'10'
p36
sS'epsgCode'
p37
S'4326'
p38
sS'projectionDate'
p39
S'2050'
p40
ssS'Bio4'
p41
(dp42
g6
S'ac4550_Bio4'
p43
sg8
I30
sg9
S'Bio4'
p44
sg11
S'Temperature Seasonality (standard deviation *100)'
p45
sg13
S'45'
p46
sg15
S'ac4550'
p47
sg17
S'../views/GTiff/clim.ac4550_Bio4.tif'
p48
sg19
S'climate'
p49
sg21
S'5202'
p50
sg23
S'Temperature Seasonality (standard deviation *100) AC RCP45 2050'
p51
sg25
g26
sg27
S'clim'
p52
sg29
g30
sg31
S'clim.ac4550_Bio4.tif'
p53
sg33
S'clim.ac4550_Bio4'
p54
sg35
g36
sg37
g38
sg39
S'2050'
p55
ssS'Bio1'
p56
(dp57
g6
S'ac4550_Bio1'
p58
sg8
I39
sg9
S'Bio1'
p59
sg11
S'Annual Mean Temperature'
p60
sg13
S'45'
p61
sg15
S'ac4550'
p62
sg17
S'../views/GTiff/clim.ac4550_Bio1.tif'
p63
sg19
S'climate'
p64
sg21
S'5203'
p65
sg23
S'Annual Mean Temperature AC RCP45 2050'
p66
sg25
g26
sg27
S'clim'
p67
sg29
g30
sg31
S'clim.ac4550_Bio1.tif'
p68
sg33
S'clim.ac4550_Bio1'
p69
sg35
g36
sg37
g38
sg39
S'2050'
p70
ssS'Bio3'
p71
(dp72
g6
S'ac4550_Bio3'
p73
sg8
I27
sg9
S'Bio3'
p74
sg11
S'Isothermality (BIO2/BIO7) (* 100)'
p75
sg13
S'45'
p76
sg15
S'ac4550'
p77
sg17
S'../views/GTiff/clim.ac4550_Bio3.tif'
p78
sg19
S'climate'
p79
sg21
S'5204'
p80
sg23
S'Isothermality (BIO2/BIO7) (* 100) AC RCP45 2050'
p81
sg25
g26
sg27
S'clim'
p82
sg29
g30
sg31
S'clim.ac4550_Bio3.tif'
p83
sg33
S'clim.ac4550_Bio3'
p84
sg35
g36
sg37
g38
sg39
S'2050'
p85
ssS'Bio5'
p86
(dp87
g6
S'ac4550_Bio5'
p88
sg8
I47
sg9
S'Bio5'
p89
sg11
S'Max Temperature of Warmest Month'
p90
sg13
S'45'
p91
sg15
S'ac4550'
p92
sg17
S'../views/GTiff/clim.ac4550_Bio5.tif'
p93
sg19
S'climate'
p94
sg21
S'5205'
p95
sg23
S'Max Temperature of Warmest Month AC RCP45 2050'
p96
sg25
g26
sg27
S'clim'
p97
sg29
g30
sg31
S'clim.ac4550_Bio5.tif'
p98
sg33
S'clim.ac4550_Bio5'
p99
sg35
g36
sg37
g38
sg39
S'2050'
p100
ssS'Bio14'
p101
(dp102
g6
S'ac4550_Bio14'
p103
sg8
I22
sg9
S'Bio14'
p104
sg11
S'Precipitation of Driest Month'
p105
sg13
S'45'
p106
sg15
S'ac4550'
p107
sg17
S'../views/GTiff/clim.ac4550_Bio14.tif'
p108
sg19
S'climate'
p109
sg21
S'5206'
p110
sg23
S'Precipitation of Driest Month AC RCP45 2050'
p111
sg25
g26
sg27
S'clim'
p112
sg29
g30
sg31
S'clim.ac4550_Bio14.tif'
p113
sg33
S'clim.ac4550_Bio14'
p114
sg35
g36
sg37
g38
sg39
S'2050'
p115
ssS'Bio10'
p116
(dp117
g6
S'ac4550_Bio10'
p118
sg8
I18
sg9
S'Bio10'
p119
sg11
S'Mean Temperature of Warmest Quarter'
p120
sg13
S'45'
p121
sg15
S'ac4550'
p122
sg17
S'../views/GTiff/clim.ac4550_Bio10.tif'
p123
sg19
S'climate'
p124
sg21
S'5207'
p125
sg23
S'Mean Temperature of Warmest Quarter AC RCP45 2050'
p126
sg25
g26
sg27
S'clim'
p127
sg29
g30
sg31
S'clim.ac4550_Bio10.tif'
p128
sg33
S'clim.ac4550_Bio10'
p129
sg35
g36
sg37
g38
sg39
S'2050'
p130
ssS'Bio11'
p131
(dp132
g6
S'ac4550_Bio11'
p133
sg8
I8
sg9
S'Bio11'
p134
sg11
S'Mean Temperature of Coldest Quarter'
p135
sg13
S'45'
p136
sg15
S'ac4550'
p137
sg17
S'../views/GTiff/clim.ac4550_Bio11.tif'
p138
sg19
S'climate'
p139
sg21
S'5208'
p140
sg23
S'Mean Temperature of Coldest Quarter AC RCP45 2050'
p141
sg25
g26
sg27
S'clim'
p142
sg29
g30
sg31
S'clim.ac4550_Bio11.tif'
p143
sg33
S'clim.ac4550_Bio11'
p144
sg35
g36
sg37
g38
sg39
S'2050'
p145
ssS'Bio12'
p146
(dp147
g6
S'ac4550_Bio12'
p148
sg8
I44
sg9
S'Bio12'
p149
sg11
S'Annual Precipitation'
p150
sg13
S'45'
p151
sg15
S'ac4550'
p152
sg17
S'../views/GTiff/clim.ac4550_Bio12.tif'
p153
sg19
S'climate'
p154
sg21
S'5209'
p155
sg23
S'Annual Precipitation AC RCP45 2050'
p156
sg25
g26
sg27
S'clim'
p157
sg29
g30
sg31
S'clim.ac4550_Bio12.tif'
p158
sg33
S'clim.ac4550_Bio12'
p159
sg35
g36
sg37
g38
sg39
S'2050'
p160
ssS'Bio13'
p161
(dp162
g6
S'ac4550_Bio13'
p163
sg8
I2
sg9
S'Bio13'
p164
sg11
S'Precipitation of Wettest Month'
p165
sg13
S'45'
p166
sg15
g2
sg17
S'../views/GTiff/clim.ac4550_Bio13.tif'
p167
sg19
S'climate'
p168
sg21
S'5210'
p169
sg23
S'Precipitation of Wettest Month AC RCP45 2050'
p170
sg25
g26
sg27
S'clim'
p171
sg29
g30
sg31
S'clim.ac4550_Bio13.tif'
p172
sg33
S'clim.ac4550_Bio13'
p173
sg35
g36
sg37
g38
sg39
S'2050'
p174
ssS'Bio6'
p175
(dp176
g6
S'ac4550_Bio6'
p177
sg8
I17
sg9
S'Bio6'
p178
sg11
S'Min Temperature of Coldest Month'
p179
sg13
S'45'
p180
sg15
S'ac4550'
p181
sg17
S'../views/GTiff/clim.ac4550_Bio6.tif'
p182
sg19
S'climate'
p183
sg21
S'5211'
p184
sg23
S'Min Temperature of Coldest Month AC RCP45 2050'
p185
sg25
g26
sg27
S'clim'
p186
sg29
g30
sg31
S'clim.ac4550_Bio6.tif'
p187
sg33
S'clim.ac4550_Bio6'
p188
sg35
g36
sg37
g38
sg39
S'2050'
p189
ssS'Bio15'
p190
(dp191
g6
S'ac4550_Bio15'
p192
sg8
I16
sg9
S'Bio15'
p193
sg11
S'Precipitation Seasonality (Coefficient of Variation)'
p194
sg13
S'45'
p195
sg15
S'ac4550'
p196
sg17
S'../views/GTiff/clim.ac4550_Bio15.tif'
p197
sg19
S'climate'
p198
sg21
S'5212'
p199
sg23
S'Precipitation Seasonality (Coefficient of Variation) AC RCP45 2050'
p200
sg25
g26
sg27
S'clim'
p201
sg29
g30
sg31
S'clim.ac4550_Bio15.tif'
p202
sg33
S'clim.ac4550_Bio15'
p203
sg35
g36
sg37
g38
sg39
S'2050'
p204
ssS'Bio16'
p205
(dp206
g6
S'ac4550_Bio16'
p207
sg8
I24
sg9
S'Bio16'
p208
sg11
S'Precipitation of Wettest Quarter'
p209
sg13
S'45'
p210
sg15
S'ac4550'
p211
sg17
S'../views/GTiff/clim.ac4550_Bio16.tif'
p212
sg19
S'climate'
p213
sg21
S'5213'
p214
sg23
S'Precipitation of Wettest Quarter AC RCP45 2050'
p215
sg25
g26
sg27
S'clim'
p216
sg29
g30
sg31
S'clim.ac4550_Bio16.tif'
p217
sg33
S'clim.ac4550_Bio16'
p218
sg35
g36
sg37
g38
sg39
S'2050'
p219
ssS'Bio17'
p220
(dp221
g6
S'ac4550_Bio17'
p222
sg8
I5
sg9
S'Bio17'
p223
sg11
S'Precipitation of Driest Quarter'
p224
sg13
S'45'
p225
sg15
S'ac4550'
p226
sg17
S'../views/GTiff/clim.ac4550_Bio17.tif'
p227
sg19
S'climate'
p228
sg21
S'5214'
p229
sg23
S'Precipitation of Driest Quarter AC RCP45 2050'
p230
sg25
g26
sg27
S'clim'
p231
sg29
g30
sg31
S'clim.ac4550_Bio17.tif'
p232
sg33
S'clim.ac4550_Bio17'
p233
sg35
g36
sg37
g38
sg39
S'2050'
p234
ssS'Bio18'
p235
(dp236
g6
S'ac4550_Bio18'
p237
sg8
I40
sg9
S'Bio18'
p238
sg11
S'Precipitation of Warmest Quarter'
p239
sg13
S'45'
p240
sg15
S'ac4550'
p241
sg17
S'../views/GTiff/clim.ac4550_Bio18.tif'
p242
sg19
S'climate'
p243
sg21
S'5215'
p244
sg23
S'Precipitation of Warmest Quarter AC RCP45 2050'
p245
sg25
g26
sg27
S'clim'
p246
sg29
g30
sg31
S'clim.ac4550_Bio18.tif'
p247
sg33
S'clim.ac4550_Bio18'
p248
sg35
g36
sg37
g38
sg39
S'2050'
p249
ssS'Bio19'
p250
(dp251
g6
S'ac4550_Bio19'
p252
sg8
I19
sg9
S'Bio19'
p253
sg11
S'Precipitation of Coldest Quarter'
p254
sg13
S'45'
p255
sg15
S'ac4550'
p256
sg17
S'../views/GTiff/clim.ac4550_Bio19.tif'
p257
sg19
S'climate'
p258
sg21
S'5216'
p259
sg23
S'Precipitation of Coldest Quarter AC RCP45 2050'
p260
sg25
g26
sg27
S'clim'
p261
sg29
g30
sg31
S'clim.ac4550_Bio19.tif'
p262
sg33
S'clim.ac4550_Bio19'
p263
sg35
g36
sg37
g38
sg39
S'2050'
p264
ssS'Bio8'
p265
(dp266
g6
S'ac4550_Bio8'
p267
sg8
I23
sg9
S'Bio8'
p268
sg11
S'Mean Temperature of Wettest Quarter'
p269
sg13
S'45'
p270
sg15
S'ac4550'
p271
sg17
S'../views/GTiff/clim.ac4550_Bio8.tif'
p272
sg19
S'climate'
p273
sg21
S'5217'
p274
sg23
S'Mean Temperature of Wettest Quarter AC RCP45 2050'
p275
sg25
g26
sg27
S'clim'
p276
sg29
g30
sg31
S'clim.ac4550_Bio8.tif'
p277
sg33
S'clim.ac4550_Bio8'
p278
sg35
g36
sg37
g38
sg39
S'2050'
p279
ssS'Bio9'
p280
(dp281
g6
S'ac4550_Bio9'
p282
sg8
I29
sg9
S'Bio9'
p283
sg11
S'Mean Temperature of Driest Quarter'
p284
sg13
S'45'
p285
sg15
S'ac4550'
p286
sg17
S'../views/GTiff/clim.ac4550_Bio9.tif'
p287
sg19
S'climate'
p288
sg21
S'5218'
p289
sg23
S'Mean Temperature of Driest Quarter AC RCP45 2050'
p290
sg25
g26
sg27
S'clim'
p291
sg29
g30
sg31
S'clim.ac4550_Bio9.tif'
p292
sg33
S'clim.ac4550_Bio9'
p293
sg35
g36
sg37
g38
sg39
S'2050'
p294
ssS'Bio7'
p295
(dp296
g6
S'ac4550_Bio7'
p297
sg8
I26
sg9
S'Bio7'
p298
sg11
S'Temperature Annual Range (BIO5-BIO6)'
p299
sg13
S'45'
p300
sg15
S'ac4550'
p301
sg17
S'../views/GTiff/clim.ac4550_Bio7.tif'
p302
sg19
S'climate'
p303
sg21
S'5219'
p304
sg23
S'Temperature Annual Range (BIO5-BIO6) AC RCP45 2050'
p305
sg25
g26
sg27
S'clim'
p306
sg29
g30
sg31
S'clim.ac4550_Bio7.tif'
p307
sg33
S'clim.ac4550_Bio7'
p308
sg35
g36
sg37
g38
sg39
S'2050'
p309
sssS'ac4570'
p310
(dp311
S'Bio10'
p312
(dp313
g6
S'ac4570_Bio10'
p314
sg8
I28
sg9
S'Bio10'
p315
sg11
S'Mean Temperature of Warmest Quarter'
p316
sg13
S'45'
p317
sg15
S'ac4570'
p318
sg17
S'../views/GTiff/clim.ac4570_Bio10.tif'
p319
sg19
S'climate'
p320
sg21
S'5220'
p321
sg23
S'Mean Temperature of Warmest Quarter AC RCP45 2070'
p322
sg25
g26
sg27
S'clim'
p323
sg29
g30
sg31
S'clim.ac4570_Bio10.tif'
p324
sg33
S'clim.ac4570_Bio10'
p325
sg35
g36
sg37
g38
sg39
S'2070'
p326
ssS'Bio17'
p327
(dp328
g6
S'ac4570_Bio17'
p329
sg8
I56
sg9
S'Bio17'
p330
sg11
S'Precipitation of Driest Quarter'
p331
sg13
S'45'
p332
sg15
S'ac4570'
p333
sg17
S'../views/GTiff/clim.ac4570_Bio17.tif'
p334
sg19
S'climate'
p335
sg21
S'5221'
p336
sg23
S'Precipitation of Driest Quarter AC RCP45 2070'
p337
sg25
g26
sg27
S'clim'
p338
sg29
g30
sg31
S'clim.ac4570_Bio17.tif'
p339
sg33
S'clim.ac4570_Bio17'
p340
sg35
g36
sg37
g38
sg39
S'2070'
p341
ssS'Bio4'
p342
(dp343
g6
S'ac4570_Bio4'
p344
sg8
I45
sg9
S'Bio4'
p345
sg11
S'Temperature Seasonality (standard deviation *100)'
p346
sg13
S'45'
p347
sg15
S'ac4570'
p348
sg17
S'../views/GTiff/clim.ac4570_Bio4.tif'
p349
sg19
S'climate'
p350
sg21
S'5222'
p351
sg23
S'Temperature Seasonality (standard deviation *100) AC RCP45 2070'
p352
sg25
g26
sg27
S'clim'
p353
sg29
g30
sg31
S'clim.ac4570_Bio4.tif'
p354
sg33
S'clim.ac4570_Bio4'
p355
sg35
g36
sg37
g38
sg39
S'2070'
p356
ssS'Bio1'
p357
(dp358
g6
S'ac4570_Bio1'
p359
sg8
I31
sg9
S'Bio1'
p360
sg11
S'Annual Mean Temperature'
p361
sg13
S'45'
p362
sg15
S'ac4570'
p363
sg17
S'../views/GTiff/clim.ac4570_Bio1.tif'
p364
sg19
S'climate'
p365
sg21
S'5223'
p366
sg23
S'Annual Mean Temperature AC RCP45 2070'
p367
sg25
g26
sg27
S'clim'
p368
sg29
g30
sg31
S'clim.ac4570_Bio1.tif'
p369
sg33
S'clim.ac4570_Bio1'
p370
sg35
g36
sg37
g38
sg39
S'2070'
p371
ssS'Bio11'
p372
(dp373
g6
S'ac4570_Bio11'
p374
sg8
I50
sg9
S'Bio11'
p375
sg11
S'Mean Temperature of Coldest Quarter'
p376
sg13
S'45'
p377
sg15
S'ac4570'
p378
sg17
S'../views/GTiff/clim.ac4570_Bio11.tif'
p379
sg19
S'climate'
p380
sg21
S'5224'
p381
sg23
S'Mean Temperature of Coldest Quarter AC RCP45 2070'
p382
sg25
g26
sg27
S'clim'
p383
sg29
g30
sg31
S'clim.ac4570_Bio11.tif'
p384
sg33
S'clim.ac4570_Bio11'
p385
sg35
g36
sg37
g38
sg39
S'2070'
p386
ssS'Bio5'
p387
(dp388
g6
S'ac4570_Bio5'
p389
sg8
I54
sg9
S'Bio5'
p390
sg11
S'Max Temperature of Warmest Month'
p391
sg13
S'45'
p392
sg15
S'ac4570'
p393
sg17
S'../views/GTiff/clim.ac4570_Bio5.tif'
p394
sg19
S'climate'
p395
sg21
S'5225'
p396
sg23
S'Max Temperature of Warmest Month AC RCP45 2070'
p397
sg25
g26
sg27
S'clim'
p398
sg29
g30
sg31
S'clim.ac4570_Bio5.tif'
p399
sg33
S'clim.ac4570_Bio5'
p400
sg35
g36
sg37
g38
sg39
S'2070'
p401
ssS'Bio2'
p402
(dp403
g6
S'ac4570_Bio2'
p404
sg8
I6
sg9
S'Bio2'
p405
sg11
S'Mean Diurnal Range (Mean of monthly (max temp - min temp))'
p406
sg13
S'45'
p407
sg15
S'ac4570'
p408
sg17
S'../views/GTiff/clim.ac4570_Bio2.tif'
p409
sg19
S'climate'
p410
sg21
S'5226'
p411
sg23
S'Mean Diurnal Range (Mean of monthly (max temp - min temp)) AC RCP45 2070'
p412
sg25
g26
sg27
S'clim'
p413
sg29
g30
sg31
S'clim.ac4570_Bio2.tif'
p414
sg33
S'clim.ac4570_Bio2'
p415
sg35
g36
sg37
g38
sg39
S'2070'
p416
ssS'Bio3'
p417
(dp418
g6
S'ac4570_Bio3'
p419
sg8
I0
sg9
S'Bio3'
p420
sg11
S'Isothermality (BIO2/BIO7) (* 100)'
p421
sg13
S'45'
p422
sg15
g310
sg17
S'../views/GTiff/clim.ac4570_Bio3.tif'
p423
sg19
S'climate'
p424
sg21
S'5227'
p425
sg23
S'Isothermality (BIO2/BIO7) (* 100) AC RCP45 2070'
p426
sg25
g26
sg27
S'clim'
p427
sg29
g30
sg31
S'clim.ac4570_Bio3.tif'
p428
sg33
S'clim.ac4570_Bio3'
p429
sg35
g36
sg37
g38
sg39
S'2070'
p430
ssS'Bio12'
p431
(dp432
g6
S'ac4570_Bio12'
p433
sg8
I51
sg9
S'Bio12'
p434
sg11
S'Annual Precipitation'
p435
sg13
S'45'
p436
sg15
S'ac4570'
p437
sg17
S'../views/GTiff/clim.ac4570_Bio12.tif'
p438
sg19
S'climate'
p439
sg21
S'5228'
p440
sg23
S'Annual Precipitation AC RCP45 2070'
p441
sg25
g26
sg27
S'clim'
p442
sg29
g30
sg31
S'clim.ac4570_Bio12.tif'
p443
sg33
S'clim.ac4570_Bio12'
p444
sg35
g36
sg37
g38
sg39
S'2070'
p445
ssS'Bio13'
p446
(dp447
g6
S'ac4570_Bio13'
p448
sg8
I20
sg9
S'Bio13'
p449
sg11
S'Precipitation of Wettest Month'
p450
sg13
S'45'
p451
sg15
S'ac4570'
p452
sg17
S'../views/GTiff/clim.ac4570_Bio13.tif'
p453
sg19
S'climate'
p454
sg21
S'5229'
p455
sg23
S'Precipitation of Wettest Month AC RCP45 2070'
p456
sg25
g26
sg27
S'clim'
p457
sg29
g30
sg31
S'clim.ac4570_Bio13.tif'
p458
sg33
S'clim.ac4570_Bio13'
p459
sg35
g36
sg37
g38
sg39
S'2070'
p460
ssS'Bio6'
p461
(dp462
g6
S'ac4570_Bio6'
p463
sg8
I3
sg9
S'Bio6'
p464
sg11
S'Min Temperature of Coldest Month'
p465
sg13
S'45'
p466
sg15
S'ac4570'
p467
sg17
S'../views/GTiff/clim.ac4570_Bio6.tif'
p468
sg19
S'climate'
p469
sg21
S'5230'
p470
sg23
S'Min Temperature of Coldest Month AC RCP45 2070'
p471
sg25
g26
sg27
S'clim'
p472
sg29
g30
sg31
S'clim.ac4570_Bio6.tif'
p473
sg33
S'clim.ac4570_Bio6'
p474
sg35
g36
sg37
g38
sg39
S'2070'
p475
ssS'Bio15'
p476
(dp477
g6
S'ac4570_Bio15'
p478
sg8
I9
sg9
S'Bio15'
p479
sg11
S'Precipitation Seasonality (Coefficient of Variation)'
p480
sg13
S'45'
p481
sg15
S'ac4570'
p482
sg17
S'../views/GTiff/clim.ac4570_Bio15.tif'
p483
sg19
S'climate'
p484
sg21
S'5231'
p485
sg23
S'Precipitation Seasonality (Coefficient of Variation) AC RCP45 2070'
p486
sg25
g26
sg27
S'clim'
p487
sg29
g30
sg31
S'clim.ac4570_Bio15.tif'
p488
sg33
S'clim.ac4570_Bio15'
p489
sg35
g36
sg37
g38
sg39
S'2070'
p490
ssS'Bio16'
p491
(dp492
g6
S'ac4570_Bio16'
p493
sg8
I4
sg9
S'Bio16'
p494
sg11
S'Precipitation of Wettest Quarter'
p495
sg13
S'45'
p496
sg15
S'ac4570'
p497
sg17
S'../views/GTiff/clim.ac4570_Bio16.tif'
p498
sg19
S'climate'
p499
sg21
S'5232'
p500
sg23
S'Precipitation of Wettest Quarter AC RCP45 2070'
p501
sg25
g26
sg27
S'clim'
p502
sg29
g30
sg31
S'clim.ac4570_Bio16.tif'
p503
sg33
S'clim.ac4570_Bio16'
p504
sg35
g36
sg37
g38
sg39
S'2070'
p505
ssS'Bio19'
p506
(dp507
g6
S'ac4570_Bio19'
p508
sg8
I52
sg9
S'Bio19'
p509
sg11
S'Precipitation of Coldest Quarter'
p510
sg13
S'45'
p511
sg15
S'ac4570'
p512
sg17
S'../views/GTiff/clim.ac4570_Bio19.tif'
p513
sg19
S'climate'
p514
sg21
S'5233'
p515
sg23
S'Precipitation of Coldest Quarter AC RCP45 2070'
p516
sg25
g26
sg27
S'clim'
p517
sg29
g30
sg31
S'clim.ac4570_Bio19.tif'
p518
sg33
S'clim.ac4570_Bio19'
p519
sg35
g36
sg37
g38
sg39
S'2070'
p520
ssS'Bio18'
p521
(dp522
g6
S'ac4570_Bio18'
p523
sg8
I37
sg9
S'Bio18'
p524
sg11
S'Precipitation of Warmest Quarter'
p525
sg13
S'45'
p526
sg15
S'ac4570'
p527
sg17
S'../views/GTiff/clim.ac4570_Bio18.tif'
p528
sg19
S'climate'
p529
sg21
S'5234'
p530
sg23
S'Precipitation of Warmest Quarter AC RCP45 2070'
p531
sg25
g26
sg27
S'clim'
p532
sg29
g30
sg31
S'clim.ac4570_Bio18.tif'
p533
sg33
S'clim.ac4570_Bio18'
p534
sg35
g36
sg37
g38
sg39
S'2070'
p535
ssS'Bio14'
p536
(dp537
g6
S'ac4570_Bio14'
p538
sg8
I41
sg9
S'Bio14'
p539
sg11
S'Precipitation of Driest Month'
p540
sg13
S'45'
p541
sg15
S'ac4570'
p542
sg17
S'../views/GTiff/clim.ac4570_Bio14.tif'
p543
sg19
S'climate'
p544
sg21
S'5235'
p545
sg23
S'Precipitation of Driest Month AC RCP45 2070'
p546
sg25
g26
sg27
S'clim'
p547
sg29
g30
sg31
S'clim.ac4570_Bio14.tif'
p548
sg33
S'clim.ac4570_Bio14'
p549
sg35
g36
sg37
g38
sg39
S'2070'
p550
ssS'Bio8'
p551
(dp552
g6
S'ac4570_Bio8'
p553
sg8
I12
sg9
S'Bio8'
p554
sg11
S'Mean Temperature of Wettest Quarter'
p555
sg13
S'45'
p556
sg15
S'ac4570'
p557
sg17
S'../views/GTiff/clim.ac4570_Bio8.tif'
p558
sg19
S'climate'
p559
sg21
S'5236'
p560
sg23
S'Mean Temperature of Wettest Quarter AC RCP45 2070'
p561
sg25
g26
sg27
S'clim'
p562
sg29
g30
sg31
S'clim.ac4570_Bio8.tif'
p563
sg33
S'clim.ac4570_Bio8'
p564
sg35
g36
sg37
g38
sg39
S'2070'
p565
ssS'Bio9'
p566
(dp567
g6
S'ac4570_Bio9'
p568
sg8
I48
sg9
S'Bio9'
p569
sg11
S'Mean Temperature of Driest Quarter'
p570
sg13
S'45'
p571
sg15
S'ac4570'
p572
sg17
S'../views/GTiff/clim.ac4570_Bio9.tif'
p573
sg19
S'climate'
p574
sg21
S'5237'
p575
sg23
S'Mean Temperature of Driest Quarter AC RCP45 2070'
p576
sg25
g26
sg27
S'clim'
p577
sg29
g30
sg31
S'clim.ac4570_Bio9.tif'
p578
sg33
S'clim.ac4570_Bio9'
p579
sg35
g36
sg37
g38
sg39
S'2070'
p580
ssS'Bio7'
p581
(dp582
g6
S'ac4570_Bio7'
p583
sg8
I42
sg9
S'Bio7'
p584
sg11
S'Temperature Annual Range (BIO5-BIO6)'
p585
sg13
S'45'
p586
sg15
S'ac4570'
p587
sg17
S'../views/GTiff/clim.ac4570_Bio7.tif'
p588
sg19
S'climate'
p589
sg21
S'5238'
p590
sg23
S'Temperature Annual Range (BIO5-BIO6) AC RCP45 2070'
p591
sg25
g26
sg27
S'clim'
p592
sg29
g30
sg31
S'clim.ac4570_Bio7.tif'
p593
sg33
S'clim.ac4570_Bio7'
p594
sg35
g36
sg37
g38
sg39
S'2070'
p595
sssS'CURR'
p596
(dp597
S'Bio2'
p598
(dp599
g6
S'CURR_Bio2'
p600
sg8
I34
sg9
S'Bio2'
p601
sg11
S'Mean Diurnal Range (Mean of monthly (max temp - min temp))'
p602
sg13
S'Present'
p603
sg15
S'CURR'
p604
sg17
S'../views/GTiff/clim.CURR_Bio2.tif'
p605
sg19
S'climate'
p606
sg21
S'5239'
p607
sg23
S'Mean Diurnal Range (Mean of monthly (max temp - min temp)) Current Climate 1960-2000'
p608
sg25
g26
sg27
S'clim'
p609
sg29
g30
sg31
S'clim.CURR_Bio2.tif'
p610
sg33
S'clim.CURR_Bio2'
p611
sg35
g36
sg37
g38
sg39
S'Present'
p612
ssS'Bio11'
p613
(dp614
g6
S'CURR_Bio11'
p615
sg8
I43
sg9
S'Bio11'
p616
sg11
S'Mean Temperature of Coldest Quarter'
p617
sg13
S'Present'
p618
sg15
S'CURR'
p619
sg17
S'../views/GTiff/clim.CURR_Bio11.tif'
p620
sg19
S'climate'
p621
sg21
S'5240'
p622
sg23
S'Mean Temperature of Coldest Quarter Current Climate 1960-2000'
p623
sg25
g26
sg27
S'clim'
p624
sg29
g30
sg31
S'clim.CURR_Bio11.tif'
p625
sg33
S'clim.CURR_Bio11'
p626
sg35
g36
sg37
g38
sg39
S'Present'
p627
ssS'Bio16'
p628
(dp629
g6
S'CURR_Bio16'
p630
sg8
I46
sg9
S'Bio16'
p631
sg11
S'Precipitation of Wettest Quarter'
p632
sg13
S'Present'
p633
sg15
S'CURR'
p634
sg17
S'../views/GTiff/clim.CURR_Bio16.tif'
p635
sg19
S'climate'
p636
sg21
S'5241'
p637
sg23
S'Precipitation of Wettest Quarter Current Climate 1960-2000'
p638
sg25
g26
sg27
S'clim'
p639
sg29
g30
sg31
S'clim.CURR_Bio16.tif'
p640
sg33
S'clim.CURR_Bio16'
p641
sg35
g36
sg37
g38
sg39
S'Present'
p642
ssS'Bio1'
p643
(dp644
g6
S'CURR_Bio1'
p645
sg8
I35
sg9
S'Bio1'
p646
sg11
S'Annual Mean Temperature'
p647
sg13
S'Present'
p648
sg15
S'CURR'
p649
sg17
S'../views/GTiff/clim.CURR_Bio1.tif'
p650
sg19
S'climate'
p651
sg21
S'5242'
p652
sg23
S'Annual Mean Temperature Current Climate 1960-2000'
p653
sg25
g26
sg27
S'clim'
p654
sg29
g30
sg31
S'clim.CURR_Bio1.tif'
p655
sg33
S'clim.CURR_Bio1'
p656
sg35
g36
sg37
g38
sg39
S'Present'
p657
ssS'Bio3'
p658
(dp659
g6
S'CURR_Bio3'
p660
sg8
I33
sg9
S'Bio3'
p661
sg11
S'Isothermality (BIO2/BIO7) (* 100)'
p662
sg13
S'Present'
p663
sg15
S'CURR'
p664
sg17
S'../views/GTiff/clim.CURR_Bio3.tif'
p665
sg19
S'climate'
p666
sg21
S'5243'
p667
sg23
S'Isothermality (BIO2/BIO7) (* 100) Current Climate 1960-2000'
p668
sg25
g26
sg27
S'clim'
p669
sg29
g30
sg31
S'clim.CURR_Bio3.tif'
p670
sg33
S'clim.CURR_Bio3'
p671
sg35
g36
sg37
g38
sg39
S'Present'
p672
ssS'Bio17'
p673
(dp674
g6
S'CURR_Bio17'
p675
sg8
I11
sg9
S'Bio17'
p676
sg11
S'Precipitation of Driest Quarter'
p677
sg13
S'Present'
p678
sg15
S'CURR'
p679
sg17
S'../views/GTiff/clim.CURR_Bio17.tif'
p680
sg19
S'climate'
p681
sg21
S'5244'
p682
sg23
S'Precipitation of Driest Quarter Current Climate 1960-2000'
p683
sg25
g26
sg27
S'clim'
p684
sg29
g30
sg31
S'clim.CURR_Bio17.tif'
p685
sg33
S'clim.CURR_Bio17'
p686
sg35
g36
sg37
g38
sg39
S'Present'
p687
ssS'Bio10'
p688
(dp689
g6
S'CURR_Bio10'
p690
sg8
I15
sg9
S'Bio10'
p691
sg11
S'Mean Temperature of Warmest Quarter'
p692
sg13
S'Present'
p693
sg15
S'CURR'
p694
sg17
S'../views/GTiff/clim.CURR_Bio10.tif'
p695
sg19
S'climate'
p696
sg21
S'5245'
p697
sg23
S'Mean Temperature of Warmest Quarter Current Climate 1960-2000'
p698
sg25
g26
sg27
S'clim'
p699
sg29
g30
sg31
S'clim.CURR_Bio10.tif'
p700
sg33
S'clim.CURR_Bio10'
p701
sg35
g36
sg37
g38
sg39
S'Present'
p702
ssS'Bio14'
p703
(dp704
g6
S'CURR_Bio14'
p705
sg8
I25
sg9
S'Bio14'
p706
sg11
S'Precipitation of Driest Month'
p707
sg13
S'Present'
p708
sg15
S'CURR'
p709
sg17
S'../views/GTiff/clim.CURR_Bio14.tif'
p710
sg19
S'climate'
p711
sg21
S'5246'
p712
sg23
S'Precipitation of Driest Month Current Climate 1960-2000'
p713
sg25
g26
sg27
S'clim'
p714
sg29
g30
sg31
S'clim.CURR_Bio14.tif'
p715
sg33
S'clim.CURR_Bio14'
p716
sg35
g36
sg37
g38
sg39
S'Present'
p717
ssS'Bio12'
p718
(dp719
g6
S'CURR_Bio12'
p720
sg8
I53
sg9
S'Bio12'
p721
sg11
S'Annual Precipitation'
p722
sg13
S'Present'
p723
sg15
S'CURR'
p724
sg17
S'../views/GTiff/clim.CURR_Bio12.tif'
p725
sg19
S'climate'
p726
sg21
S'5247'
p727
sg23
S'Annual Precipitation Current Climate 1960-2000'
p728
sg25
g26
sg27
S'clim'
p729
sg29
g30
sg31
S'clim.CURR_Bio12.tif'
p730
sg33
S'clim.CURR_Bio12'
p731
sg35
g36
sg37
g38
sg39
S'Present'
p732
ssS'Bio13'
p733
(dp734
g6
S'CURR_Bio13'
p735
sg8
I10
sg9
S'Bio13'
p736
sg11
S'Precipitation of Wettest Month'
p737
sg13
S'Present'
p738
sg15
S'CURR'
p739
sg17
S'../views/GTiff/clim.CURR_Bio13.tif'
p740
sg19
S'climate'
p741
sg21
S'5248'
p742
sg23
S'Precipitation of Wettest Month Current Climate 1960-2000'
p743
sg25
g26
sg27
S'clim'
p744
sg29
g30
sg31
S'clim.CURR_Bio13.tif'
p745
sg33
S'clim.CURR_Bio13'
p746
sg35
g36
sg37
g38
sg39
S'Present'
p747
ssS'Bio6'
p748
(dp749
g6
S'CURR_Bio6'
p750
sg8
I13
sg9
S'Bio6'
p751
sg11
S'Min Temperature of Coldest Month'
p752
sg13
S'Present'
p753
sg15
S'CURR'
p754
sg17
S'../views/GTiff/clim.CURR_Bio6.tif'
p755
sg19
S'climate'
p756
sg21
S'5249'
p757
sg23
S'Min Temperature of Coldest Month Current Climate 1960-2000'
p758
sg25
g26
sg27
S'clim'
p759
sg29
g30
sg31
S'clim.CURR_Bio6.tif'
p760
sg33
S'clim.CURR_Bio6'
p761
sg35
g36
sg37
g38
sg39
S'Present'
p762
ssS'Bio15'
p763
(dp764
g6
S'CURR_Bio15'
p765
sg8
I7
sg9
S'Bio15'
p766
sg11
S'Precipitation Seasonality (Coefficient of Variation)'
p767
sg13
S'Present'
p768
sg15
S'CURR'
p769
sg17
S'../views/GTiff/clim.CURR_Bio15.tif'
p770
sg19
S'climate'
p771
sg21
S'5250'
p772
sg23
S'Precipitation Seasonality (Coefficient of Variation) Current Climate 1960-2000'
p773
sg25
g26
sg27
S'clim'
p774
sg29
g30
sg31
S'clim.CURR_Bio15.tif'
p775
sg33
S'clim.CURR_Bio15'
p776
sg35
g36
sg37
g38
sg39
S'Present'
p777
ssS'Bio4'
p778
(dp779
g6
S'CURR_Bio4'
p780
sg8
I32
sg9
S'Bio4'
p781
sg11
S'Temperature Seasonality (standard deviation *100)'
p782
sg13
S'Present'
p783
sg15
S'CURR'
p784
sg17
S'../views/GTiff/clim.CURR_Bio4.tif'
p785
sg19
S'climate'
p786
sg21
S'5251'
p787
sg23
S'Temperature Seasonality (standard deviation *100) Current Climate 1960-2000'
p788
sg25
g26
sg27
S'clim'
p789
sg29
g30
sg31
S'clim.CURR_Bio4.tif'
p790
sg33
S'clim.CURR_Bio4'
p791
sg35
g36
sg37
g38
sg39
S'Present'
p792
ssS'Bio5'
p793
(dp794
g6
S'CURR_Bio5'
p795
sg8
I14
sg9
S'Bio5'
p796
sg11
S'Max Temperature of Warmest Month'
p797
sg13
S'Present'
p798
sg15
S'CURR'
p799
sg17
S'../views/GTiff/clim.CURR_Bio5.tif'
p800
sg19
S'climate'
p801
sg21
S'5252'
p802
sg23
S'Max Temperature of Warmest Month Current Climate 1960-2000'
p803
sg25
g26
sg27
S'clim'
p804
sg29
g30
sg31
S'clim.CURR_Bio5.tif'
p805
sg33
S'clim.CURR_Bio5'
p806
sg35
g36
sg37
g38
sg39
S'Present'
p807
ssS'Bio18'
p808
(dp809
g6
S'CURR_Bio18'
p810
sg8
I1
sg9
S'Bio18'
p811
sg11
S'Precipitation of Warmest Quarter'
p812
sg13
S'Present'
p813
sg15
g596
sg17
S'../views/GTiff/clim.CURR_Bio18.tif'
p814
sg19
S'climate'
p815
sg21
S'5253'
p816
sg23
S'Precipitation of Warmest Quarter Current Climate 1960-2000'
p817
sg25
g26
sg27
S'clim'
p818
sg29
g30
sg31
S'clim.CURR_Bio18.tif'
p819
sg33
S'clim.CURR_Bio18'
p820
sg35
g36
sg37
g38
sg39
S'Present'
p821
ssS'Bio19'
p822
(dp823
g6
S'CURR_Bio19'
p824
sg8
I21
sg9
S'Bio19'
p825
sg11
S'Precipitation of Coldest Quarter'
p826
sg13
S'Present'
p827
sg15
S'CURR'
p828
sg17
S'../views/GTiff/clim.CURR_Bio19.tif'
p829
sg19
S'climate'
p830
sg21
S'5254'
p831
sg23
S'Precipitation of Coldest Quarter Current Climate 1960-2000'
p832
sg25
g26
sg27
S'clim'
p833
sg29
g30
sg31
S'clim.CURR_Bio19.tif'
p834
sg33
S'clim.CURR_Bio19'
p835
sg35
g36
sg37
g38
sg39
S'Present'
p836
ssS'Bio8'
p837
(dp838
g6
S'CURR_Bio8'
p839
sg8
I49
sg9
S'Bio8'
p840
sg11
S'Mean Temperature of Wettest Quarter'
p841
sg13
S'Present'
p842
sg15
S'CURR'
p843
sg17
S'../views/GTiff/clim.CURR_Bio8.tif'
p844
sg19
S'climate'
p845
sg21
S'5255'
p846
sg23
S'Mean Temperature of Wettest Quarter Current Climate 1960-2000'
p847
sg25
g26
sg27
S'clim'
p848
sg29
g30
sg31
S'clim.CURR_Bio8.tif'
p849
sg33
S'clim.CURR_Bio8'
p850
sg35
g36
sg37
g38
sg39
S'Present'
p851
ssS'Bio9'
p852
(dp853
g6
S'CURR_Bio9'
p854
sg8
I36
sg9
S'Bio9'
p855
sg11
S'Mean Temperature of Driest Quarter'
p856
sg13
S'Present'
p857
sg15
S'CURR'
p858
sg17
S'../views/GTiff/clim.CURR_Bio9.tif'
p859
sg19
S'climate'
p860
sg21
S'5256'
p861
sg23
S'Mean Temperature of Driest Quarter Current Climate 1960-2000'
p862
sg25
g26
sg27
S'clim'
p863
sg29
g30
sg31
S'clim.CURR_Bio9.tif'
p864
sg33
S'clim.CURR_Bio9'
p865
sg35
g36
sg37
g38
sg39
S'Present'
p866
ssS'Bio7'
p867
(dp868
g6
S'CURR_Bio7'
p869
sg8
I38
sg9
S'Bio7'
p870
sg11
S'Temperature Annual Range (BIO5-BIO6)'
p871
sg13
S'Present'
p872
sg15
S'CURR'
p873
sg17
S'../views/GTiff/clim.CURR_Bio7.tif'
p874
sg19
S'climate'
p875
sg21
S'5257'
p876
sg23
S'Temperature Annual Range (BIO5-BIO6) Current Climate 1960-2000'
p877
sg25
g26
sg27
S'clim'
p878
sg29
g30
sg31
S'clim.CURR_Bio7.tif'
p879
sg33
S'clim.CURR_Bio7'
p880
sg35
g36
sg37
g38
sg39
S'Present'
p881
sss.