(dp1
S'bio1'
p2
(dp3
S'clim.ac4550_bio1'
p4
(dp5
S'envLayerType'
p6
S'AC4550_bio1'
p7
sS'Name'
p8
I420
sS'typeCode'
p9
S'Bio1'
p10
sS'typeCodeDescription'
p11
S'Annual Mean Temperature'
p12
sS'RCP'
p13
S'45'
p14
sS'bioclim'
p15
S'AC4550'
p16
sS'title'
p17
S'clim.AC4550_bio1.tif'
p18
sS'filterType'
p19
S'climate'
p20
sS'fileName'
p21
S'../views/GTiff/clim.AC4550_bio1.tif'
p22
sS'lyrID'
p23
S'4283'
p24
sS'layerDescription'
p25
S'Annual Mean Temperature AC RCP45 2050'
p26
sS'dataFormat'
p27
S'GTiff'
p28
sS'units'
p29
S'dd'
p30
sS'fullname'
p31
S'clim.ac4550_bio1'
p32
sS'resolution'
p33
S'2.5'
p34
sS'epsgCode'
p35
S'4326'
p36
sS'projectionDate'
p37
S'2050'
p38
ssS'clim.curr_bio1'
p39
(dp40
g6
S'CURR_bio1'
p41
sg8
I421
sg9
S'Bio1'
p42
sg11
S'Annual Mean Temperature'
p43
sg13
S'Present'
p44
sg15
S'CURR'
p45
sg17
S'clim.CURR_bio1.tif'
p46
sg19
S'climate'
p47
sg21
S'../views/GTiff/clim.CURR_bio1.tif'
p48
sg23
S'4284'
p49
sg25
S'Annual Mean Temperature Current Climate 1960-2000'
p50
sg27
g28
sg29
g30
sg31
S'clim.curr_bio1'
p51
sg33
g34
sg35
g36
sg37
S'Present'
p52
sssS'bio6'
p53
(dp54
S'clim.ac4550_bio6'
p55
(dp56
g6
S'AC4550_bio6'
p57
sg8
I423
sg9
S'Bio6'
p58
sg11
S'Min Temperature of Coldest Month'
p59
sg13
S'45'
p60
sg15
S'AC4550'
p61
sg17
S'clim.AC4550_bio6.tif'
p62
sg19
S'climate'
p63
sg21
S'../views/GTiff/clim.AC4550_bio6.tif'
p64
sg23
S'4285'
p65
sg25
S'Min Temperature of Coldest Month AC RCP45 2050'
p66
sg27
g28
sg29
g30
sg31
S'clim.ac4550_bio6'
p67
sg33
g34
sg35
g36
sg37
S'2050'
p68
ssS'clim.curr_bio6'
p69
(dp70
g6
S'CURR_bio6'
p71
sg8
I422
sg9
S'Bio6'
p72
sg11
S'Min Temperature of Coldest Month'
p73
sg13
S'Present'
p74
sg15
S'CURR'
p75
sg17
S'clim.CURR_bio6.tif'
p76
sg19
S'climate'
p77
sg21
S'../views/GTiff/clim.CURR_bio6.tif'
p78
sg23
S'4286'
p79
sg25
S'Min Temperature of Coldest Month Current Climate 1960-2000'
p80
sg27
g28
sg29
g30
sg31
S'clim.curr_bio6'
p81
sg33
g34
sg35
g36
sg37
S'Present'
p82
sss.