(dp1
S'CURR'
p2
(dp3
S'bio2'
p4
(dp5
S'envLayerType'
p6
S'CURR_bio2'
p7
sS'Name'
p8
I878
sS'typeCode'
p9
S'Bio2'
p10
sS'typeCodeDescription'
p11
S'Mean Diurnal Range (Mean of monthly (max temp - min temp))'
p12
sS'RCP'
p13
S'Present'
p14
sS'bioclim'
p15
S'CURR'
p16
sS'title'
p17
S'clim.CURR_bio2.tif'
p18
sS'filterType'
p19
S'climate'
p20
sS'fileName'
p21
S'../views/GTiff/clim.CURR_bio2.tif'
p22
sS'lyrID'
p23
S'4477'
p24
sS'layerDescription'
p25
S'Mean Diurnal Range (Mean of monthly (max temp - min temp)) Current Climate 1960-2000'
p26
sS'dataFormat'
p27
S'GTiff'
p28
sS'units'
p29
S'dd'
p30
sS'fullname'
p31
S'clim.CURR_bio2'
p32
sS'resolution'
p33
S'2.5'
p34
sS'epsgCode'
p35
S'4326'
p36
sS'projectionDate'
p37
S'Present'
p38
ssS'bio1'
p39
(dp40
g6
S'CURR_bio1'
p41
sg8
I877
sg9
S'Bio1'
p42
sg11
S'Annual Mean Temperature'
p43
sg13
S'Present'
p44
sg15
g2
sg17
S'clim.CURR_bio1.tif'
p45
sg19
S'climate'
p46
sg21
S'../views/GTiff/clim.CURR_bio1.tif'
p47
sg23
S'4478'
p48
sg25
S'Annual Mean Temperature Current Climate 1960-2000'
p49
sg27
g28
sg29
g30
sg31
S'clim.CURR_bio1'
p50
sg33
g34
sg35
g36
sg37
S'Present'
p51
sssS'AC4550'
p52
(dp53
S'bio2'
p54
(dp55
g6
S'AC4550_bio2'
p56
sg8
I875
sg9
S'Bio2'
p57
sg11
S'Mean Diurnal Range (Mean of monthly (max temp - min temp))'
p58
sg13
S'45'
p59
sg15
g52
sg17
S'clim.AC4550_bio2.tif'
p60
sg19
S'climate'
p61
sg21
S'../views/GTiff/clim.AC4550_bio2.tif'
p62
sg23
S'4479'
p63
sg25
S'Mean Diurnal Range (Mean of monthly (max temp - min temp)) AC RCP45 2050'
p64
sg27
g28
sg29
g30
sg31
S'clim.AC4550_bio2'
p65
sg33
g34
sg35
g36
sg37
S'2050'
p66
ssS'bio1'
p67
(dp68
g6
S'AC4550_bio1'
p69
sg8
I876
sg9
S'Bio1'
p70
sg11
S'Annual Mean Temperature'
p71
sg13
S'45'
p72
sg15
S'AC4550'
p73
sg17
S'clim.AC4550_bio1.tif'
p74
sg19
S'climate'
p75
sg21
S'../views/GTiff/clim.AC4550_bio1.tif'
p76
sg23
S'4480'
p77
sg25
S'Annual Mean Temperature AC RCP45 2050'
p78
sg27
g28
sg29
g30
sg31
S'clim.AC4550_bio1'
p79
sg33
g34
sg35
g36
sg37
S'2050'
p80
sss.