(dp1
S'current'
p2
(dp3
S'bio10'
p4
(dp5
S'envLayerType'
p6
S'current.bio10'
p7
sS'Name'
p8
I0
sS'typeCode'
p9
S'bio10'
p10
sS'typeCodeDescription'
p11
S'Mean Temperature of Warmest Quarter'
p12
sS'RCP'
p13
S'current'
p14
sS'bioclim'
p15
g2
sS'filePath'
p16
S'../views/GTiff/clim.current.bio10.tif'
p17
sS'filterType'
p18
S'climate'
p19
sS'lyrID'
p20
S'6125'
p21
sS'layerDescription'
p22
S'Mean Temperature of Warmest Quarter Current Climate 1960-2000'
p23
sS'dataFormat'
p24
S'GTiff'
p25
sS'base'
p26
S'clim'
p27
sS'units'
p28
S'dd'
p29
sS'title'
p30
S'clim.current.bio10.tif'
p31
sS'fullname'
p32
S'clim.current.bio10'
p33
sS'resolution'
p34
S'30'
p35
sS'epsgCode'
p36
I4326
sS'projectionDate'
p37
S'current'
p38
ssS'bio11'
p39
(dp40
g6
S'current.bio11'
p41
sg8
I2
sg9
S'bio11'
p42
sg11
S'Mean Temperature of Coldest Quarter'
p43
sg13
S'current'
p44
sg15
S'current'
p45
sg16
S'../views/GTiff/clim.current.bio11.tif'
p46
sg18
S'climate'
p47
sg20
S'6126'
p48
sg22
S'Mean Temperature of Coldest Quarter Current Climate 1960-2000'
p49
sg24
g25
sg26
S'clim'
p50
sg28
g29
sg30
S'clim.current.bio11.tif'
p51
sg32
S'clim.current.bio11'
p52
sg34
g35
sg36
I4326
sg37
S'current'
p53
ssS'bio12'
p54
(dp55
g6
S'current.bio12'
p56
sg8
I1
sg9
S'bio12'
p57
sg11
S'Annual Precipitation'
p58
sg13
S'current'
p59
sg15
S'current'
p60
sg16
S'../views/GTiff/clim.current.bio12.tif'
p61
sg18
S'climate'
p62
sg20
S'6127'
p63
sg22
S'Annual Precipitation Current Climate 1960-2000'
p64
sg24
g25
sg26
S'clim'
p65
sg28
g29
sg30
S'clim.current.bio12.tif'
p66
sg32
S'clim.current.bio12'
p67
sg34
g35
sg36
I4326
sg37
S'current'
p68
sss.