(dp1
S'AC4550'
p2
(dp3
S'bio10'
p4
(dp5
S'envLayerType'
p6
S'AC4550_bio10'
p7
sS'Name'
p8
I1077
sS'typeCode'
p9
S'Bio10'
p10
sS'typeCodeDescription'
p11
S'Mean Temperature of Warmest Quarter'
p12
sS'RCP'
p13
S'45'
p14
sS'bioclim'
p15
S'AC4550'
p16
sS'filePath'
p17
S'../views/GTiff/clim.AC4550_bio10.tif'
p18
sS'filterType'
p19
S'climate'
p20
sS'lyrID'
p21
S'4535'
p22
sS'layerDescription'
p23
S'Mean Temperature of Warmest Quarter AC RCP45 2050'
p24
sS'dataFormat'
p25
S'GTiff'
p26
sS'base'
p27
S'clim'
p28
sS'units'
p29
S'dd'
p30
sS'title'
p31
S'clim.AC4550_bio10.tif'
p32
sS'fullname'
p33
S'clim.AC4550_bio10'
p34
sS'resolution'
p35
S'2.5'
p36
sS'epsgCode'
p37
S'4326'
p38
sS'projectionDate'
p39
S'2050'
p40
ssS'bio13'
p41
(dp42
g6
S'AC4550_bio13'
p43
sg8
I1085
sg9
S'Bio13'
p44
sg11
S'Precipitation of Wettest Month'
p45
sg13
S'45'
p46
sg15
S'AC4550'
p47
sg17
S'../views/GTiff/clim.AC4550_bio13.tif'
p48
sg19
S'climate'
p49
sg21
S'4536'
p50
sg23
S'Precipitation of Wettest Month AC RCP45 2050'
p51
sg25
g26
sg27
S'clim'
p52
sg29
g30
sg31
S'clim.AC4550_bio13.tif'
p53
sg33
S'clim.AC4550_bio13'
p54
sg35
g36
sg37
g38
sg39
S'2050'
p55
ssS'bio14'
p56
(dp57
g6
S'AC4550_bio14'
p58
sg8
I1087
sg9
S'Bio14'
p59
sg11
S'Precipitation of Driest Month'
p60
sg13
S'45'
p61
sg15
S'AC4550'
p62
sg17
S'../views/GTiff/clim.AC4550_bio14.tif'
p63
sg19
S'climate'
p64
sg21
S'4537'
p65
sg23
S'Precipitation of Driest Month AC RCP45 2050'
p66
sg25
g26
sg27
S'clim'
p67
sg29
g30
sg31
S'clim.AC4550_bio14.tif'
p68
sg33
S'clim.AC4550_bio14'
p69
sg35
g36
sg37
g38
sg39
S'2050'
p70
ssS'bio2'
p71
(dp72
g6
S'AC4550_bio2'
p73
sg8
I1060
sg9
S'Bio2'
p74
sg11
S'Mean Diurnal Range (Mean of monthly (max temp - min temp))'
p75
sg13
S'45'
p76
sg15
S'AC4550'
p77
sg17
S'../views/GTiff/clim.AC4550_bio2.tif'
p78
sg19
S'climate'
p79
sg21
S'4538'
p80
sg23
S'Mean Diurnal Range (Mean of monthly (max temp - min temp)) AC RCP45 2050'
p81
sg25
g26
sg27
S'clim'
p82
sg29
g30
sg31
S'clim.AC4550_bio2.tif'
p83
sg33
S'clim.AC4550_bio2'
p84
sg35
g36
sg37
g38
sg39
S'2050'
p85
ssS'bio11'
p86
(dp87
g6
S'AC4550_bio11'
p88
sg8
I1067
sg9
S'Bio11'
p89
sg11
S'Mean Temperature of Coldest Quarter'
p90
sg13
S'45'
p91
sg15
S'AC4550'
p92
sg17
S'../views/GTiff/clim.AC4550_bio11.tif'
p93
sg19
S'climate'
p94
sg21
S'4539'
p95
sg23
S'Mean Temperature of Coldest Quarter AC RCP45 2050'
p96
sg25
g26
sg27
S'clim'
p97
sg29
g30
sg31
S'clim.AC4550_bio11.tif'
p98
sg33
S'clim.AC4550_bio11'
p99
sg35
g36
sg37
g38
sg39
S'2050'
p100
ssS'bio12'
p101
(dp102
g6
S'AC4550_bio12'
p103
sg8
I1072
sg9
S'Bio12'
p104
sg11
S'Annual Precipitation'
p105
sg13
S'45'
p106
sg15
S'AC4550'
p107
sg17
S'../views/GTiff/clim.AC4550_bio12.tif'
p108
sg19
S'climate'
p109
sg21
S'4540'
p110
sg23
S'Annual Precipitation AC RCP45 2050'
p111
sg25
g26
sg27
S'clim'
p112
sg29
g30
sg31
S'clim.AC4550_bio12.tif'
p113
sg33
S'clim.AC4550_bio12'
p114
sg35
g36
sg37
g38
sg39
S'2050'
p115
ssS'bio1'
p116
(dp117
g6
S'AC4550_bio1'
p118
sg8
I1069
sg9
S'Bio1'
p119
sg11
S'Annual Mean Temperature'
p120
sg13
S'45'
p121
sg15
S'AC4550'
p122
sg17
S'../views/GTiff/clim.AC4550_bio1.tif'
p123
sg19
S'climate'
p124
sg21
S'4541'
p125
sg23
S'Annual Mean Temperature AC RCP45 2050'
p126
sg25
g26
sg27
S'clim'
p127
sg29
g30
sg31
S'clim.AC4550_bio1.tif'
p128
sg33
S'clim.AC4550_bio1'
p129
sg35
g36
sg37
g38
sg39
S'2050'
p130
ssS'bio6'
p131
(dp132
g6
S'AC4550_bio6'
p133
sg8
I1055
sg9
S'Bio6'
p134
sg11
S'Min Temperature of Coldest Month'
p135
sg13
S'45'
p136
sg15
g2
sg17
S'../views/GTiff/clim.AC4550_bio6.tif'
p137
sg19
S'climate'
p138
sg21
S'4542'
p139
sg23
S'Min Temperature of Coldest Month AC RCP45 2050'
p140
sg25
g26
sg27
S'clim'
p141
sg29
g30
sg31
S'clim.AC4550_bio6.tif'
p142
sg33
S'clim.AC4550_bio6'
p143
sg35
g36
sg37
g38
sg39
S'2050'
p144
ssS'bio7'
p145
(dp146
g6
S'AC4550_bio7'
p147
sg8
I1063
sg9
S'Bio7'
p148
sg11
S'Temperature Annual Range (BIO5-BIO6)'
p149
sg13
S'45'
p150
sg15
S'AC4550'
p151
sg17
S'../views/GTiff/clim.AC4550_bio7.tif'
p152
sg19
S'climate'
p153
sg21
S'4543'
p154
sg23
S'Temperature Annual Range (BIO5-BIO6) AC RCP45 2050'
p155
sg25
g26
sg27
S'clim'
p156
sg29
g30
sg31
S'clim.AC4550_bio7.tif'
p157
sg33
S'clim.AC4550_bio7'
p158
sg35
g36
sg37
g38
sg39
S'2050'
p159
ssS'bio16'
p160
(dp161
g6
S'AC4550_bio16'
p162
sg8
I1076
sg9
S'Bio16'
p163
sg11
S'Precipitation of Wettest Quarter'
p164
sg13
S'45'
p165
sg15
S'AC4550'
p166
sg17
S'../views/GTiff/clim.AC4550_bio16.tif'
p167
sg19
S'climate'
p168
sg21
S'4544'
p169
sg23
S'Precipitation of Wettest Quarter AC RCP45 2050'
p170
sg25
g26
sg27
S'clim'
p171
sg29
g30
sg31
S'clim.AC4550_bio16.tif'
p172
sg33
S'clim.AC4550_bio16'
p173
sg35
g36
sg37
g38
sg39
S'2050'
p174
ssS'bio17'
p175
(dp176
g6
S'AC4550_bio17'
p177
sg8
I1058
sg9
S'Bio17'
p178
sg11
S'Precipitation of Driest Quarter'
p179
sg13
S'45'
p180
sg15
S'AC4550'
p181
sg17
S'../views/GTiff/clim.AC4550_bio17.tif'
p182
sg19
S'climate'
p183
sg21
S'4545'
p184
sg23
S'Precipitation of Driest Quarter AC RCP45 2050'
p185
sg25
g26
sg27
S'clim'
p186
sg29
g30
sg31
S'clim.AC4550_bio17.tif'
p187
sg33
S'clim.AC4550_bio17'
p188
sg35
g36
sg37
g38
sg39
S'2050'
p189
ssS'bio18'
p190
(dp191
g6
S'AC4550_bio18'
p192
sg8
I1101
sg9
S'Bio18'
p193
sg11
S'Precipitation of Warmest Quarter'
p194
sg13
S'45'
p195
sg15
S'AC4550'
p196
sg17
S'../views/GTiff/clim.AC4550_bio18.tif'
p197
sg19
S'climate'
p198
sg21
S'4546'
p199
sg23
S'Precipitation of Warmest Quarter AC RCP45 2050'
p200
sg25
g26
sg27
S'clim'
p201
sg29
g30
sg31
S'clim.AC4550_bio18.tif'
p202
sg33
S'clim.AC4550_bio18'
p203
sg35
g36
sg37
g38
sg39
S'2050'
p204
ssS'bio19'
p205
(dp206
g6
S'AC4550_bio19'
p207
sg8
I1082
sg9
S'Bio19'
p208
sg11
S'Precipitation of Coldest Quarter'
p209
sg13
S'45'
p210
sg15
S'AC4550'
p211
sg17
S'../views/GTiff/clim.AC4550_bio19.tif'
p212
sg19
S'climate'
p213
sg21
S'4547'
p214
sg23
S'Precipitation of Coldest Quarter AC RCP45 2050'
p215
sg25
g26
sg27
S'clim'
p216
sg29
g30
sg31
S'clim.AC4550_bio19.tif'
p217
sg33
S'clim.AC4550_bio19'
p218
sg35
g36
sg37
g38
sg39
S'2050'
p219
ssS'bio8'
p220
(dp221
g6
S'AC4550_bio8'
p222
sg8
I1086
sg9
S'Bio8'
p223
sg11
S'Mean Temperature of Wettest Quarter'
p224
sg13
S'45'
p225
sg15
S'AC4550'
p226
sg17
S'../views/GTiff/clim.AC4550_bio8.tif'
p227
sg19
S'climate'
p228
sg21
S'4548'
p229
sg23
S'Mean Temperature of Wettest Quarter AC RCP45 2050'
p230
sg25
g26
sg27
S'clim'
p231
sg29
g30
sg31
S'clim.AC4550_bio8.tif'
p232
sg33
S'clim.AC4550_bio8'
p233
sg35
g36
sg37
g38
sg39
S'2050'
p234
ssS'bio9'
p235
(dp236
g6
S'AC4550_bio9'
p237
sg8
I1091
sg9
S'Bio9'
p238
sg11
S'Mean Temperature of Driest Quarter'
p239
sg13
S'45'
p240
sg15
S'AC4550'
p241
sg17
S'../views/GTiff/clim.AC4550_bio9.tif'
p242
sg19
S'climate'
p243
sg21
S'4549'
p244
sg23
S'Mean Temperature of Driest Quarter AC RCP45 2050'
p245
sg25
g26
sg27
S'clim'
p246
sg29
g30
sg31
S'clim.AC4550_bio9.tif'
p247
sg33
S'clim.AC4550_bio9'
p248
sg35
g36
sg37
g38
sg39
S'2050'
p249
ssS'bio15'
p250
(dp251
g6
S'AC4550_bio15'
p252
sg8
I1096
sg9
S'Bio15'
p253
sg11
S'Precipitation Seasonality (Coefficient of Variation)'
p254
sg13
S'45'
p255
sg15
S'AC4550'
p256
sg17
S'../views/GTiff/clim.AC4550_bio15.tif'
p257
sg19
S'climate'
p258
sg21
S'4550'
p259
sg23
S'Precipitation Seasonality (Coefficient of Variation) AC RCP45 2050'
p260
sg25
g26
sg27
S'clim'
p261
sg29
g30
sg31
S'clim.AC4550_bio15.tif'
p262
sg33
S'clim.AC4550_bio15'
p263
sg35
g36
sg37
g38
sg39
S'2050'
p264
sssS'AC4570'
p265
(dp266
S'bio2'
p267
(dp268
g6
S'AC4570_bio2'
p269
sg8
I1089
sg9
S'Bio2'
p270
sg11
S'Mean Diurnal Range (Mean of monthly (max temp - min temp))'
p271
sg13
S'45'
p272
sg15
S'AC4570'
p273
sg17
S'../views/GTiff/clim.AC4570_bio2.tif'
p274
sg19
S'climate'
p275
sg21
S'4551'
p276
sg23
S'Mean Diurnal Range (Mean of monthly (max temp - min temp)) AC RCP45 2070'
p277
sg25
g26
sg27
S'clim'
p278
sg29
g30
sg31
S'clim.AC4570_bio2.tif'
p279
sg33
S'clim.AC4570_bio2'
p280
sg35
g36
sg37
g38
sg39
S'2070'
p281
ssS'bio19'
p282
(dp283
g6
S'AC4570_bio19'
p284
sg8
I1103
sg9
S'Bio19'
p285
sg11
S'Precipitation of Coldest Quarter'
p286
sg13
S'45'
p287
sg15
S'AC4570'
p288
sg17
S'../views/GTiff/clim.AC4570_bio19.tif'
p289
sg19
S'climate'
p290
sg21
S'4552'
p291
sg23
S'Precipitation of Coldest Quarter AC RCP45 2070'
p292
sg25
g26
sg27
S'clim'
p293
sg29
g30
sg31
S'clim.AC4570_bio19.tif'
p294
sg33
S'clim.AC4570_bio19'
p295
sg35
g36
sg37
g38
sg39
S'2070'
p296
ssS'bio16'
p297
(dp298
g6
S'AC4570_bio16'
p299
sg8
I1088
sg9
S'Bio16'
p300
sg11
S'Precipitation of Wettest Quarter'
p301
sg13
S'45'
p302
sg15
S'AC4570'
p303
sg17
S'../views/GTiff/clim.AC4570_bio16.tif'
p304
sg19
S'climate'
p305
sg21
S'4553'
p306
sg23
S'Precipitation of Wettest Quarter AC RCP45 2070'
p307
sg25
g26
sg27
S'clim'
p308
sg29
g30
sg31
S'clim.AC4570_bio16.tif'
p309
sg33
S'clim.AC4570_bio16'
p310
sg35
g36
sg37
g38
sg39
S'2070'
p311
ssS'bio3'
p312
(dp313
g6
S'AC4570_bio3'
p314
sg8
I1102
sg9
S'Bio3'
p315
sg11
S'Isothermality (BIO2/BIO7) (* 100)'
p316
sg13
S'45'
p317
sg15
S'AC4570'
p318
sg17
S'../views/GTiff/clim.AC4570_bio3.tif'
p319
sg19
S'climate'
p320
sg21
S'4554'
p321
sg23
S'Isothermality (BIO2/BIO7) (* 100) AC RCP45 2070'
p322
sg25
g26
sg27
S'clim'
p323
sg29
g30
sg31
S'clim.AC4570_bio3.tif'
p324
sg33
S'clim.AC4570_bio3'
p325
sg35
g36
sg37
g38
sg39
S'2070'
p326
ssS'bio17'
p327
(dp328
g6
S'AC4570_bio17'
p329
sg8
I1073
sg9
S'Bio17'
p330
sg11
S'Precipitation of Driest Quarter'
p331
sg13
S'45'
p332
sg15
S'AC4570'
p333
sg17
S'../views/GTiff/clim.AC4570_bio17.tif'
p334
sg19
S'climate'
p335
sg21
S'4555'
p336
sg23
S'Precipitation of Driest Quarter AC RCP45 2070'
p337
sg25
g26
sg27
S'clim'
p338
sg29
g30
sg31
S'clim.AC4570_bio17.tif'
p339
sg33
S'clim.AC4570_bio17'
p340
sg35
g36
sg37
g38
sg39
S'2070'
p341
ssS'bio13'
p342
(dp343
g6
S'AC4570_bio13'
p344
sg8
I1100
sg9
S'Bio13'
p345
sg11
S'Precipitation of Wettest Month'
p346
sg13
S'45'
p347
sg15
S'AC4570'
p348
sg17
S'../views/GTiff/clim.AC4570_bio13.tif'
p349
sg19
S'climate'
p350
sg21
S'4556'
p351
sg23
S'Precipitation of Wettest Month AC RCP45 2070'
p352
sg25
g26
sg27
S'clim'
p353
sg29
g30
sg31
S'clim.AC4570_bio13.tif'
p354
sg33
S'clim.AC4570_bio13'
p355
sg35
g36
sg37
g38
sg39
S'2070'
p356
ssS'bio10'
p357
(dp358
g6
S'AC4570_bio10'
p359
sg8
I1056
sg9
S'Bio10'
p360
sg11
S'Mean Temperature of Warmest Quarter'
p361
sg13
S'45'
p362
sg15
S'AC4570'
p363
sg17
S'../views/GTiff/clim.AC4570_bio10.tif'
p364
sg19
S'climate'
p365
sg21
S'4557'
p366
sg23
S'Mean Temperature of Warmest Quarter AC RCP45 2070'
p367
sg25
g26
sg27
S'clim'
p368
sg29
g30
sg31
S'clim.AC4570_bio10.tif'
p369
sg33
S'clim.AC4570_bio10'
p370
sg35
g36
sg37
g38
sg39
S'2070'
p371
ssS'bio11'
p372
(dp373
g6
S'AC4570_bio11'
p374
sg8
I1074
sg9
S'Bio11'
p375
sg11
S'Mean Temperature of Coldest Quarter'
p376
sg13
S'45'
p377
sg15
S'AC4570'
p378
sg17
S'../views/GTiff/clim.AC4570_bio11.tif'
p379
sg19
S'climate'
p380
sg21
S'4558'
p381
sg23
S'Mean Temperature of Coldest Quarter AC RCP45 2070'
p382
sg25
g26
sg27
S'clim'
p383
sg29
g30
sg31
S'clim.AC4570_bio11.tif'
p384
sg33
S'clim.AC4570_bio11'
p385
sg35
g36
sg37
g38
sg39
S'2070'
p386
ssS'bio12'
p387
(dp388
g6
S'AC4570_bio12'
p389
sg8
I1084
sg9
S'Bio12'
p390
sg11
S'Annual Precipitation'
p391
sg13
S'45'
p392
sg15
S'AC4570'
p393
sg17
S'../views/GTiff/clim.AC4570_bio12.tif'
p394
sg19
S'climate'
p395
sg21
S'4559'
p396
sg23
S'Annual Precipitation AC RCP45 2070'
p397
sg25
g26
sg27
S'clim'
p398
sg29
g30
sg31
S'clim.AC4570_bio12.tif'
p399
sg33
S'clim.AC4570_bio12'
p400
sg35
g36
sg37
g38
sg39
S'2070'
p401
ssS'bio1'
p402
(dp403
g6
S'AC4570_bio1'
p404
sg8
I1062
sg9
S'Bio1'
p405
sg11
S'Annual Mean Temperature'
p406
sg13
S'45'
p407
sg15
S'AC4570'
p408
sg17
S'../views/GTiff/clim.AC4570_bio1.tif'
p409
sg19
S'climate'
p410
sg21
S'4560'
p411
sg23
S'Annual Mean Temperature AC RCP45 2070'
p412
sg25
g26
sg27
S'clim'
p413
sg29
g30
sg31
S'clim.AC4570_bio1.tif'
p414
sg33
S'clim.AC4570_bio1'
p415
sg35
g36
sg37
g38
sg39
S'2070'
p416
ssS'bio6'
p417
(dp418
g6
S'AC4570_bio6'
p419
sg8
I1080
sg9
S'Bio6'
p420
sg11
S'Min Temperature of Coldest Month'
p421
sg13
S'45'
p422
sg15
S'AC4570'
p423
sg17
S'../views/GTiff/clim.AC4570_bio6.tif'
p424
sg19
S'climate'
p425
sg21
S'4561'
p426
sg23
S'Min Temperature of Coldest Month AC RCP45 2070'
p427
sg25
g26
sg27
S'clim'
p428
sg29
g30
sg31
S'clim.AC4570_bio6.tif'
p429
sg33
S'clim.AC4570_bio6'
p430
sg35
g36
sg37
g38
sg39
S'2070'
p431
ssS'bio15'
p432
(dp433
g6
S'AC4570_bio15'
p434
sg8
I1061
sg9
S'Bio15'
p435
sg11
S'Precipitation Seasonality (Coefficient of Variation)'
p436
sg13
S'45'
p437
sg15
S'AC4570'
p438
sg17
S'../views/GTiff/clim.AC4570_bio15.tif'
p439
sg19
S'climate'
p440
sg21
S'4562'
p441
sg23
S'Precipitation Seasonality (Coefficient of Variation) AC RCP45 2070'
p442
sg25
g26
sg27
S'clim'
p443
sg29
g30
sg31
S'clim.AC4570_bio15.tif'
p444
sg33
S'clim.AC4570_bio15'
p445
sg35
g36
sg37
g38
sg39
S'2070'
p446
ssS'bio4'
p447
(dp448
g6
S'AC4570_bio4'
p449
sg8
I1050
sg9
S'Bio4'
p450
sg11
S'Temperature Seasonality (standard deviation *100)'
p451
sg13
S'45'
p452
sg15
g265
sg17
S'../views/GTiff/clim.AC4570_bio4.tif'
p453
sg19
S'climate'
p454
sg21
S'4563'
p455
sg23
S'Temperature Seasonality (standard deviation *100) AC RCP45 2070'
p456
sg25
g26
sg27
S'clim'
p457
sg29
g30
sg31
S'clim.AC4570_bio4.tif'
p458
sg33
S'clim.AC4570_bio4'
p459
sg35
g36
sg37
g38
sg39
S'2070'
p460
ssS'bio5'
p461
(dp462
g6
S'AC4570_bio5'
p463
sg8
I1064
sg9
S'Bio5'
p464
sg11
S'Max Temperature of Warmest Month'
p465
sg13
S'45'
p466
sg15
S'AC4570'
p467
sg17
S'../views/GTiff/clim.AC4570_bio5.tif'
p468
sg19
S'climate'
p469
sg21
S'4564'
p470
sg23
S'Max Temperature of Warmest Month AC RCP45 2070'
p471
sg25
g26
sg27
S'clim'
p472
sg29
g30
sg31
S'clim.AC4570_bio5.tif'
p473
sg33
S'clim.AC4570_bio5'
p474
sg35
g36
sg37
g38
sg39
S'2070'
p475
ssS'bio18'
p476
(dp477
g6
S'AC4570_bio18'
p478
sg8
I1095
sg9
S'Bio18'
p479
sg11
S'Precipitation of Warmest Quarter'
p480
sg13
S'45'
p481
sg15
S'AC4570'
p482
sg17
S'../views/GTiff/clim.AC4570_bio18.tif'
p483
sg19
S'climate'
p484
sg21
S'4565'
p485
sg23
S'Precipitation of Warmest Quarter AC RCP45 2070'
p486
sg25
g26
sg27
S'clim'
p487
sg29
g30
sg31
S'clim.AC4570_bio18.tif'
p488
sg33
S'clim.AC4570_bio18'
p489
sg35
g36
sg37
g38
sg39
S'2070'
p490
ssS'bio14'
p491
(dp492
g6
S'AC4570_bio14'
p493
sg8
I1097
sg9
S'Bio14'
p494
sg11
S'Precipitation of Driest Month'
p495
sg13
S'45'
p496
sg15
S'AC4570'
p497
sg17
S'../views/GTiff/clim.AC4570_bio14.tif'
p498
sg19
S'climate'
p499
sg21
S'4566'
p500
sg23
S'Precipitation of Driest Month AC RCP45 2070'
p501
sg25
g26
sg27
S'clim'
p502
sg29
g30
sg31
S'clim.AC4570_bio14.tif'
p503
sg33
S'clim.AC4570_bio14'
p504
sg35
g36
sg37
g38
sg39
S'2070'
p505
ssS'bio8'
p506
(dp507
g6
S'AC4570_bio8'
p508
sg8
I1051
sg9
S'Bio8'
p509
sg11
S'Mean Temperature of Wettest Quarter'
p510
sg13
S'45'
p511
sg15
S'AC4570'
p512
sg17
S'../views/GTiff/clim.AC4570_bio8.tif'
p513
sg19
S'climate'
p514
sg21
S'4567'
p515
sg23
S'Mean Temperature of Wettest Quarter AC RCP45 2070'
p516
sg25
g26
sg27
S'clim'
p517
sg29
g30
sg31
S'clim.AC4570_bio8.tif'
p518
sg33
S'clim.AC4570_bio8'
p519
sg35
g36
sg37
g38
sg39
S'2070'
p520
ssS'bio9'
p521
(dp522
g6
S'AC4570_bio9'
p523
sg8
I1090
sg9
S'Bio9'
p524
sg11
S'Mean Temperature of Driest Quarter'
p525
sg13
S'45'
p526
sg15
S'AC4570'
p527
sg17
S'../views/GTiff/clim.AC4570_bio9.tif'
p528
sg19
S'climate'
p529
sg21
S'4568'
p530
sg23
S'Mean Temperature of Driest Quarter AC RCP45 2070'
p531
sg25
g26
sg27
S'clim'
p532
sg29
g30
sg31
S'clim.AC4570_bio9.tif'
p533
sg33
S'clim.AC4570_bio9'
p534
sg35
g36
sg37
g38
sg39
S'2070'
p535
ssS'bio7'
p536
(dp537
g6
S'AC4570_bio7'
p538
sg8
I1099
sg9
S'Bio7'
p539
sg11
S'Temperature Annual Range (BIO5-BIO6)'
p540
sg13
S'45'
p541
sg15
S'AC4570'
p542
sg17
S'../views/GTiff/clim.AC4570_bio7.tif'
p543
sg19
S'climate'
p544
sg21
S'4569'
p545
sg23
S'Temperature Annual Range (BIO5-BIO6) AC RCP45 2070'
p546
sg25
g26
sg27
S'clim'
p547
sg29
g30
sg31
S'clim.AC4570_bio7.tif'
p548
sg33
S'clim.AC4570_bio7'
p549
sg35
g36
sg37
g38
sg39
S'2070'
p550
sssS'CURR'
p551
(dp552
S'bio10'
p553
(dp554
g6
S'CURR_bio10'
p555
sg8
I1079
sg9
S'Bio10'
p556
sg11
S'Mean Temperature of Warmest Quarter'
p557
sg13
S'Present'
p558
sg15
S'CURR'
p559
sg17
S'../views/GTiff/clim.CURR_bio10.tif'
p560
sg19
S'climate'
p561
sg21
S'4570'
p562
sg23
S'Mean Temperature of Warmest Quarter Current Climate 1960-2000'
p563
sg25
g26
sg27
S'clim'
p564
sg29
g30
sg31
S'clim.CURR_bio10.tif'
p565
sg33
S'clim.CURR_bio10'
p566
sg35
g36
sg37
g38
sg39
S'Present'
p567
ssS'bio19'
p568
(dp569
g6
S'CURR_bio19'
p570
sg8
I1093
sg9
S'Bio19'
p571
sg11
S'Precipitation of Coldest Quarter'
p572
sg13
S'Present'
p573
sg15
S'CURR'
p574
sg17
S'../views/GTiff/clim.CURR_bio19.tif'
p575
sg19
S'climate'
p576
sg21
S'4571'
p577
sg23
S'Precipitation of Coldest Quarter Current Climate 1960-2000'
p578
sg25
g26
sg27
S'clim'
p579
sg29
g30
sg31
S'clim.CURR_bio19.tif'
p580
sg33
S'clim.CURR_bio19'
p581
sg35
g36
sg37
g38
sg39
S'Present'
p582
ssS'bio16'
p583
(dp584
g6
S'CURR_bio16'
p585
sg8
I1083
sg9
S'Bio16'
p586
sg11
S'Precipitation of Wettest Quarter'
p587
sg13
S'Present'
p588
sg15
S'CURR'
p589
sg17
S'../views/GTiff/clim.CURR_bio16.tif'
p590
sg19
S'climate'
p591
sg21
S'4572'
p592
sg23
S'Precipitation of Wettest Quarter Current Climate 1960-2000'
p593
sg25
g26
sg27
S'clim'
p594
sg29
g30
sg31
S'clim.CURR_bio16.tif'
p595
sg33
S'clim.CURR_bio16'
p596
sg35
g36
sg37
g38
sg39
S'Present'
p597
ssS'bio3'
p598
(dp599
g6
S'CURR_bio3'
p600
sg8
I1066
sg9
S'Bio3'
p601
sg11
S'Isothermality (BIO2/BIO7) (* 100)'
p602
sg13
S'Present'
p603
sg15
S'CURR'
p604
sg17
S'../views/GTiff/clim.CURR_bio3.tif'
p605
sg19
S'climate'
p606
sg21
S'4573'
p607
sg23
S'Isothermality (BIO2/BIO7) (* 100) Current Climate 1960-2000'
p608
sg25
g26
sg27
S'clim'
p609
sg29
g30
sg31
S'clim.CURR_bio3.tif'
p610
sg33
S'clim.CURR_bio3'
p611
sg35
g36
sg37
g38
sg39
S'Present'
p612
ssS'bio17'
p613
(dp614
g6
S'CURR_bio17'
p615
sg8
I1070
sg9
S'Bio17'
p616
sg11
S'Precipitation of Driest Quarter'
p617
sg13
S'Present'
p618
sg15
S'CURR'
p619
sg17
S'../views/GTiff/clim.CURR_bio17.tif'
p620
sg19
S'climate'
p621
sg21
S'4574'
p622
sg23
S'Precipitation of Driest Quarter Current Climate 1960-2000'
p623
sg25
g26
sg27
S'clim'
p624
sg29
g30
sg31
S'clim.CURR_bio17.tif'
p625
sg33
S'clim.CURR_bio17'
p626
sg35
g36
sg37
g38
sg39
S'Present'
p627
ssS'bio1'
p628
(dp629
g6
S'CURR_bio1'
p630
sg8
I1098
sg9
S'Bio1'
p631
sg11
S'Annual Mean Temperature'
p632
sg13
S'Present'
p633
sg15
S'CURR'
p634
sg17
S'../views/GTiff/clim.CURR_bio1.tif'
p635
sg19
S'climate'
p636
sg21
S'4575'
p637
sg23
S'Annual Mean Temperature Current Climate 1960-2000'
p638
sg25
g26
sg27
S'clim'
p639
sg29
g30
sg31
S'clim.CURR_bio1.tif'
p640
sg33
S'clim.CURR_bio1'
p641
sg35
g36
sg37
g38
sg39
S'Present'
p642
ssS'bio2'
p643
(dp644
g6
S'CURR_bio2'
p645
sg8
I1059
sg9
S'Bio2'
p646
sg11
S'Mean Diurnal Range (Mean of monthly (max temp - min temp))'
p647
sg13
S'Present'
p648
sg15
S'CURR'
p649
sg17
S'../views/GTiff/clim.CURR_bio2.tif'
p650
sg19
S'climate'
p651
sg21
S'4576'
p652
sg23
S'Mean Diurnal Range (Mean of monthly (max temp - min temp)) Current Climate 1960-2000'
p653
sg25
g26
sg27
S'clim'
p654
sg29
g30
sg31
S'clim.CURR_bio2.tif'
p655
sg33
S'clim.CURR_bio2'
p656
sg35
g36
sg37
g38
sg39
S'Present'
p657
ssS'bio11'
p658
(dp659
g6
S'CURR_bio11'
p660
sg8
I1052
sg9
S'Bio11'
p661
sg11
S'Mean Temperature of Coldest Quarter'
p662
sg13
S'Present'
p663
sg15
g551
sg17
S'../views/GTiff/clim.CURR_bio11.tif'
p664
sg19
S'climate'
p665
sg21
S'4577'
p666
sg23
S'Mean Temperature of Coldest Quarter Current Climate 1960-2000'
p667
sg25
g26
sg27
S'clim'
p668
sg29
g30
sg31
S'clim.CURR_bio11.tif'
p669
sg33
S'clim.CURR_bio11'
p670
sg35
g36
sg37
g38
sg39
S'Present'
p671
ssS'bio12'
p672
(dp673
g6
S'CURR_bio12'
p674
sg8
I1071
sg9
S'Bio12'
p675
sg11
S'Annual Precipitation'
p676
sg13
S'Present'
p677
sg15
S'CURR'
p678
sg17
S'../views/GTiff/clim.CURR_bio12.tif'
p679
sg19
S'climate'
p680
sg21
S'4578'
p681
sg23
S'Annual Precipitation Current Climate 1960-2000'
p682
sg25
g26
sg27
S'clim'
p683
sg29
g30
sg31
S'clim.CURR_bio12.tif'
p684
sg33
S'clim.CURR_bio12'
p685
sg35
g36
sg37
g38
sg39
S'Present'
p686
ssS'bio13'
p687
(dp688
g6
S'CURR_bio13'
p689
sg8
I1057
sg9
S'Bio13'
p690
sg11
S'Precipitation of Wettest Month'
p691
sg13
S'Present'
p692
sg15
S'CURR'
p693
sg17
S'../views/GTiff/clim.CURR_bio13.tif'
p694
sg19
S'climate'
p695
sg21
S'4579'
p696
sg23
S'Precipitation of Wettest Month Current Climate 1960-2000'
p697
sg25
g26
sg27
S'clim'
p698
sg29
g30
sg31
S'clim.CURR_bio13.tif'
p699
sg33
S'clim.CURR_bio13'
p700
sg35
g36
sg37
g38
sg39
S'Present'
p701
ssS'bio14'
p702
(dp703
g6
S'CURR_bio14'
p704
sg8
I1054
sg9
S'Bio14'
p705
sg11
S'Precipitation of Driest Month'
p706
sg13
S'Present'
p707
sg15
S'CURR'
p708
sg17
S'../views/GTiff/clim.CURR_bio14.tif'
p709
sg19
S'climate'
p710
sg21
S'4580'
p711
sg23
S'Precipitation of Driest Month Current Climate 1960-2000'
p712
sg25
g26
sg27
S'clim'
p713
sg29
g30
sg31
S'clim.CURR_bio14.tif'
p714
sg33
S'clim.CURR_bio14'
p715
sg35
g36
sg37
g38
sg39
S'Present'
p716
ssS'bio7'
p717
(dp718
g6
S'CURR_bio7'
p719
sg8
I1092
sg9
S'Bio7'
p720
sg11
S'Temperature Annual Range (BIO5-BIO6)'
p721
sg13
S'Present'
p722
sg15
S'CURR'
p723
sg17
S'../views/GTiff/clim.CURR_bio7.tif'
p724
sg19
S'climate'
p725
sg21
S'4581'
p726
sg23
S'Temperature Annual Range (BIO5-BIO6) Current Climate 1960-2000'
p727
sg25
g26
sg27
S'clim'
p728
sg29
g30
sg31
S'clim.CURR_bio7.tif'
p729
sg33
S'clim.CURR_bio7'
p730
sg35
g36
sg37
g38
sg39
S'Present'
p731
ssS'bio4'
p732
(dp733
g6
S'CURR_bio4'
p734
sg8
I1081
sg9
S'Bio4'
p735
sg11
S'Temperature Seasonality (standard deviation *100)'
p736
sg13
S'Present'
p737
sg15
S'CURR'
p738
sg17
S'../views/GTiff/clim.CURR_bio4.tif'
p739
sg19
S'climate'
p740
sg21
S'4582'
p741
sg23
S'Temperature Seasonality (standard deviation *100) Current Climate 1960-2000'
p742
sg25
g26
sg27
S'clim'
p743
sg29
g30
sg31
S'clim.CURR_bio4.tif'
p744
sg33
S'clim.CURR_bio4'
p745
sg35
g36
sg37
g38
sg39
S'Present'
p746
ssS'bio5'
p747
(dp748
g6
S'CURR_bio5'
p749
sg8
I1065
sg9
S'Bio5'
p750
sg11
S'Max Temperature of Warmest Month'
p751
sg13
S'Present'
p752
sg15
S'CURR'
p753
sg17
S'../views/GTiff/clim.CURR_bio5.tif'
p754
sg19
S'climate'
p755
sg21
S'4583'
p756
sg23
S'Max Temperature of Warmest Month Current Climate 1960-2000'
p757
sg25
g26
sg27
S'clim'
p758
sg29
g30
sg31
S'clim.CURR_bio5.tif'
p759
sg33
S'clim.CURR_bio5'
p760
sg35
g36
sg37
g38
sg39
S'Present'
p761
ssS'bio18'
p762
(dp763
g6
S'CURR_bio18'
p764
sg8
I1075
sg9
S'Bio18'
p765
sg11
S'Precipitation of Warmest Quarter'
p766
sg13
S'Present'
p767
sg15
S'CURR'
p768
sg17
S'../views/GTiff/clim.CURR_bio18.tif'
p769
sg19
S'climate'
p770
sg21
S'4584'
p771
sg23
S'Precipitation of Warmest Quarter Current Climate 1960-2000'
p772
sg25
g26
sg27
S'clim'
p773
sg29
g30
sg31
S'clim.CURR_bio18.tif'
p774
sg33
S'clim.CURR_bio18'
p775
sg35
g36
sg37
g38
sg39
S'Present'
p776
ssS'bio6'
p777
(dp778
g6
S'CURR_bio6'
p779
sg8
I1068
sg9
S'Bio6'
p780
sg11
S'Min Temperature of Coldest Month'
p781
sg13
S'Present'
p782
sg15
S'CURR'
p783
sg17
S'../views/GTiff/clim.CURR_bio6.tif'
p784
sg19
S'climate'
p785
sg21
S'4585'
p786
sg23
S'Min Temperature of Coldest Month Current Climate 1960-2000'
p787
sg25
g26
sg27
S'clim'
p788
sg29
g30
sg31
S'clim.CURR_bio6.tif'
p789
sg33
S'clim.CURR_bio6'
p790
sg35
g36
sg37
g38
sg39
S'Present'
p791
ssS'bio8'
p792
(dp793
g6
S'CURR_bio8'
p794
sg8
I1078
sg9
S'Bio8'
p795
sg11
S'Mean Temperature of Wettest Quarter'
p796
sg13
S'Present'
p797
sg15
S'CURR'
p798
sg17
S'../views/GTiff/clim.CURR_bio8.tif'
p799
sg19
S'climate'
p800
sg21
S'4586'
p801
sg23
S'Mean Temperature of Wettest Quarter Current Climate 1960-2000'
p802
sg25
g26
sg27
S'clim'
p803
sg29
g30
sg31
S'clim.CURR_bio8.tif'
p804
sg33
S'clim.CURR_bio8'
p805
sg35
g36
sg37
g38
sg39
S'Present'
p806
ssS'bio9'
p807
(dp808
g6
S'CURR_bio9'
p809
sg8
I1053
sg9
S'Bio9'
p810
sg11
S'Mean Temperature of Driest Quarter'
p811
sg13
S'Present'
p812
sg15
S'CURR'
p813
sg17
S'../views/GTiff/clim.CURR_bio9.tif'
p814
sg19
S'climate'
p815
sg21
S'4587'
p816
sg23
S'Mean Temperature of Driest Quarter Current Climate 1960-2000'
p817
sg25
g26
sg27
S'clim'
p818
sg29
g30
sg31
S'clim.CURR_bio9.tif'
p819
sg33
S'clim.CURR_bio9'
p820
sg35
g36
sg37
g38
sg39
S'Present'
p821
ssS'bio15'
p822
(dp823
g6
S'CURR_bio15'
p824
sg8
I1094
sg9
S'Bio15'
p825
sg11
S'Precipitation Seasonality (Coefficient of Variation)'
p826
sg13
S'Present'
p827
sg15
S'CURR'
p828
sg17
S'../views/GTiff/clim.CURR_bio15.tif'
p829
sg19
S'climate'
p830
sg21
S'4588'
p831
sg23
S'Precipitation Seasonality (Coefficient of Variation) Current Climate 1960-2000'
p832
sg25
g26
sg27
S'clim'
p833
sg29
g30
sg31
S'clim.CURR_bio15.tif'
p834
sg33
S'clim.CURR_bio15'
p835
sg35
g36
sg37
g38
sg39
S'Present'
p836
sss.