(dp1
S'AC4550'
p2
(dp3
S'bio10'
p4
(dp5
S'envLayerType'
p6
S'AC4550_bio10'
p7
sS'Name'
p8
I767
sS'typeCode'
p9
S'Bio10'
p10
sS'typeCodeDescription'
p11
S'Mean Temperature of Warmest Quarter'
p12
sS'RCP'
p13
S'45'
p14
sS'bioclim'
p15
S'AC4550'
p16
sS'title'
p17
S'clim.AC4550_bio10.tif'
p18
sS'filterType'
p19
S'climate'
p20
sS'fileName'
p21
S'../views/GTiff/clim.AC4550_bio10.tif'
p22
sS'lyrID'
p23
S'4403'
p24
sS'layerDescription'
p25
S'Mean Temperature of Warmest Quarter AC RCP45 2050'
p26
sS'dataFormat'
p27
S'GTiff'
p28
sS'units'
p29
S'dd'
p30
sS'fullname'
p31
S'clim.AC4550_bio10'
p32
sS'resolution'
p33
S'2.5'
p34
sS'epsgCode'
p35
S'4326'
p36
sS'projectionDate'
p37
S'2050'
p38
ssS'bio13'
p39
(dp40
g6
S'AC4550_bio13'
p41
sg8
I775
sg9
S'Bio13'
p42
sg11
S'Precipitation of Wettest Month'
p43
sg13
S'45'
p44
sg15
S'AC4550'
p45
sg17
S'clim.AC4550_bio13.tif'
p46
sg19
S'climate'
p47
sg21
S'../views/GTiff/clim.AC4550_bio13.tif'
p48
sg23
S'4404'
p49
sg25
S'Precipitation of Wettest Month AC RCP45 2050'
p50
sg27
g28
sg29
g30
sg31
S'clim.AC4550_bio13'
p51
sg33
g34
sg35
g36
sg37
S'2050'
p52
ssS'bio14'
p53
(dp54
g6
S'AC4550_bio14'
p55
sg8
I777
sg9
S'Bio14'
p56
sg11
S'Precipitation of Driest Month'
p57
sg13
S'45'
p58
sg15
S'AC4550'
p59
sg17
S'clim.AC4550_bio14.tif'
p60
sg19
S'climate'
p61
sg21
S'../views/GTiff/clim.AC4550_bio14.tif'
p62
sg23
S'4405'
p63
sg25
S'Precipitation of Driest Month AC RCP45 2050'
p64
sg27
g28
sg29
g30
sg31
S'clim.AC4550_bio14'
p65
sg33
g34
sg35
g36
sg37
S'2050'
p66
ssS'bio2'
p67
(dp68
g6
S'AC4550_bio2'
p69
sg8
I750
sg9
S'Bio2'
p70
sg11
S'Mean Diurnal Range (Mean of monthly (max temp - min temp))'
p71
sg13
S'45'
p72
sg15
S'AC4550'
p73
sg17
S'clim.AC4550_bio2.tif'
p74
sg19
S'climate'
p75
sg21
S'../views/GTiff/clim.AC4550_bio2.tif'
p76
sg23
S'4406'
p77
sg25
S'Mean Diurnal Range (Mean of monthly (max temp - min temp)) AC RCP45 2050'
p78
sg27
g28
sg29
g30
sg31
S'clim.AC4550_bio2'
p79
sg33
g34
sg35
g36
sg37
S'2050'
p80
ssS'bio11'
p81
(dp82
g6
S'AC4550_bio11'
p83
sg8
I757
sg9
S'Bio11'
p84
sg11
S'Mean Temperature of Coldest Quarter'
p85
sg13
S'45'
p86
sg15
S'AC4550'
p87
sg17
S'clim.AC4550_bio11.tif'
p88
sg19
S'climate'
p89
sg21
S'../views/GTiff/clim.AC4550_bio11.tif'
p90
sg23
S'4407'
p91
sg25
S'Mean Temperature of Coldest Quarter AC RCP45 2050'
p92
sg27
g28
sg29
g30
sg31
S'clim.AC4550_bio11'
p93
sg33
g34
sg35
g36
sg37
S'2050'
p94
ssS'bio12'
p95
(dp96
g6
S'AC4550_bio12'
p97
sg8
I762
sg9
S'Bio12'
p98
sg11
S'Annual Precipitation'
p99
sg13
S'45'
p100
sg15
S'AC4550'
p101
sg17
S'clim.AC4550_bio12.tif'
p102
sg19
S'climate'
p103
sg21
S'../views/GTiff/clim.AC4550_bio12.tif'
p104
sg23
S'4408'
p105
sg25
S'Annual Precipitation AC RCP45 2050'
p106
sg27
g28
sg29
g30
sg31
S'clim.AC4550_bio12'
p107
sg33
g34
sg35
g36
sg37
S'2050'
p108
ssS'bio1'
p109
(dp110
g6
S'AC4550_bio1'
p111
sg8
I759
sg9
S'Bio1'
p112
sg11
S'Annual Mean Temperature'
p113
sg13
S'45'
p114
sg15
S'AC4550'
p115
sg17
S'clim.AC4550_bio1.tif'
p116
sg19
S'climate'
p117
sg21
S'../views/GTiff/clim.AC4550_bio1.tif'
p118
sg23
S'4409'
p119
sg25
S'Annual Mean Temperature AC RCP45 2050'
p120
sg27
g28
sg29
g30
sg31
S'clim.AC4550_bio1'
p121
sg33
g34
sg35
g36
sg37
S'2050'
p122
ssS'bio6'
p123
(dp124
g6
S'AC4550_bio6'
p125
sg8
I745
sg9
S'Bio6'
p126
sg11
S'Min Temperature of Coldest Month'
p127
sg13
S'45'
p128
sg15
g2
sg17
S'clim.AC4550_bio6.tif'
p129
sg19
S'climate'
p130
sg21
S'../views/GTiff/clim.AC4550_bio6.tif'
p131
sg23
S'4410'
p132
sg25
S'Min Temperature of Coldest Month AC RCP45 2050'
p133
sg27
g28
sg29
g30
sg31
S'clim.AC4550_bio6'
p134
sg33
g34
sg35
g36
sg37
S'2050'
p135
ssS'bio7'
p136
(dp137
g6
S'AC4550_bio7'
p138
sg8
I753
sg9
S'Bio7'
p139
sg11
S'Temperature Annual Range (BIO5-BIO6)'
p140
sg13
S'45'
p141
sg15
S'AC4550'
p142
sg17
S'clim.AC4550_bio7.tif'
p143
sg19
S'climate'
p144
sg21
S'../views/GTiff/clim.AC4550_bio7.tif'
p145
sg23
S'4411'
p146
sg25
S'Temperature Annual Range (BIO5-BIO6) AC RCP45 2050'
p147
sg27
g28
sg29
g30
sg31
S'clim.AC4550_bio7'
p148
sg33
g34
sg35
g36
sg37
S'2050'
p149
ssS'bio16'
p150
(dp151
g6
S'AC4550_bio16'
p152
sg8
I766
sg9
S'Bio16'
p153
sg11
S'Precipitation of Wettest Quarter'
p154
sg13
S'45'
p155
sg15
S'AC4550'
p156
sg17
S'clim.AC4550_bio16.tif'
p157
sg19
S'climate'
p158
sg21
S'../views/GTiff/clim.AC4550_bio16.tif'
p159
sg23
S'4412'
p160
sg25
S'Precipitation of Wettest Quarter AC RCP45 2050'
p161
sg27
g28
sg29
g30
sg31
S'clim.AC4550_bio16'
p162
sg33
g34
sg35
g36
sg37
S'2050'
p163
ssS'bio17'
p164
(dp165
g6
S'AC4550_bio17'
p166
sg8
I748
sg9
S'Bio17'
p167
sg11
S'Precipitation of Driest Quarter'
p168
sg13
S'45'
p169
sg15
S'AC4550'
p170
sg17
S'clim.AC4550_bio17.tif'
p171
sg19
S'climate'
p172
sg21
S'../views/GTiff/clim.AC4550_bio17.tif'
p173
sg23
S'4413'
p174
sg25
S'Precipitation of Driest Quarter AC RCP45 2050'
p175
sg27
g28
sg29
g30
sg31
S'clim.AC4550_bio17'
p176
sg33
g34
sg35
g36
sg37
S'2050'
p177
ssS'bio18'
p178
(dp179
g6
S'AC4550_bio18'
p180
sg8
I791
sg9
S'Bio18'
p181
sg11
S'Precipitation of Warmest Quarter'
p182
sg13
S'45'
p183
sg15
S'AC4550'
p184
sg17
S'clim.AC4550_bio18.tif'
p185
sg19
S'climate'
p186
sg21
S'../views/GTiff/clim.AC4550_bio18.tif'
p187
sg23
S'4414'
p188
sg25
S'Precipitation of Warmest Quarter AC RCP45 2050'
p189
sg27
g28
sg29
g30
sg31
S'clim.AC4550_bio18'
p190
sg33
g34
sg35
g36
sg37
S'2050'
p191
ssS'bio19'
p192
(dp193
g6
S'AC4550_bio19'
p194
sg8
I772
sg9
S'Bio19'
p195
sg11
S'Precipitation of Coldest Quarter'
p196
sg13
S'45'
p197
sg15
S'AC4550'
p198
sg17
S'clim.AC4550_bio19.tif'
p199
sg19
S'climate'
p200
sg21
S'../views/GTiff/clim.AC4550_bio19.tif'
p201
sg23
S'4415'
p202
sg25
S'Precipitation of Coldest Quarter AC RCP45 2050'
p203
sg27
g28
sg29
g30
sg31
S'clim.AC4550_bio19'
p204
sg33
g34
sg35
g36
sg37
S'2050'
p205
ssS'bio8'
p206
(dp207
g6
S'AC4550_bio8'
p208
sg8
I776
sg9
S'Bio8'
p209
sg11
S'Mean Temperature of Wettest Quarter'
p210
sg13
S'45'
p211
sg15
S'AC4550'
p212
sg17
S'clim.AC4550_bio8.tif'
p213
sg19
S'climate'
p214
sg21
S'../views/GTiff/clim.AC4550_bio8.tif'
p215
sg23
S'4416'
p216
sg25
S'Mean Temperature of Wettest Quarter AC RCP45 2050'
p217
sg27
g28
sg29
g30
sg31
S'clim.AC4550_bio8'
p218
sg33
g34
sg35
g36
sg37
S'2050'
p219
ssS'bio9'
p220
(dp221
g6
S'AC4550_bio9'
p222
sg8
I781
sg9
S'Bio9'
p223
sg11
S'Mean Temperature of Driest Quarter'
p224
sg13
S'45'
p225
sg15
S'AC4550'
p226
sg17
S'clim.AC4550_bio9.tif'
p227
sg19
S'climate'
p228
sg21
S'../views/GTiff/clim.AC4550_bio9.tif'
p229
sg23
S'4417'
p230
sg25
S'Mean Temperature of Driest Quarter AC RCP45 2050'
p231
sg27
g28
sg29
g30
sg31
S'clim.AC4550_bio9'
p232
sg33
g34
sg35
g36
sg37
S'2050'
p233
ssS'bio15'
p234
(dp235
g6
S'AC4550_bio15'
p236
sg8
I786
sg9
S'Bio15'
p237
sg11
S'Precipitation Seasonality (Coefficient of Variation)'
p238
sg13
S'45'
p239
sg15
S'AC4550'
p240
sg17
S'clim.AC4550_bio15.tif'
p241
sg19
S'climate'
p242
sg21
S'../views/GTiff/clim.AC4550_bio15.tif'
p243
sg23
S'4418'
p244
sg25
S'Precipitation Seasonality (Coefficient of Variation) AC RCP45 2050'
p245
sg27
g28
sg29
g30
sg31
S'clim.AC4550_bio15'
p246
sg33
g34
sg35
g36
sg37
S'2050'
p247
sssS'AC4570'
p248
(dp249
S'bio2'
p250
(dp251
g6
S'AC4570_bio2'
p252
sg8
I779
sg9
S'Bio2'
p253
sg11
S'Mean Diurnal Range (Mean of monthly (max temp - min temp))'
p254
sg13
S'45'
p255
sg15
S'AC4570'
p256
sg17
S'clim.AC4570_bio2.tif'
p257
sg19
S'climate'
p258
sg21
S'../views/GTiff/clim.AC4570_bio2.tif'
p259
sg23
S'4419'
p260
sg25
S'Mean Diurnal Range (Mean of monthly (max temp - min temp)) AC RCP45 2070'
p261
sg27
g28
sg29
g30
sg31
S'clim.AC4570_bio2'
p262
sg33
g34
sg35
g36
sg37
S'2070'
p263
ssS'bio19'
p264
(dp265
g6
S'AC4570_bio19'
p266
sg8
I793
sg9
S'Bio19'
p267
sg11
S'Precipitation of Coldest Quarter'
p268
sg13
S'45'
p269
sg15
S'AC4570'
p270
sg17
S'clim.AC4570_bio19.tif'
p271
sg19
S'climate'
p272
sg21
S'../views/GTiff/clim.AC4570_bio19.tif'
p273
sg23
S'4420'
p274
sg25
S'Precipitation of Coldest Quarter AC RCP45 2070'
p275
sg27
g28
sg29
g30
sg31
S'clim.AC4570_bio19'
p276
sg33
g34
sg35
g36
sg37
S'2070'
p277
ssS'bio16'
p278
(dp279
g6
S'AC4570_bio16'
p280
sg8
I778
sg9
S'Bio16'
p281
sg11
S'Precipitation of Wettest Quarter'
p282
sg13
S'45'
p283
sg15
S'AC4570'
p284
sg17
S'clim.AC4570_bio16.tif'
p285
sg19
S'climate'
p286
sg21
S'../views/GTiff/clim.AC4570_bio16.tif'
p287
sg23
S'4421'
p288
sg25
S'Precipitation of Wettest Quarter AC RCP45 2070'
p289
sg27
g28
sg29
g30
sg31
S'clim.AC4570_bio16'
p290
sg33
g34
sg35
g36
sg37
S'2070'
p291
ssS'bio3'
p292
(dp293
g6
S'AC4570_bio3'
p294
sg8
I792
sg9
S'Bio3'
p295
sg11
S'Isothermality (BIO2/BIO7) (* 100)'
p296
sg13
S'45'
p297
sg15
S'AC4570'
p298
sg17
S'clim.AC4570_bio3.tif'
p299
sg19
S'climate'
p300
sg21
S'../views/GTiff/clim.AC4570_bio3.tif'
p301
sg23
S'4422'
p302
sg25
S'Isothermality (BIO2/BIO7) (* 100) AC RCP45 2070'
p303
sg27
g28
sg29
g30
sg31
S'clim.AC4570_bio3'
p304
sg33
g34
sg35
g36
sg37
S'2070'
p305
ssS'bio17'
p306
(dp307
g6
S'AC4570_bio17'
p308
sg8
I763
sg9
S'Bio17'
p309
sg11
S'Precipitation of Driest Quarter'
p310
sg13
S'45'
p311
sg15
S'AC4570'
p312
sg17
S'clim.AC4570_bio17.tif'
p313
sg19
S'climate'
p314
sg21
S'../views/GTiff/clim.AC4570_bio17.tif'
p315
sg23
S'4423'
p316
sg25
S'Precipitation of Driest Quarter AC RCP45 2070'
p317
sg27
g28
sg29
g30
sg31
S'clim.AC4570_bio17'
p318
sg33
g34
sg35
g36
sg37
S'2070'
p319
ssS'bio13'
p320
(dp321
g6
S'AC4570_bio13'
p322
sg8
I790
sg9
S'Bio13'
p323
sg11
S'Precipitation of Wettest Month'
p324
sg13
S'45'
p325
sg15
S'AC4570'
p326
sg17
S'clim.AC4570_bio13.tif'
p327
sg19
S'climate'
p328
sg21
S'../views/GTiff/clim.AC4570_bio13.tif'
p329
sg23
S'4424'
p330
sg25
S'Precipitation of Wettest Month AC RCP45 2070'
p331
sg27
g28
sg29
g30
sg31
S'clim.AC4570_bio13'
p332
sg33
g34
sg35
g36
sg37
S'2070'
p333
ssS'bio10'
p334
(dp335
g6
S'AC4570_bio10'
p336
sg8
I746
sg9
S'Bio10'
p337
sg11
S'Mean Temperature of Warmest Quarter'
p338
sg13
S'45'
p339
sg15
S'AC4570'
p340
sg17
S'clim.AC4570_bio10.tif'
p341
sg19
S'climate'
p342
sg21
S'../views/GTiff/clim.AC4570_bio10.tif'
p343
sg23
S'4425'
p344
sg25
S'Mean Temperature of Warmest Quarter AC RCP45 2070'
p345
sg27
g28
sg29
g30
sg31
S'clim.AC4570_bio10'
p346
sg33
g34
sg35
g36
sg37
S'2070'
p347
ssS'bio11'
p348
(dp349
g6
S'AC4570_bio11'
p350
sg8
I764
sg9
S'Bio11'
p351
sg11
S'Mean Temperature of Coldest Quarter'
p352
sg13
S'45'
p353
sg15
S'AC4570'
p354
sg17
S'clim.AC4570_bio11.tif'
p355
sg19
S'climate'
p356
sg21
S'../views/GTiff/clim.AC4570_bio11.tif'
p357
sg23
S'4426'
p358
sg25
S'Mean Temperature of Coldest Quarter AC RCP45 2070'
p359
sg27
g28
sg29
g30
sg31
S'clim.AC4570_bio11'
p360
sg33
g34
sg35
g36
sg37
S'2070'
p361
ssS'bio12'
p362
(dp363
g6
S'AC4570_bio12'
p364
sg8
I774
sg9
S'Bio12'
p365
sg11
S'Annual Precipitation'
p366
sg13
S'45'
p367
sg15
S'AC4570'
p368
sg17
S'clim.AC4570_bio12.tif'
p369
sg19
S'climate'
p370
sg21
S'../views/GTiff/clim.AC4570_bio12.tif'
p371
sg23
S'4427'
p372
sg25
S'Annual Precipitation AC RCP45 2070'
p373
sg27
g28
sg29
g30
sg31
S'clim.AC4570_bio12'
p374
sg33
g34
sg35
g36
sg37
S'2070'
p375
ssS'bio1'
p376
(dp377
g6
S'AC4570_bio1'
p378
sg8
I752
sg9
S'Bio1'
p379
sg11
S'Annual Mean Temperature'
p380
sg13
S'45'
p381
sg15
S'AC4570'
p382
sg17
S'clim.AC4570_bio1.tif'
p383
sg19
S'climate'
p384
sg21
S'../views/GTiff/clim.AC4570_bio1.tif'
p385
sg23
S'4428'
p386
sg25
S'Annual Mean Temperature AC RCP45 2070'
p387
sg27
g28
sg29
g30
sg31
S'clim.AC4570_bio1'
p388
sg33
g34
sg35
g36
sg37
S'2070'
p389
ssS'bio6'
p390
(dp391
g6
S'AC4570_bio6'
p392
sg8
I770
sg9
S'Bio6'
p393
sg11
S'Min Temperature of Coldest Month'
p394
sg13
S'45'
p395
sg15
S'AC4570'
p396
sg17
S'clim.AC4570_bio6.tif'
p397
sg19
S'climate'
p398
sg21
S'../views/GTiff/clim.AC4570_bio6.tif'
p399
sg23
S'4429'
p400
sg25
S'Min Temperature of Coldest Month AC RCP45 2070'
p401
sg27
g28
sg29
g30
sg31
S'clim.AC4570_bio6'
p402
sg33
g34
sg35
g36
sg37
S'2070'
p403
ssS'bio15'
p404
(dp405
g6
S'AC4570_bio15'
p406
sg8
I751
sg9
S'Bio15'
p407
sg11
S'Precipitation Seasonality (Coefficient of Variation)'
p408
sg13
S'45'
p409
sg15
S'AC4570'
p410
sg17
S'clim.AC4570_bio15.tif'
p411
sg19
S'climate'
p412
sg21
S'../views/GTiff/clim.AC4570_bio15.tif'
p413
sg23
S'4430'
p414
sg25
S'Precipitation Seasonality (Coefficient of Variation) AC RCP45 2070'
p415
sg27
g28
sg29
g30
sg31
S'clim.AC4570_bio15'
p416
sg33
g34
sg35
g36
sg37
S'2070'
p417
ssS'bio4'
p418
(dp419
g6
S'AC4570_bio4'
p420
sg8
I740
sg9
S'Bio4'
p421
sg11
S'Temperature Seasonality (standard deviation *100)'
p422
sg13
S'45'
p423
sg15
g248
sg17
S'clim.AC4570_bio4.tif'
p424
sg19
S'climate'
p425
sg21
S'../views/GTiff/clim.AC4570_bio4.tif'
p426
sg23
S'4431'
p427
sg25
S'Temperature Seasonality (standard deviation *100) AC RCP45 2070'
p428
sg27
g28
sg29
g30
sg31
S'clim.AC4570_bio4'
p429
sg33
g34
sg35
g36
sg37
S'2070'
p430
ssS'bio5'
p431
(dp432
g6
S'AC4570_bio5'
p433
sg8
I754
sg9
S'Bio5'
p434
sg11
S'Max Temperature of Warmest Month'
p435
sg13
S'45'
p436
sg15
S'AC4570'
p437
sg17
S'clim.AC4570_bio5.tif'
p438
sg19
S'climate'
p439
sg21
S'../views/GTiff/clim.AC4570_bio5.tif'
p440
sg23
S'4432'
p441
sg25
S'Max Temperature of Warmest Month AC RCP45 2070'
p442
sg27
g28
sg29
g30
sg31
S'clim.AC4570_bio5'
p443
sg33
g34
sg35
g36
sg37
S'2070'
p444
ssS'bio18'
p445
(dp446
g6
S'AC4570_bio18'
p447
sg8
I785
sg9
S'Bio18'
p448
sg11
S'Precipitation of Warmest Quarter'
p449
sg13
S'45'
p450
sg15
S'AC4570'
p451
sg17
S'clim.AC4570_bio18.tif'
p452
sg19
S'climate'
p453
sg21
S'../views/GTiff/clim.AC4570_bio18.tif'
p454
sg23
S'4433'
p455
sg25
S'Precipitation of Warmest Quarter AC RCP45 2070'
p456
sg27
g28
sg29
g30
sg31
S'clim.AC4570_bio18'
p457
sg33
g34
sg35
g36
sg37
S'2070'
p458
ssS'bio14'
p459
(dp460
g6
S'AC4570_bio14'
p461
sg8
I787
sg9
S'Bio14'
p462
sg11
S'Precipitation of Driest Month'
p463
sg13
S'45'
p464
sg15
S'AC4570'
p465
sg17
S'clim.AC4570_bio14.tif'
p466
sg19
S'climate'
p467
sg21
S'../views/GTiff/clim.AC4570_bio14.tif'
p468
sg23
S'4434'
p469
sg25
S'Precipitation of Driest Month AC RCP45 2070'
p470
sg27
g28
sg29
g30
sg31
S'clim.AC4570_bio14'
p471
sg33
g34
sg35
g36
sg37
S'2070'
p472
ssS'bio8'
p473
(dp474
g6
S'AC4570_bio8'
p475
sg8
I741
sg9
S'Bio8'
p476
sg11
S'Mean Temperature of Wettest Quarter'
p477
sg13
S'45'
p478
sg15
S'AC4570'
p479
sg17
S'clim.AC4570_bio8.tif'
p480
sg19
S'climate'
p481
sg21
S'../views/GTiff/clim.AC4570_bio8.tif'
p482
sg23
S'4435'
p483
sg25
S'Mean Temperature of Wettest Quarter AC RCP45 2070'
p484
sg27
g28
sg29
g30
sg31
S'clim.AC4570_bio8'
p485
sg33
g34
sg35
g36
sg37
S'2070'
p486
ssS'bio9'
p487
(dp488
g6
S'AC4570_bio9'
p489
sg8
I780
sg9
S'Bio9'
p490
sg11
S'Mean Temperature of Driest Quarter'
p491
sg13
S'45'
p492
sg15
S'AC4570'
p493
sg17
S'clim.AC4570_bio9.tif'
p494
sg19
S'climate'
p495
sg21
S'../views/GTiff/clim.AC4570_bio9.tif'
p496
sg23
S'4436'
p497
sg25
S'Mean Temperature of Driest Quarter AC RCP45 2070'
p498
sg27
g28
sg29
g30
sg31
S'clim.AC4570_bio9'
p499
sg33
g34
sg35
g36
sg37
S'2070'
p500
ssS'bio7'
p501
(dp502
g6
S'AC4570_bio7'
p503
sg8
I789
sg9
S'Bio7'
p504
sg11
S'Temperature Annual Range (BIO5-BIO6)'
p505
sg13
S'45'
p506
sg15
S'AC4570'
p507
sg17
S'clim.AC4570_bio7.tif'
p508
sg19
S'climate'
p509
sg21
S'../views/GTiff/clim.AC4570_bio7.tif'
p510
sg23
S'4437'
p511
sg25
S'Temperature Annual Range (BIO5-BIO6) AC RCP45 2070'
p512
sg27
g28
sg29
g30
sg31
S'clim.AC4570_bio7'
p513
sg33
g34
sg35
g36
sg37
S'2070'
p514
sssS'CURR'
p515
(dp516
S'bio10'
p517
(dp518
g6
S'CURR_bio10'
p519
sg8
I769
sg9
S'Bio10'
p520
sg11
S'Mean Temperature of Warmest Quarter'
p521
sg13
S'Present'
p522
sg15
S'CURR'
p523
sg17
S'clim.CURR_bio10.tif'
p524
sg19
S'climate'
p525
sg21
S'../views/GTiff/clim.CURR_bio10.tif'
p526
sg23
S'4438'
p527
sg25
S'Mean Temperature of Warmest Quarter Current Climate 1960-2000'
p528
sg27
g28
sg29
g30
sg31
S'clim.CURR_bio10'
p529
sg33
g34
sg35
g36
sg37
S'Present'
p530
ssS'bio19'
p531
(dp532
g6
S'CURR_bio19'
p533
sg8
I783
sg9
S'Bio19'
p534
sg11
S'Precipitation of Coldest Quarter'
p535
sg13
S'Present'
p536
sg15
S'CURR'
p537
sg17
S'clim.CURR_bio19.tif'
p538
sg19
S'climate'
p539
sg21
S'../views/GTiff/clim.CURR_bio19.tif'
p540
sg23
S'4439'
p541
sg25
S'Precipitation of Coldest Quarter Current Climate 1960-2000'
p542
sg27
g28
sg29
g30
sg31
S'clim.CURR_bio19'
p543
sg33
g34
sg35
g36
sg37
S'Present'
p544
ssS'bio16'
p545
(dp546
g6
S'CURR_bio16'
p547
sg8
I773
sg9
S'Bio16'
p548
sg11
S'Precipitation of Wettest Quarter'
p549
sg13
S'Present'
p550
sg15
S'CURR'
p551
sg17
S'clim.CURR_bio16.tif'
p552
sg19
S'climate'
p553
sg21
S'../views/GTiff/clim.CURR_bio16.tif'
p554
sg23
S'4440'
p555
sg25
S'Precipitation of Wettest Quarter Current Climate 1960-2000'
p556
sg27
g28
sg29
g30
sg31
S'clim.CURR_bio16'
p557
sg33
g34
sg35
g36
sg37
S'Present'
p558
ssS'bio3'
p559
(dp560
g6
S'CURR_bio3'
p561
sg8
I756
sg9
S'Bio3'
p562
sg11
S'Isothermality (BIO2/BIO7) (* 100)'
p563
sg13
S'Present'
p564
sg15
S'CURR'
p565
sg17
S'clim.CURR_bio3.tif'
p566
sg19
S'climate'
p567
sg21
S'../views/GTiff/clim.CURR_bio3.tif'
p568
sg23
S'4441'
p569
sg25
S'Isothermality (BIO2/BIO7) (* 100) Current Climate 1960-2000'
p570
sg27
g28
sg29
g30
sg31
S'clim.CURR_bio3'
p571
sg33
g34
sg35
g36
sg37
S'Present'
p572
ssS'bio17'
p573
(dp574
g6
S'CURR_bio17'
p575
sg8
I760
sg9
S'Bio17'
p576
sg11
S'Precipitation of Driest Quarter'
p577
sg13
S'Present'
p578
sg15
S'CURR'
p579
sg17
S'clim.CURR_bio17.tif'
p580
sg19
S'climate'
p581
sg21
S'../views/GTiff/clim.CURR_bio17.tif'
p582
sg23
S'4442'
p583
sg25
S'Precipitation of Driest Quarter Current Climate 1960-2000'
p584
sg27
g28
sg29
g30
sg31
S'clim.CURR_bio17'
p585
sg33
g34
sg35
g36
sg37
S'Present'
p586
ssS'bio1'
p587
(dp588
g6
S'CURR_bio1'
p589
sg8
I788
sg9
S'Bio1'
p590
sg11
S'Annual Mean Temperature'
p591
sg13
S'Present'
p592
sg15
S'CURR'
p593
sg17
S'clim.CURR_bio1.tif'
p594
sg19
S'climate'
p595
sg21
S'../views/GTiff/clim.CURR_bio1.tif'
p596
sg23
S'4443'
p597
sg25
S'Annual Mean Temperature Current Climate 1960-2000'
p598
sg27
g28
sg29
g30
sg31
S'clim.CURR_bio1'
p599
sg33
g34
sg35
g36
sg37
S'Present'
p600
ssS'bio2'
p601
(dp602
g6
S'CURR_bio2'
p603
sg8
I749
sg9
S'Bio2'
p604
sg11
S'Mean Diurnal Range (Mean of monthly (max temp - min temp))'
p605
sg13
S'Present'
p606
sg15
S'CURR'
p607
sg17
S'clim.CURR_bio2.tif'
p608
sg19
S'climate'
p609
sg21
S'../views/GTiff/clim.CURR_bio2.tif'
p610
sg23
S'4444'
p611
sg25
S'Mean Diurnal Range (Mean of monthly (max temp - min temp)) Current Climate 1960-2000'
p612
sg27
g28
sg29
g30
sg31
S'clim.CURR_bio2'
p613
sg33
g34
sg35
g36
sg37
S'Present'
p614
ssS'bio11'
p615
(dp616
g6
S'CURR_bio11'
p617
sg8
I742
sg9
S'Bio11'
p618
sg11
S'Mean Temperature of Coldest Quarter'
p619
sg13
S'Present'
p620
sg15
g515
sg17
S'clim.CURR_bio11.tif'
p621
sg19
S'climate'
p622
sg21
S'../views/GTiff/clim.CURR_bio11.tif'
p623
sg23
S'4445'
p624
sg25
S'Mean Temperature of Coldest Quarter Current Climate 1960-2000'
p625
sg27
g28
sg29
g30
sg31
S'clim.CURR_bio11'
p626
sg33
g34
sg35
g36
sg37
S'Present'
p627
ssS'bio12'
p628
(dp629
g6
S'CURR_bio12'
p630
sg8
I761
sg9
S'Bio12'
p631
sg11
S'Annual Precipitation'
p632
sg13
S'Present'
p633
sg15
S'CURR'
p634
sg17
S'clim.CURR_bio12.tif'
p635
sg19
S'climate'
p636
sg21
S'../views/GTiff/clim.CURR_bio12.tif'
p637
sg23
S'4446'
p638
sg25
S'Annual Precipitation Current Climate 1960-2000'
p639
sg27
g28
sg29
g30
sg31
S'clim.CURR_bio12'
p640
sg33
g34
sg35
g36
sg37
S'Present'
p641
ssS'bio13'
p642
(dp643
g6
S'CURR_bio13'
p644
sg8
I747
sg9
S'Bio13'
p645
sg11
S'Precipitation of Wettest Month'
p646
sg13
S'Present'
p647
sg15
S'CURR'
p648
sg17
S'clim.CURR_bio13.tif'
p649
sg19
S'climate'
p650
sg21
S'../views/GTiff/clim.CURR_bio13.tif'
p651
sg23
S'4447'
p652
sg25
S'Precipitation of Wettest Month Current Climate 1960-2000'
p653
sg27
g28
sg29
g30
sg31
S'clim.CURR_bio13'
p654
sg33
g34
sg35
g36
sg37
S'Present'
p655
ssS'bio14'
p656
(dp657
g6
S'CURR_bio14'
p658
sg8
I744
sg9
S'Bio14'
p659
sg11
S'Precipitation of Driest Month'
p660
sg13
S'Present'
p661
sg15
S'CURR'
p662
sg17
S'clim.CURR_bio14.tif'
p663
sg19
S'climate'
p664
sg21
S'../views/GTiff/clim.CURR_bio14.tif'
p665
sg23
S'4448'
p666
sg25
S'Precipitation of Driest Month Current Climate 1960-2000'
p667
sg27
g28
sg29
g30
sg31
S'clim.CURR_bio14'
p668
sg33
g34
sg35
g36
sg37
S'Present'
p669
ssS'bio7'
p670
(dp671
g6
S'CURR_bio7'
p672
sg8
I782
sg9
S'Bio7'
p673
sg11
S'Temperature Annual Range (BIO5-BIO6)'
p674
sg13
S'Present'
p675
sg15
S'CURR'
p676
sg17
S'clim.CURR_bio7.tif'
p677
sg19
S'climate'
p678
sg21
S'../views/GTiff/clim.CURR_bio7.tif'
p679
sg23
S'4449'
p680
sg25
S'Temperature Annual Range (BIO5-BIO6) Current Climate 1960-2000'
p681
sg27
g28
sg29
g30
sg31
S'clim.CURR_bio7'
p682
sg33
g34
sg35
g36
sg37
S'Present'
p683
ssS'bio4'
p684
(dp685
g6
S'CURR_bio4'
p686
sg8
I771
sg9
S'Bio4'
p687
sg11
S'Temperature Seasonality (standard deviation *100)'
p688
sg13
S'Present'
p689
sg15
S'CURR'
p690
sg17
S'clim.CURR_bio4.tif'
p691
sg19
S'climate'
p692
sg21
S'../views/GTiff/clim.CURR_bio4.tif'
p693
sg23
S'4450'
p694
sg25
S'Temperature Seasonality (standard deviation *100) Current Climate 1960-2000'
p695
sg27
g28
sg29
g30
sg31
S'clim.CURR_bio4'
p696
sg33
g34
sg35
g36
sg37
S'Present'
p697
ssS'bio5'
p698
(dp699
g6
S'CURR_bio5'
p700
sg8
I755
sg9
S'Bio5'
p701
sg11
S'Max Temperature of Warmest Month'
p702
sg13
S'Present'
p703
sg15
S'CURR'
p704
sg17
S'clim.CURR_bio5.tif'
p705
sg19
S'climate'
p706
sg21
S'../views/GTiff/clim.CURR_bio5.tif'
p707
sg23
S'4451'
p708
sg25
S'Max Temperature of Warmest Month Current Climate 1960-2000'
p709
sg27
g28
sg29
g30
sg31
S'clim.CURR_bio5'
p710
sg33
g34
sg35
g36
sg37
S'Present'
p711
ssS'bio18'
p712
(dp713
g6
S'CURR_bio18'
p714
sg8
I765
sg9
S'Bio18'
p715
sg11
S'Precipitation of Warmest Quarter'
p716
sg13
S'Present'
p717
sg15
S'CURR'
p718
sg17
S'clim.CURR_bio18.tif'
p719
sg19
S'climate'
p720
sg21
S'../views/GTiff/clim.CURR_bio18.tif'
p721
sg23
S'4452'
p722
sg25
S'Precipitation of Warmest Quarter Current Climate 1960-2000'
p723
sg27
g28
sg29
g30
sg31
S'clim.CURR_bio18'
p724
sg33
g34
sg35
g36
sg37
S'Present'
p725
ssS'bio6'
p726
(dp727
g6
S'CURR_bio6'
p728
sg8
I758
sg9
S'Bio6'
p729
sg11
S'Min Temperature of Coldest Month'
p730
sg13
S'Present'
p731
sg15
S'CURR'
p732
sg17
S'clim.CURR_bio6.tif'
p733
sg19
S'climate'
p734
sg21
S'../views/GTiff/clim.CURR_bio6.tif'
p735
sg23
S'4453'
p736
sg25
S'Min Temperature of Coldest Month Current Climate 1960-2000'
p737
sg27
g28
sg29
g30
sg31
S'clim.CURR_bio6'
p738
sg33
g34
sg35
g36
sg37
S'Present'
p739
ssS'bio8'
p740
(dp741
g6
S'CURR_bio8'
p742
sg8
I768
sg9
S'Bio8'
p743
sg11
S'Mean Temperature of Wettest Quarter'
p744
sg13
S'Present'
p745
sg15
S'CURR'
p746
sg17
S'clim.CURR_bio8.tif'
p747
sg19
S'climate'
p748
sg21
S'../views/GTiff/clim.CURR_bio8.tif'
p749
sg23
S'4454'
p750
sg25
S'Mean Temperature of Wettest Quarter Current Climate 1960-2000'
p751
sg27
g28
sg29
g30
sg31
S'clim.CURR_bio8'
p752
sg33
g34
sg35
g36
sg37
S'Present'
p753
ssS'bio9'
p754
(dp755
g6
S'CURR_bio9'
p756
sg8
I743
sg9
S'Bio9'
p757
sg11
S'Mean Temperature of Driest Quarter'
p758
sg13
S'Present'
p759
sg15
S'CURR'
p760
sg17
S'clim.CURR_bio9.tif'
p761
sg19
S'climate'
p762
sg21
S'../views/GTiff/clim.CURR_bio9.tif'
p763
sg23
S'4455'
p764
sg25
S'Mean Temperature of Driest Quarter Current Climate 1960-2000'
p765
sg27
g28
sg29
g30
sg31
S'clim.CURR_bio9'
p766
sg33
g34
sg35
g36
sg37
S'Present'
p767
ssS'bio15'
p768
(dp769
g6
S'CURR_bio15'
p770
sg8
I784
sg9
S'Bio15'
p771
sg11
S'Precipitation Seasonality (Coefficient of Variation)'
p772
sg13
S'Present'
p773
sg15
S'CURR'
p774
sg17
S'clim.CURR_bio15.tif'
p775
sg19
S'climate'
p776
sg21
S'../views/GTiff/clim.CURR_bio15.tif'
p777
sg23
S'4456'
p778
sg25
S'Precipitation Seasonality (Coefficient of Variation) Current Climate 1960-2000'
p779
sg27
g28
sg29
g30
sg31
S'clim.CURR_bio15'
p780
sg33
g34
sg35
g36
sg37
S'Present'
p781
sss.