(dp1
S'bio2'
p2
(dp3
S'clim.CURR_bio2'
p4
(dp5
S'envLayerType'
p6
S'CURR_bio2'
p7
sS'Name'
p8
I9
sS'title'
p9
S'clim.CURR_bio2.tif'
p10
sS'epsgCode'
p11
S'4326'
p12
sS'fileName'
p13
S'../views/GTiff/clim.CURR_bio2.tif'
p14
sS'Current'
p15
I1
sS'lyrID'
p16
S'4109'
p17
sS'dataFormat'
p18
S'GTiff'
p19
sS'units'
p20
S'dd'
p21
sS'fullname'
p22
S'clim.CURR_bio2'
p23
sS'resolution'
p24
F2.5
ssS'clim.AC4550_bio2'
p25
(dp26
g6
S'AC4550_bio2'
p27
sg8
I10
sg9
S'clim.AC4550_bio2.tif'
p28
sg11
g12
sg13
S'../views/GTiff/clim.AC4550_bio2.tif'
p29
sg15
I0
sg16
S'4110'
p30
sg18
g19
sg20
g21
sg22
S'clim.AC4550_bio2'
p31
sg24
F2.5
ssS'clim.AC4570_bio2'
p32
(dp33
g6
S'AC4570_bio2'
p34
sg8
I39
sg9
S'clim.AC4570_bio2.tif'
p35
sg11
g12
sg13
S'../views/GTiff/clim.AC4570_bio2.tif'
p36
sg15
I0
sg16
S'4111'
p37
sg18
g19
sg20
g21
sg22
S'clim.AC4570_bio2'
p38
sg24
F2.5
sssS'bio19'
p39
(dp40
S'clim.AC4550_bio19'
p41
(dp42
g6
S'AC4550_bio19'
p43
sg8
I32
sg9
S'clim.AC4550_bio19.tif'
p44
sg11
g12
sg13
S'../views/GTiff/clim.AC4550_bio19.tif'
p45
sg15
I0
sg16
S'4112'
p46
sg18
g19
sg20
g21
sg22
S'clim.AC4550_bio19'
p47
sg24
F2.5
ssS'clim.AC4570_bio19'
p48
(dp49
g6
S'AC4570_bio19'
p50
sg8
I53
sg9
S'clim.AC4570_bio19.tif'
p51
sg11
g12
sg13
S'../views/GTiff/clim.AC4570_bio19.tif'
p52
sg15
I0
sg16
S'4113'
p53
sg18
g19
sg20
g21
sg22
S'clim.AC4570_bio19'
p54
sg24
F2.5
ssS'clim.CURR_bio19'
p55
(dp56
g6
S'CURR_bio19'
p57
sg8
I43
sg9
S'clim.CURR_bio19.tif'
p58
sg11
g12
sg13
S'../views/GTiff/clim.CURR_bio19.tif'
p59
sg15
I1
sg16
S'4114'
p60
sg18
g19
sg20
g21
sg22
S'clim.CURR_bio19'
p61
sg24
F2.5
sssS'bio16'
p62
(dp63
S'clim.AC4570_bio16'
p64
(dp65
g6
S'AC4570_bio16'
p66
sg8
I38
sg9
S'clim.AC4570_bio16.tif'
p67
sg11
g12
sg13
S'../views/GTiff/clim.AC4570_bio16.tif'
p68
sg15
I0
sg16
S'4115'
p69
sg18
g19
sg20
g21
sg22
S'clim.AC4570_bio16'
p70
sg24
F2.5
ssS'clim.CURR_bio16'
p71
(dp72
g6
S'CURR_bio16'
p73
sg8
I33
sg9
S'clim.CURR_bio16.tif'
p74
sg11
g12
sg13
S'../views/GTiff/clim.CURR_bio16.tif'
p75
sg15
I1
sg16
S'4116'
p76
sg18
g19
sg20
g21
sg22
S'clim.CURR_bio16'
p77
sg24
F2.5
ssS'clim.AC4550_bio16'
p78
(dp79
g6
S'AC4550_bio16'
p80
sg8
I26
sg9
S'clim.AC4550_bio16.tif'
p81
sg11
g12
sg13
S'../views/GTiff/clim.AC4550_bio16.tif'
p82
sg15
I0
sg16
S'4117'
p83
sg18
g19
sg20
g21
sg22
S'clim.AC4550_bio16'
p84
sg24
F2.5
sssS'bio3'
p85
(dp86
S'clim.CURR_bio3'
p87
(dp88
g6
S'CURR_bio3'
p89
sg8
I16
sg9
S'clim.CURR_bio3.tif'
p90
sg11
g12
sg13
S'../views/GTiff/clim.CURR_bio3.tif'
p91
sg15
I1
sg16
S'4118'
p92
sg18
g19
sg20
g21
sg22
S'clim.CURR_bio3'
p93
sg24
F2.5
ssS'clim.AC4570_bio3'
p94
(dp95
g6
S'AC4570_bio3'
p96
sg8
I52
sg9
S'clim.AC4570_bio3.tif'
p97
sg11
g12
sg13
S'../views/GTiff/clim.AC4570_bio3.tif'
p98
sg15
I0
sg16
S'4119'
p99
sg18
g19
sg20
g21
sg22
S'clim.AC4570_bio3'
p100
sg24
F2.5
sssS'bio5'
p101
(dp102
S'clim.AC4570_bio5'
p103
(dp104
g6
S'AC4570_bio5'
p105
sg8
I14
sg9
S'clim.AC4570_bio5.tif'
p106
sg11
g12
sg13
S'../views/GTiff/clim.AC4570_bio5.tif'
p107
sg15
I0
sg16
S'4120'
p108
sg18
g19
sg20
g21
sg22
S'clim.AC4570_bio5'
p109
sg24
F2.5
ssS'clim.CURR_bio5'
p110
(dp111
g6
S'CURR_bio5'
p112
sg8
I15
sg9
S'clim.CURR_bio5.tif'
p113
sg11
g12
sg13
S'../views/GTiff/clim.CURR_bio5.tif'
p114
sg15
I1
sg16
S'4121'
p115
sg18
g19
sg20
g21
sg22
S'clim.CURR_bio5'
p116
sg24
F2.5
sssS'bio1'
p117
(dp118
S'clim.CURR_bio1'
p119
(dp120
g6
S'CURR_bio1'
p121
sg8
I48
sg9
S'clim.CURR_bio1.tif'
p122
sg11
g12
sg13
S'../views/GTiff/clim.CURR_bio1.tif'
p123
sg15
I1
sg16
S'4122'
p124
sg18
g19
sg20
g21
sg22
S'clim.CURR_bio1'
p125
sg24
F2.5
ssS'clim.AC4550_bio1'
p126
(dp127
g6
S'AC4550_bio1'
p128
sg8
I19
sg9
S'clim.AC4550_bio1.tif'
p129
sg11
g12
sg13
S'../views/GTiff/clim.AC4550_bio1.tif'
p130
sg15
I0
sg16
S'4123'
p131
sg18
g19
sg20
g21
sg22
S'clim.AC4550_bio1'
p132
sg24
F2.5
ssS'clim.AC4570_bio1'
p133
(dp134
g6
S'AC4570_bio1'
p135
sg8
I12
sg9
S'clim.AC4570_bio1.tif'
p136
sg11
g12
sg13
S'../views/GTiff/clim.AC4570_bio1.tif'
p137
sg15
I0
sg16
S'4124'
p138
sg18
g19
sg20
g21
sg22
S'clim.AC4570_bio1'
p139
sg24
F2.5
sssS'bio10'
p140
(dp141
S'clim.AC4550_bio10'
p142
(dp143
g6
S'AC4550_bio10'
p144
sg8
I27
sg9
S'clim.AC4550_bio10.tif'
p145
sg11
g12
sg13
S'../views/GTiff/clim.AC4550_bio10.tif'
p146
sg15
I0
sg16
S'4125'
p147
sg18
g19
sg20
g21
sg22
S'clim.AC4550_bio10'
p148
sg24
F2.5
ssS'clim.CURR_bio10'
p149
(dp150
g6
S'CURR_bio10'
p151
sg8
I29
sg9
S'clim.CURR_bio10.tif'
p152
sg11
g12
sg13
S'../views/GTiff/clim.CURR_bio10.tif'
p153
sg15
I1
sg16
S'4126'
p154
sg18
g19
sg20
g21
sg22
S'clim.CURR_bio10'
p155
sg24
F2.5
ssS'clim.AC4570_bio10'
p156
(dp157
g6
S'AC4570_bio10'
p158
sg8
I6
sg9
S'clim.AC4570_bio10.tif'
p159
sg11
g12
sg13
S'../views/GTiff/clim.AC4570_bio10.tif'
p160
sg15
I0
sg16
S'4127'
p161
sg18
g19
sg20
g21
sg22
S'clim.AC4570_bio10'
p162
sg24
F2.5
sssS'bio11'
p163
(dp164
S'clim.CURR_bio11'
p165
(dp166
g6
S'CURR_bio11'
p167
sg8
I2
sg9
S'clim.CURR_bio11.tif'
p168
sg11
g12
sg13
S'../views/GTiff/clim.CURR_bio11.tif'
p169
sg15
I1
sg16
S'4128'
p170
sg18
g19
sg20
g21
sg22
S'clim.CURR_bio11'
p171
sg24
F2.5
ssS'clim.AC4570_bio11'
p172
(dp173
g6
S'AC4570_bio11'
p174
sg8
I24
sg9
S'clim.AC4570_bio11.tif'
p175
sg11
g12
sg13
S'../views/GTiff/clim.AC4570_bio11.tif'
p176
sg15
I0
sg16
S'4129'
p177
sg18
g19
sg20
g21
sg22
S'clim.AC4570_bio11'
p178
sg24
F2.5
ssS'clim.AC4550_bio11'
p179
(dp180
g6
S'AC4550_bio11'
p181
sg8
I17
sg9
S'clim.AC4550_bio11.tif'
p182
sg11
g12
sg13
S'../views/GTiff/clim.AC4550_bio11.tif'
p183
sg15
I0
sg16
S'4130'
p184
sg18
g19
sg20
g21
sg22
S'clim.AC4550_bio11'
p185
sg24
F2.5
sssS'bio12'
p186
(dp187
S'clim.CURR_bio12'
p188
(dp189
g6
S'CURR_bio12'
p190
sg8
I21
sg9
S'clim.CURR_bio12.tif'
p191
sg11
g12
sg13
S'../views/GTiff/clim.CURR_bio12.tif'
p192
sg15
I1
sg16
S'4131'
p193
sg18
g19
sg20
g21
sg22
S'clim.CURR_bio12'
p194
sg24
F2.5
ssS'clim.AC4570_bio12'
p195
(dp196
g6
S'AC4570_bio12'
p197
sg8
I34
sg9
S'clim.AC4570_bio12.tif'
p198
sg11
g12
sg13
S'../views/GTiff/clim.AC4570_bio12.tif'
p199
sg15
I0
sg16
S'4132'
p200
sg18
g19
sg20
g21
sg22
S'clim.AC4570_bio12'
p201
sg24
F2.5
ssS'clim.AC4550_bio12'
p202
(dp203
g6
S'AC4550_bio12'
p204
sg8
I22
sg9
S'clim.AC4550_bio12.tif'
p205
sg11
g12
sg13
S'../views/GTiff/clim.AC4550_bio12.tif'
p206
sg15
I0
sg16
S'4133'
p207
sg18
g19
sg20
g21
sg22
S'clim.AC4550_bio12'
p208
sg24
F2.5
sssS'bio13'
p209
(dp210
S'clim.CURR_bio13'
p211
(dp212
g6
S'CURR_bio13'
p213
sg8
I7
sg9
S'clim.CURR_bio13.tif'
p214
sg11
g12
sg13
S'../views/GTiff/clim.CURR_bio13.tif'
p215
sg15
I1
sg16
S'4134'
p216
sg18
g19
sg20
g21
sg22
S'clim.CURR_bio13'
p217
sg24
F2.5
ssS'clim.AC4570_bio13'
p218
(dp219
g6
S'AC4570_bio13'
p220
sg8
I50
sg9
S'clim.AC4570_bio13.tif'
p221
sg11
g12
sg13
S'../views/GTiff/clim.AC4570_bio13.tif'
p222
sg15
I0
sg16
S'4135'
p223
sg18
g19
sg20
g21
sg22
S'clim.AC4570_bio13'
p224
sg24
F2.5
ssS'clim.AC4550_bio13'
p225
(dp226
g6
S'AC4550_bio13'
p227
sg8
I35
sg9
S'clim.AC4550_bio13.tif'
p228
sg11
g12
sg13
S'../views/GTiff/clim.AC4550_bio13.tif'
p229
sg15
I0
sg16
S'4136'
p230
sg18
g19
sg20
g21
sg22
S'clim.AC4550_bio13'
p231
sg24
F2.5
sssS'bio6'
p232
(dp233
S'clim.CURR_bio6'
p234
(dp235
g6
S'CURR_bio6'
p236
sg8
I18
sg9
S'clim.CURR_bio6.tif'
p237
sg11
g12
sg13
S'../views/GTiff/clim.CURR_bio6.tif'
p238
sg15
I1
sg16
S'4137'
p239
sg18
g19
sg20
g21
sg22
S'clim.CURR_bio6'
p240
sg24
F2.5
ssS'clim.AC4570_bio6'
p241
(dp242
g6
S'AC4570_bio6'
p243
sg8
I30
sg9
S'clim.AC4570_bio6.tif'
p244
sg11
g12
sg13
S'../views/GTiff/clim.AC4570_bio6.tif'
p245
sg15
I0
sg16
S'4138'
p246
sg18
g19
sg20
g21
sg22
S'clim.AC4570_bio6'
p247
sg24
F2.5
ssS'clim.AC4550_bio6'
p248
(dp249
g6
S'AC4550_bio6'
p250
sg8
I5
sg9
S'clim.AC4550_bio6.tif'
p251
sg11
g12
sg13
S'../views/GTiff/clim.AC4550_bio6.tif'
p252
sg15
I0
sg16
S'4139'
p253
sg18
g19
sg20
g21
sg22
S'clim.AC4550_bio6'
p254
sg24
F2.5
sssS'bio15'
p255
(dp256
S'clim.AC4570_bio15'
p257
(dp258
g6
S'AC4570_bio15'
p259
sg8
I11
sg9
S'clim.AC4570_bio15.tif'
p260
sg11
g12
sg13
S'../views/GTiff/clim.AC4570_bio15.tif'
p261
sg15
I0
sg16
S'4140'
p262
sg18
g19
sg20
g21
sg22
S'clim.AC4570_bio15'
p263
sg24
F2.5
ssS'clim.CURR_bio15'
p264
(dp265
g6
S'CURR_bio15'
p266
sg8
I44
sg9
S'clim.CURR_bio15.tif'
p267
sg11
g12
sg13
S'../views/GTiff/clim.CURR_bio15.tif'
p268
sg15
I1
sg16
S'4141'
p269
sg18
g19
sg20
g21
sg22
S'clim.CURR_bio15'
p270
sg24
F2.5
ssS'clim.AC4550_bio15'
p271
(dp272
g6
S'AC4550_bio15'
p273
sg8
I46
sg9
S'clim.AC4550_bio15.tif'
p274
sg11
g12
sg13
S'../views/GTiff/clim.AC4550_bio15.tif'
p275
sg15
I0
sg16
S'4142'
p276
sg18
g19
sg20
g21
sg22
S'clim.AC4550_bio15'
p277
sg24
F2.5
sssS'bio4'
p278
(dp279
S'clim.AC4570_bio4'
p280
(dp281
g6
S'AC4570_bio4'
p282
sg8
I0
sg9
S'clim.AC4570_bio4.tif'
p283
sg11
g12
sg13
S'../views/GTiff/clim.AC4570_bio4.tif'
p284
sg15
I0
sg16
S'4143'
p285
sg18
g19
sg20
g21
sg22
S'clim.AC4570_bio4'
p286
sg24
F2.5
ssS'clim.CURR_bio4'
p287
(dp288
g6
S'CURR_bio4'
p289
sg8
I31
sg9
S'clim.CURR_bio4.tif'
p290
sg11
g12
sg13
S'../views/GTiff/clim.CURR_bio4.tif'
p291
sg15
I1
sg16
S'4144'
p292
sg18
g19
sg20
g21
sg22
S'clim.CURR_bio4'
p293
sg24
F2.5
sssS'bio17'
p294
(dp295
S'clim.AC4570_bio17'
p296
(dp297
g6
S'AC4570_bio17'
p298
sg8
I23
sg9
S'clim.AC4570_bio17.tif'
p299
sg11
g12
sg13
S'../views/GTiff/clim.AC4570_bio17.tif'
p300
sg15
I0
sg16
S'4145'
p301
sg18
g19
sg20
g21
sg22
S'clim.AC4570_bio17'
p302
sg24
F2.5
ssS'clim.CURR_bio17'
p303
(dp304
g6
S'CURR_bio17'
p305
sg8
I20
sg9
S'clim.CURR_bio17.tif'
p306
sg11
g12
sg13
S'../views/GTiff/clim.CURR_bio17.tif'
p307
sg15
I1
sg16
S'4146'
p308
sg18
g19
sg20
g21
sg22
S'clim.CURR_bio17'
p309
sg24
F2.5
ssS'clim.AC4550_bio17'
p310
(dp311
g6
S'AC4550_bio17'
p312
sg8
I8
sg9
S'clim.AC4550_bio17.tif'
p313
sg11
g12
sg13
S'../views/GTiff/clim.AC4550_bio17.tif'
p314
sg15
I0
sg16
S'4147'
p315
sg18
g19
sg20
g21
sg22
S'clim.AC4550_bio17'
p316
sg24
F2.5
sssS'bio18'
p317
(dp318
S'clim.CURR_bio18'
p319
(dp320
g6
S'CURR_bio18'
p321
sg8
I25
sg9
S'clim.CURR_bio18.tif'
p322
sg11
g12
sg13
S'../views/GTiff/clim.CURR_bio18.tif'
p323
sg15
I1
sg16
S'4148'
p324
sg18
g19
sg20
g21
sg22
S'clim.CURR_bio18'
p325
sg24
F2.5
ssS'clim.AC4550_bio18'
p326
(dp327
g6
S'AC4550_bio18'
p328
sg8
I51
sg9
S'clim.AC4550_bio18.tif'
p329
sg11
g12
sg13
S'../views/GTiff/clim.AC4550_bio18.tif'
p330
sg15
I0
sg16
S'4149'
p331
sg18
g19
sg20
g21
sg22
S'clim.AC4550_bio18'
p332
sg24
F2.5
ssS'clim.AC4570_bio18'
p333
(dp334
g6
S'AC4570_bio18'
p335
sg8
I45
sg9
S'clim.AC4570_bio18.tif'
p336
sg11
g12
sg13
S'../views/GTiff/clim.AC4570_bio18.tif'
p337
sg15
I0
sg16
S'4150'
p338
sg18
g19
sg20
g21
sg22
S'clim.AC4570_bio18'
p339
sg24
F2.5
sssS'bio14'
p340
(dp341
S'clim.AC4550_bio14'
p342
(dp343
g6
S'AC4550_bio14'
p344
sg8
I37
sg9
S'clim.AC4550_bio14.tif'
p345
sg11
g12
sg13
S'../views/GTiff/clim.AC4550_bio14.tif'
p346
sg15
I0
sg16
S'4151'
p347
sg18
g19
sg20
g21
sg22
S'clim.AC4550_bio14'
p348
sg24
F2.5
ssS'clim.AC4570_bio14'
p349
(dp350
g6
S'AC4570_bio14'
p351
sg8
I47
sg9
S'clim.AC4570_bio14.tif'
p352
sg11
g12
sg13
S'../views/GTiff/clim.AC4570_bio14.tif'
p353
sg15
I0
sg16
S'4152'
p354
sg18
g19
sg20
g21
sg22
S'clim.AC4570_bio14'
p355
sg24
F2.5
ssS'clim.CURR_bio14'
p356
(dp357
g6
S'CURR_bio14'
p358
sg8
I4
sg9
S'clim.CURR_bio14.tif'
p359
sg11
g12
sg13
S'../views/GTiff/clim.CURR_bio14.tif'
p360
sg15
I1
sg16
S'4153'
p361
sg18
g19
sg20
g21
sg22
S'clim.CURR_bio14'
p362
sg24
F2.5
sssS'bio8'
p363
(dp364
S'clim.CURR_bio8'
p365
(dp366
g6
S'CURR_bio8'
p367
sg8
I28
sg9
S'clim.CURR_bio8.tif'
p368
sg11
g12
sg13
S'../views/GTiff/clim.CURR_bio8.tif'
p369
sg15
I1
sg16
S'4154'
p370
sg18
g19
sg20
g21
sg22
S'clim.CURR_bio8'
p371
sg24
F2.5
ssS'clim.AC4570_bio8'
p372
(dp373
g6
S'AC4570_bio8'
p374
sg8
I1
sg9
S'clim.AC4570_bio8.tif'
p375
sg11
g12
sg13
S'../views/GTiff/clim.AC4570_bio8.tif'
p376
sg15
I0
sg16
S'4155'
p377
sg18
g19
sg20
g21
sg22
S'clim.AC4570_bio8'
p378
sg24
F2.5
ssS'clim.AC4550_bio8'
p379
(dp380
g6
S'AC4550_bio8'
p381
sg8
I36
sg9
S'clim.AC4550_bio8.tif'
p382
sg11
g12
sg13
S'../views/GTiff/clim.AC4550_bio8.tif'
p383
sg15
I0
sg16
S'4156'
p384
sg18
g19
sg20
g21
sg22
S'clim.AC4550_bio8'
p385
sg24
F2.5
sssS'bio9'
p386
(dp387
S'clim.AC4550_bio9'
p388
(dp389
g6
S'AC4550_bio9'
p390
sg8
I41
sg9
S'clim.AC4550_bio9.tif'
p391
sg11
g12
sg13
S'../views/GTiff/clim.AC4550_bio9.tif'
p392
sg15
I0
sg16
S'4157'
p393
sg18
g19
sg20
g21
sg22
S'clim.AC4550_bio9'
p394
sg24
F2.5
ssS'clim.CURR_bio9'
p395
(dp396
g6
S'CURR_bio9'
p397
sg8
I3
sg9
S'clim.CURR_bio9.tif'
p398
sg11
g12
sg13
S'../views/GTiff/clim.CURR_bio9.tif'
p399
sg15
I1
sg16
S'4158'
p400
sg18
g19
sg20
g21
sg22
S'clim.CURR_bio9'
p401
sg24
F2.5
ssS'clim.AC4570_bio9'
p402
(dp403
g6
S'AC4570_bio9'
p404
sg8
I40
sg9
S'clim.AC4570_bio9.tif'
p405
sg11
g12
sg13
S'../views/GTiff/clim.AC4570_bio9.tif'
p406
sg15
I0
sg16
S'4159'
p407
sg18
g19
sg20
g21
sg22
S'clim.AC4570_bio9'
p408
sg24
F2.5
sssS'bio7'
p409
(dp410
S'clim.AC4570_bio7'
p411
(dp412
g6
S'AC4570_bio7'
p413
sg8
I49
sg9
S'clim.AC4570_bio7.tif'
p414
sg11
g12
sg13
S'../views/GTiff/clim.AC4570_bio7.tif'
p415
sg15
I0
sg16
S'4160'
p416
sg18
g19
sg20
g21
sg22
S'clim.AC4570_bio7'
p417
sg24
F2.5
ssS'clim.AC4550_bio7'
p418
(dp419
g6
S'AC4550_bio7'
p420
sg8
I13
sg9
S'clim.AC4550_bio7.tif'
p421
sg11
g12
sg13
S'../views/GTiff/clim.AC4550_bio7.tif'
p422
sg15
I0
sg16
S'4161'
p423
sg18
g19
sg20
g21
sg22
S'clim.AC4550_bio7'
p424
sg24
F2.5
ssS'clim.CURR_bio7'
p425
(dp426
g6
S'CURR_bio7'
p427
sg8
I42
sg9
S'clim.CURR_bio7.tif'
p428
sg11
g12
sg13
S'../views/GTiff/clim.CURR_bio7.tif'
p429
sg15
I1
sg16
S'4162'
p430
sg18
g19
sg20
g21
sg22
S'clim.CURR_bio7'
p431
sg24
F2.5
sss.