(dp1
S'Caede'
p2
(dp3
S''
S'5665035'
p4
sS'occurrenceID'
p5
S'5665034'
p6
sS'epsgCode'
p7
S'4326'
p8
sS'shpPath'
p9
S'../views/shapefiles/Caede.shp'
p10
sS'species'
p11
S'Caede'
p12
ssS'Abies_balsamea'
p13
(dp14
g9
S'../views/shapefiles/Abies_balsamea.shp'
p15
sg7
g8
sg5
g4
sg11
S'Abies_balsamea'
p16
ss.