(dp1
S'Caede_Ti12'
p2
(dp3
S'shpPath'
p4
S'../views/shapefiles/Caede_Ti12.shp'
p5
sS'epsgCode'
p6
S'4326'
p7
sS'occID'
p8
S'5646499'
p9
ssS'Caede_MB2'
p10
(dp11
g4
S'../views/shapefiles/Caede_MB2.shp'
p12
sg6
g7
sg8
S'5646500'
p13
ssS'CG'
p14
(dp15
g4
S'../views/shapefiles/CG.shp'
p16
sg6
g7
sg8
S'5646501'
p17
ssS'Caede_LUD3'
p18
(dp19
g4
S'../views/shapefiles/Caede_LUD3.shp'
p20
sg6
g7
sg8
S'5646502'
p21
ssS'Caede_CM9'
p22
(dp23
g4
S'../views/shapefiles/Caede_CM9.shp'
p24
sg6
g7
sg8
S'5646503'
p25
ssS'Cacon_BS20'
p26
(dp27
g4
S'../views/shapefiles/Cacon_BS20.shp'
p28
sg6
g7
sg8
S'5646504'
p29
ssS'Camar_CAR28'
p30
(dp31
g4
S'../views/shapefiles/Camar_CAR28.shp'
p32
sg6
g7
sg8
S'5646505'
p33
ssS'Caede_PJ19'
p34
(dp35
g4
S'../views/shapefiles/Caede_PJ19.shp'
p36
sg6
g7
sg8
S'5646506'
p37
ss.