(dp1
S'CMM'
p2
(dp3
S'shpPath'
p4
S'../views/shapefiles/CMM.shp'
p5
sS'epsgCode'
p6
S'4326'
p7
sS'occID'
p8
S'5646281'
p9
ssS'Calan_UI4'
p10
(dp11
g4
S'../views/shapefiles/Calan_UI4.shp'
p12
sg6
g7
sg8
S'5646282'
p13
ssS'CMB'
p14
(dp15
g4
S'../views/shapefiles/CMB.shp'
p16
sg6
g7
sg8
S'5646283'
p17
ssS'Caede_LUD3'
p18
(dp19
g4
S'../views/shapefiles/Caede_LUD3.shp'
p20
sg6
g7
sg8
S'5646284'
p21
ssS'Ereru_1944C'
p22
(dp23
g4
S'../views/shapefiles/Ereru_1944C.shp'
p24
sg6
g7
sg8
S'5646285'
p25
ssS'Calan_BER1'
p26
(dp27
g4
S'../views/shapefiles/Calan_BER1.shp'
p28
sg6
g7
sg8
S'5646286'
p29
ssS'Calan_C122'
p30
(dp31
g4
S'../views/shapefiles/Calan_C122.shp'
p32
sg6
g7
sg8
S'5646287'
p33
ssS'Calan_C145'
p34
(dp35
g4
S'../views/shapefiles/Calan_C145.shp'
p36
sg6
g7
sg8
S'5646288'
p37
ssS'Caarc_TRUM13'
p38
(dp39
g4
S'../views/shapefiles/Caarc_TRUM13.shp'
p40
sg6
g7
sg8
S'5646289'
p41
ssS'Calan_BG4'
p42
(dp43
g4
S'../views/shapefiles/Calan_BG4.shp'
p44
sg6
g7
sg8
S'5646290'
p45
ssS'Caara_12'
p46
(dp47
g4
S'../views/shapefiles/Caara_12.shp'
p48
sg6
g7
sg8
S'5646291'
p49
ssS'Calan_MC6'
p50
(dp51
g4
S'../views/shapefiles/Calan_MC6.shp'
p52
sg6
g7
sg8
S'5646292'
p53
ssS'Calan_C19'
p54
(dp55
g4
S'../views/shapefiles/Calan_C19.shp'
p56
sg6
g7
sg8
S'5646293'
p57
ssS'Camar_CAR28'
p58
(dp59
g4
S'../views/shapefiles/Camar_CAR28.shp'
p60
sg6
g7
sg8
S'5646294'
p61
ssS'Caede_MB2'
p62
(dp63
g4
S'../views/shapefiles/Caede_MB2.shp'
p64
sg6
g7
sg8
S'5646295'
p65
ssS'CG'
p66
(dp67
g4
S'../views/shapefiles/CG.shp'
p68
sg6
g7
sg8
S'5646296'
p69
ssS'Caede_CM9'
p70
(dp71
g4
S'../views/shapefiles/Caede_CM9.shp'
p72
sg6
g7
sg8
S'5646297'
p73
ssS'Eroll_2983D'
p74
(dp75
g4
S'../views/shapefiles/Eroll_2983D.shp'
p76
sg6
g7
sg8
S'5646298'
p77
ssS'Caede_Ti12'
p78
(dp79
g4
S'../views/shapefiles/Caede_Ti12.shp'
p80
sg6
g7
sg8
S'5646299'
p81
ssS'Camar_1396C'
p82
(dp83
g4
S'../views/shapefiles/Camar_1396C.shp'
p84
sg6
g7
sg8
S'5646300'
p85
ssS'Calan_NPB2'
p86
(dp87
g4
S'../views/shapefiles/Calan_NPB2.shp'
p88
sg6
g7
sg8
S'5646301'
p89
ssS'Erhis_2055F'
p90
(dp91
g4
S'../views/shapefiles/Erhis_2055F.shp'
p92
sg6
g7
sg8
S'5646302'
p93
ssS'Cacon_BS20'
p94
(dp95
g4
S'../views/shapefiles/Cacon_BS20.shp'
p96
sg6
g7
sg8
S'5646303'
p97
ssS'Caede_PJ19'
p98
(dp99
g4
S'../views/shapefiles/Caede_PJ19.shp'
p100
sg6
g7
sg8
S'5646304'
p101
ss.