(dp1
S'base_test1_he6050'
p2
(dp3
S'layers'
p4
(lp5
S'4823'
p6
aS'4832'
p7
aS'4826'
p8
aS'4829'
p9
aS'4824'
p10
aS'4830'
p11
aS'4817'
p12
aS'4821'
p13
aS'4825'
p14
aS'4820'
p15
aS'4818'
p16
aS'4828'
p17
aS'4819'
p18
aS'4822'
p19
aS'4831'
p20
aS'4827'
p21
aS'4833'
p22
aS'4834'
p23
aS'4835'
p24
asS'code'
p25
g2
sS'scnID'
p26
S'1003'
p27
sS'base'
p28
S'clim'
p29
sS'title'
p30
S'Climate Scenario he6050'
p31
sS'units'
p32
S'dd'
p33
sS'epsgCode'
p34
S'4326'
p35
sS'author'
p36
S'CGW'
p37
sS'resolution'
p38
S'2.5'
p39
sS'bioclim'
p40
S'he6050'
p41
ssS'base_test1_he2650'
p42
(dp43
g4
(lp44
S'4804'
p45
aS'4813'
p46
aS'4810'
p47
aS'4807'
p48
aS'4805'
p49
aS'4811'
p50
aS'4798'
p51
aS'4801'
p52
aS'4806'
p53
aS'4799'
p54
aS'4803'
p55
aS'4809'
p56
aS'4800'
p57
aS'4802'
p58
aS'4812'
p59
aS'4808'
p60
aS'4814'
p61
aS'4815'
p62
aS'4816'
p63
asg25
g42
sg26
S'1000'
p64
sg28
S'clim'
p65
sg30
S'Climate Scenario he2650'
p66
sg32
g33
sg34
g35
sg36
g37
sg38
g39
sg40
S'he2650'
p67
ssS'base_test1_ac4550'
p68
(dp69
g4
(lp70
S'4937'
p71
aS'4946'
p72
aS'4940'
p73
aS'4943'
p74
aS'4938'
p75
aS'4944'
p76
aS'4931'
p77
aS'4934'
p78
aS'4939'
p79
aS'4933'
p80
aS'4936'
p81
aS'4942'
p82
aS'4932'
p83
aS'4935'
p84
aS'4945'
p85
aS'4941'
p86
aS'4947'
p87
aS'4948'
p88
aS'4949'
p89
asg25
g68
sg26
S'1007'
p90
sg28
S'clim'
p91
sg30
S'Climate Scenario ac4550'
p92
sg32
g33
sg34
g35
sg36
g37
sg38
g39
sg40
S'ac4550'
p93
ssS'base_test1_he2670'
p94
(dp95
g4
(lp96
S'4728'
p97
aS'4737'
p98
aS'4731'
p99
aS'4734'
p100
aS'4726'
p101
aS'4735'
p102
aS'4722'
p103
aS'4725'
p104
aS'4730'
p105
aS'4724'
p106
aS'4729'
p107
aS'4733'
p108
aS'4723'
p109
aS'4727'
p110
aS'4736'
p111
aS'4732'
p112
aS'4738'
p113
aS'4739'
p114
aS'4740'
p115
asg25
g94
sg26
S'996'
p116
sg28
S'clim'
p117
sg30
S'Climate Scenario he2670'
p118
sg32
g33
sg34
g35
sg36
g37
sg38
g39
sg40
S'he2670'
p119
ssS'base_test1_gs4570'
p120
(dp121
g4
(lp122
S'4842'
p123
aS'4851'
p124
aS'4845'
p125
aS'4848'
p126
aS'4843'
p127
aS'4849'
p128
aS'4836'
p129
aS'4839'
p130
aS'4844'
p131
aS'4838'
p132
aS'4841'
p133
aS'4847'
p134
aS'4837'
p135
aS'4840'
p136
aS'4850'
p137
aS'4846'
p138
aS'4852'
p139
aS'4853'
p140
aS'4854'
p141
asg25
g120
sg26
S'1002'
p142
sg28
S'clim'
p143
sg30
S'Climate Scenario gs4570'
p144
sg32
g33
sg34
g35
sg36
g37
sg38
g39
sg40
S'gs4570'
p145
ssS'base_test1_he4570'
p146
(dp147
g4
(lp148
S'4975'
p149
aS'4984'
p150
aS'4978'
p151
aS'4981'
p152
aS'4976'
p153
aS'4982'
p154
aS'4969'
p155
aS'4973'
p156
aS'4977'
p157
aS'4972'
p158
aS'4970'
p159
aS'4980'
p160
aS'4971'
p161
aS'4974'
p162
aS'4983'
p163
aS'4979'
p164
aS'4985'
p165
aS'4986'
p166
aS'4987'
p167
asg25
g146
sg26
S'1009'
p168
sg28
S'clim'
p169
sg30
S'Climate Scenario he4570'
p170
sg32
g33
sg34
g35
sg36
g37
sg38
g39
sg40
S'he4570'
p171
ssS'base_test1_ac4570'
p172
(dp173
g4
(lp174
S'4861'
p175
aS'4864'
p176
aS'4867'
p177
aS'4862'
p178
aS'4856'
p179
aS'4870'
p180
aS'4855'
p181
aS'4859'
p182
aS'4863'
p183
aS'4858'
p184
aS'4865'
p185
aS'4866'
p186
aS'4857'
p187
aS'4860'
p188
aS'4869'
p189
aS'4868'
p190
aS'4871'
p191
aS'4872'
p192
aS'4873'
p193
asg25
g172
sg26
S'1001'
p194
sg28
S'clim'
p195
sg30
S'Climate Scenario ac4570'
p196
sg32
g33
sg34
g35
sg36
g37
sg38
g39
sg40
S'ac4570'
p197
ssS'base_test1_CURR'
p198
(dp199
g4
(lp200
S'4747'
p201
aS'4756'
p202
aS'4750'
p203
aS'4753'
p204
aS'4745'
p205
aS'4754'
p206
aS'4741'
p207
aS'4742'
p208
aS'4749'
p209
aS'4744'
p210
aS'4748'
p211
aS'4752'
p212
aS'4743'
p213
aS'4746'
p214
aS'4755'
p215
aS'4751'
p216
aS'4757'
p217
aS'4758'
p218
aS'4759'
p219
asg25
g198
sg26
S'997'
p220
sg28
S'clim'
p221
sg30
S'Climate Scenario CURR'
p222
sg32
g33
sg34
g35
sg36
g37
sg38
g39
sg40
S'CURR'
p223
ssS'base_test1_he8570'
p224
(dp225
g4
(lp226
S'4785'
p227
aS'4788'
p228
aS'4791'
p229
aS'4786'
p230
aS'4792'
p231
aS'4794'
p232
aS'4779'
p233
aS'4783'
p234
aS'4787'
p235
aS'4782'
p236
aS'4789'
p237
aS'4790'
p238
aS'4781'
p239
aS'4784'
p240
aS'4793'
p241
aS'4780'
p242
aS'4795'
p243
aS'4796'
p244
aS'4797'
p245
asg25
g224
sg26
S'999'
p246
sg28
S'clim'
p247
sg30
S'Climate Scenario he8570'
p248
sg32
g33
sg34
g35
sg36
g37
sg38
g39
sg40
S'he8570'
p249
ssS'base_test1_gs4550'
p250
(dp251
g4
(lp252
S'4918'
p253
aS'4921'
p254
aS'4927'
p255
aS'4924'
p256
aS'4919'
p257
aS'4925'
p258
aS'4912'
p259
aS'4916'
p260
aS'4920'
p261
aS'4914'
p262
aS'4922'
p263
aS'4923'
p264
aS'4913'
p265
aS'4917'
p266
aS'4926'
p267
aS'4915'
p268
aS'4928'
p269
aS'4929'
p270
aS'4930'
p271
asg25
g250
sg26
S'1006'
p272
sg28
S'clim'
p273
sg30
S'Climate Scenario gs4550'
p274
sg32
g33
sg34
g35
sg36
g37
sg38
g39
sg40
S'gs4550'
p275
ssS'base_test1_he4550'
p276
(dp277
g4
(lp278
S'4899'
p279
aS'4908'
p280
aS'4905'
p281
aS'4902'
p282
aS'4900'
p283
aS'4906'
p284
aS'4893'
p285
aS'4897'
p286
aS'4901'
p287
aS'4894'
p288
aS'4895'
p289
aS'4904'
p290
aS'4896'
p291
aS'4898'
p292
aS'4907'
p293
aS'4903'
p294
aS'4909'
p295
aS'4910'
p296
aS'4911'
p297
asg25
g276
sg26
S'1005'
p298
sg28
S'clim'
p299
sg30
S'Climate Scenario he4550'
p300
sg32
g33
sg34
g35
sg36
g37
sg38
g39
sg40
S'he4550'
p301
ssS'base_test1_gd4570'
p302
(dp303
g4
(lp304
S'4880'
p305
aS'4889'
p306
aS'4883'
p307
aS'4886'
p308
aS'4881'
p309
aS'4887'
p310
aS'4874'
p311
aS'4878'
p312
aS'4882'
p313
aS'4877'
p314
aS'4875'
p315
aS'4885'
p316
aS'4876'
p317
aS'4879'
p318
aS'4888'
p319
aS'4884'
p320
aS'4890'
p321
aS'4891'
p322
aS'4892'
p323
asg25
g302
sg26
S'1004'
p324
sg28
S'clim'
p325
sg30
S'Climate Scenario gd4570'
p326
sg32
g33
sg34
g35
sg36
g37
sg38
g39
sg40
S'gd4570'
p327
ssS'base_test1_he8550'
p328
(dp329
g4
(lp330
S'4709'
p331
aS'4718'
p332
aS'4712'
p333
aS'4715'
p334
aS'4710'
p335
aS'4716'
p336
aS'4703'
p337
aS'4707'
p338
aS'4711'
p339
aS'4706'
p340
aS'4704'
p341
aS'4714'
p342
aS'4705'
p343
aS'4708'
p344
aS'4717'
p345
aS'4713'
p346
aS'4719'
p347
aS'4720'
p348
aS'4721'
p349
asg25
g328
sg26
S'995'
p350
sg28
S'clim'
p351
sg30
S'Climate Scenario he8550'
p352
sg32
g33
sg34
g35
sg36
g37
sg38
g39
sg40
S'he8550'
p353
ssS'base_test1_gd4550'
p354
(dp355
g4
(lp356
S'4765'
p357
aS'4774'
p358
aS'4771'
p359
aS'4768'
p360
aS'4766'
p361
aS'4777'
p362
aS'4760'
p363
aS'4763'
p364
aS'4767'
p365
aS'4761'
p366
aS'4769'
p367
aS'4770'
p368
aS'4762'
p369
aS'4764'
p370
aS'4773'
p371
aS'4772'
p372
aS'4775'
p373
aS'4776'
p374
aS'4778'
p375
asg25
g354
sg26
S'998'
p376
sg28
S'clim'
p377
sg30
S'Climate Scenario gd4550'
p378
sg32
g33
sg34
g35
sg36
g37
sg38
g39
sg40
S'gd4550'
p379
ssS'base_test1_he6070'
p380
(dp381
g4
(lp382
S'4956'
p383
aS'4965'
p384
aS'4959'
p385
aS'4962'
p386
aS'4957'
p387
aS'4963'
p388
aS'4950'
p389
aS'4954'
p390
aS'4958'
p391
aS'4953'
p392
aS'4951'
p393
aS'4961'
p394
aS'4952'
p395
aS'4955'
p396
aS'4964'
p397
aS'4960'
p398
aS'4966'
p399
aS'4967'
p400
aS'4968'
p401
asg25
g380
sg26
S'1008'
p402
sg28
S'clim'
p403
sg30
S'Climate Scenario he6070'
p404
sg32
g33
sg34
g35
sg36
g37
sg38
g39
sg40
S'he6070'
p405
ss.