(dp1
S'base41_AC4570'
p2
(dp3
S'layers'
p4
(lp5
S'4506'
p6
aS'4517'
p7
aS'4515'
p8
aS'4512'
p9
aS'4507'
p10
aS'4513'
p11
aS'4500'
p12
aS'4503'
p13
aS'4508'
p14
aS'4502'
p15
aS'4501'
p16
aS'4511'
p17
aS'4504'
p18
aS'4505'
p19
aS'4514'
p20
aS'4510'
p21
aS'4516'
p22
aS'4509'
p23
aS'4518'
p24
asS'code'
p25
g2
sS'scnID'
p26
S'984'
p27
sS'title'
p28
S'Climate Scenario AC4570'
p29
sS'units'
p30
S'dd'
p31
sS'epsgCode'
p32
S'4326'
p33
sS'author'
p34
S'CGW'
p35
sS'resolution'
p36
S'2.5'
p37
sS'bioclim'
p38
S'AC4570'
p39
ssS'base41_CURR'
p40
(dp41
g4
(lp42
S'4487'
p43
aS'4498'
p44
aS'4496'
p45
aS'4493'
p46
aS'4488'
p47
aS'4494'
p48
aS'4481'
p49
aS'4483'
p50
aS'4489'
p51
aS'4485'
p52
aS'4486'
p53
aS'4492'
p54
aS'4482'
p55
aS'4484'
p56
aS'4495'
p57
aS'4491'
p58
aS'4497'
p59
aS'4490'
p60
aS'4499'
p61
asg25
g40
sg26
S'985'
p62
sg28
S'Climate Scenario CURR'
p63
sg30
g31
sg32
g33
sg34
g35
sg36
g37
sg38
S'CURR'
p64
ssS'base41_AC4550'
p65
(dp66
g4
(lp67
S'4522'
p68
aS'4533'
p69
aS'4531'
p70
aS'4519'
p71
aS'4523'
p72
aS'4524'
p73
aS'4521'
p74
aS'4520'
p75
aS'4527'
p76
aS'4528'
p77
aS'4529'
p78
aS'4530'
p79
aS'4526'
p80
aS'4532'
p81
aS'4525'
p82
aS'4534'
p83
asg25
g65
sg26
S'983'
p84
sg28
S'Climate Scenario AC4550'
p85
sg30
g31
sg32
g33
sg34
g35
sg36
g37
sg38
S'AC4550'
p86
ss.