(dp1
S'base_testwhy1_ac4570'
p2
(dp3
S'layers'
p4
(lp5
S'5809'
p6
aS'5810'
p7
aS'5811'
p8
asS'code'
p9
g2
sS'scnID'
p10
S'1124'
p11
sS'base'
p12
S'clim'
p13
sS'title'
p14
S'Climate Scenario ac4570'
p15
sS'units'
p16
S'dd'
p17
sS'epsgCode'
p18
S'4326'
p19
sS'author'
p20
S'CGW'
p21
sS'resolution'
p22
S'10'
p23
sS'bioclim'
p24
S'ac4570'
p25
ssS'base_testwhy1_CURR'
p26
(dp27
g4
(lp28
S'5812'
p29
aS'5813'
p30
aS'5814'
p31
asg9
g26
sg10
S'1125'
p32
sg12
S'clim'
p33
sg14
S'Climate Scenario CURR'
p34
sg16
g17
sg18
g19
sg20
g21
sg22
g23
sg24
S'CURR'
p35
ss.