(dp1
S'base51_AC4550'
p2
(dp3
S'layers'
p4
(lp5
S'4538'
p6
aS'4549'
p7
aS'4547'
p8
aS'4535'
p9
aS'4539'
p10
aS'4540'
p11
aS'4536'
p12
aS'4537'
p13
aS'4543'
p14
aS'4544'
p15
aS'4545'
p16
aS'4546'
p17
aS'4542'
p18
aS'4548'
p19
aS'4541'
p20
aS'4550'
p21
asS'code'
p22
g2
sS'scnID'
p23
S'988'
p24
sS'base'
p25
S'clim'
p26
sS'title'
p27
S'Climate Scenario AC4550'
p28
sS'units'
p29
S'dd'
p30
sS'epsgCode'
p31
S'4326'
p32
sS'author'
p33
S'CGW'
p34
sS'resolution'
p35
S'2.5'
p36
sS'bioclim'
p37
S'AC4550'
p38
ssS'base51_AC4570'
p39
(dp40
g4
(lp41
S'4557'
p42
aS'4568'
p43
aS'4563'
p44
aS'4558'
p45
aS'4564'
p46
aS'4566'
p47
aS'4551'
p48
aS'4554'
p49
aS'4559'
p50
aS'4556'
p51
aS'4561'
p52
aS'4562'
p53
aS'4553'
p54
aS'4555'
p55
aS'4565'
p56
aS'4552'
p57
aS'4567'
p58
aS'4560'
p59
aS'4569'
p60
asg22
g39
sg23
S'987'
p61
sg25
S'clim'
p62
sg27
S'Climate Scenario AC4570'
p63
sg29
g30
sg31
g32
sg33
g34
sg35
g36
sg37
S'AC4570'
p64
ssS'base51_CURR'
p65
(dp66
g4
(lp67
S'4576'
p68
aS'4585'
p69
aS'4579'
p70
aS'4577'
p71
aS'4583'
p72
aS'4582'
p73
aS'4570'
p74
aS'4573'
p75
aS'4578'
p76
aS'4575'
p77
aS'4580'
p78
aS'4581'
p79
aS'4572'
p80
aS'4574'
p81
aS'4584'
p82
aS'4571'
p83
aS'4586'
p84
aS'4587'
p85
aS'4588'
p86
asg22
g65
sg23
S'986'
p87
sg25
S'clim'
p88
sg27
S'Climate Scenario CURR'
p89
sg29
g30
sg31
g32
sg33
g34
sg35
g36
sg37
S'CURR'
p90
ss.