(dp1
S'base_test1121_CURR'
p2
(dp3
S'layers'
p4
(lp5
S'5245'
p6
aS'5254'
p7
aS'5248'
p8
aS'5251'
p9
aS'5243'
p10
aS'5252'
p11
aS'5239'
p12
aS'5240'
p13
aS'5247'
p14
aS'5242'
p15
aS'5246'
p16
aS'5250'
p17
aS'5241'
p18
aS'5244'
p19
aS'5253'
p20
aS'5249'
p21
aS'5255'
p22
aS'5256'
p23
aS'5257'
p24
asS'code'
p25
g2
sS'scnID'
p26
S'1022'
p27
sS'base'
p28
S'clim'
p29
sS'title'
p30
S'Climate Scenario CURR'
p31
sS'units'
p32
S'dd'
p33
sS'epsgCode'
p34
S'4326'
p35
sS'author'
p36
S'CGW'
p37
sS'resolution'
p38
S'10'
p39
sS'bioclim'
p40
S'CURR'
p41
ssS'base_test1121_ac4550'
p42
(dp43
g4
(lp44
S'5207'
p45
aS'5216'
p46
aS'5210'
p47
aS'5213'
p48
aS'5208'
p49
aS'5214'
p50
aS'5201'
p51
aS'5204'
p52
aS'5209'
p53
aS'5203'
p54
aS'5206'
p55
aS'5212'
p56
aS'5202'
p57
aS'5205'
p58
aS'5215'
p59
aS'5211'
p60
aS'5217'
p61
aS'5218'
p62
aS'5219'
p63
asg25
g42
sg26
S'1024'
p64
sg28
S'clim'
p65
sg30
S'Climate Scenario ac4550'
p66
sg32
g33
sg34
g35
sg36
g37
sg38
g39
sg40
S'ac4550'
p67
ssS'base_test1121_ac4570'
p68
(dp69
g4
(lp70
S'5226'
p71
aS'5229'
p72
aS'5232'
p73
aS'5227'
p74
aS'5221'
p75
aS'5235'
p76
aS'5220'
p77
aS'5224'
p78
aS'5228'
p79
aS'5223'
p80
aS'5230'
p81
aS'5231'
p82
aS'5222'
p83
aS'5225'
p84
aS'5234'
p85
aS'5233'
p86
aS'5236'
p87
aS'5237'
p88
aS'5238'
p89
asg25
g68
sg26
S'1023'
p90
sg28
S'clim'
p91
sg30
S'Climate Scenario ac4570'
p92
sg32
g33
sg34
g35
sg36
g37
sg38
g39
sg40
S'ac4570'
p93
ss.