(dp1
S'base11_CURR'
p2
(dp3
S'layers'
p4
(lp5
S'4469'
p6
aS'4470'
p7
asS'code'
p8
g2
sS'scnID'
p9
S'978'
p10
sS'title'
p11
S'Climate Scenario CURR'
p12
sS'units'
p13
S'dd'
p14
sS'epsgCode'
p15
S'4326'
p16
sS'author'
p17
S'CGW'
p18
sS'resolution'
p19
S'2.5'
p20
sS'bioclim'
p21
S'CURR'
p22
ssS'base11_AC4550'
p23
(dp24
g4
(lp25
S'4471'
p26
aS'4472'
p27
asg8
g23
sg9
S'979'
p28
sg11
S'Climate Scenario AC4550'
p29
sg13
g14
sg15
g16
sg17
g18
sg19
g20
sg21
S'AC4550'
p30
ss.