(dp1
S'base1_CURR'
p2
(dp3
S'layers'
p4
(lp5
S'4438'
p6
aS'4439'
p7
aS'4440'
p8
aS'4441'
p9
aS'4442'
p10
aS'4443'
p11
aS'4444'
p12
aS'4445'
p13
aS'4446'
p14
aS'4447'
p15
aS'4448'
p16
aS'4449'
p17
aS'4450'
p18
aS'4451'
p19
aS'4452'
p20
aS'4453'
p21
aS'4454'
p22
aS'4455'
p23
aS'4456'
p24
asS'code'
p25
g2
sS'scnID'
p26
S'977'
p27
sS'title'
p28
S'Climate Scenario CURR'
p29
sS'units'
p30
S'dd'
p31
sS'epsgCode'
p32
S'4326'
p33
sS'author'
p34
S'CGW'
p35
sS'resolution'
p36
S'2.5'
p37
sS'bioclim'
p38
S'CURR'
p39
ssS'base1_AC4550'
p40
(dp41
g4
(lp42
S'4403'
p43
aS'4404'
p44
aS'4405'
p45
aS'4406'
p46
aS'4407'
p47
aS'4408'
p48
aS'4409'
p49
aS'4410'
p50
aS'4411'
p51
aS'4412'
p52
aS'4413'
p53
aS'4414'
p54
aS'4415'
p55
aS'4416'
p56
aS'4417'
p57
aS'4418'
p58
asg25
g40
sg26
S'975'
p59
sg28
S'Climate Scenario AC4550'
p60
sg30
g31
sg32
g33
sg34
g35
sg36
g37
sg38
S'AC4550'
p61
ssS'base1_AC4570'
p62
(dp63
g4
(lp64
S'4419'
p65
aS'4420'
p66
aS'4421'
p67
aS'4422'
p68
aS'4423'
p69
aS'4424'
p70
aS'4425'
p71
aS'4426'
p72
aS'4427'
p73
aS'4428'
p74
aS'4429'
p75
aS'4430'
p76
aS'4431'
p77
aS'4432'
p78
aS'4433'
p79
aS'4434'
p80
aS'4435'
p81
aS'4436'
p82
aS'4437'
p83
asg25
g62
sg26
S'976'
p84
sg28
S'Climate Scenario AC4570'
p85
sg30
g31
sg32
g33
sg34
g35
sg36
g37
sg38
S'AC4570'
p86
ss.