(dp1
S'CMM'
p2
(dp3
S'shpPath'
p4
S'../views/shapefiles/CMM.shp'
p5
sS'epsgCode'
p6
S'4326'
p7
ssS'Calan_UI4'
p8
(dp9
g4
S'../views/shapefiles/Calan_UI4.shp'
p10
sg6
g7
ssS'CMB'
p11
(dp12
g4
S'../views/shapefiles/CMB.shp'
p13
sg6
g7
ssS'Caede_LUD3'
p14
(dp15
g4
S'../views/shapefiles/Caede_LUD3.shp'
p16
sg6
g7
ssS'Ereru_1944C'
p17
(dp18
g4
S'../views/shapefiles/Ereru_1944C.shp'
p19
sg6
g7
ssS'Calan_BER1'
p20
(dp21
g4
S'../views/shapefiles/Calan_BER1.shp'
p22
sg6
g7
ssS'Calan_C122'
p23
(dp24
g4
S'../views/shapefiles/Calan_C122.shp'
p25
sg6
g7
ssS'Calan_C145'
p26
(dp27
g4
S'../views/shapefiles/Calan_C145.shp'
p28
sg6
g7
ssS'Caarc_TRUM13'
p29
(dp30
g4
S'../views/shapefiles/Caarc_TRUM13.shp'
p31
sg6
g7
ssS'Calan_BG4'
p32
(dp33
g4
S'../views/shapefiles/Calan_BG4.shp'
p34
sg6
g7
ssS'Caara_12'
p35
(dp36
g4
S'../views/shapefiles/Caara_12.shp'
p37
sg6
g7
ssS'Calan_MC6'
p38
(dp39
g4
S'../views/shapefiles/Calan_MC6.shp'
p40
sg6
g7
ssS'Calan_C19'
p41
(dp42
g4
S'../views/shapefiles/Calan_C19.shp'
p43
sg6
g7
ssS'Camar_CAR28'
p44
(dp45
g4
S'../views/shapefiles/Camar_CAR28.shp'
p46
sg6
g7
ssS'Caede_MB2'
p47
(dp48
g4
S'../views/shapefiles/Caede_MB2.shp'
p49
sg6
g7
ssS'CG'
p50
(dp51
g4
S'../views/shapefiles/CG.shp'
p52
sg6
g7
ssS'Caede_CM9'
p53
(dp54
g4
S'../views/shapefiles/Caede_CM9.shp'
p55
sg6
g7
ssS'Eroll_2983D'
p56
(dp57
g4
S'../views/shapefiles/Eroll_2983D.shp'
p58
sg6
g7
ssS'Caede_Ti12'
p59
(dp60
g4
S'../views/shapefiles/Caede_Ti12.shp'
p61
sg6
g7
ssS'Camar_1396C'
p62
(dp63
g4
S'../views/shapefiles/Camar_1396C.shp'
p64
sg6
g7
ssS'Calan_NPB2'
p65
(dp66
g4
S'../views/shapefiles/Calan_NPB2.shp'
p67
sg6
g7
ssS'Erhis_2055F'
p68
(dp69
g4
S'../views/shapefiles/Erhis_2055F.shp'
p70
sg6
g7
ssS'Cacon_BS20'
p71
(dp72
g4
S'../views/shapefiles/Cacon_BS20.shp'
p73
sg6
g7
ssS'Caede_PJ19'
p74
(dp75
g4
S'../views/shapefiles/Caede_PJ19.shp'
p76
sg6
g7
ss.