(dp1
S'Bio2'
p2
(dp3
S'code'
p4
g2
sS'description'
p5
S'Mean Diurnal Range (Mean of monthly (max temp - min temp))'
p6
sS'title'
p7
S'BIO2'
p8
ssS'Bio3'
p9
(dp10
g4
g9
sg5
S'Isothermality (BIO2/BIO7) (* 100)'
p11
sg7
S'BIO3'
p12
ssS'Bio1'
p13
(dp14
g4
g13
sg5
S'Annual Mean Temperature'
p15
sg7
S'BIO1'
p16
ss.