(dp1
S't_gravel'
p2
(dp3
S'created_at'
p4
S'2015-03-12 14:34:25'
p5
sS'code'
p6
g2
ssS't_sand'
p7
(dp8
g4
S'2015-03-12 14:34:25'
p9
sg6
g7
ssS't_ph'
p10
(dp11
g4
S'2015-03-12 14:34:25'
p12
sg6
g10
ssS'bio10'
p13
(dp14
g4
S'2015-03-12 14:34:25'
p15
sg6
g13
ssS'bio11'
p16
(dp17
g4
S'2015-03-12 14:34:25'
p18
sg6
g16
ssS'bio12'
p19
(dp20
g4
S'2015-03-12 14:34:25'
p21
sg6
g19
ssS'bio13'
p22
(dp23
g4
S'2015-03-12 14:34:25'
p24
sg6
g22
ssS'bio14'
p25
(dp26
g4
S'2015-03-12 14:34:25'
p27
sg6
g25
ssS'bio15'
p28
(dp29
g4
S'2015-03-12 14:34:25'
p30
sg6
g28
ssS'bio16'
p31
(dp32
g4
S'2015-03-12 14:34:25'
p33
sg6
g31
ssS'bio17'
p34
(dp35
g4
S'2015-03-12 14:34:25'
p36
sg6
g34
ssS'bio18'
p37
(dp38
g4
S'2015-03-12 14:34:25'
p39
sg6
g37
ssS'bio19'
p40
(dp41
g4
S'2015-03-12 14:34:25'
p42
sg6
g40
ssS't_caso4'
p43
(dp44
g4
S'2015-03-12 14:34:25'
p45
sg6
g43
ssS'gdd5'
p46
(dp47
g4
S'2015-03-12 14:34:25'
p48
sg6
g46
ssS'bio09'
p49
(dp50
g4
S'2015-03-12 14:34:25'
p51
sg6
g49
ssS't_clay'
p52
(dp53
g4
S'2015-03-12 14:34:25'
p54
sg6
g52
ssS'elev_mean'
p55
(dp56
g4
S'2015-03-12 14:34:25'
p57
sg6
g55
ssS't_oc'
p58
(dp59
g4
S'2015-03-12 14:34:25'
p60
sg6
g58
ssS't_caco3'
p61
(dp62
g4
S'2015-03-12 14:34:25'
p63
sg6
g61
ssS'bio07'
p64
(dp65
g4
S'2015-03-12 14:34:25'
p66
sg6
g64
ssS'bio06'
p67
(dp68
g4
S'2015-03-12 14:34:25'
p69
sg6
g67
ssS'bio05'
p70
(dp71
g4
S'2015-03-12 14:34:25'
p72
sg6
g70
ssS'bio04'
p73
(dp74
g4
S'2015-03-12 14:34:25'
p75
sg6
g73
ssS'bio03'
p76
(dp77
g4
S'2015-03-12 14:34:25'
p78
sg6
g76
ssS'bio02'
p79
(dp80
g4
S'2015-03-12 14:34:25'
p81
sg6
g79
ssS'bio01'
p82
(dp83
g4
S'2015-03-12 14:34:25'
p84
sg6
g82
ssS't_silt'
p85
(dp86
g4
S'2015-03-12 14:34:25'
p87
sg6
g85
ssS't_cecsoil'
p88
(dp89
g4
S'2015-03-12 14:34:25'
p90
sg6
g88
ssS'bio08'
p91
(dp92
g4
S'2015-03-12 14:34:25'
p93
sg6
g91
ssS'pc2'
p94
(dp95
g4
S'2015-03-12 14:34:25'
p96
sg6
g94
ssS'pc3'
p97
(dp98
g4
S'2015-03-12 14:34:25'
p99
sg6
g97
ssS'pc1'
p100
(dp101
g4
S'2015-03-12 14:34:25'
p102
sg6
g100
ssS'aridity'
p103
(dp104
g4
S'2015-03-12 14:34:25'
p105
sg6
g103
ssS'petmn'
p106
(dp107
g4
S'2015-03-12 14:34:25'
p108
sg6
g106
ssS't_ece'
p109
(dp110
g4
S'2015-03-12 14:34:25'
p111
sg6
g109
ss.