(dp1
S'clim'
p2
(dp3
S'current'
p4
(dp5
S'bio10'
p6
(dp7
S'created_at'
p8
S'2015-03-24 17:29:21'
p9
sS'Correlated'
p10
S'yes'
p11
sS'envLayerType'
p12
S'current.bio10'
p13
sS'Name'
p14
I310
sS'typeCode'
p15
S'bio10'
p16
sS'typeCodeDescription'
p17
S'Mean Temperature of Warmest Quarter'
p18
sS'RCP'
p19
S'current'
p20
sS'bioclim'
p21
S'current'
p22
sS'filePath'
p23
S'../views/GTiff/clim.current.bio10.tif'
p24
sS'filterType'
p25
S'climate'
p26
sS'fullname'
p27
S'clim.current.bio10'
p28
sS'lyrID'
p29
S'6264'
p30
sS'layerDescription'
p31
S'Mean Temperature of Warmest Quarter Current Climate 1960-2000'
p32
sS'dataFormat'
p33
S'GTiff'
p34
sS'units'
p35
S'dd'
p36
sS'title'
p37
S'clim.current.bio10.tif'
p38
sS'model'
p39
S'clim'
p40
sS'resolution'
p41
S'30'
p42
sS'epsgCode'
p43
I4326
sS'projectionDate'
p44
S'current'
p45
ssS'bio01'
p46
(dp47
g8
S'2015-03-24 17:29:21'
p48
sg10
S'no'
p49
sg12
S'current.bio01'
p50
sg14
I296
sg15
S'bio01'
p51
sg17
S'Annual Mean Temperature'
p52
sg19
S'current'
p53
sg21
S'current'
p54
sg23
S'../views/GTiff/clim.current.bio01.tif'
p55
sg25
S'climate'
p56
sg27
S'clim.current.bio01'
p57
sg29
S'6277'
p58
sg31
S'Annual Mean Temperature Current Climate 1960-2000'
p59
sg33
g34
sg35
g36
sg37
S'clim.current.bio01.tif'
p60
sg39
S'clim'
p61
sg41
g42
sg43
I4326
sg44
S'current'
p62
ssS'bio11'
p63
(dp64
g8
S'2015-03-24 17:29:21'
p65
sg10
S'yes'
p66
sg12
S'current.bio11'
p67
sg14
I335
sg15
S'bio11'
p68
sg17
S'Mean Temperature of Coldest Quarter'
p69
sg19
S'current'
p70
sg21
S'current'
p71
sg23
S'../views/GTiff/clim.current.bio11.tif'
p72
sg25
S'climate'
p73
sg27
S'clim.current.bio11'
p74
sg29
S'6267'
p75
sg31
S'Mean Temperature of Coldest Quarter Current Climate 1960-2000'
p76
sg33
g34
sg35
g36
sg37
S'clim.current.bio11.tif'
p77
sg39
S'clim'
p78
sg41
g42
sg43
I4326
sg44
S'current'
p79
ssS'bio15'
p80
(dp81
g8
S'2015-03-24 17:29:21'
p82
sg10
S'no'
p83
sg12
S'current.bio15'
p84
sg14
I128
sg15
S'bio15'
p85
sg17
S'Precipitation Seasonality (Coefficient of Variation)'
p86
sg19
S'current'
p87
sg21
S'current'
p88
sg23
S'../views/GTiff/clim.current.bio15.tif'
p89
sg25
S'climate'
p90
sg27
S'clim.current.bio15'
p91
sg29
S'6269'
p92
sg31
S'Precipitation Seasonality (Coefficient of Variation) Current Climate 1960-2000'
p93
sg33
g34
sg35
g36
sg37
S'clim.current.bio15.tif'
p94
sg39
S'clim'
p95
sg41
g42
sg43
I4326
sg44
S'current'
p96
ssS'bio05'
p97
(dp98
g8
S'2015-03-24 17:29:21'
p99
sg10
S'yes'
p100
sg12
S'current.bio05'
p101
sg14
I259
sg15
S'bio05'
p102
sg17
S'Max Temperature of Warmest Month'
p103
sg19
S'current'
p104
sg21
S'current'
p105
sg23
S'../views/GTiff/clim.current.bio05.tif'
p106
sg25
S'climate'
p107
sg27
S'clim.current.bio05'
p108
sg29
S'6273'
p109
sg31
S'Max Temperature of Warmest Month Current Climate 1960-2000'
p110
sg33
g34
sg35
g36
sg37
S'clim.current.bio05.tif'
p111
sg39
S'clim'
p112
sg41
g42
sg43
I4326
sg44
S'current'
p113
ssS'bio14'
p114
(dp115
g8
S'2015-03-24 17:29:21'
p116
sg10
S'yes'
p117
sg12
S'current.bio14'
p118
sg14
I286
sg15
S'bio14'
p119
sg17
S'Precipitation of Driest Month'
p120
sg19
S'current'
p121
sg21
S'current'
p122
sg23
S'../views/GTiff/clim.current.bio14.tif'
p123
sg25
S'climate'
p124
sg27
S'clim.current.bio14'
p125
sg29
S'6280'
p126
sg31
S'Precipitation of Driest Month Current Climate 1960-2000'
p127
sg33
g34
sg35
g36
sg37
S'clim.current.bio14.tif'
p128
sg39
S'clim'
p129
sg41
g42
sg43
I4326
sg44
S'current'
p130
ssS'bio07'
p131
(dp132
g8
S'2015-03-24 17:29:21'
p133
sg10
S'no'
p134
sg12
S'current.bio07'
p135
sg14
I64
sg15
S'bio07'
p136
sg17
S'Temperature Annual Range (BIO5-BIO6)'
p137
sg19
S'current'
p138
sg21
S'current'
p139
sg23
S'../views/GTiff/clim.current.bio07.tif'
p140
sg25
S'climate'
p141
sg27
S'clim.current.bio07'
p142
sg29
S'6271'
p143
sg31
S'Temperature Annual Range (BIO5-BIO6) Current Climate 1960-2000'
p144
sg33
g34
sg35
g36
sg37
S'clim.current.bio07.tif'
p145
sg39
S'clim'
p146
sg41
g42
sg43
I4326
sg44
S'current'
p147
ssS'bio06'
p148
(dp149
g8
S'2015-03-24 17:29:21'
p150
sg10
S'yes'
p151
sg12
S'current.bio06'
p152
sg14
I198
sg15
S'bio06'
p153
sg17
S'Min Temperature of Coldest Month'
p154
sg19
S'current'
p155
sg21
S'current'
p156
sg23
S'../views/GTiff/clim.current.bio06.tif'
p157
sg25
S'climate'
p158
sg27
S'clim.current.bio06'
p159
sg29
S'6272'
p160
sg31
S'Min Temperature of Coldest Month Current Climate 1960-2000'
p161
sg33
g34
sg35
g36
sg37
S'clim.current.bio06.tif'
p162
sg39
S'clim'
p163
sg41
g42
sg43
I4326
sg44
S'current'
p164
ssS'bio12'
p165
(dp166
g8
S'2015-03-24 17:29:21'
p167
sg10
S'no'
p168
sg12
S'current.bio12'
p169
sg14
I242
sg15
S'bio12'
p170
sg17
S'Annual Precipitation'
p171
sg19
S'current'
p172
sg21
S'current'
p173
sg23
S'../views/GTiff/clim.current.bio12.tif'
p174
sg25
S'climate'
p175
sg27
S'clim.current.bio12'
p176
sg29
S'6270'
p177
sg31
S'Annual Precipitation Current Climate 1960-2000'
p178
sg33
g34
sg35
g36
sg37
S'clim.current.bio12.tif'
p179
sg39
S'clim'
p180
sg41
g42
sg43
I4326
sg44
S'current'
p181
ssS'bio13'
p182
(dp183
g8
S'2015-03-24 17:29:21'
p184
sg10
S'yes'
p185
sg12
S'current.bio13'
p186
sg14
I44
sg15
S'bio13'
p187
sg17
S'Precipitation of Wettest Month'
p188
sg19
S'current'
p189
sg21
S'current'
p190
sg23
S'../views/GTiff/clim.current.bio13.tif'
p191
sg25
S'climate'
p192
sg27
S'clim.current.bio13'
p193
sg29
S'6266'
p194
sg31
S'Precipitation of Wettest Month Current Climate 1960-2000'
p195
sg33
g34
sg35
g36
sg37
S'clim.current.bio13.tif'
p196
sg39
S'clim'
p197
sg41
g42
sg43
I4326
sg44
S'current'
p198
ssS'bio03'
p199
(dp200
g8
S'2015-03-24 17:29:21'
p201
sg10
S'yes'
p202
sg12
S'current.bio03'
p203
sg14
I130
sg15
S'bio03'
p204
sg17
S'Isothermality (BIO2/BIO7) (* 100)'
p205
sg19
S'current'
p206
sg21
S'current'
p207
sg23
S'../views/GTiff/clim.current.bio03.tif'
p208
sg25
S'climate'
p209
sg27
S'clim.current.bio03'
p210
sg29
S'6275'
p211
sg31
S'Isothermality (BIO2/BIO7) (* 100) Current Climate 1960-2000'
p212
sg33
g34
sg35
g36
sg37
S'clim.current.bio03.tif'
p213
sg39
S'clim'
p214
sg41
g42
sg43
I4326
sg44
S'current'
p215
ssS'bio02'
p216
(dp217
g8
S'2015-03-24 17:29:21'
p218
sg10
S'yes'
p219
sg12
S'current.bio02'
p220
sg14
I18
sg15
S'bio02'
p221
sg17
S'Mean Diurnal Range (Mean of monthly (max temp - min temp))'
p222
sg19
S'current'
p223
sg21
S'current'
p224
sg23
S'../views/GTiff/clim.current.bio02.tif'
p225
sg25
S'climate'
p226
sg27
S'clim.current.bio02'
p227
sg29
S'6276'
p228
sg31
S'Mean Diurnal Range (Mean of monthly (max temp - min temp)) Current Climate 1960-2000'
p229
sg33
g34
sg35
g36
sg37
S'clim.current.bio02.tif'
p230
sg39
S'clim'
p231
sg41
g42
sg43
I4326
sg44
S'current'
p232
ssS'bio16'
p233
(dp234
g8
S'2015-03-24 17:29:21'
p235
sg10
S'yes'
p236
sg12
S'current.bio16'
p237
sg14
I10
sg15
S'bio16'
p238
sg17
S'Precipitation of Wettest Quarter'
p239
sg19
S'current'
p240
sg21
g4
sg23
S'../views/GTiff/clim.current.bio16.tif'
p241
sg25
S'climate'
p242
sg27
S'clim.current.bio16'
p243
sg29
S'6268'
p244
sg31
S'Precipitation of Wettest Quarter Current Climate 1960-2000'
p245
sg33
g34
sg35
g36
sg37
S'clim.current.bio16.tif'
p246
sg39
S'clim'
p247
sg41
g42
sg43
I4326
sg44
S'current'
p248
ssS'bio17'
p249
(dp250
g8
S'2015-03-24 17:29:21'
p251
sg10
S'yes'
p252
sg12
S'current.bio17'
p253
sg14
I301
sg15
S'bio17'
p254
sg17
S'Precipitation of Driest Quarter'
p255
sg19
S'current'
p256
sg21
S'current'
p257
sg23
S'../views/GTiff/clim.current.bio17.tif'
p258
sg25
S'climate'
p259
sg27
S'clim.current.bio17'
p260
sg29
S'6278'
p261
sg31
S'Precipitation of Driest Quarter Current Climate 1960-2000'
p262
sg33
g34
sg35
g36
sg37
S'clim.current.bio17.tif'
p263
sg39
S'clim'
p264
sg41
g42
sg43
I4326
sg44
S'current'
p265
ssS'bio18'
p266
(dp267
g8
S'2015-03-24 17:29:21'
p268
sg10
S'no'
p269
sg12
S'current.bio18'
p270
sg14
I312
sg15
S'bio18'
p271
sg17
S'Precipitation of Warmest Quarter'
p272
sg19
S'current'
p273
sg21
S'current'
p274
sg23
S'../views/GTiff/clim.current.bio18.tif'
p275
sg25
S'climate'
p276
sg27
S'clim.current.bio18'
p277
sg29
S'6279'
p278
sg31
S'Precipitation of Warmest Quarter Current Climate 1960-2000'
p279
sg33
g34
sg35
g36
sg37
S'clim.current.bio18.tif'
p280
sg39
S'clim'
p281
sg41
g42
sg43
I4326
sg44
S'current'
p282
ssS'bio19'
p283
(dp284
g8
S'2015-03-24 17:29:21'
p285
sg10
S'yes'
p286
sg12
S'current.bio19'
p287
sg14
I86
sg15
S'bio19'
p288
sg17
S'Precipitation of Coldest Quarter'
p289
sg19
S'current'
p290
sg21
S'current'
p291
sg23
S'../views/GTiff/clim.current.bio19.tif'
p292
sg25
S'climate'
p293
sg27
S'clim.current.bio19'
p294
sg29
S'6265'
p295
sg31
S'Precipitation of Coldest Quarter Current Climate 1960-2000'
p296
sg33
g34
sg35
g36
sg37
S'clim.current.bio19.tif'
p297
sg39
S'clim'
p298
sg41
g42
sg43
I4326
sg44
S'current'
p299
ssS'bio04'
p300
(dp301
g8
S'2015-03-24 17:29:21'
p302
sg10
S'yes'
p303
sg12
S'current.bio04'
p304
sg14
I292
sg15
S'bio04'
p305
sg17
S'Temperature Seasonality (standard deviation *100)'
p306
sg19
S'current'
p307
sg21
S'current'
p308
sg23
S'../views/GTiff/clim.current.bio04.tif'
p309
sg25
S'climate'
p310
sg27
S'clim.current.bio04'
p311
sg29
S'6274'
p312
sg31
S'Temperature Seasonality (standard deviation *100) Current Climate 1960-2000'
p313
sg33
g34
sg35
g36
sg37
S'clim.current.bio04.tif'
p314
sg39
S'clim'
p315
sg41
g42
sg43
I4326
sg44
S'current'
p316
ssS'bio09'
p317
(dp318
g8
S'2015-03-24 17:29:21'
p319
sg10
S'yes'
p320
sg12
S'current.bio09'
p321
sg14
I131
sg15
S'bio09'
p322
sg17
S'Mean Temperature of Driest Quarter'
p323
sg19
S'current'
p324
sg21
S'current'
p325
sg23
S'../views/GTiff/clim.current.bio09.tif'
p326
sg25
S'climate'
p327
sg27
S'clim.current.bio09'
p328
sg29
S'6281'
p329
sg31
S'Mean Temperature of Driest Quarter Current Climate 1960-2000'
p330
sg33
g34
sg35
g36
sg37
S'clim.current.bio09.tif'
p331
sg39
S'clim'
p332
sg41
g42
sg43
I4326
sg44
S'current'
p333
ssS'bio08'
p334
(dp335
g8
S'2015-03-24 17:29:21'
p336
sg10
S'no'
p337
sg12
S'current.bio08'
p338
sg14
I31
sg15
S'bio08'
p339
sg17
S'Mean Temperature of Wettest Quarter'
p340
sg19
S'current'
p341
sg21
S'current'
p342
sg23
S'../views/GTiff/clim.current.bio08.tif'
p343
sg25
S'climate'
p344
sg27
S'clim.current.bio08'
p345
sg29
S'6282'
p346
sg31
S'Mean Temperature of Wettest Quarter Current Climate 1960-2000'
p347
sg33
g34
sg35
g36
sg37
S'clim.current.bio08.tif'
p348
sg39
S'clim'
p349
sg41
g42
sg43
I4326
sg44
S'current'
p350
sssS'he2670'
p351
(dp352
S'bio07'
p353
(dp354
g8
S'2015-03-24 17:29:21'
p355
sg10
S'no'
p356
sg12
S'he2670.bio07'
p357
sg14
I147
sg15
S'bio07'
p358
sg17
S'Temperature Annual Range (BIO5-BIO6)'
p359
sg19
S'26'
p360
sg21
S'he2670'
p361
sg23
S'../views/GTiff/clim.he2670.bio07.tif'
p362
sg25
S'climate'
p363
sg27
S'clim.he2670.bio07'
p364
sg29
S'6154'
p365
sg31
S'Temperature Annual Range (BIO5-BIO6) HE RCP26 2070'
p366
sg33
g34
sg35
g36
sg37
S'clim.he2670.bio07.tif'
p367
sg39
S'clim'
p368
sg41
g42
sg43
I4326
sg44
S'2070'
p369
ssS'bio16'
p370
(dp371
g8
S'2015-03-24 17:29:21'
p372
sg10
S'yes'
p373
sg12
S'he2670.bio16'
p374
sg14
I189
sg15
S'bio16'
p375
sg17
S'Precipitation of Wettest Quarter'
p376
sg19
S'26'
p377
sg21
S'he2670'
p378
sg23
S'../views/GTiff/clim.he2670.bio16.tif'
p379
sg25
S'climate'
p380
sg27
S'clim.he2670.bio16'
p381
sg29
S'6151'
p382
sg31
S'Precipitation of Wettest Quarter HE RCP26 2070'
p383
sg33
g34
sg35
g36
sg37
S'clim.he2670.bio16.tif'
p384
sg39
S'clim'
p385
sg41
g42
sg43
I4326
sg44
S'2070'
p386
ssS'bio06'
p387
(dp388
g8
S'2015-03-24 17:29:21'
p389
sg10
S'yes'
p390
sg12
S'he2670.bio06'
p391
sg14
I207
sg15
S'bio06'
p392
sg17
S'Min Temperature of Coldest Month'
p393
sg19
S'26'
p394
sg21
S'he2670'
p395
sg23
S'../views/GTiff/clim.he2670.bio06.tif'
p396
sg25
S'climate'
p397
sg27
S'clim.he2670.bio06'
p398
sg29
S'6155'
p399
sg31
S'Min Temperature of Coldest Month HE RCP26 2070'
p400
sg33
g34
sg35
g36
sg37
S'clim.he2670.bio06.tif'
p401
sg39
S'clim'
p402
sg41
g42
sg43
I4326
sg44
S'2070'
p403
ssS'bio17'
p404
(dp405
g8
S'2015-03-24 17:29:21'
p406
sg10
S'yes'
p407
sg12
S'he2670.bio17'
p408
sg14
I308
sg15
S'bio17'
p409
sg17
S'Precipitation of Driest Quarter'
p410
sg19
S'26'
p411
sg21
S'he2670'
p412
sg23
S'../views/GTiff/clim.he2670.bio17.tif'
p413
sg25
S'climate'
p414
sg27
S'clim.he2670.bio17'
p415
sg29
S'6161'
p416
sg31
S'Precipitation of Driest Quarter HE RCP26 2070'
p417
sg33
g34
sg35
g36
sg37
S'clim.he2670.bio17.tif'
p418
sg39
S'clim'
p419
sg41
g42
sg43
I4326
sg44
S'2070'
p420
ssS'bio12'
p421
(dp422
g8
S'2015-03-24 17:29:21'
p423
sg10
S'no'
p424
sg12
S'he2670.bio12'
p425
sg14
I177
sg15
S'bio12'
p426
sg17
S'Annual Precipitation'
p427
sg19
S'26'
p428
sg21
S'he2670'
p429
sg23
S'../views/GTiff/clim.he2670.bio12.tif'
p430
sg25
S'climate'
p431
sg27
S'clim.he2670.bio12'
p432
sg29
S'6153'
p433
sg31
S'Annual Precipitation HE RCP26 2070'
p434
sg33
g34
sg35
g36
sg37
S'clim.he2670.bio12.tif'
p435
sg39
S'clim'
p436
sg41
g42
sg43
I4326
sg44
S'2070'
p437
ssS'bio10'
p438
(dp439
g8
S'2015-03-24 17:29:21'
p440
sg10
S'yes'
p441
sg12
S'he2670.bio10'
p442
sg14
I138
sg15
S'bio10'
p443
sg17
S'Mean Temperature of Warmest Quarter'
p444
sg19
S'26'
p445
sg21
S'he2670'
p446
sg23
S'../views/GTiff/clim.he2670.bio10.tif'
p447
sg25
S'climate'
p448
sg27
S'clim.he2670.bio10'
p449
sg29
S'6147'
p450
sg31
S'Mean Temperature of Warmest Quarter HE RCP26 2070'
p451
sg33
g34
sg35
g36
sg37
S'clim.he2670.bio10.tif'
p452
sg39
S'clim'
p453
sg41
g42
sg43
I4326
sg44
S'2070'
p454
ssS'bio11'
p455
(dp456
g8
S'2015-03-24 17:29:21'
p457
sg10
S'yes'
p458
sg12
S'he2670.bio11'
p459
sg14
I124
sg15
S'bio11'
p460
sg17
S'Mean Temperature of Coldest Quarter'
p461
sg19
S'26'
p462
sg21
S'he2670'
p463
sg23
S'../views/GTiff/clim.he2670.bio11.tif'
p464
sg25
S'climate'
p465
sg27
S'clim.he2670.bio11'
p466
sg29
S'6150'
p467
sg31
S'Mean Temperature of Coldest Quarter HE RCP26 2070'
p468
sg33
g34
sg35
g36
sg37
S'clim.he2670.bio11.tif'
p469
sg39
S'clim'
p470
sg41
g42
sg43
I4326
sg44
S'2070'
p471
ssS'bio05'
p472
(dp473
g8
S'2015-03-24 17:29:21'
p474
sg10
S'yes'
p475
sg12
S'he2670.bio05'
p476
sg14
I32
sg15
S'bio05'
p477
sg17
S'Max Temperature of Warmest Month'
p478
sg19
S'26'
p479
sg21
S'he2670'
p480
sg23
S'../views/GTiff/clim.he2670.bio05.tif'
p481
sg25
S'climate'
p482
sg27
S'clim.he2670.bio05'
p483
sg29
S'6156'
p484
sg31
S'Max Temperature of Warmest Month HE RCP26 2070'
p485
sg33
g34
sg35
g36
sg37
S'clim.he2670.bio05.tif'
p486
sg39
S'clim'
p487
sg41
g42
sg43
I4326
sg44
S'2070'
p488
ssS'bio13'
p489
(dp490
g8
S'2015-03-24 17:29:21'
p491
sg10
S'yes'
p492
sg12
S'he2670.bio13'
p493
sg14
I199
sg15
S'bio13'
p494
sg17
S'Precipitation of Wettest Month'
p495
sg19
S'26'
p496
sg21
S'he2670'
p497
sg23
S'../views/GTiff/clim.he2670.bio13.tif'
p498
sg25
S'climate'
p499
sg27
S'clim.he2670.bio13'
p500
sg29
S'6149'
p501
sg31
S'Precipitation of Wettest Month HE RCP26 2070'
p502
sg33
g34
sg35
g36
sg37
S'clim.he2670.bio13.tif'
p503
sg39
S'clim'
p504
sg41
g42
sg43
I4326
sg44
S'2070'
p505
ssS'bio03'
p506
(dp507
g8
S'2015-03-24 17:29:21'
p508
sg10
S'yes'
p509
sg12
S'he2670.bio03'
p510
sg14
I62
sg15
S'bio03'
p511
sg17
S'Isothermality (BIO2/BIO7) (* 100)'
p512
sg19
S'26'
p513
sg21
S'he2670'
p514
sg23
S'../views/GTiff/clim.he2670.bio03.tif'
p515
sg25
S'climate'
p516
sg27
S'clim.he2670.bio03'
p517
sg29
S'6158'
p518
sg31
S'Isothermality (BIO2/BIO7) (* 100) HE RCP26 2070'
p519
sg33
g34
sg35
g36
sg37
S'clim.he2670.bio03.tif'
p520
sg39
S'clim'
p521
sg41
g42
sg43
I4326
sg44
S'2070'
p522
ssS'bio02'
p523
(dp524
g8
S'2015-03-24 17:29:21'
p525
sg10
S'yes'
p526
sg12
S'he2670.bio02'
p527
sg14
I84
sg15
S'bio02'
p528
sg17
S'Mean Diurnal Range (Mean of monthly (max temp - min temp))'
p529
sg19
S'26'
p530
sg21
S'he2670'
p531
sg23
S'../views/GTiff/clim.he2670.bio02.tif'
p532
sg25
S'climate'
p533
sg27
S'clim.he2670.bio02'
p534
sg29
S'6159'
p535
sg31
S'Mean Diurnal Range (Mean of monthly (max temp - min temp)) HE RCP26 2070'
p536
sg33
g34
sg35
g36
sg37
S'clim.he2670.bio02.tif'
p537
sg39
S'clim'
p538
sg41
g42
sg43
I4326
sg44
S'2070'
p539
ssS'bio01'
p540
(dp541
g8
S'2015-03-24 17:29:21'
p542
sg10
S'no'
p543
sg12
S'he2670.bio01'
p544
sg14
I53
sg15
S'bio01'
p545
sg17
S'Annual Mean Temperature'
p546
sg19
S'26'
p547
sg21
S'he2670'
p548
sg23
S'../views/GTiff/clim.he2670.bio01.tif'
p549
sg25
S'climate'
p550
sg27
S'clim.he2670.bio01'
p551
sg29
S'6160'
p552
sg31
S'Annual Mean Temperature HE RCP26 2070'
p553
sg33
g34
sg35
g36
sg37
S'clim.he2670.bio01.tif'
p554
sg39
S'clim'
p555
sg41
g42
sg43
I4326
sg44
S'2070'
p556
ssS'bio19'
p557
(dp558
g8
S'2015-03-24 17:29:21'
p559
sg10
S'yes'
p560
sg12
S'he2670.bio19'
p561
sg14
I258
sg15
S'bio19'
p562
sg17
S'Precipitation of Coldest Quarter'
p563
sg19
S'26'
p564
sg21
S'he2670'
p565
sg23
S'../views/GTiff/clim.he2670.bio19.tif'
p566
sg25
S'climate'
p567
sg27
S'clim.he2670.bio19'
p568
sg29
S'6148'
p569
sg31
S'Precipitation of Coldest Quarter HE RCP26 2070'
p570
sg33
g34
sg35
g36
sg37
S'clim.he2670.bio19.tif'
p571
sg39
S'clim'
p572
sg41
g42
sg43
I4326
sg44
S'2070'
p573
ssS'bio18'
p574
(dp575
g8
S'2015-03-24 17:29:21'
p576
sg10
S'no'
p577
sg12
S'he2670.bio18'
p578
sg14
I192
sg15
S'bio18'
p579
sg17
S'Precipitation of Warmest Quarter'
p580
sg19
S'26'
p581
sg21
S'he2670'
p582
sg23
S'../views/GTiff/clim.he2670.bio18.tif'
p583
sg25
S'climate'
p584
sg27
S'clim.he2670.bio18'
p585
sg29
S'6162'
p586
sg31
S'Precipitation of Warmest Quarter HE RCP26 2070'
p587
sg33
g34
sg35
g36
sg37
S'clim.he2670.bio18.tif'
p588
sg39
S'clim'
p589
sg41
g42
sg43
I4326
sg44
S'2070'
p590
ssS'bio14'
p591
(dp592
g8
S'2015-03-24 17:29:21'
p593
sg10
S'yes'
p594
sg12
S'he2670.bio14'
p595
sg14
I211
sg15
S'bio14'
p596
sg17
S'Precipitation of Driest Month'
p597
sg19
S'26'
p598
sg21
S'he2670'
p599
sg23
S'../views/GTiff/clim.he2670.bio14.tif'
p600
sg25
S'climate'
p601
sg27
S'clim.he2670.bio14'
p602
sg29
S'6163'
p603
sg31
S'Precipitation of Driest Month HE RCP26 2070'
p604
sg33
g34
sg35
g36
sg37
S'clim.he2670.bio14.tif'
p605
sg39
S'clim'
p606
sg41
g42
sg43
I4326
sg44
S'2070'
p607
ssS'bio04'
p608
(dp609
g8
S'2015-03-24 17:29:21'
p610
sg10
S'yes'
p611
sg12
S'he2670.bio04'
p612
sg14
I229
sg15
S'bio04'
p613
sg17
S'Temperature Seasonality (standard deviation *100)'
p614
sg19
S'26'
p615
sg21
S'he2670'
p616
sg23
S'../views/GTiff/clim.he2670.bio04.tif'
p617
sg25
S'climate'
p618
sg27
S'clim.he2670.bio04'
p619
sg29
S'6157'
p620
sg31
S'Temperature Seasonality (standard deviation *100) HE RCP26 2070'
p621
sg33
g34
sg35
g36
sg37
S'clim.he2670.bio04.tif'
p622
sg39
S'clim'
p623
sg41
g42
sg43
I4326
sg44
S'2070'
p624
ssS'bio08'
p625
(dp626
g8
S'2015-03-24 17:29:21'
p627
sg10
S'no'
p628
sg12
S'he2670.bio08'
p629
sg14
I21
sg15
S'bio08'
p630
sg17
S'Mean Temperature of Wettest Quarter'
p631
sg19
S'26'
p632
sg21
g351
sg23
S'../views/GTiff/clim.he2670.bio08.tif'
p633
sg25
S'climate'
p634
sg27
S'clim.he2670.bio08'
p635
sg29
S'6165'
p636
sg31
S'Mean Temperature of Wettest Quarter HE RCP26 2070'
p637
sg33
g34
sg35
g36
sg37
S'clim.he2670.bio08.tif'
p638
sg39
S'clim'
p639
sg41
g42
sg43
I4326
sg44
S'2070'
p640
ssS'bio09'
p641
(dp642
g8
S'2015-03-24 17:29:21'
p643
sg10
S'yes'
p644
sg12
S'he2670.bio09'
p645
sg14
I160
sg15
S'bio09'
p646
sg17
S'Mean Temperature of Driest Quarter'
p647
sg19
S'26'
p648
sg21
S'he2670'
p649
sg23
S'../views/GTiff/clim.he2670.bio09.tif'
p650
sg25
S'climate'
p651
sg27
S'clim.he2670.bio09'
p652
sg29
S'6164'
p653
sg31
S'Mean Temperature of Driest Quarter HE RCP26 2070'
p654
sg33
g34
sg35
g36
sg37
S'clim.he2670.bio09.tif'
p655
sg39
S'clim'
p656
sg41
g42
sg43
I4326
sg44
S'2070'
p657
ssS'bio15'
p658
(dp659
g8
S'2015-03-24 17:29:21'
p660
sg10
S'no'
p661
sg12
S'he2670.bio15'
p662
sg14
I74
sg15
S'bio15'
p663
sg17
S'Precipitation Seasonality (Coefficient of Variation)'
p664
sg19
S'26'
p665
sg21
S'he2670'
p666
sg23
S'../views/GTiff/clim.he2670.bio15.tif'
p667
sg25
S'climate'
p668
sg27
S'clim.he2670.bio15'
p669
sg29
S'6152'
p670
sg31
S'Precipitation Seasonality (Coefficient of Variation) HE RCP26 2070'
p671
sg33
g34
sg35
g36
sg37
S'clim.he2670.bio15.tif'
p672
sg39
S'clim'
p673
sg41
g42
sg43
I4326
sg44
S'2070'
p674
sssS'he6070'
p675
(dp676
S'bio07'
p677
(dp678
g8
S'2015-03-24 17:29:21'
p679
sg10
S'no'
p680
sg12
S'he6070.bio07'
p681
sg14
I101
sg15
S'bio07'
p682
sg17
S'Temperature Annual Range (BIO5-BIO6)'
p683
sg19
S'60'
p684
sg21
S'he6070'
p685
sg23
S'../views/GTiff/clim.he6070.bio07.tif'
p686
sg25
S'climate'
p687
sg27
S'clim.he6070.bio07'
p688
sg29
S'6363'
p689
sg31
S'Temperature Annual Range (BIO5-BIO6) HE RCP60 2070'
p690
sg33
g34
sg35
g36
sg37
S'clim.he6070.bio07.tif'
p691
sg39
S'clim'
p692
sg41
g42
sg43
I4326
sg44
S'2070'
p693
ssS'bio01'
p694
(dp695
g8
S'2015-03-24 17:29:21'
p696
sg10
S'no'
p697
sg12
S'he6070.bio01'
p698
sg14
I244
sg15
S'bio01'
p699
sg17
S'Annual Mean Temperature'
p700
sg19
S'60'
p701
sg21
S'he6070'
p702
sg23
S'../views/GTiff/clim.he6070.bio01.tif'
p703
sg25
S'climate'
p704
sg27
S'clim.he6070.bio01'
p705
sg29
S'6369'
p706
sg31
S'Annual Mean Temperature HE RCP60 2070'
p707
sg33
g34
sg35
g36
sg37
S'clim.he6070.bio01.tif'
p708
sg39
S'clim'
p709
sg41
g42
sg43
I4326
sg44
S'2070'
p710
ssS'bio11'
p711
(dp712
g8
S'2015-03-24 17:29:21'
p713
sg10
S'yes'
p714
sg12
S'he6070.bio11'
p715
sg14
I287
sg15
S'bio11'
p716
sg17
S'Mean Temperature of Coldest Quarter'
p717
sg19
S'60'
p718
sg21
S'he6070'
p719
sg23
S'../views/GTiff/clim.he6070.bio11.tif'
p720
sg25
S'climate'
p721
sg27
S'clim.he6070.bio11'
p722
sg29
S'6359'
p723
sg31
S'Mean Temperature of Coldest Quarter HE RCP60 2070'
p724
sg33
g34
sg35
g36
sg37
S'clim.he6070.bio11.tif'
p725
sg39
S'clim'
p726
sg41
g42
sg43
I4326
sg44
S'2070'
p727
ssS'bio09'
p728
(dp729
g8
S'2015-03-24 17:29:21'
p730
sg10
S'yes'
p731
sg12
S'he6070.bio09'
p732
sg14
I150
sg15
S'bio09'
p733
sg17
S'Mean Temperature of Driest Quarter'
p734
sg19
S'60'
p735
sg21
S'he6070'
p736
sg23
S'../views/GTiff/clim.he6070.bio09.tif'
p737
sg25
S'climate'
p738
sg27
S'clim.he6070.bio09'
p739
sg29
S'6373'
p740
sg31
S'Mean Temperature of Driest Quarter HE RCP60 2070'
p741
sg33
g34
sg35
g36
sg37
S'clim.he6070.bio09.tif'
p742
sg39
S'clim'
p743
sg41
g42
sg43
I4326
sg44
S'2070'
p744
ssS'bio17'
p745
(dp746
g8
S'2015-03-24 17:29:21'
p747
sg10
S'yes'
p748
sg12
S'he6070.bio17'
p749
sg14
I187
sg15
S'bio17'
p750
sg17
S'Precipitation of Driest Quarter'
p751
sg19
S'60'
p752
sg21
S'he6070'
p753
sg23
S'../views/GTiff/clim.he6070.bio17.tif'
p754
sg25
S'climate'
p755
sg27
S'clim.he6070.bio17'
p756
sg29
S'6370'
p757
sg31
S'Precipitation of Driest Quarter HE RCP60 2070'
p758
sg33
g34
sg35
g36
sg37
S'clim.he6070.bio17.tif'
p759
sg39
S'clim'
p760
sg41
g42
sg43
I4326
sg44
S'2070'
p761
ssS'bio05'
p762
(dp763
g8
S'2015-03-24 17:29:21'
p764
sg10
S'yes'
p765
sg12
S'he6070.bio05'
p766
sg14
I164
sg15
S'bio05'
p767
sg17
S'Max Temperature of Warmest Month'
p768
sg19
S'60'
p769
sg21
S'he6070'
p770
sg23
S'../views/GTiff/clim.he6070.bio05.tif'
p771
sg25
S'climate'
p772
sg27
S'clim.he6070.bio05'
p773
sg29
S'6365'
p774
sg31
S'Max Temperature of Warmest Month HE RCP60 2070'
p775
sg33
g34
sg35
g36
sg37
S'clim.he6070.bio05.tif'
p776
sg39
S'clim'
p777
sg41
g42
sg43
I4326
sg44
S'2070'
p778
ssS'bio10'
p779
(dp780
g8
S'2015-03-24 17:29:21'
p781
sg10
S'yes'
p782
sg12
S'he6070.bio10'
p783
sg14
I85
sg15
S'bio10'
p784
sg17
S'Mean Temperature of Warmest Quarter'
p785
sg19
S'60'
p786
sg21
S'he6070'
p787
sg23
S'../views/GTiff/clim.he6070.bio10.tif'
p788
sg25
S'climate'
p789
sg27
S'clim.he6070.bio10'
p790
sg29
S'6356'
p791
sg31
S'Mean Temperature of Warmest Quarter HE RCP60 2070'
p792
sg33
g34
sg35
g36
sg37
S'clim.he6070.bio10.tif'
p793
sg39
S'clim'
p794
sg41
g42
sg43
I4326
sg44
S'2070'
p795
ssS'bio06'
p796
(dp797
g8
S'2015-03-24 17:29:21'
p798
sg10
S'yes'
p799
sg12
S'he6070.bio06'
p800
sg14
I222
sg15
S'bio06'
p801
sg17
S'Min Temperature of Coldest Month'
p802
sg19
S'60'
p803
sg21
S'he6070'
p804
sg23
S'../views/GTiff/clim.he6070.bio06.tif'
p805
sg25
S'climate'
p806
sg27
S'clim.he6070.bio06'
p807
sg29
S'6364'
p808
sg31
S'Min Temperature of Coldest Month HE RCP60 2070'
p809
sg33
g34
sg35
g36
sg37
S'clim.he6070.bio06.tif'
p810
sg39
S'clim'
p811
sg41
g42
sg43
I4326
sg44
S'2070'
p812
ssS'bio12'
p813
(dp814
g8
S'2015-03-24 17:29:21'
p815
sg10
S'no'
p816
sg12
S'he6070.bio12'
p817
sg14
I153
sg15
S'bio12'
p818
sg17
S'Annual Precipitation'
p819
sg19
S'60'
p820
sg21
S'he6070'
p821
sg23
S'../views/GTiff/clim.he6070.bio12.tif'
p822
sg25
S'climate'
p823
sg27
S'clim.he6070.bio12'
p824
sg29
S'6362'
p825
sg31
S'Annual Precipitation HE RCP60 2070'
p826
sg33
g34
sg35
g36
sg37
S'clim.he6070.bio12.tif'
p827
sg39
S'clim'
p828
sg41
g42
sg43
I4326
sg44
S'2070'
p829
ssS'bio13'
p830
(dp831
g8
S'2015-03-24 17:29:21'
p832
sg10
S'yes'
p833
sg12
S'he6070.bio13'
p834
sg14
I60
sg15
S'bio13'
p835
sg17
S'Precipitation of Wettest Month'
p836
sg19
S'60'
p837
sg21
S'he6070'
p838
sg23
S'../views/GTiff/clim.he6070.bio13.tif'
p839
sg25
S'climate'
p840
sg27
S'clim.he6070.bio13'
p841
sg29
S'6358'
p842
sg31
S'Precipitation of Wettest Month HE RCP60 2070'
p843
sg33
g34
sg35
g36
sg37
S'clim.he6070.bio13.tif'
p844
sg39
S'clim'
p845
sg41
g42
sg43
I4326
sg44
S'2070'
p846
ssS'bio03'
p847
(dp848
g8
S'2015-03-24 17:29:21'
p849
sg10
S'yes'
p850
sg12
S'he6070.bio03'
p851
sg14
I88
sg15
S'bio03'
p852
sg17
S'Isothermality (BIO2/BIO7) (* 100)'
p853
sg19
S'60'
p854
sg21
S'he6070'
p855
sg23
S'../views/GTiff/clim.he6070.bio03.tif'
p856
sg25
S'climate'
p857
sg27
S'clim.he6070.bio03'
p858
sg29
S'6367'
p859
sg31
S'Isothermality (BIO2/BIO7) (* 100) HE RCP60 2070'
p860
sg33
g34
sg35
g36
sg37
S'clim.he6070.bio03.tif'
p861
sg39
S'clim'
p862
sg41
g42
sg43
I4326
sg44
S'2070'
p863
ssS'bio15'
p864
(dp865
g8
S'2015-03-24 17:29:21'
p866
sg10
S'no'
p867
sg12
S'he6070.bio15'
p868
sg14
I49
sg15
S'bio15'
p869
sg17
S'Precipitation Seasonality (Coefficient of Variation)'
p870
sg19
S'60'
p871
sg21
S'he6070'
p872
sg23
S'../views/GTiff/clim.he6070.bio15.tif'
p873
sg25
S'climate'
p874
sg27
S'clim.he6070.bio15'
p875
sg29
S'6361'
p876
sg31
S'Precipitation Seasonality (Coefficient of Variation) HE RCP60 2070'
p877
sg33
g34
sg35
g36
sg37
S'clim.he6070.bio15.tif'
p878
sg39
S'clim'
p879
sg41
g42
sg43
I4326
sg44
S'2070'
p880
ssS'bio16'
p881
(dp882
g8
S'2015-03-24 17:29:21'
p883
sg10
S'yes'
p884
sg12
S'he6070.bio16'
p885
sg14
I110
sg15
S'bio16'
p886
sg17
S'Precipitation of Wettest Quarter'
p887
sg19
S'60'
p888
sg21
S'he6070'
p889
sg23
S'../views/GTiff/clim.he6070.bio16.tif'
p890
sg25
S'climate'
p891
sg27
S'clim.he6070.bio16'
p892
sg29
S'6360'
p893
sg31
S'Precipitation of Wettest Quarter HE RCP60 2070'
p894
sg33
g34
sg35
g36
sg37
S'clim.he6070.bio16.tif'
p895
sg39
S'clim'
p896
sg41
g42
sg43
I4326
sg44
S'2070'
p897
ssS'bio19'
p898
(dp899
g8
S'2015-03-24 17:29:21'
p900
sg10
S'yes'
p901
sg12
S'he6070.bio19'
p902
sg14
I97
sg15
S'bio19'
p903
sg17
S'Precipitation of Coldest Quarter'
p904
sg19
S'60'
p905
sg21
S'he6070'
p906
sg23
S'../views/GTiff/clim.he6070.bio19.tif'
p907
sg25
S'climate'
p908
sg27
S'clim.he6070.bio19'
p909
sg29
S'6357'
p910
sg31
S'Precipitation of Coldest Quarter HE RCP60 2070'
p911
sg33
g34
sg35
g36
sg37
S'clim.he6070.bio19.tif'
p912
sg39
S'clim'
p913
sg41
g42
sg43
I4326
sg44
S'2070'
p914
ssS'bio18'
p915
(dp916
g8
S'2015-03-24 17:29:21'
p917
sg10
S'no'
p918
sg12
S'he6070.bio18'
p919
sg14
I158
sg15
S'bio18'
p920
sg17
S'Precipitation of Warmest Quarter'
p921
sg19
S'60'
p922
sg21
S'he6070'
p923
sg23
S'../views/GTiff/clim.he6070.bio18.tif'
p924
sg25
S'climate'
p925
sg27
S'clim.he6070.bio18'
p926
sg29
S'6371'
p927
sg31
S'Precipitation of Warmest Quarter HE RCP60 2070'
p928
sg33
g34
sg35
g36
sg37
S'clim.he6070.bio18.tif'
p929
sg39
S'clim'
p930
sg41
g42
sg43
I4326
sg44
S'2070'
p931
ssS'bio14'
p932
(dp933
g8
S'2015-03-24 17:29:21'
p934
sg10
S'yes'
p935
sg12
S'he6070.bio14'
p936
sg14
I30
sg15
S'bio14'
p937
sg17
S'Precipitation of Driest Month'
p938
sg19
S'60'
p939
sg21
g675
sg23
S'../views/GTiff/clim.he6070.bio14.tif'
p940
sg25
S'climate'
p941
sg27
S'clim.he6070.bio14'
p942
sg29
S'6372'
p943
sg31
S'Precipitation of Driest Month HE RCP60 2070'
p944
sg33
g34
sg35
g36
sg37
S'clim.he6070.bio14.tif'
p945
sg39
S'clim'
p946
sg41
g42
sg43
I4326
sg44
S'2070'
p947
ssS'bio02'
p948
(dp949
g8
S'2015-03-24 17:29:21'
p950
sg10
S'yes'
p951
sg12
S'he6070.bio02'
p952
sg14
I279
sg15
S'bio02'
p953
sg17
S'Mean Diurnal Range (Mean of monthly (max temp - min temp))'
p954
sg19
S'60'
p955
sg21
S'he6070'
p956
sg23
S'../views/GTiff/clim.he6070.bio02.tif'
p957
sg25
S'climate'
p958
sg27
S'clim.he6070.bio02'
p959
sg29
S'6368'
p960
sg31
S'Mean Diurnal Range (Mean of monthly (max temp - min temp)) HE RCP60 2070'
p961
sg33
g34
sg35
g36
sg37
S'clim.he6070.bio02.tif'
p962
sg39
S'clim'
p963
sg41
g42
sg43
I4326
sg44
S'2070'
p964
ssS'bio04'
p965
(dp966
g8
S'2015-03-24 17:29:21'
p967
sg10
S'yes'
p968
sg12
S'he6070.bio04'
p969
sg14
I139
sg15
S'bio04'
p970
sg17
S'Temperature Seasonality (standard deviation *100)'
p971
sg19
S'60'
p972
sg21
S'he6070'
p973
sg23
S'../views/GTiff/clim.he6070.bio04.tif'
p974
sg25
S'climate'
p975
sg27
S'clim.he6070.bio04'
p976
sg29
S'6366'
p977
sg31
S'Temperature Seasonality (standard deviation *100) HE RCP60 2070'
p978
sg33
g34
sg35
g36
sg37
S'clim.he6070.bio04.tif'
p979
sg39
S'clim'
p980
sg41
g42
sg43
I4326
sg44
S'2070'
p981
ssS'bio08'
p982
(dp983
g8
S'2015-03-24 17:29:21'
p984
sg10
S'no'
p985
sg12
S'he6070.bio08'
p986
sg14
I78
sg15
S'bio08'
p987
sg17
S'Mean Temperature of Wettest Quarter'
p988
sg19
S'60'
p989
sg21
S'he6070'
p990
sg23
S'../views/GTiff/clim.he6070.bio08.tif'
p991
sg25
S'climate'
p992
sg27
S'clim.he6070.bio08'
p993
sg29
S'6374'
p994
sg31
S'Mean Temperature of Wettest Quarter HE RCP60 2070'
p995
sg33
g34
sg35
g36
sg37
S'clim.he6070.bio08.tif'
p996
sg39
S'clim'
p997
sg41
g42
sg43
I4326
sg44
S'2070'
p998
sssS'he8550'
p999
(dp1000
S'bio07'
p1001
(dp1002
g8
S'2015-03-24 17:29:21'
p1003
sg10
S'no'
p1004
sg12
S'he8550.bio07'
p1005
sg14
I295
sg15
S'bio07'
p1006
sg17
S'Temperature Annual Range (BIO5-BIO6)'
p1007
sg19
S'85'
p1008
sg21
S'he8550'
p1009
sg23
S'../views/GTiff/clim.he8550.bio07.tif'
p1010
sg25
S'climate'
p1011
sg27
S'clim.he8550.bio07'
p1012
sg29
S'6176'
p1013
sg31
S'Temperature Annual Range (BIO5-BIO6) HE RCP85 2050'
p1014
sg33
g34
sg35
g36
sg37
S'clim.he8550.bio07.tif'
p1015
sg39
S'clim'
p1016
sg41
g42
sg43
I4326
sg44
S'2050'
p1017
ssS'bio13'
p1018
(dp1019
g8
S'2015-03-24 17:29:21'
p1020
sg10
S'yes'
p1021
sg12
S'he8550.bio13'
p1022
sg14
I300
sg15
S'bio13'
p1023
sg17
S'Precipitation of Wettest Month'
p1024
sg19
S'85'
p1025
sg21
S'he8550'
p1026
sg23
S'../views/GTiff/clim.he8550.bio13.tif'
p1027
sg25
S'climate'
p1028
sg27
S'clim.he8550.bio13'
p1029
sg29
S'6171'
p1030
sg31
S'Precipitation of Wettest Month HE RCP85 2050'
p1031
sg33
g34
sg35
g36
sg37
S'clim.he8550.bio13.tif'
p1032
sg39
S'clim'
p1033
sg41
g42
sg43
I4326
sg44
S'2050'
p1034
ssS'bio16'
p1035
(dp1036
g8
S'2015-03-24 17:29:21'
p1037
sg10
S'yes'
p1038
sg12
S'he8550.bio16'
p1039
sg14
I114
sg15
S'bio16'
p1040
sg17
S'Precipitation of Wettest Quarter'
p1041
sg19
S'85'
p1042
sg21
S'he8550'
p1043
sg23
S'../views/GTiff/clim.he8550.bio16.tif'
p1044
sg25
S'climate'
p1045
sg27
S'clim.he8550.bio16'
p1046
sg29
S'6173'
p1047
sg31
S'Precipitation of Wettest Quarter HE RCP85 2050'
p1048
sg33
g34
sg35
g36
sg37
S'clim.he8550.bio16.tif'
p1049
sg39
S'clim'
p1050
sg41
g42
sg43
I4326
sg44
S'2050'
p1051
ssS'bio06'
p1052
(dp1053
g8
S'2015-03-24 17:29:21'
p1054
sg10
S'yes'
p1055
sg12
S'he8550.bio06'
p1056
sg14
I332
sg15
S'bio06'
p1057
sg17
S'Min Temperature of Coldest Month'
p1058
sg19
S'85'
p1059
sg21
S'he8550'
p1060
sg23
S'../views/GTiff/clim.he8550.bio06.tif'
p1061
sg25
S'climate'
p1062
sg27
S'clim.he8550.bio06'
p1063
sg29
S'6177'
p1064
sg31
S'Min Temperature of Coldest Month HE RCP85 2050'
p1065
sg33
g34
sg35
g36
sg37
S'clim.he8550.bio06.tif'
p1066
sg39
S'clim'
p1067
sg41
g42
sg43
I4326
sg44
S'2050'
p1068
ssS'bio05'
p1069
(dp1070
g8
S'2015-03-24 17:29:21'
p1071
sg10
S'yes'
p1072
sg12
S'he8550.bio05'
p1073
sg14
I220
sg15
S'bio05'
p1074
sg17
S'Max Temperature of Warmest Month'
p1075
sg19
S'85'
p1076
sg21
S'he8550'
p1077
sg23
S'../views/GTiff/clim.he8550.bio05.tif'
p1078
sg25
S'climate'
p1079
sg27
S'clim.he8550.bio05'
p1080
sg29
S'6178'
p1081
sg31
S'Max Temperature of Warmest Month HE RCP85 2050'
p1082
sg33
g34
sg35
g36
sg37
S'clim.he8550.bio05.tif'
p1083
sg39
S'clim'
p1084
sg41
g42
sg43
I4326
sg44
S'2050'
p1085
ssS'bio10'
p1086
(dp1087
g8
S'2015-03-24 17:29:21'
p1088
sg10
S'yes'
p1089
sg12
S'he8550.bio10'
p1090
sg14
I103
sg15
S'bio10'
p1091
sg17
S'Mean Temperature of Warmest Quarter'
p1092
sg19
S'85'
p1093
sg21
S'he8550'
p1094
sg23
S'../views/GTiff/clim.he8550.bio10.tif'
p1095
sg25
S'climate'
p1096
sg27
S'clim.he8550.bio10'
p1097
sg29
S'6169'
p1098
sg31
S'Mean Temperature of Warmest Quarter HE RCP85 2050'
p1099
sg33
g34
sg35
g36
sg37
S'clim.he8550.bio10.tif'
p1100
sg39
S'clim'
p1101
sg41
g42
sg43
I4326
sg44
S'2050'
p1102
ssS'bio11'
p1103
(dp1104
g8
S'2015-03-24 17:29:21'
p1105
sg10
S'yes'
p1106
sg12
S'he8550.bio11'
p1107
sg14
I195
sg15
S'bio11'
p1108
sg17
S'Mean Temperature of Coldest Quarter'
p1109
sg19
S'85'
p1110
sg21
S'he8550'
p1111
sg23
S'../views/GTiff/clim.he8550.bio11.tif'
p1112
sg25
S'climate'
p1113
sg27
S'clim.he8550.bio11'
p1114
sg29
S'6172'
p1115
sg31
S'Mean Temperature of Coldest Quarter HE RCP85 2050'
p1116
sg33
g34
sg35
g36
sg37
S'clim.he8550.bio11.tif'
p1117
sg39
S'clim'
p1118
sg41
g42
sg43
I4326
sg44
S'2050'
p1119
ssS'bio12'
p1120
(dp1121
g8
S'2015-03-24 17:29:21'
p1122
sg10
S'no'
p1123
sg12
S'he8550.bio12'
p1124
sg14
I71
sg15
S'bio12'
p1125
sg17
S'Annual Precipitation'
p1126
sg19
S'85'
p1127
sg21
S'he8550'
p1128
sg23
S'../views/GTiff/clim.he8550.bio12.tif'
p1129
sg25
S'climate'
p1130
sg27
S'clim.he8550.bio12'
p1131
sg29
S'6175'
p1132
sg31
S'Annual Precipitation HE RCP85 2050'
p1133
sg33
g34
sg35
g36
sg37
S'clim.he8550.bio12.tif'
p1134
sg39
S'clim'
p1135
sg41
g42
sg43
I4326
sg44
S'2050'
p1136
ssS'bio04'
p1137
(dp1138
g8
S'2015-03-24 17:29:21'
p1139
sg10
S'yes'
p1140
sg12
S'he8550.bio04'
p1141
sg14
I119
sg15
S'bio04'
p1142
sg17
S'Temperature Seasonality (standard deviation *100)'
p1143
sg19
S'85'
p1144
sg21
S'he8550'
p1145
sg23
S'../views/GTiff/clim.he8550.bio04.tif'
p1146
sg25
S'climate'
p1147
sg27
S'clim.he8550.bio04'
p1148
sg29
S'6179'
p1149
sg31
S'Temperature Seasonality (standard deviation *100) HE RCP85 2050'
p1150
sg33
g34
sg35
g36
sg37
S'clim.he8550.bio04.tif'
p1151
sg39
S'clim'
p1152
sg41
g42
sg43
I4326
sg44
S'2050'
p1153
ssS'bio14'
p1154
(dp1155
g8
S'2015-03-24 17:29:21'
p1156
sg10
S'yes'
p1157
sg12
S'he8550.bio14'
p1158
sg14
I15
sg15
S'bio14'
p1159
sg17
S'Precipitation of Driest Month'
p1160
sg19
S'85'
p1161
sg21
g999
sg23
S'../views/GTiff/clim.he8550.bio14.tif'
p1162
sg25
S'climate'
p1163
sg27
S'clim.he8550.bio14'
p1164
sg29
S'6185'
p1165
sg31
S'Precipitation of Driest Month HE RCP85 2050'
p1166
sg33
g34
sg35
g36
sg37
S'clim.he8550.bio14.tif'
p1167
sg39
S'clim'
p1168
sg41
g42
sg43
I4326
sg44
S'2050'
p1169
ssS'bio02'
p1170
(dp1171
g8
S'2015-03-24 17:29:21'
p1172
sg10
S'yes'
p1173
sg12
S'he8550.bio02'
p1174
sg14
I108
sg15
S'bio02'
p1175
sg17
S'Mean Diurnal Range (Mean of monthly (max temp - min temp))'
p1176
sg19
S'85'
p1177
sg21
S'he8550'
p1178
sg23
S'../views/GTiff/clim.he8550.bio02.tif'
p1179
sg25
S'climate'
p1180
sg27
S'clim.he8550.bio02'
p1181
sg29
S'6181'
p1182
sg31
S'Mean Diurnal Range (Mean of monthly (max temp - min temp)) HE RCP85 2050'
p1183
sg33
g34
sg35
g36
sg37
S'clim.he8550.bio02.tif'
p1184
sg39
S'clim'
p1185
sg41
g42
sg43
I4326
sg44
S'2050'
p1186
ssS'bio01'
p1187
(dp1188
g8
S'2015-03-24 17:29:21'
p1189
sg10
S'no'
p1190
sg12
S'he8550.bio01'
p1191
sg14
I57
sg15
S'bio01'
p1192
sg17
S'Annual Mean Temperature'
p1193
sg19
S'85'
p1194
sg21
S'he8550'
p1195
sg23
S'../views/GTiff/clim.he8550.bio01.tif'
p1196
sg25
S'climate'
p1197
sg27
S'clim.he8550.bio01'
p1198
sg29
S'6182'
p1199
sg31
S'Annual Mean Temperature HE RCP85 2050'
p1200
sg33
g34
sg35
g36
sg37
S'clim.he8550.bio01.tif'
p1201
sg39
S'clim'
p1202
sg41
g42
sg43
I4326
sg44
S'2050'
p1203
ssS'bio17'
p1204
(dp1205
g8
S'2015-03-24 17:29:21'
p1206
sg10
S'yes'
p1207
sg12
S'he8550.bio17'
p1208
sg14
I252
sg15
S'bio17'
p1209
sg17
S'Precipitation of Driest Quarter'
p1210
sg19
S'85'
p1211
sg21
S'he8550'
p1212
sg23
S'../views/GTiff/clim.he8550.bio17.tif'
p1213
sg25
S'climate'
p1214
sg27
S'clim.he8550.bio17'
p1215
sg29
S'6183'
p1216
sg31
S'Precipitation of Driest Quarter HE RCP85 2050'
p1217
sg33
g34
sg35
g36
sg37
S'clim.he8550.bio17.tif'
p1218
sg39
S'clim'
p1219
sg41
g42
sg43
I4326
sg44
S'2050'
p1220
ssS'bio18'
p1221
(dp1222
g8
S'2015-03-24 17:29:21'
p1223
sg10
S'no'
p1224
sg12
S'he8550.bio18'
p1225
sg14
I137
sg15
S'bio18'
p1226
sg17
S'Precipitation of Warmest Quarter'
p1227
sg19
S'85'
p1228
sg21
S'he8550'
p1229
sg23
S'../views/GTiff/clim.he8550.bio18.tif'
p1230
sg25
S'climate'
p1231
sg27
S'clim.he8550.bio18'
p1232
sg29
S'6184'
p1233
sg31
S'Precipitation of Warmest Quarter HE RCP85 2050'
p1234
sg33
g34
sg35
g36
sg37
S'clim.he8550.bio18.tif'
p1235
sg39
S'clim'
p1236
sg41
g42
sg43
I4326
sg44
S'2050'
p1237
ssS'bio19'
p1238
(dp1239
g8
S'2015-03-24 17:29:21'
p1240
sg10
S'yes'
p1241
sg12
S'he8550.bio19'
p1242
sg14
I27
sg15
S'bio19'
p1243
sg17
S'Precipitation of Coldest Quarter'
p1244
sg19
S'85'
p1245
sg21
S'he8550'
p1246
sg23
S'../views/GTiff/clim.he8550.bio19.tif'
p1247
sg25
S'climate'
p1248
sg27
S'clim.he8550.bio19'
p1249
sg29
S'6170'
p1250
sg31
S'Precipitation of Coldest Quarter HE RCP85 2050'
p1251
sg33
g34
sg35
g36
sg37
S'clim.he8550.bio19.tif'
p1252
sg39
S'clim'
p1253
sg41
g42
sg43
I4326
sg44
S'2050'
p1254
ssS'bio08'
p1255
(dp1256
g8
S'2015-03-24 17:29:21'
p1257
sg10
S'no'
p1258
sg12
S'he8550.bio08'
p1259
sg14
I322
sg15
S'bio08'
p1260
sg17
S'Mean Temperature of Wettest Quarter'
p1261
sg19
S'85'
p1262
sg21
S'he8550'
p1263
sg23
S'../views/GTiff/clim.he8550.bio08.tif'
p1264
sg25
S'climate'
p1265
sg27
S'clim.he8550.bio08'
p1266
sg29
S'6187'
p1267
sg31
S'Mean Temperature of Wettest Quarter HE RCP85 2050'
p1268
sg33
g34
sg35
g36
sg37
S'clim.he8550.bio08.tif'
p1269
sg39
S'clim'
p1270
sg41
g42
sg43
I4326
sg44
S'2050'
p1271
ssS'bio03'
p1272
(dp1273
g8
S'2015-03-24 17:29:21'
p1274
sg10
S'yes'
p1275
sg12
S'he8550.bio03'
p1276
sg14
I327
sg15
S'bio03'
p1277
sg17
S'Isothermality (BIO2/BIO7) (* 100)'
p1278
sg19
S'85'
p1279
sg21
S'he8550'
p1280
sg23
S'../views/GTiff/clim.he8550.bio03.tif'
p1281
sg25
S'climate'
p1282
sg27
S'clim.he8550.bio03'
p1283
sg29
S'6180'
p1284
sg31
S'Isothermality (BIO2/BIO7) (* 100) HE RCP85 2050'
p1285
sg33
g34
sg35
g36
sg37
S'clim.he8550.bio03.tif'
p1286
sg39
S'clim'
p1287
sg41
g42
sg43
I4326
sg44
S'2050'
p1288
ssS'bio09'
p1289
(dp1290
g8
S'2015-03-24 17:29:21'
p1291
sg10
S'yes'
p1292
sg12
S'he8550.bio09'
p1293
sg14
I121
sg15
S'bio09'
p1294
sg17
S'Mean Temperature of Driest Quarter'
p1295
sg19
S'85'
p1296
sg21
S'he8550'
p1297
sg23
S'../views/GTiff/clim.he8550.bio09.tif'
p1298
sg25
S'climate'
p1299
sg27
S'clim.he8550.bio09'
p1300
sg29
S'6186'
p1301
sg31
S'Mean Temperature of Driest Quarter HE RCP85 2050'
p1302
sg33
g34
sg35
g36
sg37
S'clim.he8550.bio09.tif'
p1303
sg39
S'clim'
p1304
sg41
g42
sg43
I4326
sg44
S'2050'
p1305
ssS'bio15'
p1306
(dp1307
g8
S'2015-03-24 17:29:21'
p1308
sg10
S'no'
p1309
sg12
S'he8550.bio15'
p1310
sg14
I109
sg15
S'bio15'
p1311
sg17
S'Precipitation Seasonality (Coefficient of Variation)'
p1312
sg19
S'85'
p1313
sg21
S'he8550'
p1314
sg23
S'../views/GTiff/clim.he8550.bio15.tif'
p1315
sg25
S'climate'
p1316
sg27
S'clim.he8550.bio15'
p1317
sg29
S'6174'
p1318
sg31
S'Precipitation Seasonality (Coefficient of Variation) HE RCP85 2050'
p1319
sg33
g34
sg35
g36
sg37
S'clim.he8550.bio15.tif'
p1320
sg39
S'clim'
p1321
sg41
g42
sg43
I4326
sg44
S'2050'
p1322
sssS'hhe4550'
p1323
(dp1324
S'bio07'
p1325
(dp1326
g8
S'2015-03-24 17:29:21'
p1327
sg10
S'no'
p1328
sg12
S'hhe4550.bio07'
p1329
sg14
I105
sg15
S'bio07'
p1330
sg17
S'Temperature Annual Range (BIO5-BIO6)'
p1331
sg19
S'45'
p1332
sg21
S'hhe4550'
p1333
sg23
S'../views/GTiff/clim.hhe4550.bio07.tif'
p1334
sg25
S'climate'
p1335
sg27
S'clim.hhe4550.bio07'
p1336
sg29
S'6567'
p1337
sg31
S'Temperature Annual Range (BIO5-BIO6) HE RCP45 2050'
p1338
sg33
g34
sg35
g36
sg37
S'clim.hhe4550.bio07.tif'
p1339
sg39
S'clim'
p1340
sg41
g42
sg43
I4326
sg44
S'2050'
p1341
ssS'bio19'
p1342
(dp1343
g8
S'2015-03-24 17:29:21'
p1344
sg10
S'yes'
p1345
sg12
S'hhe4550.bio19'
p1346
sg14
I282
sg15
S'bio19'
p1347
sg17
S'Precipitation of Coldest Quarter'
p1348
sg19
S'45'
p1349
sg21
S'hhe4550'
p1350
sg23
S'../views/GTiff/clim.hhe4550.bio19.tif'
p1351
sg25
S'climate'
p1352
sg27
S'clim.hhe4550.bio19'
p1353
sg29
S'6561'
p1354
sg31
S'Precipitation of Coldest Quarter HE RCP45 2050'
p1355
sg33
g34
sg35
g36
sg37
S'clim.hhe4550.bio19.tif'
p1356
sg39
S'clim'
p1357
sg41
g42
sg43
I4326
sg44
S'2050'
p1358
ssS'bio01'
p1359
(dp1360
g8
S'2015-03-24 17:29:21'
p1361
sg10
S'no'
p1362
sg12
S'hhe4550.bio01'
p1363
sg14
I315
sg15
S'bio01'
p1364
sg17
S'Annual Mean Temperature'
p1365
sg19
S'45'
p1366
sg21
S'hhe4550'
p1367
sg23
S'../views/GTiff/clim.hhe4550.bio01.tif'
p1368
sg25
S'climate'
p1369
sg27
S'clim.hhe4550.bio01'
p1370
sg29
S'6573'
p1371
sg31
S'Annual Mean Temperature HE RCP45 2050'
p1372
sg33
g34
sg35
g36
sg37
S'clim.hhe4550.bio01.tif'
p1373
sg39
S'clim'
p1374
sg41
g42
sg43
I4326
sg44
S'2050'
p1375
ssS'bio11'
p1376
(dp1377
g8
S'2015-03-24 17:29:21'
p1378
sg10
S'yes'
p1379
sg12
S'hhe4550.bio11'
p1380
sg14
I196
sg15
S'bio11'
p1381
sg17
S'Mean Temperature of Coldest Quarter'
p1382
sg19
S'45'
p1383
sg21
S'hhe4550'
p1384
sg23
S'../views/GTiff/clim.hhe4550.bio11.tif'
p1385
sg25
S'climate'
p1386
sg27
S'clim.hhe4550.bio11'
p1387
sg29
S'6563'
p1388
sg31
S'Mean Temperature of Coldest Quarter HE RCP45 2050'
p1389
sg33
g34
sg35
g36
sg37
S'clim.hhe4550.bio11.tif'
p1390
sg39
S'clim'
p1391
sg41
g42
sg43
I4326
sg44
S'2050'
p1392
ssS'bio09'
p1393
(dp1394
g8
S'2015-03-24 17:29:21'
p1395
sg10
S'yes'
p1396
sg12
S'hhe4550.bio09'
p1397
sg14
I288
sg15
S'bio09'
p1398
sg17
S'Mean Temperature of Driest Quarter'
p1399
sg19
S'45'
p1400
sg21
S'hhe4550'
p1401
sg23
S'../views/GTiff/clim.hhe4550.bio09.tif'
p1402
sg25
S'climate'
p1403
sg27
S'clim.hhe4550.bio09'
p1404
sg29
S'6577'
p1405
sg31
S'Mean Temperature of Driest Quarter HE RCP45 2050'
p1406
sg33
g34
sg35
g36
sg37
S'clim.hhe4550.bio09.tif'
p1407
sg39
S'clim'
p1408
sg41
g42
sg43
I4326
sg44
S'2050'
p1409
ssS'bio12'
p1410
(dp1411
g8
S'2015-03-24 17:29:21'
p1412
sg10
S'no'
p1413
sg12
S'hhe4550.bio12'
p1414
sg14
I206
sg15
S'bio12'
p1415
sg17
S'Annual Precipitation'
p1416
sg19
S'45'
p1417
sg21
S'hhe4550'
p1418
sg23
S'../views/GTiff/clim.hhe4550.bio12.tif'
p1419
sg25
S'climate'
p1420
sg27
S'clim.hhe4550.bio12'
p1421
sg29
S'6566'
p1422
sg31
S'Annual Precipitation HE RCP45 2050'
p1423
sg33
g34
sg35
g36
sg37
S'clim.hhe4550.bio12.tif'
p1424
sg39
S'clim'
p1425
sg41
g42
sg43
I4326
sg44
S'2050'
p1426
ssS'bio10'
p1427
(dp1428
g8
S'2015-03-24 17:29:21'
p1429
sg10
S'yes'
p1430
sg12
S'hhe4550.bio10'
p1431
sg14
I63
sg15
S'bio10'
p1432
sg17
S'Mean Temperature of Warmest Quarter'
p1433
sg19
S'45'
p1434
sg21
S'hhe4550'
p1435
sg23
S'../views/GTiff/clim.hhe4550.bio10.tif'
p1436
sg25
S'climate'
p1437
sg27
S'clim.hhe4550.bio10'
p1438
sg29
S'6560'
p1439
sg31
S'Mean Temperature of Warmest Quarter HE RCP45 2050'
p1440
sg33
g34
sg35
g36
sg37
S'clim.hhe4550.bio10.tif'
p1441
sg39
S'clim'
p1442
sg41
g42
sg43
I4326
sg44
S'2050'
p1443
ssS'bio06'
p1444
(dp1445
g8
S'2015-03-24 17:29:21'
p1446
sg10
S'yes'
p1447
sg12
S'hhe4550.bio06'
p1448
sg14
I161
sg15
S'bio06'
p1449
sg17
S'Min Temperature of Coldest Month'
p1450
sg19
S'45'
p1451
sg21
S'hhe4550'
p1452
sg23
S'../views/GTiff/clim.hhe4550.bio06.tif'
p1453
sg25
S'climate'
p1454
sg27
S'clim.hhe4550.bio06'
p1455
sg29
S'6568'
p1456
sg31
S'Min Temperature of Coldest Month HE RCP45 2050'
p1457
sg33
g34
sg35
g36
sg37
S'clim.hhe4550.bio06.tif'
p1458
sg39
S'clim'
p1459
sg41
g42
sg43
I4326
sg44
S'2050'
p1460
ssS'bio05'
p1461
(dp1462
g8
S'2015-03-24 17:29:21'
p1463
sg10
S'yes'
p1464
sg12
S'hhe4550.bio05'
p1465
sg14
I0
sg15
S'bio05'
p1466
sg17
S'Max Temperature of Warmest Month'
p1467
sg19
S'45'
p1468
sg21
g1323
sg23
S'../views/GTiff/clim.hhe4550.bio05.tif'
p1469
sg25
S'climate'
p1470
sg27
S'clim.hhe4550.bio05'
p1471
sg29
S'6569'
p1472
sg31
S'Max Temperature of Warmest Month HE RCP45 2050'
p1473
sg33
g34
sg35
g36
sg37
S'clim.hhe4550.bio05.tif'
p1474
sg39
g2
sg41
g42
sg43
I4326
sg44
S'2050'
p1475
ssS'bio13'
p1476
(dp1477
g8
S'2015-03-24 17:29:21'
p1478
sg10
S'yes'
p1479
sg12
S'hhe4550.bio13'
p1480
sg14
I3
sg15
S'bio13'
p1481
sg17
S'Precipitation of Wettest Month'
p1482
sg19
S'45'
p1483
sg21
S'hhe4550'
p1484
sg23
S'../views/GTiff/clim.hhe4550.bio13.tif'
p1485
sg25
S'climate'
p1486
sg27
S'clim.hhe4550.bio13'
p1487
sg29
S'6562'
p1488
sg31
S'Precipitation of Wettest Month HE RCP45 2050'
p1489
sg33
g34
sg35
g36
sg37
S'clim.hhe4550.bio13.tif'
p1490
sg39
S'clim'
p1491
sg41
g42
sg43
I4326
sg44
S'2050'
p1492
ssS'bio14'
p1493
(dp1494
g8
S'2015-03-24 17:29:21'
p1495
sg10
S'yes'
p1496
sg12
S'hhe4550.bio14'
p1497
sg14
I7
sg15
S'bio14'
p1498
sg17
S'Precipitation of Driest Month'
p1499
sg19
S'45'
p1500
sg21
S'hhe4550'
p1501
sg23
S'../views/GTiff/clim.hhe4550.bio14.tif'
p1502
sg25
S'climate'
p1503
sg27
S'clim.hhe4550.bio14'
p1504
sg29
S'6576'
p1505
sg31
S'Precipitation of Driest Month HE RCP45 2050'
p1506
sg33
g34
sg35
g36
sg37
S'clim.hhe4550.bio14.tif'
p1507
sg39
S'clim'
p1508
sg41
g42
sg43
I4326
sg44
S'2050'
p1509
ssS'bio15'
p1510
(dp1511
g8
S'2015-03-24 17:29:21'
p1512
sg10
S'no'
p1513
sg12
S'hhe4550.bio15'
p1514
sg14
I115
sg15
S'bio15'
p1515
sg17
S'Precipitation Seasonality (Coefficient of Variation)'
p1516
sg19
S'45'
p1517
sg21
S'hhe4550'
p1518
sg23
S'../views/GTiff/clim.hhe4550.bio15.tif'
p1519
sg25
S'climate'
p1520
sg27
S'clim.hhe4550.bio15'
p1521
sg29
S'6565'
p1522
sg31
S'Precipitation Seasonality (Coefficient of Variation) HE RCP45 2050'
p1523
sg33
g34
sg35
g36
sg37
S'clim.hhe4550.bio15.tif'
p1524
sg39
S'clim'
p1525
sg41
g42
sg43
I4326
sg44
S'2050'
p1526
ssS'bio16'
p1527
(dp1528
g8
S'2015-03-24 17:29:21'
p1529
sg10
S'yes'
p1530
sg12
S'hhe4550.bio16'
p1531
sg14
I173
sg15
S'bio16'
p1532
sg17
S'Precipitation of Wettest Quarter'
p1533
sg19
S'45'
p1534
sg21
S'hhe4550'
p1535
sg23
S'../views/GTiff/clim.hhe4550.bio16.tif'
p1536
sg25
S'climate'
p1537
sg27
S'clim.hhe4550.bio16'
p1538
sg29
S'6564'
p1539
sg31
S'Precipitation of Wettest Quarter HE RCP45 2050'
p1540
sg33
g34
sg35
g36
sg37
S'clim.hhe4550.bio16.tif'
p1541
sg39
S'clim'
p1542
sg41
g42
sg43
I4326
sg44
S'2050'
p1543
ssS'bio17'
p1544
(dp1545
g8
S'2015-03-24 17:29:21'
p1546
sg10
S'yes'
p1547
sg12
S'hhe4550.bio17'
p1548
sg14
I82
sg15
S'bio17'
p1549
sg17
S'Precipitation of Driest Quarter'
p1550
sg19
S'45'
p1551
sg21
S'hhe4550'
p1552
sg23
S'../views/GTiff/clim.hhe4550.bio17.tif'
p1553
sg25
S'climate'
p1554
sg27
S'clim.hhe4550.bio17'
p1555
sg29
S'6574'
p1556
sg31
S'Precipitation of Driest Quarter HE RCP45 2050'
p1557
sg33
g34
sg35
g36
sg37
S'clim.hhe4550.bio17.tif'
p1558
sg39
S'clim'
p1559
sg41
g42
sg43
I4326
sg44
S'2050'
p1560
ssS'bio18'
p1561
(dp1562
g8
S'2015-03-24 17:29:21'
p1563
sg10
S'no'
p1564
sg12
S'hhe4550.bio18'
p1565
sg14
I314
sg15
S'bio18'
p1566
sg17
S'Precipitation of Warmest Quarter'
p1567
sg19
S'45'
p1568
sg21
S'hhe4550'
p1569
sg23
S'../views/GTiff/clim.hhe4550.bio18.tif'
p1570
sg25
S'climate'
p1571
sg27
S'clim.hhe4550.bio18'
p1572
sg29
S'6575'
p1573
sg31
S'Precipitation of Warmest Quarter HE RCP45 2050'
p1574
sg33
g34
sg35
g36
sg37
S'clim.hhe4550.bio18.tif'
p1575
sg39
S'clim'
p1576
sg41
g42
sg43
I4326
sg44
S'2050'
p1577
ssS'bio03'
p1578
(dp1579
g8
S'2015-03-24 17:29:21'
p1580
sg10
S'yes'
p1581
sg12
S'hhe4550.bio03'
p1582
sg14
I117
sg15
S'bio03'
p1583
sg17
S'Isothermality (BIO2/BIO7) (* 100)'
p1584
sg19
S'45'
p1585
sg21
S'hhe4550'
p1586
sg23
S'../views/GTiff/clim.hhe4550.bio03.tif'
p1587
sg25
S'climate'
p1588
sg27
S'clim.hhe4550.bio03'
p1589
sg29
S'6571'
p1590
sg31
S'Isothermality (BIO2/BIO7) (* 100) HE RCP45 2050'
p1591
sg33
g34
sg35
g36
sg37
S'clim.hhe4550.bio03.tif'
p1592
sg39
S'clim'
p1593
sg41
g42
sg43
I4326
sg44
S'2050'
p1594
ssS'bio02'
p1595
(dp1596
g8
S'2015-03-24 17:29:21'
p1597
sg10
S'yes'
p1598
sg12
S'hhe4550.bio02'
p1599
sg14
I132
sg15
S'bio02'
p1600
sg17
S'Mean Diurnal Range (Mean of monthly (max temp - min temp))'
p1601
sg19
S'45'
p1602
sg21
S'hhe4550'
p1603
sg23
S'../views/GTiff/clim.hhe4550.bio02.tif'
p1604
sg25
S'climate'
p1605
sg27
S'clim.hhe4550.bio02'
p1606
sg29
S'6572'
p1607
sg31
S'Mean Diurnal Range (Mean of monthly (max temp - min temp)) HE RCP45 2050'
p1608
sg33
g34
sg35
g36
sg37
S'clim.hhe4550.bio02.tif'
p1609
sg39
S'clim'
p1610
sg41
g42
sg43
I4326
sg44
S'2050'
p1611
ssS'bio04'
p1612
(dp1613
g8
S'2015-03-24 17:29:21'
p1614
sg10
S'yes'
p1615
sg12
S'hhe4550.bio04'
p1616
sg14
I55
sg15
S'bio04'
p1617
sg17
S'Temperature Seasonality (standard deviation *100)'
p1618
sg19
S'45'
p1619
sg21
S'hhe4550'
p1620
sg23
S'../views/GTiff/clim.hhe4550.bio04.tif'
p1621
sg25
S'climate'
p1622
sg27
S'clim.hhe4550.bio04'
p1623
sg29
S'6570'
p1624
sg31
S'Temperature Seasonality (standard deviation *100) HE RCP45 2050'
p1625
sg33
g34
sg35
g36
sg37
S'clim.hhe4550.bio04.tif'
p1626
sg39
S'clim'
p1627
sg41
g42
sg43
I4326
sg44
S'2050'
p1628
ssS'bio08'
p1629
(dp1630
g8
S'2015-03-24 17:29:21'
p1631
sg10
S'no'
p1632
sg12
S'hhe4550.bio08'
p1633
sg14
I98
sg15
S'bio08'
p1634
sg17
S'Mean Temperature of Wettest Quarter'
p1635
sg19
S'45'
p1636
sg21
S'hhe4550'
p1637
sg23
S'../views/GTiff/clim.hhe4550.bio08.tif'
p1638
sg25
S'climate'
p1639
sg27
S'clim.hhe4550.bio08'
p1640
sg29
S'6578'
p1641
sg31
S'Mean Temperature of Wettest Quarter HE RCP45 2050'
p1642
sg33
g34
sg35
g36
sg37
S'clim.hhe4550.bio08.tif'
p1643
sg39
S'clim'
p1644
sg41
g42
sg43
I4326
sg44
S'2050'
p1645
sssS'he8570'
p1646
(dp1647
S'bio07'
p1648
(dp1649
g8
S'2015-03-24 17:29:21'
p1650
sg10
S'no'
p1651
sg12
S'he8570.bio07'
p1652
sg14
I157
sg15
S'bio07'
p1653
sg17
S'Temperature Annual Range (BIO5-BIO6)'
p1654
sg19
S'85'
p1655
sg21
S'he8570'
p1656
sg23
S'../views/GTiff/clim.he8570.bio07.tif'
p1657
sg25
S'climate'
p1658
sg27
S'clim.he8570.bio07'
p1659
sg29
S'6214'
p1660
sg31
S'Temperature Annual Range (BIO5-BIO6) HE RCP85 2070'
p1661
sg33
g34
sg35
g36
sg37
S'clim.he8570.bio07.tif'
p1662
sg39
S'clim'
p1663
sg41
g42
sg43
I4326
sg44
S'2070'
p1664
ssS'bio16'
p1665
(dp1666
g8
S'2015-03-24 17:29:21'
p1667
sg10
S'yes'
p1668
sg12
S'he8570.bio16'
p1669
sg14
I340
sg15
S'bio16'
p1670
sg17
S'Precipitation of Wettest Quarter'
p1671
sg19
S'85'
p1672
sg21
S'he8570'
p1673
sg23
S'../views/GTiff/clim.he8570.bio16.tif'
p1674
sg25
S'climate'
p1675
sg27
S'clim.he8570.bio16'
p1676
sg29
S'6211'
p1677
sg31
S'Precipitation of Wettest Quarter HE RCP85 2070'
p1678
sg33
g34
sg35
g36
sg37
S'clim.he8570.bio16.tif'
p1679
sg39
S'clim'
p1680
sg41
g42
sg43
I4326
sg44
S'2070'
p1681
ssS'bio11'
p1682
(dp1683
g8
S'2015-03-24 17:29:21'
p1684
sg10
S'yes'
p1685
sg12
S'he8570.bio11'
p1686
sg14
I178
sg15
S'bio11'
p1687
sg17
S'Mean Temperature of Coldest Quarter'
p1688
sg19
S'85'
p1689
sg21
S'he8570'
p1690
sg23
S'../views/GTiff/clim.he8570.bio11.tif'
p1691
sg25
S'climate'
p1692
sg27
S'clim.he8570.bio11'
p1693
sg29
S'6210'
p1694
sg31
S'Mean Temperature of Coldest Quarter HE RCP85 2070'
p1695
sg33
g34
sg35
g36
sg37
S'clim.he8570.bio11.tif'
p1696
sg39
S'clim'
p1697
sg41
g42
sg43
I4326
sg44
S'2070'
p1698
ssS'bio15'
p1699
(dp1700
g8
S'2015-03-24 17:29:21'
p1701
sg10
S'no'
p1702
sg12
S'he8570.bio15'
p1703
sg14
I257
sg15
S'bio15'
p1704
sg17
S'Precipitation Seasonality (Coefficient of Variation)'
p1705
sg19
S'85'
p1706
sg21
S'he8570'
p1707
sg23
S'../views/GTiff/clim.he8570.bio15.tif'
p1708
sg25
S'climate'
p1709
sg27
S'clim.he8570.bio15'
p1710
sg29
S'6212'
p1711
sg31
S'Precipitation Seasonality (Coefficient of Variation) HE RCP85 2070'
p1712
sg33
g34
sg35
g36
sg37
S'clim.he8570.bio15.tif'
p1713
sg39
S'clim'
p1714
sg41
g42
sg43
I4326
sg44
S'2070'
p1715
ssS'bio12'
p1716
(dp1717
g8
S'2015-03-24 17:29:21'
p1718
sg10
S'no'
p1719
sg12
S'he8570.bio12'
p1720
sg14
I201
sg15
S'bio12'
p1721
sg17
S'Annual Precipitation'
p1722
sg19
S'85'
p1723
sg21
S'he8570'
p1724
sg23
S'../views/GTiff/clim.he8570.bio12.tif'
p1725
sg25
S'climate'
p1726
sg27
S'clim.he8570.bio12'
p1727
sg29
S'6213'
p1728
sg31
S'Annual Precipitation HE RCP85 2070'
p1729
sg33
g34
sg35
g36
sg37
S'clim.he8570.bio12.tif'
p1730
sg39
S'clim'
p1731
sg41
g42
sg43
I4326
sg44
S'2070'
p1732
ssS'bio14'
p1733
(dp1734
g8
S'2015-03-24 17:29:21'
p1735
sg10
S'yes'
p1736
sg12
S'he8570.bio14'
p1737
sg14
I329
sg15
S'bio14'
p1738
sg17
S'Precipitation of Driest Month'
p1739
sg19
S'85'
p1740
sg21
S'he8570'
p1741
sg23
S'../views/GTiff/clim.he8570.bio14.tif'
p1742
sg25
S'climate'
p1743
sg27
S'clim.he8570.bio14'
p1744
sg29
S'6223'
p1745
sg31
S'Precipitation of Driest Month HE RCP85 2070'
p1746
sg33
g34
sg35
g36
sg37
S'clim.he8570.bio14.tif'
p1747
sg39
S'clim'
p1748
sg41
g42
sg43
I4326
sg44
S'2070'
p1749
ssS'bio10'
p1750
(dp1751
g8
S'2015-03-24 17:29:21'
p1752
sg10
S'yes'
p1753
sg12
S'he8570.bio10'
p1754
sg14
I144
sg15
S'bio10'
p1755
sg17
S'Mean Temperature of Warmest Quarter'
p1756
sg19
S'85'
p1757
sg21
S'he8570'
p1758
sg23
S'../views/GTiff/clim.he8570.bio10.tif'
p1759
sg25
S'climate'
p1760
sg27
S'clim.he8570.bio10'
p1761
sg29
S'6207'
p1762
sg31
S'Mean Temperature of Warmest Quarter HE RCP85 2070'
p1763
sg33
g34
sg35
g36
sg37
S'clim.he8570.bio10.tif'
p1764
sg39
S'clim'
p1765
sg41
g42
sg43
I4326
sg44
S'2070'
p1766
ssS'bio06'
p1767
(dp1768
g8
S'2015-03-24 17:29:21'
p1769
sg10
S'yes'
p1770
sg12
S'he8570.bio06'
p1771
sg14
I29
sg15
S'bio06'
p1772
sg17
S'Min Temperature of Coldest Month'
p1773
sg19
S'85'
p1774
sg21
S'he8570'
p1775
sg23
S'../views/GTiff/clim.he8570.bio06.tif'
p1776
sg25
S'climate'
p1777
sg27
S'clim.he8570.bio06'
p1778
sg29
S'6215'
p1779
sg31
S'Min Temperature of Coldest Month HE RCP85 2070'
p1780
sg33
g34
sg35
g36
sg37
S'clim.he8570.bio06.tif'
p1781
sg39
S'clim'
p1782
sg41
g42
sg43
I4326
sg44
S'2070'
p1783
ssS'bio05'
p1784
(dp1785
g8
S'2015-03-24 17:29:21'
p1786
sg10
S'yes'
p1787
sg12
S'he8570.bio05'
p1788
sg14
I52
sg15
S'bio05'
p1789
sg17
S'Max Temperature of Warmest Month'
p1790
sg19
S'85'
p1791
sg21
S'he8570'
p1792
sg23
S'../views/GTiff/clim.he8570.bio05.tif'
p1793
sg25
S'climate'
p1794
sg27
S'clim.he8570.bio05'
p1795
sg29
S'6216'
p1796
sg31
S'Max Temperature of Warmest Month HE RCP85 2070'
p1797
sg33
g34
sg35
g36
sg37
S'clim.he8570.bio05.tif'
p1798
sg39
S'clim'
p1799
sg41
g42
sg43
I4326
sg44
S'2070'
p1800
ssS'bio13'
p1801
(dp1802
g8
S'2015-03-24 17:29:21'
p1803
sg10
S'yes'
p1804
sg12
S'he8570.bio13'
p1805
sg14
I212
sg15
S'bio13'
p1806
sg17
S'Precipitation of Wettest Month'
p1807
sg19
S'85'
p1808
sg21
S'he8570'
p1809
sg23
S'../views/GTiff/clim.he8570.bio13.tif'
p1810
sg25
S'climate'
p1811
sg27
S'clim.he8570.bio13'
p1812
sg29
S'6209'
p1813
sg31
S'Precipitation of Wettest Month HE RCP85 2070'
p1814
sg33
g34
sg35
g36
sg37
S'clim.he8570.bio13.tif'
p1815
sg39
S'clim'
p1816
sg41
g42
sg43
I4326
sg44
S'2070'
p1817
ssS'bio03'
p1818
(dp1819
g8
S'2015-03-24 17:29:21'
p1820
sg10
S'yes'
p1821
sg12
S'he8570.bio03'
p1822
sg14
I283
sg15
S'bio03'
p1823
sg17
S'Isothermality (BIO2/BIO7) (* 100)'
p1824
sg19
S'85'
p1825
sg21
S'he8570'
p1826
sg23
S'../views/GTiff/clim.he8570.bio03.tif'
p1827
sg25
S'climate'
p1828
sg27
S'clim.he8570.bio03'
p1829
sg29
S'6218'
p1830
sg31
S'Isothermality (BIO2/BIO7) (* 100) HE RCP85 2070'
p1831
sg33
g34
sg35
g36
sg37
S'clim.he8570.bio03.tif'
p1832
sg39
S'clim'
p1833
sg41
g42
sg43
I4326
sg44
S'2070'
p1834
ssS'bio02'
p1835
(dp1836
g8
S'2015-03-24 17:29:21'
p1837
sg10
S'yes'
p1838
sg12
S'he8570.bio02'
p1839
sg14
I24
sg15
S'bio02'
p1840
sg17
S'Mean Diurnal Range (Mean of monthly (max temp - min temp))'
p1841
sg19
S'85'
p1842
sg21
g1646
sg23
S'../views/GTiff/clim.he8570.bio02.tif'
p1843
sg25
S'climate'
p1844
sg27
S'clim.he8570.bio02'
p1845
sg29
S'6219'
p1846
sg31
S'Mean Diurnal Range (Mean of monthly (max temp - min temp)) HE RCP85 2070'
p1847
sg33
g34
sg35
g36
sg37
S'clim.he8570.bio02.tif'
p1848
sg39
S'clim'
p1849
sg41
g42
sg43
I4326
sg44
S'2070'
p1850
ssS'bio01'
p1851
(dp1852
g8
S'2015-03-24 17:29:21'
p1853
sg10
S'no'
p1854
sg12
S'he8570.bio01'
p1855
sg14
I95
sg15
S'bio01'
p1856
sg17
S'Annual Mean Temperature'
p1857
sg19
S'85'
p1858
sg21
S'he8570'
p1859
sg23
S'../views/GTiff/clim.he8570.bio01.tif'
p1860
sg25
S'climate'
p1861
sg27
S'clim.he8570.bio01'
p1862
sg29
S'6220'
p1863
sg31
S'Annual Mean Temperature HE RCP85 2070'
p1864
sg33
g34
sg35
g36
sg37
S'clim.he8570.bio01.tif'
p1865
sg39
S'clim'
p1866
sg41
g42
sg43
I4326
sg44
S'2070'
p1867
ssS'bio17'
p1868
(dp1869
g8
S'2015-03-24 17:29:21'
p1870
sg10
S'yes'
p1871
sg12
S'he8570.bio17'
p1872
sg14
I39
sg15
S'bio17'
p1873
sg17
S'Precipitation of Driest Quarter'
p1874
sg19
S'85'
p1875
sg21
S'he8570'
p1876
sg23
S'../views/GTiff/clim.he8570.bio17.tif'
p1877
sg25
S'climate'
p1878
sg27
S'clim.he8570.bio17'
p1879
sg29
S'6221'
p1880
sg31
S'Precipitation of Driest Quarter HE RCP85 2070'
p1881
sg33
g34
sg35
g36
sg37
S'clim.he8570.bio17.tif'
p1882
sg39
S'clim'
p1883
sg41
g42
sg43
I4326
sg44
S'2070'
p1884
ssS'bio18'
p1885
(dp1886
g8
S'2015-03-24 17:29:21'
p1887
sg10
S'no'
p1888
sg12
S'he8570.bio18'
p1889
sg14
I237
sg15
S'bio18'
p1890
sg17
S'Precipitation of Warmest Quarter'
p1891
sg19
S'85'
p1892
sg21
S'he8570'
p1893
sg23
S'../views/GTiff/clim.he8570.bio18.tif'
p1894
sg25
S'climate'
p1895
sg27
S'clim.he8570.bio18'
p1896
sg29
S'6222'
p1897
sg31
S'Precipitation of Warmest Quarter HE RCP85 2070'
p1898
sg33
g34
sg35
g36
sg37
S'clim.he8570.bio18.tif'
p1899
sg39
S'clim'
p1900
sg41
g42
sg43
I4326
sg44
S'2070'
p1901
ssS'bio19'
p1902
(dp1903
g8
S'2015-03-24 17:29:21'
p1904
sg10
S'yes'
p1905
sg12
S'he8570.bio19'
p1906
sg14
I208
sg15
S'bio19'
p1907
sg17
S'Precipitation of Coldest Quarter'
p1908
sg19
S'85'
p1909
sg21
S'he8570'
p1910
sg23
S'../views/GTiff/clim.he8570.bio19.tif'
p1911
sg25
S'climate'
p1912
sg27
S'clim.he8570.bio19'
p1913
sg29
S'6208'
p1914
sg31
S'Precipitation of Coldest Quarter HE RCP85 2070'
p1915
sg33
g34
sg35
g36
sg37
S'clim.he8570.bio19.tif'
p1916
sg39
S'clim'
p1917
sg41
g42
sg43
I4326
sg44
S'2070'
p1918
ssS'bio04'
p1919
(dp1920
g8
S'2015-03-24 17:29:21'
p1921
sg10
S'yes'
p1922
sg12
S'he8570.bio04'
p1923
sg14
I309
sg15
S'bio04'
p1924
sg17
S'Temperature Seasonality (standard deviation *100)'
p1925
sg19
S'85'
p1926
sg21
S'he8570'
p1927
sg23
S'../views/GTiff/clim.he8570.bio04.tif'
p1928
sg25
S'climate'
p1929
sg27
S'clim.he8570.bio04'
p1930
sg29
S'6217'
p1931
sg31
S'Temperature Seasonality (standard deviation *100) HE RCP85 2070'
p1932
sg33
g34
sg35
g36
sg37
S'clim.he8570.bio04.tif'
p1933
sg39
S'clim'
p1934
sg41
g42
sg43
I4326
sg44
S'2070'
p1935
ssS'bio09'
p1936
(dp1937
g8
S'2015-03-24 17:29:21'
p1938
sg10
S'yes'
p1939
sg12
S'he8570.bio09'
p1940
sg14
I197
sg15
S'bio09'
p1941
sg17
S'Mean Temperature of Driest Quarter'
p1942
sg19
S'85'
p1943
sg21
S'he8570'
p1944
sg23
S'../views/GTiff/clim.he8570.bio09.tif'
p1945
sg25
S'climate'
p1946
sg27
S'clim.he8570.bio09'
p1947
sg29
S'6224'
p1948
sg31
S'Mean Temperature of Driest Quarter HE RCP85 2070'
p1949
sg33
g34
sg35
g36
sg37
S'clim.he8570.bio09.tif'
p1950
sg39
S'clim'
p1951
sg41
g42
sg43
I4326
sg44
S'2070'
p1952
ssS'bio08'
p1953
(dp1954
g8
S'2015-03-24 17:29:21'
p1955
sg10
S'no'
p1956
sg12
S'he8570.bio08'
p1957
sg14
I113
sg15
S'bio08'
p1958
sg17
S'Mean Temperature of Wettest Quarter'
p1959
sg19
S'85'
p1960
sg21
S'he8570'
p1961
sg23
S'../views/GTiff/clim.he8570.bio08.tif'
p1962
sg25
S'climate'
p1963
sg27
S'clim.he8570.bio08'
p1964
sg29
S'6225'
p1965
sg31
S'Mean Temperature of Wettest Quarter HE RCP85 2070'
p1966
sg33
g34
sg35
g36
sg37
S'clim.he8570.bio08.tif'
p1967
sg39
S'clim'
p1968
sg41
g42
sg43
I4326
sg44
S'2070'
p1969
sssS'he2650'
p1970
(dp1971
S'bio10'
p1972
(dp1973
g8
S'2015-03-24 17:29:21'
p1974
sg10
S'yes'
p1975
sg12
S'he2650.bio10'
p1976
sg14
I298
sg15
S'bio10'
p1977
sg17
S'Mean Temperature of Warmest Quarter'
p1978
sg19
S'26'
p1979
sg21
S'he2650'
p1980
sg23
S'../views/GTiff/clim.he2650.bio10.tif'
p1981
sg25
S'climate'
p1982
sg27
S'clim.he2650.bio10'
p1983
sg29
S'6226'
p1984
sg31
S'Mean Temperature of Warmest Quarter HE RCP26 2050'
p1985
sg33
g34
sg35
g36
sg37
S'clim.he2650.bio10.tif'
p1986
sg39
S'clim'
p1987
sg41
g42
sg43
I4326
sg44
S'2050'
p1988
ssS'bio16'
p1989
(dp1990
g8
S'2015-03-24 17:29:21'
p1991
sg10
S'yes'
p1992
sg12
S'he2650.bio16'
p1993
sg14
I324
sg15
S'bio16'
p1994
sg17
S'Precipitation of Wettest Quarter'
p1995
sg19
S'26'
p1996
sg21
S'he2650'
p1997
sg23
S'../views/GTiff/clim.he2650.bio16.tif'
p1998
sg25
S'climate'
p1999
sg27
S'clim.he2650.bio16'
p2000
sg29
S'6230'
p2001
sg31
S'Precipitation of Wettest Quarter HE RCP26 2050'
p2002
sg33
g34
sg35
g36
sg37
S'clim.he2650.bio16.tif'
p2003
sg39
S'clim'
p2004
sg41
g42
sg43
I4326
sg44
S'2050'
p2005
ssS'bio11'
p2006
(dp2007
g8
S'2015-03-24 17:29:21'
p2008
sg10
S'yes'
p2009
sg12
S'he2650.bio11'
p2010
sg14
I120
sg15
S'bio11'
p2011
sg17
S'Mean Temperature of Coldest Quarter'
p2012
sg19
S'26'
p2013
sg21
S'he2650'
p2014
sg23
S'../views/GTiff/clim.he2650.bio11.tif'
p2015
sg25
S'climate'
p2016
sg27
S'clim.he2650.bio11'
p2017
sg29
S'6229'
p2018
sg31
S'Mean Temperature of Coldest Quarter HE RCP26 2050'
p2019
sg33
g34
sg35
g36
sg37
S'clim.he2650.bio11.tif'
p2020
sg39
S'clim'
p2021
sg41
g42
sg43
I4326
sg44
S'2050'
p2022
ssS'bio09'
p2023
(dp2024
g8
S'2015-03-24 17:29:21'
p2025
sg10
S'yes'
p2026
sg12
S'he2650.bio09'
p2027
sg14
I278
sg15
S'bio09'
p2028
sg17
S'Mean Temperature of Driest Quarter'
p2029
sg19
S'26'
p2030
sg21
S'he2650'
p2031
sg23
S'../views/GTiff/clim.he2650.bio09.tif'
p2032
sg25
S'climate'
p2033
sg27
S'clim.he2650.bio09'
p2034
sg29
S'6243'
p2035
sg31
S'Mean Temperature of Driest Quarter HE RCP26 2050'
p2036
sg33
g34
sg35
g36
sg37
S'clim.he2650.bio09.tif'
p2037
sg39
S'clim'
p2038
sg41
g42
sg43
I4326
sg44
S'2050'
p2039
ssS'bio05'
p2040
(dp2041
g8
S'2015-03-24 17:29:21'
p2042
sg10
S'yes'
p2043
sg12
S'he2650.bio05'
p2044
sg14
I289
sg15
S'bio05'
p2045
sg17
S'Max Temperature of Warmest Month'
p2046
sg19
S'26'
p2047
sg21
S'he2650'
p2048
sg23
S'../views/GTiff/clim.he2650.bio05.tif'
p2049
sg25
S'climate'
p2050
sg27
S'clim.he2650.bio05'
p2051
sg29
S'6235'
p2052
sg31
S'Max Temperature of Warmest Month HE RCP26 2050'
p2053
sg33
g34
sg35
g36
sg37
S'clim.he2650.bio05.tif'
p2054
sg39
S'clim'
p2055
sg41
g42
sg43
I4326
sg44
S'2050'
p2056
ssS'bio07'
p2057
(dp2058
g8
S'2015-03-24 17:29:21'
p2059
sg10
S'no'
p2060
sg12
S'he2650.bio07'
p2061
sg14
I4
sg15
S'bio07'
p2062
sg17
S'Temperature Annual Range (BIO5-BIO6)'
p2063
sg19
S'26'
p2064
sg21
g1970
sg23
S'../views/GTiff/clim.he2650.bio07.tif'
p2065
sg25
S'climate'
p2066
sg27
S'clim.he2650.bio07'
p2067
sg29
S'6233'
p2068
sg31
S'Temperature Annual Range (BIO5-BIO6) HE RCP26 2050'
p2069
sg33
g34
sg35
g36
sg37
S'clim.he2650.bio07.tif'
p2070
sg39
S'clim'
p2071
sg41
g42
sg43
I4326
sg44
S'2050'
p2072
ssS'bio06'
p2073
(dp2074
g8
S'2015-03-24 17:29:21'
p2075
sg10
S'yes'
p2076
sg12
S'he2650.bio06'
p2077
sg14
I118
sg15
S'bio06'
p2078
sg17
S'Min Temperature of Coldest Month'
p2079
sg19
S'26'
p2080
sg21
S'he2650'
p2081
sg23
S'../views/GTiff/clim.he2650.bio06.tif'
p2082
sg25
S'climate'
p2083
sg27
S'clim.he2650.bio06'
p2084
sg29
S'6234'
p2085
sg31
S'Min Temperature of Coldest Month HE RCP26 2050'
p2086
sg33
g34
sg35
g36
sg37
S'clim.he2650.bio06.tif'
p2087
sg39
S'clim'
p2088
sg41
g42
sg43
I4326
sg44
S'2050'
p2089
ssS'bio12'
p2090
(dp2091
g8
S'2015-03-24 17:29:21'
p2092
sg10
S'no'
p2093
sg12
S'he2650.bio12'
p2094
sg14
I214
sg15
S'bio12'
p2095
sg17
S'Annual Precipitation'
p2096
sg19
S'26'
p2097
sg21
S'he2650'
p2098
sg23
S'../views/GTiff/clim.he2650.bio12.tif'
p2099
sg25
S'climate'
p2100
sg27
S'clim.he2650.bio12'
p2101
sg29
S'6232'
p2102
sg31
S'Annual Precipitation HE RCP26 2050'
p2103
sg33
g34
sg35
g36
sg37
S'clim.he2650.bio12.tif'
p2104
sg39
S'clim'
p2105
sg41
g42
sg43
I4326
sg44
S'2050'
p2106
ssS'bio13'
p2107
(dp2108
g8
S'2015-03-24 17:29:21'
p2109
sg10
S'yes'
p2110
sg12
S'he2650.bio13'
p2111
sg14
I176
sg15
S'bio13'
p2112
sg17
S'Precipitation of Wettest Month'
p2113
sg19
S'26'
p2114
sg21
S'he2650'
p2115
sg23
S'../views/GTiff/clim.he2650.bio13.tif'
p2116
sg25
S'climate'
p2117
sg27
S'clim.he2650.bio13'
p2118
sg29
S'6228'
p2119
sg31
S'Precipitation of Wettest Month HE RCP26 2050'
p2120
sg33
g34
sg35
g36
sg37
S'clim.he2650.bio13.tif'
p2121
sg39
S'clim'
p2122
sg41
g42
sg43
I4326
sg44
S'2050'
p2123
ssS'bio14'
p2124
(dp2125
g8
S'2015-03-24 17:29:21'
p2126
sg10
S'yes'
p2127
sg12
S'he2650.bio14'
p2128
sg14
I107
sg15
S'bio14'
p2129
sg17
S'Precipitation of Driest Month'
p2130
sg19
S'26'
p2131
sg21
S'he2650'
p2132
sg23
S'../views/GTiff/clim.he2650.bio14.tif'
p2133
sg25
S'climate'
p2134
sg27
S'clim.he2650.bio14'
p2135
sg29
S'6242'
p2136
sg31
S'Precipitation of Driest Month HE RCP26 2050'
p2137
sg33
g34
sg35
g36
sg37
S'clim.he2650.bio14.tif'
p2138
sg39
S'clim'
p2139
sg41
g42
sg43
I4326
sg44
S'2050'
p2140
ssS'bio15'
p2141
(dp2142
g8
S'2015-03-24 17:29:21'
p2143
sg10
S'no'
p2144
sg12
S'he2650.bio15'
p2145
sg14
I89
sg15
S'bio15'
p2146
sg17
S'Precipitation Seasonality (Coefficient of Variation)'
p2147
sg19
S'26'
p2148
sg21
S'he2650'
p2149
sg23
S'../views/GTiff/clim.he2650.bio15.tif'
p2150
sg25
S'climate'
p2151
sg27
S'clim.he2650.bio15'
p2152
sg29
S'6231'
p2153
sg31
S'Precipitation Seasonality (Coefficient of Variation) HE RCP26 2050'
p2154
sg33
g34
sg35
g36
sg37
S'clim.he2650.bio15.tif'
p2155
sg39
S'clim'
p2156
sg41
g42
sg43
I4326
sg44
S'2050'
p2157
ssS'bio01'
p2158
(dp2159
g8
S'2015-03-24 17:29:21'
p2160
sg10
S'no'
p2161
sg12
S'he2650.bio01'
p2162
sg14
I77
sg15
S'bio01'
p2163
sg17
S'Annual Mean Temperature'
p2164
sg19
S'26'
p2165
sg21
S'he2650'
p2166
sg23
S'../views/GTiff/clim.he2650.bio01.tif'
p2167
sg25
S'climate'
p2168
sg27
S'clim.he2650.bio01'
p2169
sg29
S'6239'
p2170
sg31
S'Annual Mean Temperature HE RCP26 2050'
p2171
sg33
g34
sg35
g36
sg37
S'clim.he2650.bio01.tif'
p2172
sg39
S'clim'
p2173
sg41
g42
sg43
I4326
sg44
S'2050'
p2174
ssS'bio17'
p2175
(dp2176
g8
S'2015-03-24 17:29:21'
p2177
sg10
S'yes'
p2178
sg12
S'he2650.bio17'
p2179
sg14
I251
sg15
S'bio17'
p2180
sg17
S'Precipitation of Driest Quarter'
p2181
sg19
S'26'
p2182
sg21
S'he2650'
p2183
sg23
S'../views/GTiff/clim.he2650.bio17.tif'
p2184
sg25
S'climate'
p2185
sg27
S'clim.he2650.bio17'
p2186
sg29
S'6240'
p2187
sg31
S'Precipitation of Driest Quarter HE RCP26 2050'
p2188
sg33
g34
sg35
g36
sg37
S'clim.he2650.bio17.tif'
p2189
sg39
S'clim'
p2190
sg41
g42
sg43
I4326
sg44
S'2050'
p2191
ssS'bio18'
p2192
(dp2193
g8
S'2015-03-24 17:29:21'
p2194
sg10
S'no'
p2195
sg12
S'he2650.bio18'
p2196
sg14
I303
sg15
S'bio18'
p2197
sg17
S'Precipitation of Warmest Quarter'
p2198
sg19
S'26'
p2199
sg21
S'he2650'
p2200
sg23
S'../views/GTiff/clim.he2650.bio18.tif'
p2201
sg25
S'climate'
p2202
sg27
S'clim.he2650.bio18'
p2203
sg29
S'6241'
p2204
sg31
S'Precipitation of Warmest Quarter HE RCP26 2050'
p2205
sg33
g34
sg35
g36
sg37
S'clim.he2650.bio18.tif'
p2206
sg39
S'clim'
p2207
sg41
g42
sg43
I4326
sg44
S'2050'
p2208
ssS'bio19'
p2209
(dp2210
g8
S'2015-03-24 17:29:21'
p2211
sg10
S'yes'
p2212
sg12
S'he2650.bio19'
p2213
sg14
I174
sg15
S'bio19'
p2214
sg17
S'Precipitation of Coldest Quarter'
p2215
sg19
S'26'
p2216
sg21
S'he2650'
p2217
sg23
S'../views/GTiff/clim.he2650.bio19.tif'
p2218
sg25
S'climate'
p2219
sg27
S'clim.he2650.bio19'
p2220
sg29
S'6227'
p2221
sg31
S'Precipitation of Coldest Quarter HE RCP26 2050'
p2222
sg33
g34
sg35
g36
sg37
S'clim.he2650.bio19.tif'
p2223
sg39
S'clim'
p2224
sg41
g42
sg43
I4326
sg44
S'2050'
p2225
ssS'bio08'
p2226
(dp2227
g8
S'2015-03-24 17:29:21'
p2228
sg10
S'no'
p2229
sg12
S'he2650.bio08'
p2230
sg14
I230
sg15
S'bio08'
p2231
sg17
S'Mean Temperature of Wettest Quarter'
p2232
sg19
S'26'
p2233
sg21
S'he2650'
p2234
sg23
S'../views/GTiff/clim.he2650.bio08.tif'
p2235
sg25
S'climate'
p2236
sg27
S'clim.he2650.bio08'
p2237
sg29
S'6244'
p2238
sg31
S'Mean Temperature of Wettest Quarter HE RCP26 2050'
p2239
sg33
g34
sg35
g36
sg37
S'clim.he2650.bio08.tif'
p2240
sg39
S'clim'
p2241
sg41
g42
sg43
I4326
sg44
S'2050'
p2242
ssS'bio03'
p2243
(dp2244
g8
S'2015-03-24 17:29:21'
p2245
sg10
S'yes'
p2246
sg12
S'he2650.bio03'
p2247
sg14
I313
sg15
S'bio03'
p2248
sg17
S'Isothermality (BIO2/BIO7) (* 100)'
p2249
sg19
S'26'
p2250
sg21
S'he2650'
p2251
sg23
S'../views/GTiff/clim.he2650.bio03.tif'
p2252
sg25
S'climate'
p2253
sg27
S'clim.he2650.bio03'
p2254
sg29
S'6237'
p2255
sg31
S'Isothermality (BIO2/BIO7) (* 100) HE RCP26 2050'
p2256
sg33
g34
sg35
g36
sg37
S'clim.he2650.bio03.tif'
p2257
sg39
S'clim'
p2258
sg41
g42
sg43
I4326
sg44
S'2050'
p2259
ssS'bio04'
p2260
(dp2261
g8
S'2015-03-24 17:29:21'
p2262
sg10
S'yes'
p2263
sg12
S'he2650.bio04'
p2264
sg14
I262
sg15
S'bio04'
p2265
sg17
S'Temperature Seasonality (standard deviation *100)'
p2266
sg19
S'26'
p2267
sg21
S'he2650'
p2268
sg23
S'../views/GTiff/clim.he2650.bio04.tif'
p2269
sg25
S'climate'
p2270
sg27
S'clim.he2650.bio04'
p2271
sg29
S'6236'
p2272
sg31
S'Temperature Seasonality (standard deviation *100) HE RCP26 2050'
p2273
sg33
g34
sg35
g36
sg37
S'clim.he2650.bio04.tif'
p2274
sg39
S'clim'
p2275
sg41
g42
sg43
I4326
sg44
S'2050'
p2276
ssS'bio02'
p2277
(dp2278
g8
S'2015-03-24 17:29:21'
p2279
sg10
S'yes'
p2280
sg12
S'he2650.bio02'
p2281
sg14
I91
sg15
S'bio02'
p2282
sg17
S'Mean Diurnal Range (Mean of monthly (max temp - min temp))'
p2283
sg19
S'26'
p2284
sg21
S'he2650'
p2285
sg23
S'../views/GTiff/clim.he2650.bio02.tif'
p2286
sg25
S'climate'
p2287
sg27
S'clim.he2650.bio02'
p2288
sg29
S'6238'
p2289
sg31
S'Mean Diurnal Range (Mean of monthly (max temp - min temp)) HE RCP26 2050'
p2290
sg33
g34
sg35
g36
sg37
S'clim.he2650.bio02.tif'
p2291
sg39
S'clim'
p2292
sg41
g42
sg43
I4326
sg44
S'2050'
p2293
sssS'he6050'
p2294
(dp2295
S'bio10'
p2296
(dp2297
g8
S'2015-03-24 17:29:21'
p2298
sg10
S'yes'
p2299
sg12
S'he6050.bio10'
p2300
sg14
I191
sg15
S'bio10'
p2301
sg17
S'Mean Temperature of Warmest Quarter'
p2302
sg19
S'60'
p2303
sg21
S'he6050'
p2304
sg23
S'../views/GTiff/clim.he6050.bio10.tif'
p2305
sg25
S'climate'
p2306
sg27
S'clim.he6050.bio10'
p2307
sg29
S'6245'
p2308
sg31
S'Mean Temperature of Warmest Quarter HE RCP60 2050'
p2309
sg33
g34
sg35
g36
sg37
S'clim.he6050.bio10.tif'
p2310
sg39
S'clim'
p2311
sg41
g42
sg43
I4326
sg44
S'2050'
p2312
ssS'bio19'
p2313
(dp2314
g8
S'2015-03-24 17:29:21'
p2315
sg10
S'yes'
p2316
sg12
S'he6050.bio19'
p2317
sg14
I285
sg15
S'bio19'
p2318
sg17
S'Precipitation of Coldest Quarter'
p2319
sg19
S'60'
p2320
sg21
S'he6050'
p2321
sg23
S'../views/GTiff/clim.he6050.bio19.tif'
p2322
sg25
S'climate'
p2323
sg27
S'clim.he6050.bio19'
p2324
sg29
S'6246'
p2325
sg31
S'Precipitation of Coldest Quarter HE RCP60 2050'
p2326
sg33
g34
sg35
g36
sg37
S'clim.he6050.bio19.tif'
p2327
sg39
S'clim'
p2328
sg41
g42
sg43
I4326
sg44
S'2050'
p2329
ssS'bio01'
p2330
(dp2331
g8
S'2015-03-24 17:29:21'
p2332
sg10
S'no'
p2333
sg12
S'he6050.bio01'
p2334
sg14
I255
sg15
S'bio01'
p2335
sg17
S'Annual Mean Temperature'
p2336
sg19
S'60'
p2337
sg21
S'he6050'
p2338
sg23
S'../views/GTiff/clim.he6050.bio01.tif'
p2339
sg25
S'climate'
p2340
sg27
S'clim.he6050.bio01'
p2341
sg29
S'6258'
p2342
sg31
S'Annual Mean Temperature HE RCP60 2050'
p2343
sg33
g34
sg35
g36
sg37
S'clim.he6050.bio01.tif'
p2344
sg39
S'clim'
p2345
sg41
g42
sg43
I4326
sg44
S'2050'
p2346
ssS'bio11'
p2347
(dp2348
g8
S'2015-03-24 17:29:21'
p2349
sg10
S'yes'
p2350
sg12
S'he6050.bio11'
p2351
sg14
I236
sg15
S'bio11'
p2352
sg17
S'Mean Temperature of Coldest Quarter'
p2353
sg19
S'60'
p2354
sg21
S'he6050'
p2355
sg23
S'../views/GTiff/clim.he6050.bio11.tif'
p2356
sg25
S'climate'
p2357
sg27
S'clim.he6050.bio11'
p2358
sg29
S'6248'
p2359
sg31
S'Mean Temperature of Coldest Quarter HE RCP60 2050'
p2360
sg33
g34
sg35
g36
sg37
S'clim.he6050.bio11.tif'
p2361
sg39
S'clim'
p2362
sg41
g42
sg43
I4326
sg44
S'2050'
p2363
ssS'bio04'
p2364
(dp2365
g8
S'2015-03-24 17:29:21'
p2366
sg10
S'yes'
p2367
sg12
S'he6050.bio04'
p2368
sg14
I321
sg15
S'bio04'
p2369
sg17
S'Temperature Seasonality (standard deviation *100)'
p2370
sg19
S'60'
p2371
sg21
S'he6050'
p2372
sg23
S'../views/GTiff/clim.he6050.bio04.tif'
p2373
sg25
S'climate'
p2374
sg27
S'clim.he6050.bio04'
p2375
sg29
S'6255'
p2376
sg31
S'Temperature Seasonality (standard deviation *100) HE RCP60 2050'
p2377
sg33
g34
sg35
g36
sg37
S'clim.he6050.bio04.tif'
p2378
sg39
S'clim'
p2379
sg41
g42
sg43
I4326
sg44
S'2050'
p2380
ssS'bio12'
p2381
(dp2382
g8
S'2015-03-24 17:29:21'
p2383
sg10
S'no'
p2384
sg12
S'he6050.bio12'
p2385
sg14
I281
sg15
S'bio12'
p2386
sg17
S'Annual Precipitation'
p2387
sg19
S'60'
p2388
sg21
S'he6050'
p2389
sg23
S'../views/GTiff/clim.he6050.bio12.tif'
p2390
sg25
S'climate'
p2391
sg27
S'clim.he6050.bio12'
p2392
sg29
S'6251'
p2393
sg31
S'Annual Precipitation HE RCP60 2050'
p2394
sg33
g34
sg35
g36
sg37
S'clim.he6050.bio12.tif'
p2395
sg39
S'clim'
p2396
sg41
g42
sg43
I4326
sg44
S'2050'
p2397
ssS'bio07'
p2398
(dp2399
g8
S'2015-03-24 17:29:21'
p2400
sg10
S'no'
p2401
sg12
S'he6050.bio07'
p2402
sg14
I135
sg15
S'bio07'
p2403
sg17
S'Temperature Annual Range (BIO5-BIO6)'
p2404
sg19
S'60'
p2405
sg21
S'he6050'
p2406
sg23
S'../views/GTiff/clim.he6050.bio07.tif'
p2407
sg25
S'climate'
p2408
sg27
S'clim.he6050.bio07'
p2409
sg29
S'6252'
p2410
sg31
S'Temperature Annual Range (BIO5-BIO6) HE RCP60 2050'
p2411
sg33
g34
sg35
g36
sg37
S'clim.he6050.bio07.tif'
p2412
sg39
S'clim'
p2413
sg41
g42
sg43
I4326
sg44
S'2050'
p2414
ssS'bio06'
p2415
(dp2416
g8
S'2015-03-24 17:29:21'
p2417
sg10
S'yes'
p2418
sg12
S'he6050.bio06'
p2419
sg14
I182
sg15
S'bio06'
p2420
sg17
S'Min Temperature of Coldest Month'
p2421
sg19
S'60'
p2422
sg21
S'he6050'
p2423
sg23
S'../views/GTiff/clim.he6050.bio06.tif'
p2424
sg25
S'climate'
p2425
sg27
S'clim.he6050.bio06'
p2426
sg29
S'6253'
p2427
sg31
S'Min Temperature of Coldest Month HE RCP60 2050'
p2428
sg33
g34
sg35
g36
sg37
S'clim.he6050.bio06.tif'
p2429
sg39
S'clim'
p2430
sg41
g42
sg43
I4326
sg44
S'2050'
p2431
ssS'bio05'
p2432
(dp2433
g8
S'2015-03-24 17:29:21'
p2434
sg10
S'yes'
p2435
sg12
S'he6050.bio05'
p2436
sg14
I275
sg15
S'bio05'
p2437
sg17
S'Max Temperature of Warmest Month'
p2438
sg19
S'60'
p2439
sg21
S'he6050'
p2440
sg23
S'../views/GTiff/clim.he6050.bio05.tif'
p2441
sg25
S'climate'
p2442
sg27
S'clim.he6050.bio05'
p2443
sg29
S'6254'
p2444
sg31
S'Max Temperature of Warmest Month HE RCP60 2050'
p2445
sg33
g34
sg35
g36
sg37
S'clim.he6050.bio05.tif'
p2446
sg39
S'clim'
p2447
sg41
g42
sg43
I4326
sg44
S'2050'
p2448
ssS'bio13'
p2449
(dp2450
g8
S'2015-03-24 17:29:21'
p2451
sg10
S'yes'
p2452
sg12
S'he6050.bio13'
p2453
sg14
I209
sg15
S'bio13'
p2454
sg17
S'Precipitation of Wettest Month'
p2455
sg19
S'60'
p2456
sg21
S'he6050'
p2457
sg23
S'../views/GTiff/clim.he6050.bio13.tif'
p2458
sg25
S'climate'
p2459
sg27
S'clim.he6050.bio13'
p2460
sg29
S'6247'
p2461
sg31
S'Precipitation of Wettest Month HE RCP60 2050'
p2462
sg33
g34
sg35
g36
sg37
S'clim.he6050.bio13.tif'
p2463
sg39
S'clim'
p2464
sg41
g42
sg43
I4326
sg44
S'2050'
p2465
ssS'bio14'
p2466
(dp2467
g8
S'2015-03-24 17:29:21'
p2468
sg10
S'yes'
p2469
sg12
S'he6050.bio14'
p2470
sg14
I48
sg15
S'bio14'
p2471
sg17
S'Precipitation of Driest Month'
p2472
sg19
S'60'
p2473
sg21
S'he6050'
p2474
sg23
S'../views/GTiff/clim.he6050.bio14.tif'
p2475
sg25
S'climate'
p2476
sg27
S'clim.he6050.bio14'
p2477
sg29
S'6261'
p2478
sg31
S'Precipitation of Driest Month HE RCP60 2050'
p2479
sg33
g34
sg35
g36
sg37
S'clim.he6050.bio14.tif'
p2480
sg39
S'clim'
p2481
sg41
g42
sg43
I4326
sg44
S'2050'
p2482
ssS'bio15'
p2483
(dp2484
g8
S'2015-03-24 17:29:21'
p2485
sg10
S'no'
p2486
sg12
S'he6050.bio15'
p2487
sg14
I61
sg15
S'bio15'
p2488
sg17
S'Precipitation Seasonality (Coefficient of Variation)'
p2489
sg19
S'60'
p2490
sg21
S'he6050'
p2491
sg23
S'../views/GTiff/clim.he6050.bio15.tif'
p2492
sg25
S'climate'
p2493
sg27
S'clim.he6050.bio15'
p2494
sg29
S'6250'
p2495
sg31
S'Precipitation Seasonality (Coefficient of Variation) HE RCP60 2050'
p2496
sg33
g34
sg35
g36
sg37
S'clim.he6050.bio15.tif'
p2497
sg39
S'clim'
p2498
sg41
g42
sg43
I4326
sg44
S'2050'
p2499
ssS'bio16'
p2500
(dp2501
g8
S'2015-03-24 17:29:21'
p2502
sg10
S'yes'
p2503
sg12
S'he6050.bio16'
p2504
sg14
I235
sg15
S'bio16'
p2505
sg17
S'Precipitation of Wettest Quarter'
p2506
sg19
S'60'
p2507
sg21
S'he6050'
p2508
sg23
S'../views/GTiff/clim.he6050.bio16.tif'
p2509
sg25
S'climate'
p2510
sg27
S'clim.he6050.bio16'
p2511
sg29
S'6249'
p2512
sg31
S'Precipitation of Wettest Quarter HE RCP60 2050'
p2513
sg33
g34
sg35
g36
sg37
S'clim.he6050.bio16.tif'
p2514
sg39
S'clim'
p2515
sg41
g42
sg43
I4326
sg44
S'2050'
p2516
ssS'bio17'
p2517
(dp2518
g8
S'2015-03-24 17:29:21'
p2519
sg10
S'yes'
p2520
sg12
S'he6050.bio17'
p2521
sg14
I162
sg15
S'bio17'
p2522
sg17
S'Precipitation of Driest Quarter'
p2523
sg19
S'60'
p2524
sg21
S'he6050'
p2525
sg23
S'../views/GTiff/clim.he6050.bio17.tif'
p2526
sg25
S'climate'
p2527
sg27
S'clim.he6050.bio17'
p2528
sg29
S'6259'
p2529
sg31
S'Precipitation of Driest Quarter HE RCP60 2050'
p2530
sg33
g34
sg35
g36
sg37
S'clim.he6050.bio17.tif'
p2531
sg39
S'clim'
p2532
sg41
g42
sg43
I4326
sg44
S'2050'
p2533
ssS'bio18'
p2534
(dp2535
g8
S'2015-03-24 17:29:21'
p2536
sg10
S'no'
p2537
sg12
S'he6050.bio18'
p2538
sg14
I90
sg15
S'bio18'
p2539
sg17
S'Precipitation of Warmest Quarter'
p2540
sg19
S'60'
p2541
sg21
S'he6050'
p2542
sg23
S'../views/GTiff/clim.he6050.bio18.tif'
p2543
sg25
S'climate'
p2544
sg27
S'clim.he6050.bio18'
p2545
sg29
S'6260'
p2546
sg31
S'Precipitation of Warmest Quarter HE RCP60 2050'
p2547
sg33
g34
sg35
g36
sg37
S'clim.he6050.bio18.tif'
p2548
sg39
S'clim'
p2549
sg41
g42
sg43
I4326
sg44
S'2050'
p2550
ssS'bio03'
p2551
(dp2552
g8
S'2015-03-24 17:29:21'
p2553
sg10
S'yes'
p2554
sg12
S'he6050.bio03'
p2555
sg14
I36
sg15
S'bio03'
p2556
sg17
S'Isothermality (BIO2/BIO7) (* 100)'
p2557
sg19
S'60'
p2558
sg21
g2294
sg23
S'../views/GTiff/clim.he6050.bio03.tif'
p2559
sg25
S'climate'
p2560
sg27
S'clim.he6050.bio03'
p2561
sg29
S'6256'
p2562
sg31
S'Isothermality (BIO2/BIO7) (* 100) HE RCP60 2050'
p2563
sg33
g34
sg35
g36
sg37
S'clim.he6050.bio03.tif'
p2564
sg39
S'clim'
p2565
sg41
g42
sg43
I4326
sg44
S'2050'
p2566
ssS'bio02'
p2567
(dp2568
g8
S'2015-03-24 17:29:21'
p2569
sg10
S'yes'
p2570
sg12
S'he6050.bio02'
p2571
sg14
I245
sg15
S'bio02'
p2572
sg17
S'Mean Diurnal Range (Mean of monthly (max temp - min temp))'
p2573
sg19
S'60'
p2574
sg21
S'he6050'
p2575
sg23
S'../views/GTiff/clim.he6050.bio02.tif'
p2576
sg25
S'climate'
p2577
sg27
S'clim.he6050.bio02'
p2578
sg29
S'6257'
p2579
sg31
S'Mean Diurnal Range (Mean of monthly (max temp - min temp)) HE RCP60 2050'
p2580
sg33
g34
sg35
g36
sg37
S'clim.he6050.bio02.tif'
p2581
sg39
S'clim'
p2582
sg41
g42
sg43
I4326
sg44
S'2050'
p2583
ssS'bio09'
p2584
(dp2585
g8
S'2015-03-24 17:29:21'
p2586
sg10
S'yes'
p2587
sg12
S'he6050.bio09'
p2588
sg14
I246
sg15
S'bio09'
p2589
sg17
S'Mean Temperature of Driest Quarter'
p2590
sg19
S'60'
p2591
sg21
S'he6050'
p2592
sg23
S'../views/GTiff/clim.he6050.bio09.tif'
p2593
sg25
S'climate'
p2594
sg27
S'clim.he6050.bio09'
p2595
sg29
S'6262'
p2596
sg31
S'Mean Temperature of Driest Quarter HE RCP60 2050'
p2597
sg33
g34
sg35
g36
sg37
S'clim.he6050.bio09.tif'
p2598
sg39
S'clim'
p2599
sg41
g42
sg43
I4326
sg44
S'2050'
p2600
ssS'bio08'
p2601
(dp2602
g8
S'2015-03-24 17:29:21'
p2603
sg10
S'no'
p2604
sg12
S'he6050.bio08'
p2605
sg14
I66
sg15
S'bio08'
p2606
sg17
S'Mean Temperature of Wettest Quarter'
p2607
sg19
S'60'
p2608
sg21
S'he6050'
p2609
sg23
S'../views/GTiff/clim.he6050.bio08.tif'
p2610
sg25
S'climate'
p2611
sg27
S'clim.he6050.bio08'
p2612
sg29
S'6263'
p2613
sg31
S'Mean Temperature of Wettest Quarter HE RCP60 2050'
p2614
sg33
g34
sg35
g36
sg37
S'clim.he6050.bio08.tif'
p2615
sg39
S'clim'
p2616
sg41
g42
sg43
I4326
sg44
S'2050'
p2617
sssS'gs4570'
p2618
(dp2619
S'bio07'
p2620
(dp2621
g8
S'2015-03-24 17:29:21'
p2622
sg10
S'no'
p2623
sg12
S'gs4570.bio07'
p2624
sg14
I70
sg15
S'bio07'
p2625
sg17
S'Temperature Annual Range (BIO5-BIO6)'
p2626
sg19
S'45'
p2627
sg21
S'gs4570'
p2628
sg23
S'../views/GTiff/clim.gs4570.bio07.tif'
p2629
sg25
S'climate'
p2630
sg27
S'clim.gs4570.bio07'
p2631
sg29
S'6135'
p2632
sg31
S'Temperature Annual Range (BIO5-BIO6) GS RCP45 2070'
p2633
sg33
g34
sg35
g36
sg37
S'clim.gs4570.bio07.tif'
p2634
sg39
S'clim'
p2635
sg41
g42
sg43
I4326
sg44
S'2070'
p2636
ssS'bio04'
p2637
(dp2638
g8
S'2015-03-24 17:29:21'
p2639
sg10
S'yes'
p2640
sg12
S'gs4570.bio04'
p2641
sg14
I291
sg15
S'bio04'
p2642
sg17
S'Temperature Seasonality (standard deviation *100)'
p2643
sg19
S'45'
p2644
sg21
S'gs4570'
p2645
sg23
S'../views/GTiff/clim.gs4570.bio04.tif'
p2646
sg25
S'climate'
p2647
sg27
S'clim.gs4570.bio04'
p2648
sg29
S'6138'
p2649
sg31
S'Temperature Seasonality (standard deviation *100) GS RCP45 2070'
p2650
sg33
g34
sg35
g36
sg37
S'clim.gs4570.bio04.tif'
p2651
sg39
S'clim'
p2652
sg41
g42
sg43
I4326
sg44
S'2070'
p2653
ssS'bio16'
p2654
(dp2655
g8
S'2015-03-24 17:29:21'
p2656
sg10
S'yes'
p2657
sg12
S'gs4570.bio16'
p2658
sg14
I294
sg15
S'bio16'
p2659
sg17
S'Precipitation of Wettest Quarter'
p2660
sg19
S'45'
p2661
sg21
S'gs4570'
p2662
sg23
S'../views/GTiff/clim.gs4570.bio16.tif'
p2663
sg25
S'climate'
p2664
sg27
S'clim.gs4570.bio16'
p2665
sg29
S'6132'
p2666
sg31
S'Precipitation of Wettest Quarter GS RCP45 2070'
p2667
sg33
g34
sg35
g36
sg37
S'clim.gs4570.bio16.tif'
p2668
sg39
S'clim'
p2669
sg41
g42
sg43
I4326
sg44
S'2070'
p2670
ssS'bio06'
p2671
(dp2672
g8
S'2015-03-24 17:29:21'
p2673
sg10
S'yes'
p2674
sg12
S'gs4570.bio06'
p2675
sg14
I274
sg15
S'bio06'
p2676
sg17
S'Min Temperature of Coldest Month'
p2677
sg19
S'45'
p2678
sg21
S'gs4570'
p2679
sg23
S'../views/GTiff/clim.gs4570.bio06.tif'
p2680
sg25
S'climate'
p2681
sg27
S'clim.gs4570.bio06'
p2682
sg29
S'6136'
p2683
sg31
S'Min Temperature of Coldest Month GS RCP45 2070'
p2684
sg33
g34
sg35
g36
sg37
S'clim.gs4570.bio06.tif'
p2685
sg39
S'clim'
p2686
sg41
g42
sg43
I4326
sg44
S'2070'
p2687
ssS'bio12'
p2688
(dp2689
g8
S'2015-03-24 17:29:21'
p2690
sg10
S'no'
p2691
sg12
S'gs4570.bio12'
p2692
sg14
I232
sg15
S'bio12'
p2693
sg17
S'Annual Precipitation'
p2694
sg19
S'45'
p2695
sg21
S'gs4570'
p2696
sg23
S'../views/GTiff/clim.gs4570.bio12.tif'
p2697
sg25
S'climate'
p2698
sg27
S'clim.gs4570.bio12'
p2699
sg29
S'6134'
p2700
sg31
S'Annual Precipitation GS RCP45 2070'
p2701
sg33
g34
sg35
g36
sg37
S'clim.gs4570.bio12.tif'
p2702
sg39
S'clim'
p2703
sg41
g42
sg43
I4326
sg44
S'2070'
p2704
ssS'bio14'
p2705
(dp2706
g8
S'2015-03-24 17:29:21'
p2707
sg10
S'yes'
p2708
sg12
S'gs4570.bio14'
p2709
sg14
I341
sg15
S'bio14'
p2710
sg17
S'Precipitation of Driest Month'
p2711
sg19
S'45'
p2712
sg21
S'gs4570'
p2713
sg23
S'../views/GTiff/clim.gs4570.bio14.tif'
p2714
sg25
S'climate'
p2715
sg27
S'clim.gs4570.bio14'
p2716
sg29
S'6144'
p2717
sg31
S'Precipitation of Driest Month GS RCP45 2070'
p2718
sg33
g34
sg35
g36
sg37
S'clim.gs4570.bio14.tif'
p2719
sg39
S'clim'
p2720
sg41
g42
sg43
I4326
sg44
S'2070'
p2721
ssS'bio10'
p2722
(dp2723
g8
S'2015-03-24 17:29:21'
p2724
sg10
S'yes'
p2725
sg12
S'gs4570.bio10'
p2726
sg14
I65
sg15
S'bio10'
p2727
sg17
S'Mean Temperature of Warmest Quarter'
p2728
sg19
S'45'
p2729
sg21
S'gs4570'
p2730
sg23
S'../views/GTiff/clim.gs4570.bio10.tif'
p2731
sg25
S'climate'
p2732
sg27
S'clim.gs4570.bio10'
p2733
sg29
S'6128'
p2734
sg31
S'Mean Temperature of Warmest Quarter GS RCP45 2070'
p2735
sg33
g34
sg35
g36
sg37
S'clim.gs4570.bio10.tif'
p2736
sg39
S'clim'
p2737
sg41
g42
sg43
I4326
sg44
S'2070'
p2738
ssS'bio11'
p2739
(dp2740
g8
S'2015-03-24 17:29:21'
p2741
sg10
S'yes'
p2742
sg12
S'gs4570.bio11'
p2743
sg14
I171
sg15
S'bio11'
p2744
sg17
S'Mean Temperature of Coldest Quarter'
p2745
sg19
S'45'
p2746
sg21
S'gs4570'
p2747
sg23
S'../views/GTiff/clim.gs4570.bio11.tif'
p2748
sg25
S'climate'
p2749
sg27
S'clim.gs4570.bio11'
p2750
sg29
S'6131'
p2751
sg31
S'Mean Temperature of Coldest Quarter GS RCP45 2070'
p2752
sg33
g34
sg35
g36
sg37
S'clim.gs4570.bio11.tif'
p2753
sg39
S'clim'
p2754
sg41
g42
sg43
I4326
sg44
S'2070'
p2755
ssS'bio05'
p2756
(dp2757
g8
S'2015-03-24 17:29:21'
p2758
sg10
S'yes'
p2759
sg12
S'gs4570.bio05'
p2760
sg14
I59
sg15
S'bio05'
p2761
sg17
S'Max Temperature of Warmest Month'
p2762
sg19
S'45'
p2763
sg21
S'gs4570'
p2764
sg23
S'../views/GTiff/clim.gs4570.bio05.tif'
p2765
sg25
S'climate'
p2766
sg27
S'clim.gs4570.bio05'
p2767
sg29
S'6137'
p2768
sg31
S'Max Temperature of Warmest Month GS RCP45 2070'
p2769
sg33
g34
sg35
g36
sg37
S'clim.gs4570.bio05.tif'
p2770
sg39
S'clim'
p2771
sg41
g42
sg43
I4326
sg44
S'2070'
p2772
ssS'bio13'
p2773
(dp2774
g8
S'2015-03-24 17:29:21'
p2775
sg10
S'yes'
p2776
sg12
S'gs4570.bio13'
p2777
sg14
I152
sg15
S'bio13'
p2778
sg17
S'Precipitation of Wettest Month'
p2779
sg19
S'45'
p2780
sg21
S'gs4570'
p2781
sg23
S'../views/GTiff/clim.gs4570.bio13.tif'
p2782
sg25
S'climate'
p2783
sg27
S'clim.gs4570.bio13'
p2784
sg29
S'6130'
p2785
sg31
S'Precipitation of Wettest Month GS RCP45 2070'
p2786
sg33
g34
sg35
g36
sg37
S'clim.gs4570.bio13.tif'
p2787
sg39
S'clim'
p2788
sg41
g42
sg43
I4326
sg44
S'2070'
p2789
ssS'bio03'
p2790
(dp2791
g8
S'2015-03-24 17:29:21'
p2792
sg10
S'yes'
p2793
sg12
S'gs4570.bio03'
p2794
sg14
I125
sg15
S'bio03'
p2795
sg17
S'Isothermality (BIO2/BIO7) (* 100)'
p2796
sg19
S'45'
p2797
sg21
S'gs4570'
p2798
sg23
S'../views/GTiff/clim.gs4570.bio03.tif'
p2799
sg25
S'climate'
p2800
sg27
S'clim.gs4570.bio03'
p2801
sg29
S'6139'
p2802
sg31
S'Isothermality (BIO2/BIO7) (* 100) GS RCP45 2070'
p2803
sg33
g34
sg35
g36
sg37
S'clim.gs4570.bio03.tif'
p2804
sg39
S'clim'
p2805
sg41
g42
sg43
I4326
sg44
S'2070'
p2806
ssS'bio15'
p2807
(dp2808
g8
S'2015-03-24 17:29:21'
p2809
sg10
S'no'
p2810
sg12
S'gs4570.bio15'
p2811
sg14
I76
sg15
S'bio15'
p2812
sg17
S'Precipitation Seasonality (Coefficient of Variation)'
p2813
sg19
S'45'
p2814
sg21
S'gs4570'
p2815
sg23
S'../views/GTiff/clim.gs4570.bio15.tif'
p2816
sg25
S'climate'
p2817
sg27
S'clim.gs4570.bio15'
p2818
sg29
S'6133'
p2819
sg31
S'Precipitation Seasonality (Coefficient of Variation) GS RCP45 2070'
p2820
sg33
g34
sg35
g36
sg37
S'clim.gs4570.bio15.tif'
p2821
sg39
S'clim'
p2822
sg41
g42
sg43
I4326
sg44
S'2070'
p2823
ssS'bio01'
p2824
(dp2825
g8
S'2015-03-24 17:29:21'
p2826
sg10
S'no'
p2827
sg12
S'gs4570.bio01'
p2828
sg14
I183
sg15
S'bio01'
p2829
sg17
S'Annual Mean Temperature'
p2830
sg19
S'45'
p2831
sg21
S'gs4570'
p2832
sg23
S'../views/GTiff/clim.gs4570.bio01.tif'
p2833
sg25
S'climate'
p2834
sg27
S'clim.gs4570.bio01'
p2835
sg29
S'6141'
p2836
sg31
S'Annual Mean Temperature GS RCP45 2070'
p2837
sg33
g34
sg35
g36
sg37
S'clim.gs4570.bio01.tif'
p2838
sg39
S'clim'
p2839
sg41
g42
sg43
I4326
sg44
S'2070'
p2840
ssS'bio17'
p2841
(dp2842
g8
S'2015-03-24 17:29:21'
p2843
sg10
S'yes'
p2844
sg12
S'gs4570.bio17'
p2845
sg14
I273
sg15
S'bio17'
p2846
sg17
S'Precipitation of Driest Quarter'
p2847
sg19
S'45'
p2848
sg21
S'gs4570'
p2849
sg23
S'../views/GTiff/clim.gs4570.bio17.tif'
p2850
sg25
S'climate'
p2851
sg27
S'clim.gs4570.bio17'
p2852
sg29
S'6142'
p2853
sg31
S'Precipitation of Driest Quarter GS RCP45 2070'
p2854
sg33
g34
sg35
g36
sg37
S'clim.gs4570.bio17.tif'
p2855
sg39
S'clim'
p2856
sg41
g42
sg43
I4326
sg44
S'2070'
p2857
ssS'bio18'
p2858
(dp2859
g8
S'2015-03-24 17:29:21'
p2860
sg10
S'no'
p2861
sg12
S'gs4570.bio18'
p2862
sg14
I5
sg15
S'bio18'
p2863
sg17
S'Precipitation of Warmest Quarter'
p2864
sg19
S'45'
p2865
sg21
g2618
sg23
S'../views/GTiff/clim.gs4570.bio18.tif'
p2866
sg25
S'climate'
p2867
sg27
S'clim.gs4570.bio18'
p2868
sg29
S'6143'
p2869
sg31
S'Precipitation of Warmest Quarter GS RCP45 2070'
p2870
sg33
g34
sg35
g36
sg37
S'clim.gs4570.bio18.tif'
p2871
sg39
S'clim'
p2872
sg41
g42
sg43
I4326
sg44
S'2070'
p2873
ssS'bio19'
p2874
(dp2875
g8
S'2015-03-24 17:29:21'
p2876
sg10
S'yes'
p2877
sg12
S'gs4570.bio19'
p2878
sg14
I316
sg15
S'bio19'
p2879
sg17
S'Precipitation of Coldest Quarter'
p2880
sg19
S'45'
p2881
sg21
S'gs4570'
p2882
sg23
S'../views/GTiff/clim.gs4570.bio19.tif'
p2883
sg25
S'climate'
p2884
sg27
S'clim.gs4570.bio19'
p2885
sg29
S'6129'
p2886
sg31
S'Precipitation of Coldest Quarter GS RCP45 2070'
p2887
sg33
g34
sg35
g36
sg37
S'clim.gs4570.bio19.tif'
p2888
sg39
S'clim'
p2889
sg41
g42
sg43
I4326
sg44
S'2070'
p2890
ssS'bio02'
p2891
(dp2892
g8
S'2015-03-24 17:29:21'
p2893
sg10
S'yes'
p2894
sg12
S'gs4570.bio02'
p2895
sg14
I234
sg15
S'bio02'
p2896
sg17
S'Mean Diurnal Range (Mean of monthly (max temp - min temp))'
p2897
sg19
S'45'
p2898
sg21
S'gs4570'
p2899
sg23
S'../views/GTiff/clim.gs4570.bio02.tif'
p2900
sg25
S'climate'
p2901
sg27
S'clim.gs4570.bio02'
p2902
sg29
S'6140'
p2903
sg31
S'Mean Diurnal Range (Mean of monthly (max temp - min temp)) GS RCP45 2070'
p2904
sg33
g34
sg35
g36
sg37
S'clim.gs4570.bio02.tif'
p2905
sg39
S'clim'
p2906
sg41
g42
sg43
I4326
sg44
S'2070'
p2907
ssS'bio09'
p2908
(dp2909
g8
S'2015-03-24 17:29:21'
p2910
sg10
S'yes'
p2911
sg12
S'gs4570.bio09'
p2912
sg14
I25
sg15
S'bio09'
p2913
sg17
S'Mean Temperature of Driest Quarter'
p2914
sg19
S'45'
p2915
sg21
S'gs4570'
p2916
sg23
S'../views/GTiff/clim.gs4570.bio09.tif'
p2917
sg25
S'climate'
p2918
sg27
S'clim.gs4570.bio09'
p2919
sg29
S'6145'
p2920
sg31
S'Mean Temperature of Driest Quarter GS RCP45 2070'
p2921
sg33
g34
sg35
g36
sg37
S'clim.gs4570.bio09.tif'
p2922
sg39
S'clim'
p2923
sg41
g42
sg43
I4326
sg44
S'2070'
p2924
ssS'bio08'
p2925
(dp2926
g8
S'2015-03-24 17:29:21'
p2927
sg10
S'no'
p2928
sg12
S'gs4570.bio08'
p2929
sg14
I45
sg15
S'bio08'
p2930
sg17
S'Mean Temperature of Wettest Quarter'
p2931
sg19
S'45'
p2932
sg21
S'gs4570'
p2933
sg23
S'../views/GTiff/clim.gs4570.bio08.tif'
p2934
sg25
S'climate'
p2935
sg27
S'clim.gs4570.bio08'
p2936
sg29
S'6146'
p2937
sg31
S'Mean Temperature of Wettest Quarter GS RCP45 2070'
p2938
sg33
g34
sg35
g36
sg37
S'clim.gs4570.bio08.tif'
p2939
sg39
S'clim'
p2940
sg41
g42
sg43
I4326
sg44
S'2070'
p2941
sssS'ac4570'
p2942
(dp2943
S'bio07'
p2944
(dp2945
g8
S'2015-03-24 17:29:21'
p2946
sg10
S'no'
p2947
sg12
S'ac4570.bio07'
p2948
sg14
I188
sg15
S'bio07'
p2949
sg17
S'Temperature Annual Range (BIO5-BIO6)'
p2950
sg19
S'45'
p2951
sg21
S'ac4570'
p2952
sg23
S'../views/GTiff/clim.ac4570.bio07.tif'
p2953
sg25
S'climate'
p2954
sg27
S'clim.ac4570.bio07'
p2955
sg29
S'6290'
p2956
sg31
S'Temperature Annual Range (BIO5-BIO6) AC RCP45 2070'
p2957
sg33
g34
sg35
g36
sg37
S'clim.ac4570.bio07.tif'
p2958
sg39
S'clim'
p2959
sg41
g42
sg43
I4326
sg44
S'2070'
p2960
ssS'bio16'
p2961
(dp2962
g8
S'2015-03-24 17:29:21'
p2963
sg10
S'yes'
p2964
sg12
S'ac4570.bio16'
p2965
sg14
I72
sg15
S'bio16'
p2966
sg17
S'Precipitation of Wettest Quarter'
p2967
sg19
S'45'
p2968
sg21
S'ac4570'
p2969
sg23
S'../views/GTiff/clim.ac4570.bio16.tif'
p2970
sg25
S'climate'
p2971
sg27
S'clim.ac4570.bio16'
p2972
sg29
S'6287'
p2973
sg31
S'Precipitation of Wettest Quarter AC RCP45 2070'
p2974
sg33
g34
sg35
g36
sg37
S'clim.ac4570.bio16.tif'
p2975
sg39
S'clim'
p2976
sg41
g42
sg43
I4326
sg44
S'2070'
p2977
ssS'bio11'
p2978
(dp2979
g8
S'2015-03-24 17:29:21'
p2980
sg10
S'yes'
p2981
sg12
S'ac4570.bio11'
p2982
sg14
I249
sg15
S'bio11'
p2983
sg17
S'Mean Temperature of Coldest Quarter'
p2984
sg19
S'45'
p2985
sg21
S'ac4570'
p2986
sg23
S'../views/GTiff/clim.ac4570.bio11.tif'
p2987
sg25
S'climate'
p2988
sg27
S'clim.ac4570.bio11'
p2989
sg29
S'6286'
p2990
sg31
S'Mean Temperature of Coldest Quarter AC RCP45 2070'
p2991
sg33
g34
sg35
g36
sg37
S'clim.ac4570.bio11.tif'
p2992
sg39
S'clim'
p2993
sg41
g42
sg43
I4326
sg44
S'2070'
p2994
ssS'bio17'
p2995
(dp2996
g8
S'2015-03-24 17:29:21'
p2997
sg10
S'yes'
p2998
sg12
S'ac4570.bio17'
p2999
sg14
I217
sg15
S'bio17'
p3000
sg17
S'Precipitation of Driest Quarter'
p3001
sg19
S'45'
p3002
sg21
S'ac4570'
p3003
sg23
S'../views/GTiff/clim.ac4570.bio17.tif'
p3004
sg25
S'climate'
p3005
sg27
S'clim.ac4570.bio17'
p3006
sg29
S'6297'
p3007
sg31
S'Precipitation of Driest Quarter AC RCP45 2070'
p3008
sg33
g34
sg35
g36
sg37
S'clim.ac4570.bio17.tif'
p3009
sg39
S'clim'
p3010
sg41
g42
sg43
I4326
sg44
S'2070'
p3011
ssS'bio15'
p3012
(dp3013
g8
S'2015-03-24 17:29:21'
p3014
sg10
S'no'
p3015
sg12
S'ac4570.bio15'
p3016
sg14
I243
sg15
S'bio15'
p3017
sg17
S'Precipitation Seasonality (Coefficient of Variation)'
p3018
sg19
S'45'
p3019
sg21
S'ac4570'
p3020
sg23
S'../views/GTiff/clim.ac4570.bio15.tif'
p3021
sg25
S'climate'
p3022
sg27
S'clim.ac4570.bio15'
p3023
sg29
S'6288'
p3024
sg31
S'Precipitation Seasonality (Coefficient of Variation) AC RCP45 2070'
p3025
sg33
g34
sg35
g36
sg37
S'clim.ac4570.bio15.tif'
p3026
sg39
S'clim'
p3027
sg41
g42
sg43
I4326
sg44
S'2070'
p3028
ssS'bio05'
p3029
(dp3030
g8
S'2015-03-24 17:29:21'
p3031
sg10
S'yes'
p3032
sg12
S'ac4570.bio05'
p3033
sg14
I224
sg15
S'bio05'
p3034
sg17
S'Max Temperature of Warmest Month'
p3035
sg19
S'45'
p3036
sg21
S'ac4570'
p3037
sg23
S'../views/GTiff/clim.ac4570.bio05.tif'
p3038
sg25
S'climate'
p3039
sg27
S'clim.ac4570.bio05'
p3040
sg29
S'6292'
p3041
sg31
S'Max Temperature of Warmest Month AC RCP45 2070'
p3042
sg33
g34
sg35
g36
sg37
S'clim.ac4570.bio05.tif'
p3043
sg39
S'clim'
p3044
sg41
g42
sg43
I4326
sg44
S'2070'
p3045
ssS'bio10'
p3046
(dp3047
g8
S'2015-03-24 17:29:21'
p3048
sg10
S'yes'
p3049
sg12
S'ac4570.bio10'
p3050
sg14
I102
sg15
S'bio10'
p3051
sg17
S'Mean Temperature of Warmest Quarter'
p3052
sg19
S'45'
p3053
sg21
S'ac4570'
p3054
sg23
S'../views/GTiff/clim.ac4570.bio10.tif'
p3055
sg25
S'climate'
p3056
sg27
S'clim.ac4570.bio10'
p3057
sg29
S'6283'
p3058
sg31
S'Mean Temperature of Warmest Quarter AC RCP45 2070'
p3059
sg33
g34
sg35
g36
sg37
S'clim.ac4570.bio10.tif'
p3060
sg39
S'clim'
p3061
sg41
g42
sg43
I4326
sg44
S'2070'
p3062
ssS'bio06'
p3063
(dp3064
g8
S'2015-03-24 17:29:21'
p3065
sg10
S'yes'
p3066
sg12
S'ac4570.bio06'
p3067
sg14
I35
sg15
S'bio06'
p3068
sg17
S'Min Temperature of Coldest Month'
p3069
sg19
S'45'
p3070
sg21
S'ac4570'
p3071
sg23
S'../views/GTiff/clim.ac4570.bio06.tif'
p3072
sg25
S'climate'
p3073
sg27
S'clim.ac4570.bio06'
p3074
sg29
S'6291'
p3075
sg31
S'Min Temperature of Coldest Month AC RCP45 2070'
p3076
sg33
g34
sg35
g36
sg37
S'clim.ac4570.bio06.tif'
p3077
sg39
S'clim'
p3078
sg41
g42
sg43
I4326
sg44
S'2070'
p3079
ssS'bio12'
p3080
(dp3081
g8
S'2015-03-24 17:29:21'
p3082
sg10
S'no'
p3083
sg12
S'ac4570.bio12'
p3084
sg14
I140
sg15
S'bio12'
p3085
sg17
S'Annual Precipitation'
p3086
sg19
S'45'
p3087
sg21
S'ac4570'
p3088
sg23
S'../views/GTiff/clim.ac4570.bio12.tif'
p3089
sg25
S'climate'
p3090
sg27
S'clim.ac4570.bio12'
p3091
sg29
S'6289'
p3092
sg31
S'Annual Precipitation AC RCP45 2070'
p3093
sg33
g34
sg35
g36
sg37
S'clim.ac4570.bio12.tif'
p3094
sg39
S'clim'
p3095
sg41
g42
sg43
I4326
sg44
S'2070'
p3096
ssS'bio13'
p3097
(dp3098
g8
S'2015-03-24 17:29:21'
p3099
sg10
S'yes'
p3100
sg12
S'ac4570.bio13'
p3101
sg14
I184
sg15
S'bio13'
p3102
sg17
S'Precipitation of Wettest Month'
p3103
sg19
S'45'
p3104
sg21
S'ac4570'
p3105
sg23
S'../views/GTiff/clim.ac4570.bio13.tif'
p3106
sg25
S'climate'
p3107
sg27
S'clim.ac4570.bio13'
p3108
sg29
S'6285'
p3109
sg31
S'Precipitation of Wettest Month AC RCP45 2070'
p3110
sg33
g34
sg35
g36
sg37
S'clim.ac4570.bio13.tif'
p3111
sg39
S'clim'
p3112
sg41
g42
sg43
I4326
sg44
S'2070'
p3113
ssS'bio03'
p3114
(dp3115
g8
S'2015-03-24 17:29:21'
p3116
sg10
S'yes'
p3117
sg12
S'ac4570.bio03'
p3118
sg14
I127
sg15
S'bio03'
p3119
sg17
S'Isothermality (BIO2/BIO7) (* 100)'
p3120
sg19
S'45'
p3121
sg21
S'ac4570'
p3122
sg23
S'../views/GTiff/clim.ac4570.bio03.tif'
p3123
sg25
S'climate'
p3124
sg27
S'clim.ac4570.bio03'
p3125
sg29
S'6294'
p3126
sg31
S'Isothermality (BIO2/BIO7) (* 100) AC RCP45 2070'
p3127
sg33
g34
sg35
g36
sg37
S'clim.ac4570.bio03.tif'
p3128
sg39
S'clim'
p3129
sg41
g42
sg43
I4326
sg44
S'2070'
p3130
ssS'bio02'
p3131
(dp3132
g8
S'2015-03-24 17:29:21'
p3133
sg10
S'yes'
p3134
sg12
S'ac4570.bio02'
p3135
sg14
I238
sg15
S'bio02'
p3136
sg17
S'Mean Diurnal Range (Mean of monthly (max temp - min temp))'
p3137
sg19
S'45'
p3138
sg21
S'ac4570'
p3139
sg23
S'../views/GTiff/clim.ac4570.bio02.tif'
p3140
sg25
S'climate'
p3141
sg27
S'clim.ac4570.bio02'
p3142
sg29
S'6295'
p3143
sg31
S'Mean Diurnal Range (Mean of monthly (max temp - min temp)) AC RCP45 2070'
p3144
sg33
g34
sg35
g36
sg37
S'clim.ac4570.bio02.tif'
p3145
sg39
S'clim'
p3146
sg41
g42
sg43
I4326
sg44
S'2070'
p3147
ssS'bio01'
p3148
(dp3149
g8
S'2015-03-24 17:29:21'
p3150
sg10
S'no'
p3151
sg12
S'ac4570.bio01'
p3152
sg14
I81
sg15
S'bio01'
p3153
sg17
S'Annual Mean Temperature'
p3154
sg19
S'45'
p3155
sg21
S'ac4570'
p3156
sg23
S'../views/GTiff/clim.ac4570.bio01.tif'
p3157
sg25
S'climate'
p3158
sg27
S'clim.ac4570.bio01'
p3159
sg29
S'6296'
p3160
sg31
S'Annual Mean Temperature AC RCP45 2070'
p3161
sg33
g34
sg35
g36
sg37
S'clim.ac4570.bio01.tif'
p3162
sg39
S'clim'
p3163
sg41
g42
sg43
I4326
sg44
S'2070'
p3164
ssS'bio19'
p3165
(dp3166
g8
S'2015-03-24 17:29:21'
p3167
sg10
S'yes'
p3168
sg12
S'ac4570.bio19'
p3169
sg14
I215
sg15
S'bio19'
p3170
sg17
S'Precipitation of Coldest Quarter'
p3171
sg19
S'45'
p3172
sg21
S'ac4570'
p3173
sg23
S'../views/GTiff/clim.ac4570.bio19.tif'
p3174
sg25
S'climate'
p3175
sg27
S'clim.ac4570.bio19'
p3176
sg29
S'6284'
p3177
sg31
S'Precipitation of Coldest Quarter AC RCP45 2070'
p3178
sg33
g34
sg35
g36
sg37
S'clim.ac4570.bio19.tif'
p3179
sg39
S'clim'
p3180
sg41
g42
sg43
I4326
sg44
S'2070'
p3181
ssS'bio18'
p3182
(dp3183
g8
S'2015-03-24 17:29:21'
p3184
sg10
S'no'
p3185
sg12
S'ac4570.bio18'
p3186
sg14
I92
sg15
S'bio18'
p3187
sg17
S'Precipitation of Warmest Quarter'
p3188
sg19
S'45'
p3189
sg21
S'ac4570'
p3190
sg23
S'../views/GTiff/clim.ac4570.bio18.tif'
p3191
sg25
S'climate'
p3192
sg27
S'clim.ac4570.bio18'
p3193
sg29
S'6298'
p3194
sg31
S'Precipitation of Warmest Quarter AC RCP45 2070'
p3195
sg33
g34
sg35
g36
sg37
S'clim.ac4570.bio18.tif'
p3196
sg39
S'clim'
p3197
sg41
g42
sg43
I4326
sg44
S'2070'
p3198
ssS'bio14'
p3199
(dp3200
g8
S'2015-03-24 17:29:21'
p3201
sg10
S'yes'
p3202
sg12
S'ac4570.bio14'
p3203
sg14
I142
sg15
S'bio14'
p3204
sg17
S'Precipitation of Driest Month'
p3205
sg19
S'45'
p3206
sg21
S'ac4570'
p3207
sg23
S'../views/GTiff/clim.ac4570.bio14.tif'
p3208
sg25
S'climate'
p3209
sg27
S'clim.ac4570.bio14'
p3210
sg29
S'6299'
p3211
sg31
S'Precipitation of Driest Month AC RCP45 2070'
p3212
sg33
g34
sg35
g36
sg37
S'clim.ac4570.bio14.tif'
p3213
sg39
S'clim'
p3214
sg41
g42
sg43
I4326
sg44
S'2070'
p3215
ssS'bio04'
p3216
(dp3217
g8
S'2015-03-24 17:29:21'
p3218
sg10
S'yes'
p3219
sg12
S'ac4570.bio04'
p3220
sg14
I328
sg15
S'bio04'
p3221
sg17
S'Temperature Seasonality (standard deviation *100)'
p3222
sg19
S'45'
p3223
sg21
S'ac4570'
p3224
sg23
S'../views/GTiff/clim.ac4570.bio04.tif'
p3225
sg25
S'climate'
p3226
sg27
S'clim.ac4570.bio04'
p3227
sg29
S'6293'
p3228
sg31
S'Temperature Seasonality (standard deviation *100) AC RCP45 2070'
p3229
sg33
g34
sg35
g36
sg37
S'clim.ac4570.bio04.tif'
p3230
sg39
S'clim'
p3231
sg41
g42
sg43
I4326
sg44
S'2070'
p3232
ssS'bio09'
p3233
(dp3234
g8
S'2015-03-24 17:29:21'
p3235
sg10
S'yes'
p3236
sg12
S'ac4570.bio09'
p3237
sg14
I28
sg15
S'bio09'
p3238
sg17
S'Mean Temperature of Driest Quarter'
p3239
sg19
S'45'
p3240
sg21
g2942
sg23
S'../views/GTiff/clim.ac4570.bio09.tif'
p3241
sg25
S'climate'
p3242
sg27
S'clim.ac4570.bio09'
p3243
sg29
S'6300'
p3244
sg31
S'Mean Temperature of Driest Quarter AC RCP45 2070'
p3245
sg33
g34
sg35
g36
sg37
S'clim.ac4570.bio09.tif'
p3246
sg39
S'clim'
p3247
sg41
g42
sg43
I4326
sg44
S'2070'
p3248
ssS'bio08'
p3249
(dp3250
g8
S'2015-03-24 17:29:21'
p3251
sg10
S'no'
p3252
sg12
S'ac4570.bio08'
p3253
sg14
I205
sg15
S'bio08'
p3254
sg17
S'Mean Temperature of Wettest Quarter'
p3255
sg19
S'45'
p3256
sg21
S'ac4570'
p3257
sg23
S'../views/GTiff/clim.ac4570.bio08.tif'
p3258
sg25
S'climate'
p3259
sg27
S'clim.ac4570.bio08'
p3260
sg29
S'6301'
p3261
sg31
S'Mean Temperature of Wettest Quarter AC RCP45 2070'
p3262
sg33
g34
sg35
g36
sg37
S'clim.ac4570.bio08.tif'
p3263
sg39
S'clim'
p3264
sg41
g42
sg43
I4326
sg44
S'2070'
p3265
sssS'gd4570'
p3266
(dp3267
S'bio07'
p3268
(dp3269
g8
S'2015-03-24 17:29:21'
p3270
sg10
S'no'
p3271
sg12
S'gd4570.bio07'
p3272
sg14
I284
sg15
S'bio07'
p3273
sg17
S'Temperature Annual Range (BIO5-BIO6)'
p3274
sg19
S'45'
p3275
sg21
S'gd4570'
p3276
sg23
S'../views/GTiff/clim.gd4570.bio07.tif'
p3277
sg25
S'climate'
p3278
sg27
S'clim.gd4570.bio07'
p3279
sg29
S'6309'
p3280
sg31
S'Temperature Annual Range (BIO5-BIO6) GD RCP45 2070'
p3281
sg33
g34
sg35
g36
sg37
S'clim.gd4570.bio07.tif'
p3282
sg39
S'clim'
p3283
sg41
g42
sg43
I4326
sg44
S'2070'
p3284
ssS'bio01'
p3285
(dp3286
g8
S'2015-03-24 17:29:21'
p3287
sg10
S'no'
p3288
sg12
S'gd4570.bio01'
p3289
sg14
I253
sg15
S'bio01'
p3290
sg17
S'Annual Mean Temperature'
p3291
sg19
S'45'
p3292
sg21
S'gd4570'
p3293
sg23
S'../views/GTiff/clim.gd4570.bio01.tif'
p3294
sg25
S'climate'
p3295
sg27
S'clim.gd4570.bio01'
p3296
sg29
S'6315'
p3297
sg31
S'Annual Mean Temperature GD RCP45 2070'
p3298
sg33
g34
sg35
g36
sg37
S'clim.gd4570.bio01.tif'
p3299
sg39
S'clim'
p3300
sg41
g42
sg43
I4326
sg44
S'2070'
p3301
ssS'bio06'
p3302
(dp3303
g8
S'2015-03-24 17:29:21'
p3304
sg10
S'yes'
p3305
sg12
S'gd4570.bio06'
p3306
sg14
I304
sg15
S'bio06'
p3307
sg17
S'Min Temperature of Coldest Month'
p3308
sg19
S'45'
p3309
sg21
S'gd4570'
p3310
sg23
S'../views/GTiff/clim.gd4570.bio06.tif'
p3311
sg25
S'climate'
p3312
sg27
S'clim.gd4570.bio06'
p3313
sg29
S'6310'
p3314
sg31
S'Min Temperature of Coldest Month GD RCP45 2070'
p3315
sg33
g34
sg35
g36
sg37
S'clim.gd4570.bio06.tif'
p3316
sg39
S'clim'
p3317
sg41
g42
sg43
I4326
sg44
S'2070'
p3318
ssS'bio12'
p3319
(dp3320
g8
S'2015-03-24 17:29:21'
p3321
sg10
S'no'
p3322
sg12
S'gd4570.bio12'
p3323
sg14
I311
sg15
S'bio12'
p3324
sg17
S'Annual Precipitation'
p3325
sg19
S'45'
p3326
sg21
S'gd4570'
p3327
sg23
S'../views/GTiff/clim.gd4570.bio12.tif'
p3328
sg25
S'climate'
p3329
sg27
S'clim.gd4570.bio12'
p3330
sg29
S'6308'
p3331
sg31
S'Annual Precipitation GD RCP45 2070'
p3332
sg33
g34
sg35
g36
sg37
S'clim.gd4570.bio12.tif'
p3333
sg39
S'clim'
p3334
sg41
g42
sg43
I4326
sg44
S'2070'
p3335
ssS'bio10'
p3336
(dp3337
g8
S'2015-03-24 17:29:21'
p3338
sg10
S'yes'
p3339
sg12
S'gd4570.bio10'
p3340
sg14
I172
sg15
S'bio10'
p3341
sg17
S'Mean Temperature of Warmest Quarter'
p3342
sg19
S'45'
p3343
sg21
S'gd4570'
p3344
sg23
S'../views/GTiff/clim.gd4570.bio10.tif'
p3345
sg25
S'climate'
p3346
sg27
S'clim.gd4570.bio10'
p3347
sg29
S'6302'
p3348
sg31
S'Mean Temperature of Warmest Quarter GD RCP45 2070'
p3349
sg33
g34
sg35
g36
sg37
S'clim.gd4570.bio10.tif'
p3350
sg39
S'clim'
p3351
sg41
g42
sg43
I4326
sg44
S'2070'
p3352
ssS'bio11'
p3353
(dp3354
g8
S'2015-03-24 17:29:21'
p3355
sg10
S'yes'
p3356
sg12
S'gd4570.bio11'
p3357
sg14
I26
sg15
S'bio11'
p3358
sg17
S'Mean Temperature of Coldest Quarter'
p3359
sg19
S'45'
p3360
sg21
S'gd4570'
p3361
sg23
S'../views/GTiff/clim.gd4570.bio11.tif'
p3362
sg25
S'climate'
p3363
sg27
S'clim.gd4570.bio11'
p3364
sg29
S'6305'
p3365
sg31
S'Mean Temperature of Coldest Quarter GD RCP45 2070'
p3366
sg33
g34
sg35
g36
sg37
S'clim.gd4570.bio11.tif'
p3367
sg39
S'clim'
p3368
sg41
g42
sg43
I4326
sg44
S'2070'
p3369
ssS'bio05'
p3370
(dp3371
g8
S'2015-03-24 17:29:21'
p3372
sg10
S'yes'
p3373
sg12
S'gd4570.bio05'
p3374
sg14
I38
sg15
S'bio05'
p3375
sg17
S'Max Temperature of Warmest Month'
p3376
sg19
S'45'
p3377
sg21
S'gd4570'
p3378
sg23
S'../views/GTiff/clim.gd4570.bio05.tif'
p3379
sg25
S'climate'
p3380
sg27
S'clim.gd4570.bio05'
p3381
sg29
S'6311'
p3382
sg31
S'Max Temperature of Warmest Month GD RCP45 2070'
p3383
sg33
g34
sg35
g36
sg37
S'clim.gd4570.bio05.tif'
p3384
sg39
S'clim'
p3385
sg41
g42
sg43
I4326
sg44
S'2070'
p3386
ssS'bio13'
p3387
(dp3388
g8
S'2015-03-24 17:29:21'
p3389
sg10
S'yes'
p3390
sg12
S'gd4570.bio13'
p3391
sg14
I56
sg15
S'bio13'
p3392
sg17
S'Precipitation of Wettest Month'
p3393
sg19
S'45'
p3394
sg21
S'gd4570'
p3395
sg23
S'../views/GTiff/clim.gd4570.bio13.tif'
p3396
sg25
S'climate'
p3397
sg27
S'clim.gd4570.bio13'
p3398
sg29
S'6304'
p3399
sg31
S'Precipitation of Wettest Month GD RCP45 2070'
p3400
sg33
g34
sg35
g36
sg37
S'clim.gd4570.bio13.tif'
p3401
sg39
S'clim'
p3402
sg41
g42
sg43
I4326
sg44
S'2070'
p3403
ssS'bio14'
p3404
(dp3405
g8
S'2015-03-24 17:29:21'
p3406
sg10
S'yes'
p3407
sg12
S'gd4570.bio14'
p3408
sg14
I268
sg15
S'bio14'
p3409
sg17
S'Precipitation of Driest Month'
p3410
sg19
S'45'
p3411
sg21
S'gd4570'
p3412
sg23
S'../views/GTiff/clim.gd4570.bio14.tif'
p3413
sg25
S'climate'
p3414
sg27
S'clim.gd4570.bio14'
p3415
sg29
S'6318'
p3416
sg31
S'Precipitation of Driest Month GD RCP45 2070'
p3417
sg33
g34
sg35
g36
sg37
S'clim.gd4570.bio14.tif'
p3418
sg39
S'clim'
p3419
sg41
g42
sg43
I4326
sg44
S'2070'
p3420
ssS'bio15'
p3421
(dp3422
g8
S'2015-03-24 17:29:21'
p3423
sg10
S'no'
p3424
sg12
S'gd4570.bio15'
p3425
sg14
I151
sg15
S'bio15'
p3426
sg17
S'Precipitation Seasonality (Coefficient of Variation)'
p3427
sg19
S'45'
p3428
sg21
S'gd4570'
p3429
sg23
S'../views/GTiff/clim.gd4570.bio15.tif'
p3430
sg25
S'climate'
p3431
sg27
S'clim.gd4570.bio15'
p3432
sg29
S'6307'
p3433
sg31
S'Precipitation Seasonality (Coefficient of Variation) GD RCP45 2070'
p3434
sg33
g34
sg35
g36
sg37
S'clim.gd4570.bio15.tif'
p3435
sg39
S'clim'
p3436
sg41
g42
sg43
I4326
sg44
S'2070'
p3437
ssS'bio16'
p3438
(dp3439
g8
S'2015-03-24 17:29:21'
p3440
sg10
S'yes'
p3441
sg12
S'gd4570.bio16'
p3442
sg14
I54
sg15
S'bio16'
p3443
sg17
S'Precipitation of Wettest Quarter'
p3444
sg19
S'45'
p3445
sg21
S'gd4570'
p3446
sg23
S'../views/GTiff/clim.gd4570.bio16.tif'
p3447
sg25
S'climate'
p3448
sg27
S'clim.gd4570.bio16'
p3449
sg29
S'6306'
p3450
sg31
S'Precipitation of Wettest Quarter GD RCP45 2070'
p3451
sg33
g34
sg35
g36
sg37
S'clim.gd4570.bio16.tif'
p3452
sg39
S'clim'
p3453
sg41
g42
sg43
I4326
sg44
S'2070'
p3454
ssS'bio17'
p3455
(dp3456
g8
S'2015-03-24 17:29:21'
p3457
sg10
S'yes'
p3458
sg12
S'gd4570.bio17'
p3459
sg14
I133
sg15
S'bio17'
p3460
sg17
S'Precipitation of Driest Quarter'
p3461
sg19
S'45'
p3462
sg21
S'gd4570'
p3463
sg23
S'../views/GTiff/clim.gd4570.bio17.tif'
p3464
sg25
S'climate'
p3465
sg27
S'clim.gd4570.bio17'
p3466
sg29
S'6316'
p3467
sg31
S'Precipitation of Driest Quarter GD RCP45 2070'
p3468
sg33
g34
sg35
g36
sg37
S'clim.gd4570.bio17.tif'
p3469
sg39
S'clim'
p3470
sg41
g42
sg43
I4326
sg44
S'2070'
p3471
ssS'bio18'
p3472
(dp3473
g8
S'2015-03-24 17:29:21'
p3474
sg10
S'no'
p3475
sg12
S'gd4570.bio18'
p3476
sg14
I8
sg15
S'bio18'
p3477
sg17
S'Precipitation of Warmest Quarter'
p3478
sg19
S'45'
p3479
sg21
g3266
sg23
S'../views/GTiff/clim.gd4570.bio18.tif'
p3480
sg25
S'climate'
p3481
sg27
S'clim.gd4570.bio18'
p3482
sg29
S'6317'
p3483
sg31
S'Precipitation of Warmest Quarter GD RCP45 2070'
p3484
sg33
g34
sg35
g36
sg37
S'clim.gd4570.bio18.tif'
p3485
sg39
S'clim'
p3486
sg41
g42
sg43
I4326
sg44
S'2070'
p3487
ssS'bio19'
p3488
(dp3489
g8
S'2015-03-24 17:29:21'
p3490
sg10
S'yes'
p3491
sg12
S'gd4570.bio19'
p3492
sg14
I11
sg15
S'bio19'
p3493
sg17
S'Precipitation of Coldest Quarter'
p3494
sg19
S'45'
p3495
sg21
S'gd4570'
p3496
sg23
S'../views/GTiff/clim.gd4570.bio19.tif'
p3497
sg25
S'climate'
p3498
sg27
S'clim.gd4570.bio19'
p3499
sg29
S'6303'
p3500
sg31
S'Precipitation of Coldest Quarter GD RCP45 2070'
p3501
sg33
g34
sg35
g36
sg37
S'clim.gd4570.bio19.tif'
p3502
sg39
S'clim'
p3503
sg41
g42
sg43
I4326
sg44
S'2070'
p3504
ssS'bio04'
p3505
(dp3506
g8
S'2015-03-24 17:29:21'
p3507
sg10
S'yes'
p3508
sg12
S'gd4570.bio04'
p3509
sg14
I247
sg15
S'bio04'
p3510
sg17
S'Temperature Seasonality (standard deviation *100)'
p3511
sg19
S'45'
p3512
sg21
S'gd4570'
p3513
sg23
S'../views/GTiff/clim.gd4570.bio04.tif'
p3514
sg25
S'climate'
p3515
sg27
S'clim.gd4570.bio04'
p3516
sg29
S'6312'
p3517
sg31
S'Temperature Seasonality (standard deviation *100) GD RCP45 2070'
p3518
sg33
g34
sg35
g36
sg37
S'clim.gd4570.bio04.tif'
p3519
sg39
S'clim'
p3520
sg41
g42
sg43
I4326
sg44
S'2070'
p3521
ssS'bio08'
p3522
(dp3523
g8
S'2015-03-24 17:29:21'
p3524
sg10
S'no'
p3525
sg12
S'gd4570.bio08'
p3526
sg14
I305
sg15
S'bio08'
p3527
sg17
S'Mean Temperature of Wettest Quarter'
p3528
sg19
S'45'
p3529
sg21
S'gd4570'
p3530
sg23
S'../views/GTiff/clim.gd4570.bio08.tif'
p3531
sg25
S'climate'
p3532
sg27
S'clim.gd4570.bio08'
p3533
sg29
S'6320'
p3534
sg31
S'Mean Temperature of Wettest Quarter GD RCP45 2070'
p3535
sg33
g34
sg35
g36
sg37
S'clim.gd4570.bio08.tif'
p3536
sg39
S'clim'
p3537
sg41
g42
sg43
I4326
sg44
S'2070'
p3538
ssS'bio03'
p3539
(dp3540
g8
S'2015-03-24 17:29:21'
p3541
sg10
S'yes'
p3542
sg12
S'gd4570.bio03'
p3543
sg14
I323
sg15
S'bio03'
p3544
sg17
S'Isothermality (BIO2/BIO7) (* 100)'
p3545
sg19
S'45'
p3546
sg21
S'gd4570'
p3547
sg23
S'../views/GTiff/clim.gd4570.bio03.tif'
p3548
sg25
S'climate'
p3549
sg27
S'clim.gd4570.bio03'
p3550
sg29
S'6313'
p3551
sg31
S'Isothermality (BIO2/BIO7) (* 100) GD RCP45 2070'
p3552
sg33
g34
sg35
g36
sg37
S'clim.gd4570.bio03.tif'
p3553
sg39
S'clim'
p3554
sg41
g42
sg43
I4326
sg44
S'2070'
p3555
ssS'bio09'
p3556
(dp3557
g8
S'2015-03-24 17:29:21'
p3558
sg10
S'yes'
p3559
sg12
S'gd4570.bio09'
p3560
sg14
I218
sg15
S'bio09'
p3561
sg17
S'Mean Temperature of Driest Quarter'
p3562
sg19
S'45'
p3563
sg21
S'gd4570'
p3564
sg23
S'../views/GTiff/clim.gd4570.bio09.tif'
p3565
sg25
S'climate'
p3566
sg27
S'clim.gd4570.bio09'
p3567
sg29
S'6319'
p3568
sg31
S'Mean Temperature of Driest Quarter GD RCP45 2070'
p3569
sg33
g34
sg35
g36
sg37
S'clim.gd4570.bio09.tif'
p3570
sg39
S'clim'
p3571
sg41
g42
sg43
I4326
sg44
S'2070'
p3572
ssS'bio02'
p3573
(dp3574
g8
S'2015-03-24 17:29:21'
p3575
sg10
S'yes'
p3576
sg12
S'gd4570.bio02'
p3577
sg14
I163
sg15
S'bio02'
p3578
sg17
S'Mean Diurnal Range (Mean of monthly (max temp - min temp))'
p3579
sg19
S'45'
p3580
sg21
S'gd4570'
p3581
sg23
S'../views/GTiff/clim.gd4570.bio02.tif'
p3582
sg25
S'climate'
p3583
sg27
S'clim.gd4570.bio02'
p3584
sg29
S'6314'
p3585
sg31
S'Mean Diurnal Range (Mean of monthly (max temp - min temp)) GD RCP45 2070'
p3586
sg33
g34
sg35
g36
sg37
S'clim.gd4570.bio02.tif'
p3587
sg39
S'clim'
p3588
sg41
g42
sg43
I4326
sg44
S'2070'
p3589
sssS'hhe4570'
p3590
(dp3591
S'bio07'
p3592
(dp3593
g8
S'2015-03-24 17:29:21'
p3594
sg10
S'no'
p3595
sg12
S'hhe4570.bio07'
p3596
sg14
I122
sg15
S'bio07'
p3597
sg17
S'Temperature Annual Range (BIO5-BIO6)'
p3598
sg19
S'45'
p3599
sg21
S'hhe4570'
p3600
sg23
S'../views/GTiff/clim.hhe4570.bio07.tif'
p3601
sg25
S'climate'
p3602
sg27
S'clim.hhe4570.bio07'
p3603
sg29
S'6605'
p3604
sg31
S'Temperature Annual Range (BIO5-BIO6) HE RCP45 2070'
p3605
sg33
g34
sg35
g36
sg37
S'clim.hhe4570.bio07.tif'
p3606
sg39
S'clim'
p3607
sg41
g42
sg43
I4326
sg44
S'2070'
p3608
ssS'bio13'
p3609
(dp3610
g8
S'2015-03-24 17:29:21'
p3611
sg10
S'yes'
p3612
sg12
S'hhe4570.bio13'
p3613
sg14
I342
sg15
S'bio13'
p3614
sg17
S'Precipitation of Wettest Month'
p3615
sg19
S'45'
p3616
sg21
S'hhe4570'
p3617
sg23
S'../views/GTiff/clim.hhe4570.bio13.tif'
p3618
sg25
S'climate'
p3619
sg27
S'clim.hhe4570.bio13'
p3620
sg29
S'6600'
p3621
sg31
S'Precipitation of Wettest Month HE RCP45 2070'
p3622
sg33
g34
sg35
g36
sg37
S'clim.hhe4570.bio13.tif'
p3623
sg39
S'clim'
p3624
sg41
g42
sg43
I4326
sg44
S'2070'
p3625
ssS'bio01'
p3626
(dp3627
g8
S'2015-03-24 17:29:21'
p3628
sg10
S'no'
p3629
sg12
S'hhe4570.bio01'
p3630
sg14
I210
sg15
S'bio01'
p3631
sg17
S'Annual Mean Temperature'
p3632
sg19
S'45'
p3633
sg21
S'hhe4570'
p3634
sg23
S'../views/GTiff/clim.hhe4570.bio01.tif'
p3635
sg25
S'climate'
p3636
sg27
S'clim.hhe4570.bio01'
p3637
sg29
S'6611'
p3638
sg31
S'Annual Mean Temperature HE RCP45 2070'
p3639
sg33
g34
sg35
g36
sg37
S'clim.hhe4570.bio01.tif'
p3640
sg39
S'clim'
p3641
sg41
g42
sg43
I4326
sg44
S'2070'
p3642
ssS'bio06'
p3643
(dp3644
g8
S'2015-03-24 17:29:21'
p3645
sg10
S'yes'
p3646
sg12
S'hhe4570.bio06'
p3647
sg14
I46
sg15
S'bio06'
p3648
sg17
S'Min Temperature of Coldest Month'
p3649
sg19
S'45'
p3650
sg21
S'hhe4570'
p3651
sg23
S'../views/GTiff/clim.hhe4570.bio06.tif'
p3652
sg25
S'climate'
p3653
sg27
S'clim.hhe4570.bio06'
p3654
sg29
S'6606'
p3655
sg31
S'Min Temperature of Coldest Month HE RCP45 2070'
p3656
sg33
g34
sg35
g36
sg37
S'clim.hhe4570.bio06.tif'
p3657
sg39
S'clim'
p3658
sg41
g42
sg43
I4326
sg44
S'2070'
p3659
ssS'bio12'
p3660
(dp3661
g8
S'2015-03-24 17:29:21'
p3662
sg10
S'no'
p3663
sg12
S'hhe4570.bio12'
p3664
sg14
I99
sg15
S'bio12'
p3665
sg17
S'Annual Precipitation'
p3666
sg19
S'45'
p3667
sg21
S'hhe4570'
p3668
sg23
S'../views/GTiff/clim.hhe4570.bio12.tif'
p3669
sg25
S'climate'
p3670
sg27
S'clim.hhe4570.bio12'
p3671
sg29
S'6604'
p3672
sg31
S'Annual Precipitation HE RCP45 2070'
p3673
sg33
g34
sg35
g36
sg37
S'clim.hhe4570.bio12.tif'
p3674
sg39
S'clim'
p3675
sg41
g42
sg43
I4326
sg44
S'2070'
p3676
ssS'bio14'
p3677
(dp3678
g8
S'2015-03-24 17:29:21'
p3679
sg10
S'yes'
p3680
sg12
S'hhe4570.bio14'
p3681
sg14
I241
sg15
S'bio14'
p3682
sg17
S'Precipitation of Driest Month'
p3683
sg19
S'45'
p3684
sg21
S'hhe4570'
p3685
sg23
S'../views/GTiff/clim.hhe4570.bio14.tif'
p3686
sg25
S'climate'
p3687
sg27
S'clim.hhe4570.bio14'
p3688
sg29
S'6614'
p3689
sg31
S'Precipitation of Driest Month HE RCP45 2070'
p3690
sg33
g34
sg35
g36
sg37
S'clim.hhe4570.bio14.tif'
p3691
sg39
S'clim'
p3692
sg41
g42
sg43
I4326
sg44
S'2070'
p3693
ssS'bio10'
p3694
(dp3695
g8
S'2015-03-24 17:29:21'
p3696
sg10
S'yes'
p3697
sg12
S'hhe4570.bio10'
p3698
sg14
I50
sg15
S'bio10'
p3699
sg17
S'Mean Temperature of Warmest Quarter'
p3700
sg19
S'45'
p3701
sg21
S'hhe4570'
p3702
sg23
S'../views/GTiff/clim.hhe4570.bio10.tif'
p3703
sg25
S'climate'
p3704
sg27
S'clim.hhe4570.bio10'
p3705
sg29
S'6598'
p3706
sg31
S'Mean Temperature of Warmest Quarter HE RCP45 2070'
p3707
sg33
g34
sg35
g36
sg37
S'clim.hhe4570.bio10.tif'
p3708
sg39
S'clim'
p3709
sg41
g42
sg43
I4326
sg44
S'2070'
p3710
ssS'bio11'
p3711
(dp3712
g8
S'2015-03-24 17:29:21'
p3713
sg10
S'yes'
p3714
sg12
S'hhe4570.bio11'
p3715
sg14
I23
sg15
S'bio11'
p3716
sg17
S'Mean Temperature of Coldest Quarter'
p3717
sg19
S'45'
p3718
sg21
S'hhe4570'
p3719
sg23
S'../views/GTiff/clim.hhe4570.bio11.tif'
p3720
sg25
S'climate'
p3721
sg27
S'clim.hhe4570.bio11'
p3722
sg29
S'6601'
p3723
sg31
S'Mean Temperature of Coldest Quarter HE RCP45 2070'
p3724
sg33
g34
sg35
g36
sg37
S'clim.hhe4570.bio11.tif'
p3725
sg39
S'clim'
p3726
sg41
g42
sg43
I4326
sg44
S'2070'
p3727
ssS'bio05'
p3728
(dp3729
g8
S'2015-03-24 17:29:21'
p3730
sg10
S'yes'
p3731
sg12
S'hhe4570.bio05'
p3732
sg14
I22
sg15
S'bio05'
p3733
sg17
S'Max Temperature of Warmest Month'
p3734
sg19
S'45'
p3735
sg21
S'hhe4570'
p3736
sg23
S'../views/GTiff/clim.hhe4570.bio05.tif'
p3737
sg25
S'climate'
p3738
sg27
S'clim.hhe4570.bio05'
p3739
sg29
S'6607'
p3740
sg31
S'Max Temperature of Warmest Month HE RCP45 2070'
p3741
sg33
g34
sg35
g36
sg37
S'clim.hhe4570.bio05.tif'
p3742
sg39
S'clim'
p3743
sg41
g42
sg43
I4326
sg44
S'2070'
p3744
ssS'bio04'
p3745
(dp3746
g8
S'2015-03-24 17:29:21'
p3747
sg10
S'yes'
p3748
sg12
S'hhe4570.bio04'
p3749
sg14
I231
sg15
S'bio04'
p3750
sg17
S'Temperature Seasonality (standard deviation *100)'
p3751
sg19
S'45'
p3752
sg21
S'hhe4570'
p3753
sg23
S'../views/GTiff/clim.hhe4570.bio04.tif'
p3754
sg25
S'climate'
p3755
sg27
S'clim.hhe4570.bio04'
p3756
sg29
S'6608'
p3757
sg31
S'Temperature Seasonality (standard deviation *100) HE RCP45 2070'
p3758
sg33
g34
sg35
g36
sg37
S'clim.hhe4570.bio04.tif'
p3759
sg39
S'clim'
p3760
sg41
g42
sg43
I4326
sg44
S'2070'
p3761
ssS'bio03'
p3762
(dp3763
g8
S'2015-03-24 17:29:21'
p3764
sg10
S'yes'
p3765
sg12
S'hhe4570.bio03'
p3766
sg14
I73
sg15
S'bio03'
p3767
sg17
S'Isothermality (BIO2/BIO7) (* 100)'
p3768
sg19
S'45'
p3769
sg21
S'hhe4570'
p3770
sg23
S'../views/GTiff/clim.hhe4570.bio03.tif'
p3771
sg25
S'climate'
p3772
sg27
S'clim.hhe4570.bio03'
p3773
sg29
S'6609'
p3774
sg31
S'Isothermality (BIO2/BIO7) (* 100) HE RCP45 2070'
p3775
sg33
g34
sg35
g36
sg37
S'clim.hhe4570.bio03.tif'
p3776
sg39
S'clim'
p3777
sg41
g42
sg43
I4326
sg44
S'2070'
p3778
ssS'bio02'
p3779
(dp3780
g8
S'2015-03-24 17:29:21'
p3781
sg10
S'yes'
p3782
sg12
S'hhe4570.bio02'
p3783
sg14
I79
sg15
S'bio02'
p3784
sg17
S'Mean Diurnal Range (Mean of monthly (max temp - min temp))'
p3785
sg19
S'45'
p3786
sg21
S'hhe4570'
p3787
sg23
S'../views/GTiff/clim.hhe4570.bio02.tif'
p3788
sg25
S'climate'
p3789
sg27
S'clim.hhe4570.bio02'
p3790
sg29
S'6610'
p3791
sg31
S'Mean Diurnal Range (Mean of monthly (max temp - min temp)) HE RCP45 2070'
p3792
sg33
g34
sg35
g36
sg37
S'clim.hhe4570.bio02.tif'
p3793
sg39
S'clim'
p3794
sg41
g42
sg43
I4326
sg44
S'2070'
p3795
ssS'bio16'
p3796
(dp3797
g8
S'2015-03-24 17:29:21'
p3798
sg10
S'yes'
p3799
sg12
S'hhe4570.bio16'
p3800
sg14
I96
sg15
S'bio16'
p3801
sg17
S'Precipitation of Wettest Quarter'
p3802
sg19
S'45'
p3803
sg21
S'hhe4570'
p3804
sg23
S'../views/GTiff/clim.hhe4570.bio16.tif'
p3805
sg25
S'climate'
p3806
sg27
S'clim.hhe4570.bio16'
p3807
sg29
S'6602'
p3808
sg31
S'Precipitation of Wettest Quarter HE RCP45 2070'
p3809
sg33
g34
sg35
g36
sg37
S'clim.hhe4570.bio16.tif'
p3810
sg39
S'clim'
p3811
sg41
g42
sg43
I4326
sg44
S'2070'
p3812
ssS'bio17'
p3813
(dp3814
g8
S'2015-03-24 17:29:21'
p3815
sg10
S'yes'
p3816
sg12
S'hhe4570.bio17'
p3817
sg14
I6
sg15
S'bio17'
p3818
sg17
S'Precipitation of Driest Quarter'
p3819
sg19
S'45'
p3820
sg21
g3590
sg23
S'../views/GTiff/clim.hhe4570.bio17.tif'
p3821
sg25
S'climate'
p3822
sg27
S'clim.hhe4570.bio17'
p3823
sg29
S'6612'
p3824
sg31
S'Precipitation of Driest Quarter HE RCP45 2070'
p3825
sg33
g34
sg35
g36
sg37
S'clim.hhe4570.bio17.tif'
p3826
sg39
S'clim'
p3827
sg41
g42
sg43
I4326
sg44
S'2070'
p3828
ssS'bio18'
p3829
(dp3830
g8
S'2015-03-24 17:29:21'
p3831
sg10
S'no'
p3832
sg12
S'hhe4570.bio18'
p3833
sg14
I126
sg15
S'bio18'
p3834
sg17
S'Precipitation of Warmest Quarter'
p3835
sg19
S'45'
p3836
sg21
S'hhe4570'
p3837
sg23
S'../views/GTiff/clim.hhe4570.bio18.tif'
p3838
sg25
S'climate'
p3839
sg27
S'clim.hhe4570.bio18'
p3840
sg29
S'6613'
p3841
sg31
S'Precipitation of Warmest Quarter HE RCP45 2070'
p3842
sg33
g34
sg35
g36
sg37
S'clim.hhe4570.bio18.tif'
p3843
sg39
S'clim'
p3844
sg41
g42
sg43
I4326
sg44
S'2070'
p3845
ssS'bio19'
p3846
(dp3847
g8
S'2015-03-24 17:29:21'
p3848
sg10
S'yes'
p3849
sg12
S'hhe4570.bio19'
p3850
sg14
I190
sg15
S'bio19'
p3851
sg17
S'Precipitation of Coldest Quarter'
p3852
sg19
S'45'
p3853
sg21
S'hhe4570'
p3854
sg23
S'../views/GTiff/clim.hhe4570.bio19.tif'
p3855
sg25
S'climate'
p3856
sg27
S'clim.hhe4570.bio19'
p3857
sg29
S'6599'
p3858
sg31
S'Precipitation of Coldest Quarter HE RCP45 2070'
p3859
sg33
g34
sg35
g36
sg37
S'clim.hhe4570.bio19.tif'
p3860
sg39
S'clim'
p3861
sg41
g42
sg43
I4326
sg44
S'2070'
p3862
ssS'bio08'
p3863
(dp3864
g8
S'2015-03-24 17:29:21'
p3865
sg10
S'no'
p3866
sg12
S'hhe4570.bio08'
p3867
sg14
I269
sg15
S'bio08'
p3868
sg17
S'Mean Temperature of Wettest Quarter'
p3869
sg19
S'45'
p3870
sg21
S'hhe4570'
p3871
sg23
S'../views/GTiff/clim.hhe4570.bio08.tif'
p3872
sg25
S'climate'
p3873
sg27
S'clim.hhe4570.bio08'
p3874
sg29
S'6616'
p3875
sg31
S'Mean Temperature of Wettest Quarter HE RCP45 2070'
p3876
sg33
g34
sg35
g36
sg37
S'clim.hhe4570.bio08.tif'
p3877
sg39
S'clim'
p3878
sg41
g42
sg43
I4326
sg44
S'2070'
p3879
ssS'bio09'
p3880
(dp3881
g8
S'2015-03-24 17:29:21'
p3882
sg10
S'yes'
p3883
sg12
S'hhe4570.bio09'
p3884
sg14
I179
sg15
S'bio09'
p3885
sg17
S'Mean Temperature of Driest Quarter'
p3886
sg19
S'45'
p3887
sg21
S'hhe4570'
p3888
sg23
S'../views/GTiff/clim.hhe4570.bio09.tif'
p3889
sg25
S'climate'
p3890
sg27
S'clim.hhe4570.bio09'
p3891
sg29
S'6615'
p3892
sg31
S'Mean Temperature of Driest Quarter HE RCP45 2070'
p3893
sg33
g34
sg35
g36
sg37
S'clim.hhe4570.bio09.tif'
p3894
sg39
S'clim'
p3895
sg41
g42
sg43
I4326
sg44
S'2070'
p3896
ssS'bio15'
p3897
(dp3898
g8
S'2015-03-24 17:29:21'
p3899
sg10
S'no'
p3900
sg12
S'hhe4570.bio15'
p3901
sg14
I169
sg15
S'bio15'
p3902
sg17
S'Precipitation Seasonality (Coefficient of Variation)'
p3903
sg19
S'45'
p3904
sg21
S'hhe4570'
p3905
sg23
S'../views/GTiff/clim.hhe4570.bio15.tif'
p3906
sg25
S'climate'
p3907
sg27
S'clim.hhe4570.bio15'
p3908
sg29
S'6603'
p3909
sg31
S'Precipitation Seasonality (Coefficient of Variation) HE RCP45 2070'
p3910
sg33
g34
sg35
g36
sg37
S'clim.hhe4570.bio15.tif'
p3911
sg39
S'clim'
p3912
sg41
g42
sg43
I4326
sg44
S'2070'
p3913
sssS'gd4550'
p3914
(dp3915
S'bio10'
p3916
(dp3917
g8
S'2015-03-24 17:29:21'
p3918
sg10
S'yes'
p3919
sg12
S'gd4550.bio10'
p3920
sg14
I276
sg15
S'bio10'
p3921
sg17
S'Mean Temperature of Warmest Quarter'
p3922
sg19
S'45'
p3923
sg21
S'gd4550'
p3924
sg23
S'../views/GTiff/clim.gd4550.bio10.tif'
p3925
sg25
S'climate'
p3926
sg27
S'clim.gd4550.bio10'
p3927
sg29
S'6188'
p3928
sg31
S'Mean Temperature of Warmest Quarter GD RCP45 2050'
p3929
sg33
g34
sg35
g36
sg37
S'clim.gd4550.bio10.tif'
p3930
sg39
S'clim'
p3931
sg41
g42
sg43
I4326
sg44
S'2050'
p3932
ssS'bio04'
p3933
(dp3934
g8
S'2015-03-24 17:29:21'
p3935
sg10
S'yes'
p3936
sg12
S'gd4550.bio04'
p3937
sg14
I339
sg15
S'bio04'
p3938
sg17
S'Temperature Seasonality (standard deviation *100)'
p3939
sg19
S'45'
p3940
sg21
S'gd4550'
p3941
sg23
S'../views/GTiff/clim.gd4550.bio04.tif'
p3942
sg25
S'climate'
p3943
sg27
S'clim.gd4550.bio04'
p3944
sg29
S'6198'
p3945
sg31
S'Temperature Seasonality (standard deviation *100) GD RCP45 2050'
p3946
sg33
g34
sg35
g36
sg37
S'clim.gd4550.bio04.tif'
p3947
sg39
S'clim'
p3948
sg41
g42
sg43
I4326
sg44
S'2050'
p3949
ssS'bio01'
p3950
(dp3951
g8
S'2015-03-24 17:29:21'
p3952
sg10
S'no'
p3953
sg12
S'gd4550.bio01'
p3954
sg14
I165
sg15
S'bio01'
p3955
sg17
S'Annual Mean Temperature'
p3956
sg19
S'45'
p3957
sg21
S'gd4550'
p3958
sg23
S'../views/GTiff/clim.gd4550.bio01.tif'
p3959
sg25
S'climate'
p3960
sg27
S'clim.gd4550.bio01'
p3961
sg29
S'6201'
p3962
sg31
S'Annual Mean Temperature GD RCP45 2050'
p3963
sg33
g34
sg35
g36
sg37
S'clim.gd4550.bio01.tif'
p3964
sg39
S'clim'
p3965
sg41
g42
sg43
I4326
sg44
S'2050'
p3966
ssS'bio11'
p3967
(dp3968
g8
S'2015-03-24 17:29:21'
p3969
sg10
S'yes'
p3970
sg12
S'gd4550.bio11'
p3971
sg14
I149
sg15
S'bio11'
p3972
sg17
S'Mean Temperature of Coldest Quarter'
p3973
sg19
S'45'
p3974
sg21
S'gd4550'
p3975
sg23
S'../views/GTiff/clim.gd4550.bio11.tif'
p3976
sg25
S'climate'
p3977
sg27
S'clim.gd4550.bio11'
p3978
sg29
S'6191'
p3979
sg31
S'Mean Temperature of Coldest Quarter GD RCP45 2050'
p3980
sg33
g34
sg35
g36
sg37
S'clim.gd4550.bio11.tif'
p3981
sg39
S'clim'
p3982
sg41
g42
sg43
I4326
sg44
S'2050'
p3983
ssS'bio12'
p3984
(dp3985
g8
S'2015-03-24 17:29:21'
p3986
sg10
S'no'
p3987
sg12
S'gd4550.bio12'
p3988
sg14
I271
sg15
S'bio12'
p3989
sg17
S'Annual Precipitation'
p3990
sg19
S'45'
p3991
sg21
S'gd4550'
p3992
sg23
S'../views/GTiff/clim.gd4550.bio12.tif'
p3993
sg25
S'climate'
p3994
sg27
S'clim.gd4550.bio12'
p3995
sg29
S'6194'
p3996
sg31
S'Annual Precipitation GD RCP45 2050'
p3997
sg33
g34
sg35
g36
sg37
S'clim.gd4550.bio12.tif'
p3998
sg39
S'clim'
p3999
sg41
g42
sg43
I4326
sg44
S'2050'
p4000
ssS'bio14'
p4001
(dp4002
g8
S'2015-03-24 17:29:21'
p4003
sg10
S'yes'
p4004
sg12
S'gd4550.bio14'
p4005
sg14
I297
sg15
S'bio14'
p4006
sg17
S'Precipitation of Driest Month'
p4007
sg19
S'45'
p4008
sg21
S'gd4550'
p4009
sg23
S'../views/GTiff/clim.gd4550.bio14.tif'
p4010
sg25
S'climate'
p4011
sg27
S'clim.gd4550.bio14'
p4012
sg29
S'6204'
p4013
sg31
S'Precipitation of Driest Month GD RCP45 2050'
p4014
sg33
g34
sg35
g36
sg37
S'clim.gd4550.bio14.tif'
p4015
sg39
S'clim'
p4016
sg41
g42
sg43
I4326
sg44
S'2050'
p4017
ssS'bio07'
p4018
(dp4019
g8
S'2015-03-24 17:29:21'
p4020
sg10
S'no'
p4021
sg12
S'gd4550.bio07'
p4022
sg14
I250
sg15
S'bio07'
p4023
sg17
S'Temperature Annual Range (BIO5-BIO6)'
p4024
sg19
S'45'
p4025
sg21
S'gd4550'
p4026
sg23
S'../views/GTiff/clim.gd4550.bio07.tif'
p4027
sg25
S'climate'
p4028
sg27
S'clim.gd4550.bio07'
p4029
sg29
S'6195'
p4030
sg31
S'Temperature Annual Range (BIO5-BIO6) GD RCP45 2050'
p4031
sg33
g34
sg35
g36
sg37
S'clim.gd4550.bio07.tif'
p4032
sg39
S'clim'
p4033
sg41
g42
sg43
I4326
sg44
S'2050'
p4034
ssS'bio06'
p4035
(dp4036
g8
S'2015-03-24 17:29:21'
p4037
sg10
S'yes'
p4038
sg12
S'gd4550.bio06'
p4039
sg14
I51
sg15
S'bio06'
p4040
sg17
S'Min Temperature of Coldest Month'
p4041
sg19
S'45'
p4042
sg21
S'gd4550'
p4043
sg23
S'../views/GTiff/clim.gd4550.bio06.tif'
p4044
sg25
S'climate'
p4045
sg27
S'clim.gd4550.bio06'
p4046
sg29
S'6196'
p4047
sg31
S'Min Temperature of Coldest Month GD RCP45 2050'
p4048
sg33
g34
sg35
g36
sg37
S'clim.gd4550.bio06.tif'
p4049
sg39
S'clim'
p4050
sg41
g42
sg43
I4326
sg44
S'2050'
p4051
ssS'bio05'
p4052
(dp4053
g8
S'2015-03-24 17:29:21'
p4054
sg10
S'yes'
p4055
sg12
S'gd4550.bio05'
p4056
sg14
I123
sg15
S'bio05'
p4057
sg17
S'Max Temperature of Warmest Month'
p4058
sg19
S'45'
p4059
sg21
S'gd4550'
p4060
sg23
S'../views/GTiff/clim.gd4550.bio05.tif'
p4061
sg25
S'climate'
p4062
sg27
S'clim.gd4550.bio05'
p4063
sg29
S'6197'
p4064
sg31
S'Max Temperature of Warmest Month GD RCP45 2050'
p4065
sg33
g34
sg35
g36
sg37
S'clim.gd4550.bio05.tif'
p4066
sg39
S'clim'
p4067
sg41
g42
sg43
I4326
sg44
S'2050'
p4068
ssS'bio13'
p4069
(dp4070
g8
S'2015-03-24 17:29:21'
p4071
sg10
S'yes'
p4072
sg12
S'gd4550.bio13'
p4073
sg14
I116
sg15
S'bio13'
p4074
sg17
S'Precipitation of Wettest Month'
p4075
sg19
S'45'
p4076
sg21
S'gd4550'
p4077
sg23
S'../views/GTiff/clim.gd4550.bio13.tif'
p4078
sg25
S'climate'
p4079
sg27
S'clim.gd4550.bio13'
p4080
sg29
S'6190'
p4081
sg31
S'Precipitation of Wettest Month GD RCP45 2050'
p4082
sg33
g34
sg35
g36
sg37
S'clim.gd4550.bio13.tif'
p4083
sg39
S'clim'
p4084
sg41
g42
sg43
I4326
sg44
S'2050'
p4085
ssS'bio03'
p4086
(dp4087
g8
S'2015-03-24 17:29:21'
p4088
sg10
S'yes'
p4089
sg12
S'gd4550.bio03'
p4090
sg14
I112
sg15
S'bio03'
p4091
sg17
S'Isothermality (BIO2/BIO7) (* 100)'
p4092
sg19
S'45'
p4093
sg21
S'gd4550'
p4094
sg23
S'../views/GTiff/clim.gd4550.bio03.tif'
p4095
sg25
S'climate'
p4096
sg27
S'clim.gd4550.bio03'
p4097
sg29
S'6199'
p4098
sg31
S'Isothermality (BIO2/BIO7) (* 100) GD RCP45 2050'
p4099
sg33
g34
sg35
g36
sg37
S'clim.gd4550.bio03.tif'
p4100
sg39
S'clim'
p4101
sg41
g42
sg43
I4326
sg44
S'2050'
p4102
ssS'bio15'
p4103
(dp4104
g8
S'2015-03-24 17:29:21'
p4105
sg10
S'no'
p4106
sg12
S'gd4550.bio15'
p4107
sg14
I94
sg15
S'bio15'
p4108
sg17
S'Precipitation Seasonality (Coefficient of Variation)'
p4109
sg19
S'45'
p4110
sg21
S'gd4550'
p4111
sg23
S'../views/GTiff/clim.gd4550.bio15.tif'
p4112
sg25
S'climate'
p4113
sg27
S'clim.gd4550.bio15'
p4114
sg29
S'6193'
p4115
sg31
S'Precipitation Seasonality (Coefficient of Variation) GD RCP45 2050'
p4116
sg33
g34
sg35
g36
sg37
S'clim.gd4550.bio15.tif'
p4117
sg39
S'clim'
p4118
sg41
g42
sg43
I4326
sg44
S'2050'
p4119
ssS'bio16'
p4120
(dp4121
g8
S'2015-03-24 17:29:21'
p4122
sg10
S'yes'
p4123
sg12
S'gd4550.bio16'
p4124
sg14
I40
sg15
S'bio16'
p4125
sg17
S'Precipitation of Wettest Quarter'
p4126
sg19
S'45'
p4127
sg21
g3914
sg23
S'../views/GTiff/clim.gd4550.bio16.tif'
p4128
sg25
S'climate'
p4129
sg27
S'clim.gd4550.bio16'
p4130
sg29
S'6192'
p4131
sg31
S'Precipitation of Wettest Quarter GD RCP45 2050'
p4132
sg33
g34
sg35
g36
sg37
S'clim.gd4550.bio16.tif'
p4133
sg39
S'clim'
p4134
sg41
g42
sg43
I4326
sg44
S'2050'
p4135
ssS'bio17'
p4136
(dp4137
g8
S'2015-03-24 17:29:21'
p4138
sg10
S'yes'
p4139
sg12
S'gd4550.bio17'
p4140
sg14
I239
sg15
S'bio17'
p4141
sg17
S'Precipitation of Driest Quarter'
p4142
sg19
S'45'
p4143
sg21
S'gd4550'
p4144
sg23
S'../views/GTiff/clim.gd4550.bio17.tif'
p4145
sg25
S'climate'
p4146
sg27
S'clim.gd4550.bio17'
p4147
sg29
S'6202'
p4148
sg31
S'Precipitation of Driest Quarter GD RCP45 2050'
p4149
sg33
g34
sg35
g36
sg37
S'clim.gd4550.bio17.tif'
p4150
sg39
S'clim'
p4151
sg41
g42
sg43
I4326
sg44
S'2050'
p4152
ssS'bio18'
p4153
(dp4154
g8
S'2015-03-24 17:29:21'
p4155
sg10
S'no'
p4156
sg12
S'gd4550.bio18'
p4157
sg14
I43
sg15
S'bio18'
p4158
sg17
S'Precipitation of Warmest Quarter'
p4159
sg19
S'45'
p4160
sg21
S'gd4550'
p4161
sg23
S'../views/GTiff/clim.gd4550.bio18.tif'
p4162
sg25
S'climate'
p4163
sg27
S'clim.gd4550.bio18'
p4164
sg29
S'6203'
p4165
sg31
S'Precipitation of Warmest Quarter GD RCP45 2050'
p4166
sg33
g34
sg35
g36
sg37
S'clim.gd4550.bio18.tif'
p4167
sg39
S'clim'
p4168
sg41
g42
sg43
I4326
sg44
S'2050'
p4169
ssS'bio19'
p4170
(dp4171
g8
S'2015-03-24 17:29:21'
p4172
sg10
S'yes'
p4173
sg12
S'gd4550.bio19'
p4174
sg14
I42
sg15
S'bio19'
p4175
sg17
S'Precipitation of Coldest Quarter'
p4176
sg19
S'45'
p4177
sg21
S'gd4550'
p4178
sg23
S'../views/GTiff/clim.gd4550.bio19.tif'
p4179
sg25
S'climate'
p4180
sg27
S'clim.gd4550.bio19'
p4181
sg29
S'6189'
p4182
sg31
S'Precipitation of Coldest Quarter GD RCP45 2050'
p4183
sg33
g34
sg35
g36
sg37
S'clim.gd4550.bio19.tif'
p4184
sg39
S'clim'
p4185
sg41
g42
sg43
I4326
sg44
S'2050'
p4186
ssS'bio02'
p4187
(dp4188
g8
S'2015-03-24 17:29:21'
p4189
sg10
S'yes'
p4190
sg12
S'gd4550.bio02'
p4191
sg14
I254
sg15
S'bio02'
p4192
sg17
S'Mean Diurnal Range (Mean of monthly (max temp - min temp))'
p4193
sg19
S'45'
p4194
sg21
S'gd4550'
p4195
sg23
S'../views/GTiff/clim.gd4550.bio02.tif'
p4196
sg25
S'climate'
p4197
sg27
S'clim.gd4550.bio02'
p4198
sg29
S'6200'
p4199
sg31
S'Mean Diurnal Range (Mean of monthly (max temp - min temp)) GD RCP45 2050'
p4200
sg33
g34
sg35
g36
sg37
S'clim.gd4550.bio02.tif'
p4201
sg39
S'clim'
p4202
sg41
g42
sg43
I4326
sg44
S'2050'
p4203
ssS'bio09'
p4204
(dp4205
g8
S'2015-03-24 17:29:21'
p4206
sg10
S'yes'
p4207
sg12
S'gd4550.bio09'
p4208
sg14
I299
sg15
S'bio09'
p4209
sg17
S'Mean Temperature of Driest Quarter'
p4210
sg19
S'45'
p4211
sg21
S'gd4550'
p4212
sg23
S'../views/GTiff/clim.gd4550.bio09.tif'
p4213
sg25
S'climate'
p4214
sg27
S'clim.gd4550.bio09'
p4215
sg29
S'6205'
p4216
sg31
S'Mean Temperature of Driest Quarter GD RCP45 2050'
p4217
sg33
g34
sg35
g36
sg37
S'clim.gd4550.bio09.tif'
p4218
sg39
S'clim'
p4219
sg41
g42
sg43
I4326
sg44
S'2050'
p4220
ssS'bio08'
p4221
(dp4222
g8
S'2015-03-24 17:29:21'
p4223
sg10
S'no'
p4224
sg12
S'gd4550.bio08'
p4225
sg14
I143
sg15
S'bio08'
p4226
sg17
S'Mean Temperature of Wettest Quarter'
p4227
sg19
S'45'
p4228
sg21
S'gd4550'
p4229
sg23
S'../views/GTiff/clim.gd4550.bio08.tif'
p4230
sg25
S'climate'
p4231
sg27
S'clim.gd4550.bio08'
p4232
sg29
S'6206'
p4233
sg31
S'Mean Temperature of Wettest Quarter GD RCP45 2050'
p4234
sg33
g34
sg35
g36
sg37
S'clim.gd4550.bio08.tif'
p4235
sg39
S'clim'
p4236
sg41
g42
sg43
I4326
sg44
S'2050'
p4237
sssS'ggs4550'
p4238
(dp4239
S'bio07'
p4240
(dp4241
g8
S'2015-03-24 17:29:21'
p4242
sg10
S'no'
p4243
sg12
S'ggs4550.bio07'
p4244
sg14
I223
sg15
S'bio07'
p4245
sg17
S'Temperature Annual Range (BIO5-BIO6)'
p4246
sg19
S'45'
p4247
sg21
S'ggs4550'
p4248
sg23
S'../views/GTiff/clim.ggs4550.bio07.tif'
p4249
sg25
S'climate'
p4250
sg27
S'clim.ggs4550.bio07'
p4251
sg29
S'6586'
p4252
sg31
S'Temperature Annual Range (BIO5-BIO6) GS RCP45 2050'
p4253
sg33
g34
sg35
g36
sg37
S'clim.ggs4550.bio07.tif'
p4254
sg39
S'clim'
p4255
sg41
g42
sg43
I4326
sg44
S'2050'
p4256
ssS'bio01'
p4257
(dp4258
g8
S'2015-03-24 17:29:21'
p4259
sg10
S'no'
p4260
sg12
S'ggs4550.bio01'
p4261
sg14
I67
sg15
S'bio01'
p4262
sg17
S'Annual Mean Temperature'
p4263
sg19
S'45'
p4264
sg21
S'ggs4550'
p4265
sg23
S'../views/GTiff/clim.ggs4550.bio01.tif'
p4266
sg25
S'climate'
p4267
sg27
S'clim.ggs4550.bio01'
p4268
sg29
S'6592'
p4269
sg31
S'Annual Mean Temperature GS RCP45 2050'
p4270
sg33
g34
sg35
g36
sg37
S'clim.ggs4550.bio01.tif'
p4271
sg39
S'clim'
p4272
sg41
g42
sg43
I4326
sg44
S'2050'
p4273
ssS'bio11'
p4274
(dp4275
g8
S'2015-03-24 17:29:21'
p4276
sg10
S'yes'
p4277
sg12
S'ggs4550.bio11'
p4278
sg14
I213
sg15
S'bio11'
p4279
sg17
S'Mean Temperature of Coldest Quarter'
p4280
sg19
S'45'
p4281
sg21
S'ggs4550'
p4282
sg23
S'../views/GTiff/clim.ggs4550.bio11.tif'
p4283
sg25
S'climate'
p4284
sg27
S'clim.ggs4550.bio11'
p4285
sg29
S'6582'
p4286
sg31
S'Mean Temperature of Coldest Quarter GS RCP45 2050'
p4287
sg33
g34
sg35
g36
sg37
S'clim.ggs4550.bio11.tif'
p4288
sg39
S'clim'
p4289
sg41
g42
sg43
I4326
sg44
S'2050'
p4290
ssS'bio09'
p4291
(dp4292
g8
S'2015-03-24 17:29:21'
p4293
sg10
S'yes'
p4294
sg12
S'ggs4550.bio09'
p4295
sg14
I336
sg15
S'bio09'
p4296
sg17
S'Mean Temperature of Driest Quarter'
p4297
sg19
S'45'
p4298
sg21
S'ggs4550'
p4299
sg23
S'../views/GTiff/clim.ggs4550.bio09.tif'
p4300
sg25
S'climate'
p4301
sg27
S'clim.ggs4550.bio09'
p4302
sg29
S'6596'
p4303
sg31
S'Mean Temperature of Driest Quarter GS RCP45 2050'
p4304
sg33
g34
sg35
g36
sg37
S'clim.ggs4550.bio09.tif'
p4305
sg39
S'clim'
p4306
sg41
g42
sg43
I4326
sg44
S'2050'
p4307
ssS'bio05'
p4308
(dp4309
g8
S'2015-03-24 17:29:21'
p4310
sg10
S'yes'
p4311
sg12
S'ggs4550.bio05'
p4312
sg14
I240
sg15
S'bio05'
p4313
sg17
S'Max Temperature of Warmest Month'
p4314
sg19
S'45'
p4315
sg21
S'ggs4550'
p4316
sg23
S'../views/GTiff/clim.ggs4550.bio05.tif'
p4317
sg25
S'climate'
p4318
sg27
S'clim.ggs4550.bio05'
p4319
sg29
S'6588'
p4320
sg31
S'Max Temperature of Warmest Month GS RCP45 2050'
p4321
sg33
g34
sg35
g36
sg37
S'clim.ggs4550.bio05.tif'
p4322
sg39
S'clim'
p4323
sg41
g42
sg43
I4326
sg44
S'2050'
p4324
ssS'bio14'
p4325
(dp4326
g8
S'2015-03-24 17:29:21'
p4327
sg10
S'yes'
p4328
sg12
S'ggs4550.bio14'
p4329
sg14
I317
sg15
S'bio14'
p4330
sg17
S'Precipitation of Driest Month'
p4331
sg19
S'45'
p4332
sg21
S'ggs4550'
p4333
sg23
S'../views/GTiff/clim.ggs4550.bio14.tif'
p4334
sg25
S'climate'
p4335
sg27
S'clim.ggs4550.bio14'
p4336
sg29
S'6595'
p4337
sg31
S'Precipitation of Driest Month GS RCP45 2050'
p4338
sg33
g34
sg35
g36
sg37
S'clim.ggs4550.bio14.tif'
p4339
sg39
S'clim'
p4340
sg41
g42
sg43
I4326
sg44
S'2050'
p4341
ssS'bio10'
p4342
(dp4343
g8
S'2015-03-24 17:29:21'
p4344
sg10
S'yes'
p4345
sg12
S'ggs4550.bio10'
p4346
sg14
I180
sg15
S'bio10'
p4347
sg17
S'Mean Temperature of Warmest Quarter'
p4348
sg19
S'45'
p4349
sg21
S'ggs4550'
p4350
sg23
S'../views/GTiff/clim.ggs4550.bio10.tif'
p4351
sg25
S'climate'
p4352
sg27
S'clim.ggs4550.bio10'
p4353
sg29
S'6579'
p4354
sg31
S'Mean Temperature of Warmest Quarter GS RCP45 2050'
p4355
sg33
g34
sg35
g36
sg37
S'clim.ggs4550.bio10.tif'
p4356
sg39
S'clim'
p4357
sg41
g42
sg43
I4326
sg44
S'2050'
p4358
ssS'bio06'
p4359
(dp4360
g8
S'2015-03-24 17:29:21'
p4361
sg10
S'yes'
p4362
sg12
S'ggs4550.bio06'
p4363
sg14
I146
sg15
S'bio06'
p4364
sg17
S'Min Temperature of Coldest Month'
p4365
sg19
S'45'
p4366
sg21
S'ggs4550'
p4367
sg23
S'../views/GTiff/clim.ggs4550.bio06.tif'
p4368
sg25
S'climate'
p4369
sg27
S'clim.ggs4550.bio06'
p4370
sg29
S'6587'
p4371
sg31
S'Min Temperature of Coldest Month GS RCP45 2050'
p4372
sg33
g34
sg35
g36
sg37
S'clim.ggs4550.bio06.tif'
p4373
sg39
S'clim'
p4374
sg41
g42
sg43
I4326
sg44
S'2050'
p4375
ssS'bio12'
p4376
(dp4377
g8
S'2015-03-24 17:29:21'
p4378
sg10
S'no'
p4379
sg12
S'ggs4550.bio12'
p4380
sg14
I233
sg15
S'bio12'
p4381
sg17
S'Annual Precipitation'
p4382
sg19
S'45'
p4383
sg21
S'ggs4550'
p4384
sg23
S'../views/GTiff/clim.ggs4550.bio12.tif'
p4385
sg25
S'climate'
p4386
sg27
S'clim.ggs4550.bio12'
p4387
sg29
S'6585'
p4388
sg31
S'Annual Precipitation GS RCP45 2050'
p4389
sg33
g34
sg35
g36
sg37
S'clim.ggs4550.bio12.tif'
p4390
sg39
S'clim'
p4391
sg41
g42
sg43
I4326
sg44
S'2050'
p4392
ssS'bio13'
p4393
(dp4394
g8
S'2015-03-24 17:29:21'
p4395
sg10
S'yes'
p4396
sg12
S'ggs4550.bio13'
p4397
sg14
I136
sg15
S'bio13'
p4398
sg17
S'Precipitation of Wettest Month'
p4399
sg19
S'45'
p4400
sg21
S'ggs4550'
p4401
sg23
S'../views/GTiff/clim.ggs4550.bio13.tif'
p4402
sg25
S'climate'
p4403
sg27
S'clim.ggs4550.bio13'
p4404
sg29
S'6581'
p4405
sg31
S'Precipitation of Wettest Month GS RCP45 2050'
p4406
sg33
g34
sg35
g36
sg37
S'clim.ggs4550.bio13.tif'
p4407
sg39
S'clim'
p4408
sg41
g42
sg43
I4326
sg44
S'2050'
p4409
ssS'bio03'
p4410
(dp4411
g8
S'2015-03-24 17:29:21'
p4412
sg10
S'yes'
p4413
sg12
S'ggs4550.bio03'
p4414
sg14
I58
sg15
S'bio03'
p4415
sg17
S'Isothermality (BIO2/BIO7) (* 100)'
p4416
sg19
S'45'
p4417
sg21
S'ggs4550'
p4418
sg23
S'../views/GTiff/clim.ggs4550.bio03.tif'
p4419
sg25
S'climate'
p4420
sg27
S'clim.ggs4550.bio03'
p4421
sg29
S'6590'
p4422
sg31
S'Isothermality (BIO2/BIO7) (* 100) GS RCP45 2050'
p4423
sg33
g34
sg35
g36
sg37
S'clim.ggs4550.bio03.tif'
p4424
sg39
S'clim'
p4425
sg41
g42
sg43
I4326
sg44
S'2050'
p4426
ssS'bio02'
p4427
(dp4428
g8
S'2015-03-24 17:29:21'
p4429
sg10
S'yes'
p4430
sg12
S'ggs4550.bio02'
p4431
sg14
I141
sg15
S'bio02'
p4432
sg17
S'Mean Diurnal Range (Mean of monthly (max temp - min temp))'
p4433
sg19
S'45'
p4434
sg21
S'ggs4550'
p4435
sg23
S'../views/GTiff/clim.ggs4550.bio02.tif'
p4436
sg25
S'climate'
p4437
sg27
S'clim.ggs4550.bio02'
p4438
sg29
S'6591'
p4439
sg31
S'Mean Diurnal Range (Mean of monthly (max temp - min temp)) GS RCP45 2050'
p4440
sg33
g34
sg35
g36
sg37
S'clim.ggs4550.bio02.tif'
p4441
sg39
S'clim'
p4442
sg41
g42
sg43
I4326
sg44
S'2050'
p4443
ssS'bio16'
p4444
(dp4445
g8
S'2015-03-24 17:29:21'
p4446
sg10
S'yes'
p4447
sg12
S'ggs4550.bio16'
p4448
sg14
I93
sg15
S'bio16'
p4449
sg17
S'Precipitation of Wettest Quarter'
p4450
sg19
S'45'
p4451
sg21
S'ggs4550'
p4452
sg23
S'../views/GTiff/clim.ggs4550.bio16.tif'
p4453
sg25
S'climate'
p4454
sg27
S'clim.ggs4550.bio16'
p4455
sg29
S'6583'
p4456
sg31
S'Precipitation of Wettest Quarter GS RCP45 2050'
p4457
sg33
g34
sg35
g36
sg37
S'clim.ggs4550.bio16.tif'
p4458
sg39
S'clim'
p4459
sg41
g42
sg43
I4326
sg44
S'2050'
p4460
ssS'bio17'
p4461
(dp4462
g8
S'2015-03-24 17:29:21'
p4463
sg10
S'yes'
p4464
sg12
S'ggs4550.bio17'
p4465
sg14
I266
sg15
S'bio17'
p4466
sg17
S'Precipitation of Driest Quarter'
p4467
sg19
S'45'
p4468
sg21
S'ggs4550'
p4469
sg23
S'../views/GTiff/clim.ggs4550.bio17.tif'
p4470
sg25
S'climate'
p4471
sg27
S'clim.ggs4550.bio17'
p4472
sg29
S'6593'
p4473
sg31
S'Precipitation of Driest Quarter GS RCP45 2050'
p4474
sg33
g34
sg35
g36
sg37
S'clim.ggs4550.bio17.tif'
p4475
sg39
S'clim'
p4476
sg41
g42
sg43
I4326
sg44
S'2050'
p4477
ssS'bio18'
p4478
(dp4479
g8
S'2015-03-24 17:29:21'
p4480
sg10
S'no'
p4481
sg12
S'ggs4550.bio18'
p4482
sg14
I156
sg15
S'bio18'
p4483
sg17
S'Precipitation of Warmest Quarter'
p4484
sg19
S'45'
p4485
sg21
S'ggs4550'
p4486
sg23
S'../views/GTiff/clim.ggs4550.bio18.tif'
p4487
sg25
S'climate'
p4488
sg27
S'clim.ggs4550.bio18'
p4489
sg29
S'6594'
p4490
sg31
S'Precipitation of Warmest Quarter GS RCP45 2050'
p4491
sg33
g34
sg35
g36
sg37
S'clim.ggs4550.bio18.tif'
p4492
sg39
S'clim'
p4493
sg41
g42
sg43
I4326
sg44
S'2050'
p4494
ssS'bio19'
p4495
(dp4496
g8
S'2015-03-24 17:29:21'
p4497
sg10
S'yes'
p4498
sg12
S'ggs4550.bio19'
p4499
sg14
I2
sg15
S'bio19'
p4500
sg17
S'Precipitation of Coldest Quarter'
p4501
sg19
S'45'
p4502
sg21
g4238
sg23
S'../views/GTiff/clim.ggs4550.bio19.tif'
p4503
sg25
S'climate'
p4504
sg27
S'clim.ggs4550.bio19'
p4505
sg29
S'6580'
p4506
sg31
S'Precipitation of Coldest Quarter GS RCP45 2050'
p4507
sg33
g34
sg35
g36
sg37
S'clim.ggs4550.bio19.tif'
p4508
sg39
S'clim'
p4509
sg41
g42
sg43
I4326
sg44
S'2050'
p4510
ssS'bio08'
p4511
(dp4512
g8
S'2015-03-24 17:29:21'
p4513
sg10
S'no'
p4514
sg12
S'ggs4550.bio08'
p4515
sg14
I326
sg15
S'bio08'
p4516
sg17
S'Mean Temperature of Wettest Quarter'
p4517
sg19
S'45'
p4518
sg21
S'ggs4550'
p4519
sg23
S'../views/GTiff/clim.ggs4550.bio08.tif'
p4520
sg25
S'climate'
p4521
sg27
S'clim.ggs4550.bio08'
p4522
sg29
S'6597'
p4523
sg31
S'Mean Temperature of Wettest Quarter GS RCP45 2050'
p4524
sg33
g34
sg35
g36
sg37
S'clim.ggs4550.bio08.tif'
p4525
sg39
S'clim'
p4526
sg41
g42
sg43
I4326
sg44
S'2050'
p4527
ssS'bio04'
p4528
(dp4529
g8
S'2015-03-24 17:29:21'
p4530
sg10
S'yes'
p4531
sg12
S'ggs4550.bio04'
p4532
sg14
I9
sg15
S'bio04'
p4533
sg17
S'Temperature Seasonality (standard deviation *100)'
p4534
sg19
S'45'
p4535
sg21
S'ggs4550'
p4536
sg23
S'../views/GTiff/clim.ggs4550.bio04.tif'
p4537
sg25
S'climate'
p4538
sg27
S'clim.ggs4550.bio04'
p4539
sg29
S'6589'
p4540
sg31
S'Temperature Seasonality (standard deviation *100) GS RCP45 2050'
p4541
sg33
g34
sg35
g36
sg37
S'clim.ggs4550.bio04.tif'
p4542
sg39
S'clim'
p4543
sg41
g42
sg43
I4326
sg44
S'2050'
p4544
ssS'bio15'
p4545
(dp4546
g8
S'2015-03-24 17:29:21'
p4547
sg10
S'no'
p4548
sg12
S'ggs4550.bio15'
p4549
sg14
I226
sg15
S'bio15'
p4550
sg17
S'Precipitation Seasonality (Coefficient of Variation)'
p4551
sg19
S'45'
p4552
sg21
S'ggs4550'
p4553
sg23
S'../views/GTiff/clim.ggs4550.bio15.tif'
p4554
sg25
S'climate'
p4555
sg27
S'clim.ggs4550.bio15'
p4556
sg29
S'6584'
p4557
sg31
S'Precipitation Seasonality (Coefficient of Variation) GS RCP45 2050'
p4558
sg33
g34
sg35
g36
sg37
S'clim.ggs4550.bio15.tif'
p4559
sg39
S'clim'
p4560
sg41
g42
sg43
I4326
sg44
S'2050'
p4561
sssS'ac4550'
p4562
(dp4563
S'bio07'
p4564
(dp4565
g8
S'2015-03-24 17:29:21'
p4566
sg10
S'no'
p4567
sg12
S'ac4550.bio07'
p4568
sg14
I333
sg15
S'bio07'
p4569
sg17
S'Temperature Annual Range (BIO5-BIO6)'
p4570
sg19
S'45'
p4571
sg21
S'ac4550'
p4572
sg23
S'../views/GTiff/clim.ac4550.bio07.tif'
p4573
sg25
S'climate'
p4574
sg27
S'clim.ac4550.bio07'
p4575
sg29
S'6333'
p4576
sg31
S'Temperature Annual Range (BIO5-BIO6) AC RCP45 2050'
p4577
sg33
g34
sg35
g36
sg37
S'clim.ac4550.bio07.tif'
p4578
sg39
S'clim'
p4579
sg41
g42
sg43
I4326
sg44
S'2050'
p4580
ssS'bio16'
p4581
(dp4582
g8
S'2015-03-24 17:29:21'
p4583
sg10
S'yes'
p4584
sg12
S'ac4550.bio16'
p4585
sg14
I227
sg15
S'bio16'
p4586
sg17
S'Precipitation of Wettest Quarter'
p4587
sg19
S'45'
p4588
sg21
S'ac4550'
p4589
sg23
S'../views/GTiff/clim.ac4550.bio16.tif'
p4590
sg25
S'climate'
p4591
sg27
S'clim.ac4550.bio16'
p4592
sg29
S'6330'
p4593
sg31
S'Precipitation of Wettest Quarter AC RCP45 2050'
p4594
sg33
g34
sg35
g36
sg37
S'clim.ac4550.bio16.tif'
p4595
sg39
S'clim'
p4596
sg41
g42
sg43
I4326
sg44
S'2050'
p4597
ssS'bio11'
p4598
(dp4599
g8
S'2015-03-24 17:29:21'
p4600
sg10
S'yes'
p4601
sg12
S'ac4550.bio11'
p4602
sg14
I330
sg15
S'bio11'
p4603
sg17
S'Mean Temperature of Coldest Quarter'
p4604
sg19
S'45'
p4605
sg21
S'ac4550'
p4606
sg23
S'../views/GTiff/clim.ac4550.bio11.tif'
p4607
sg25
S'climate'
p4608
sg27
S'clim.ac4550.bio11'
p4609
sg29
S'6329'
p4610
sg31
S'Mean Temperature of Coldest Quarter AC RCP45 2050'
p4611
sg33
g34
sg35
g36
sg37
S'clim.ac4550.bio11.tif'
p4612
sg39
S'clim'
p4613
sg41
g42
sg43
I4326
sg44
S'2050'
p4614
ssS'bio17'
p4615
(dp4616
g8
S'2015-03-24 17:29:21'
p4617
sg10
S'yes'
p4618
sg12
S'ac4550.bio17'
p4619
sg14
I337
sg15
S'bio17'
p4620
sg17
S'Precipitation of Driest Quarter'
p4621
sg19
S'45'
p4622
sg21
S'ac4550'
p4623
sg23
S'../views/GTiff/clim.ac4550.bio17.tif'
p4624
sg25
S'climate'
p4625
sg27
S'clim.ac4550.bio17'
p4626
sg29
S'6340'
p4627
sg31
S'Precipitation of Driest Quarter AC RCP45 2050'
p4628
sg33
g34
sg35
g36
sg37
S'clim.ac4550.bio17.tif'
p4629
sg39
S'clim'
p4630
sg41
g42
sg43
I4326
sg44
S'2050'
p4631
ssS'bio05'
p4632
(dp4633
g8
S'2015-03-24 17:29:21'
p4634
sg10
S'yes'
p4635
sg12
S'ac4550.bio05'
p4636
sg14
I277
sg15
S'bio05'
p4637
sg17
S'Max Temperature of Warmest Month'
p4638
sg19
S'45'
p4639
sg21
S'ac4550'
p4640
sg23
S'../views/GTiff/clim.ac4550.bio05.tif'
p4641
sg25
S'climate'
p4642
sg27
S'clim.ac4550.bio05'
p4643
sg29
S'6335'
p4644
sg31
S'Max Temperature of Warmest Month AC RCP45 2050'
p4645
sg33
g34
sg35
g36
sg37
S'clim.ac4550.bio05.tif'
p4646
sg39
S'clim'
p4647
sg41
g42
sg43
I4326
sg44
S'2050'
p4648
ssS'bio10'
p4649
(dp4650
g8
S'2015-03-24 17:29:21'
p4651
sg10
S'yes'
p4652
sg12
S'ac4550.bio10'
p4653
sg14
I216
sg15
S'bio10'
p4654
sg17
S'Mean Temperature of Warmest Quarter'
p4655
sg19
S'45'
p4656
sg21
S'ac4550'
p4657
sg23
S'../views/GTiff/clim.ac4550.bio10.tif'
p4658
sg25
S'climate'
p4659
sg27
S'clim.ac4550.bio10'
p4660
sg29
S'6326'
p4661
sg31
S'Mean Temperature of Warmest Quarter AC RCP45 2050'
p4662
sg33
g34
sg35
g36
sg37
S'clim.ac4550.bio10.tif'
p4663
sg39
S'clim'
p4664
sg41
g42
sg43
I4326
sg44
S'2050'
p4665
ssS'bio06'
p4666
(dp4667
g8
S'2015-03-24 17:29:21'
p4668
sg10
S'yes'
p4669
sg12
S'ac4550.bio06'
p4670
sg14
I248
sg15
S'bio06'
p4671
sg17
S'Min Temperature of Coldest Month'
p4672
sg19
S'45'
p4673
sg21
S'ac4550'
p4674
sg23
S'../views/GTiff/clim.ac4550.bio06.tif'
p4675
sg25
S'climate'
p4676
sg27
S'clim.ac4550.bio06'
p4677
sg29
S'6334'
p4678
sg31
S'Min Temperature of Coldest Month AC RCP45 2050'
p4679
sg33
g34
sg35
g36
sg37
S'clim.ac4550.bio06.tif'
p4680
sg39
S'clim'
p4681
sg41
g42
sg43
I4326
sg44
S'2050'
p4682
ssS'bio12'
p4683
(dp4684
g8
S'2015-03-24 17:29:21'
p4685
sg10
S'no'
p4686
sg12
S'ac4550.bio12'
p4687
sg14
I106
sg15
S'bio12'
p4688
sg17
S'Annual Precipitation'
p4689
sg19
S'45'
p4690
sg21
S'ac4550'
p4691
sg23
S'../views/GTiff/clim.ac4550.bio12.tif'
p4692
sg25
S'climate'
p4693
sg27
S'clim.ac4550.bio12'
p4694
sg29
S'6332'
p4695
sg31
S'Annual Precipitation AC RCP45 2050'
p4696
sg33
g34
sg35
g36
sg37
S'clim.ac4550.bio12.tif'
p4697
sg39
S'clim'
p4698
sg41
g42
sg43
I4326
sg44
S'2050'
p4699
ssS'bio13'
p4700
(dp4701
g8
S'2015-03-24 17:29:21'
p4702
sg10
S'yes'
p4703
sg12
S'ac4550.bio13'
p4704
sg14
I154
sg15
S'bio13'
p4705
sg17
S'Precipitation of Wettest Month'
p4706
sg19
S'45'
p4707
sg21
S'ac4550'
p4708
sg23
S'../views/GTiff/clim.ac4550.bio13.tif'
p4709
sg25
S'climate'
p4710
sg27
S'clim.ac4550.bio13'
p4711
sg29
S'6328'
p4712
sg31
S'Precipitation of Wettest Month AC RCP45 2050'
p4713
sg33
g34
sg35
g36
sg37
S'clim.ac4550.bio13.tif'
p4714
sg39
S'clim'
p4715
sg41
g42
sg43
I4326
sg44
S'2050'
p4716
ssS'bio03'
p4717
(dp4718
g8
S'2015-03-24 17:29:21'
p4719
sg10
S'yes'
p4720
sg12
S'ac4550.bio03'
p4721
sg14
I47
sg15
S'bio03'
p4722
sg17
S'Isothermality (BIO2/BIO7) (* 100)'
p4723
sg19
S'45'
p4724
sg21
S'ac4550'
p4725
sg23
S'../views/GTiff/clim.ac4550.bio03.tif'
p4726
sg25
S'climate'
p4727
sg27
S'clim.ac4550.bio03'
p4728
sg29
S'6337'
p4729
sg31
S'Isothermality (BIO2/BIO7) (* 100) AC RCP45 2050'
p4730
sg33
g34
sg35
g36
sg37
S'clim.ac4550.bio03.tif'
p4731
sg39
S'clim'
p4732
sg41
g42
sg43
I4326
sg44
S'2050'
p4733
ssS'bio15'
p4734
(dp4735
g8
S'2015-03-24 17:29:21'
p4736
sg10
S'no'
p4737
sg12
S'ac4550.bio15'
p4738
sg14
I83
sg15
S'bio15'
p4739
sg17
S'Precipitation Seasonality (Coefficient of Variation)'
p4740
sg19
S'45'
p4741
sg21
S'ac4550'
p4742
sg23
S'../views/GTiff/clim.ac4550.bio15.tif'
p4743
sg25
S'climate'
p4744
sg27
S'clim.ac4550.bio15'
p4745
sg29
S'6331'
p4746
sg31
S'Precipitation Seasonality (Coefficient of Variation) AC RCP45 2050'
p4747
sg33
g34
sg35
g36
sg37
S'clim.ac4550.bio15.tif'
p4748
sg39
S'clim'
p4749
sg41
g42
sg43
I4326
sg44
S'2050'
p4750
ssS'bio01'
p4751
(dp4752
g8
S'2015-03-24 17:29:21'
p4753
sg10
S'no'
p4754
sg12
S'ac4550.bio01'
p4755
sg14
I12
sg15
S'bio01'
p4756
sg17
S'Annual Mean Temperature'
p4757
sg19
S'45'
p4758
sg21
g4562
sg23
S'../views/GTiff/clim.ac4550.bio01.tif'
p4759
sg25
S'climate'
p4760
sg27
S'clim.ac4550.bio01'
p4761
sg29
S'6339'
p4762
sg31
S'Annual Mean Temperature AC RCP45 2050'
p4763
sg33
g34
sg35
g36
sg37
S'clim.ac4550.bio01.tif'
p4764
sg39
S'clim'
p4765
sg41
g42
sg43
I4326
sg44
S'2050'
p4766
ssS'bio19'
p4767
(dp4768
g8
S'2015-03-24 17:29:21'
p4769
sg10
S'yes'
p4770
sg12
S'ac4550.bio19'
p4771
sg14
I318
sg15
S'bio19'
p4772
sg17
S'Precipitation of Coldest Quarter'
p4773
sg19
S'45'
p4774
sg21
S'ac4550'
p4775
sg23
S'../views/GTiff/clim.ac4550.bio19.tif'
p4776
sg25
S'climate'
p4777
sg27
S'clim.ac4550.bio19'
p4778
sg29
S'6327'
p4779
sg31
S'Precipitation of Coldest Quarter AC RCP45 2050'
p4780
sg33
g34
sg35
g36
sg37
S'clim.ac4550.bio19.tif'
p4781
sg39
S'clim'
p4782
sg41
g42
sg43
I4326
sg44
S'2050'
p4783
ssS'bio18'
p4784
(dp4785
g8
S'2015-03-24 17:29:21'
p4786
sg10
S'no'
p4787
sg12
S'ac4550.bio18'
p4788
sg14
I159
sg15
S'bio18'
p4789
sg17
S'Precipitation of Warmest Quarter'
p4790
sg19
S'45'
p4791
sg21
S'ac4550'
p4792
sg23
S'../views/GTiff/clim.ac4550.bio18.tif'
p4793
sg25
S'climate'
p4794
sg27
S'clim.ac4550.bio18'
p4795
sg29
S'6341'
p4796
sg31
S'Precipitation of Warmest Quarter AC RCP45 2050'
p4797
sg33
g34
sg35
g36
sg37
S'clim.ac4550.bio18.tif'
p4798
sg39
S'clim'
p4799
sg41
g42
sg43
I4326
sg44
S'2050'
p4800
ssS'bio14'
p4801
(dp4802
g8
S'2015-03-24 17:29:21'
p4803
sg10
S'yes'
p4804
sg12
S'ac4550.bio14'
p4805
sg14
I166
sg15
S'bio14'
p4806
sg17
S'Precipitation of Driest Month'
p4807
sg19
S'45'
p4808
sg21
S'ac4550'
p4809
sg23
S'../views/GTiff/clim.ac4550.bio14.tif'
p4810
sg25
S'climate'
p4811
sg27
S'clim.ac4550.bio14'
p4812
sg29
S'6342'
p4813
sg31
S'Precipitation of Driest Month AC RCP45 2050'
p4814
sg33
g34
sg35
g36
sg37
S'clim.ac4550.bio14.tif'
p4815
sg39
S'clim'
p4816
sg41
g42
sg43
I4326
sg44
S'2050'
p4817
ssS'bio04'
p4818
(dp4819
g8
S'2015-03-24 17:29:21'
p4820
sg10
S'yes'
p4821
sg12
S'ac4550.bio04'
p4822
sg14
I325
sg15
S'bio04'
p4823
sg17
S'Temperature Seasonality (standard deviation *100)'
p4824
sg19
S'45'
p4825
sg21
S'ac4550'
p4826
sg23
S'../views/GTiff/clim.ac4550.bio04.tif'
p4827
sg25
S'climate'
p4828
sg27
S'clim.ac4550.bio04'
p4829
sg29
S'6336'
p4830
sg31
S'Temperature Seasonality (standard deviation *100) AC RCP45 2050'
p4831
sg33
g34
sg35
g36
sg37
S'clim.ac4550.bio04.tif'
p4832
sg39
S'clim'
p4833
sg41
g42
sg43
I4326
sg44
S'2050'
p4834
ssS'bio08'
p4835
(dp4836
g8
S'2015-03-24 17:29:21'
p4837
sg10
S'no'
p4838
sg12
S'ac4550.bio08'
p4839
sg14
I293
sg15
S'bio08'
p4840
sg17
S'Mean Temperature of Wettest Quarter'
p4841
sg19
S'45'
p4842
sg21
S'ac4550'
p4843
sg23
S'../views/GTiff/clim.ac4550.bio08.tif'
p4844
sg25
S'climate'
p4845
sg27
S'clim.ac4550.bio08'
p4846
sg29
S'6344'
p4847
sg31
S'Mean Temperature of Wettest Quarter AC RCP45 2050'
p4848
sg33
g34
sg35
g36
sg37
S'clim.ac4550.bio08.tif'
p4849
sg39
S'clim'
p4850
sg41
g42
sg43
I4326
sg44
S'2050'
p4851
ssS'bio09'
p4852
(dp4853
g8
S'2015-03-24 17:29:21'
p4854
sg10
S'yes'
p4855
sg12
S'ac4550.bio09'
p4856
sg14
I181
sg15
S'bio09'
p4857
sg17
S'Mean Temperature of Driest Quarter'
p4858
sg19
S'45'
p4859
sg21
S'ac4550'
p4860
sg23
S'../views/GTiff/clim.ac4550.bio09.tif'
p4861
sg25
S'climate'
p4862
sg27
S'clim.ac4550.bio09'
p4863
sg29
S'6343'
p4864
sg31
S'Mean Temperature of Driest Quarter AC RCP45 2050'
p4865
sg33
g34
sg35
g36
sg37
S'clim.ac4550.bio09.tif'
p4866
sg39
S'clim'
p4867
sg41
g42
sg43
I4326
sg44
S'2050'
p4868
ssS'bio02'
p4869
(dp4870
g8
S'2015-03-24 17:29:21'
p4871
sg10
S'yes'
p4872
sg12
S'ac4550.bio02'
p4873
sg14
I263
sg15
S'bio02'
p4874
sg17
S'Mean Diurnal Range (Mean of monthly (max temp - min temp))'
p4875
sg19
S'45'
p4876
sg21
S'ac4550'
p4877
sg23
S'../views/GTiff/clim.ac4550.bio02.tif'
p4878
sg25
S'climate'
p4879
sg27
S'clim.ac4550.bio02'
p4880
sg29
S'6338'
p4881
sg31
S'Mean Diurnal Range (Mean of monthly (max temp - min temp)) AC RCP45 2050'
p4882
sg33
g34
sg35
g36
sg37
S'clim.ac4550.bio02.tif'
p4883
sg39
S'clim'
p4884
sg41
g42
sg43
I4326
sg44
S'2050'
p4885
ssssS'agclim'
p4886
(dp4887
S'he8550'
p4888
(dp4889
S'bio06'
p4890
(dp4891
g8
S'2015-03-24 17:29:21'
p4892
sg10
S'no'
p4893
sg12
S'he8550.bio06'
p4894
sg14
I267
sg15
S'bio06'
p4895
sg17
S'Min Temperature of Coldest Month'
p4896
sg19
S'85'
p4897
sg21
S'he8550'
p4898
sg23
S'../views/GTiff/agclim.he8550.bio06.tif'
p4899
sg25
S'agclimate'
p4900
sg27
S'agclim.he8550.bio06'
p4901
sg29
S'6498'
p4902
sg31
S'Min Temperature of Coldest Month'
p4903
sg33
g34
sg35
g36
sg37
S'agclim.he8550.bio06.tif'
p4904
sg39
S'agclim'
p4905
sg41
g42
sg43
I4326
sg44
S'2050'
p4906
ssS'bio12'
p4907
(dp4908
g8
S'2015-03-24 17:29:21'
p4909
sg10
S'no'
p4910
sg12
S'he8550.bio12'
p4911
sg14
I16
sg15
S'bio12'
p4912
sg17
S'Annual Precipitation'
p4913
sg19
S'85'
p4914
sg21
g4888
sg23
S'../views/GTiff/agclim.he8550.bio12.tif'
p4915
sg25
S'agclimate'
p4916
sg27
S'agclim.he8550.bio12'
p4917
sg29
S'6499'
p4918
sg31
S'Annual Precipitation'
p4919
sg33
g34
sg35
g36
sg37
S'agclim.he8550.bio12.tif'
p4920
sg39
S'agclim'
p4921
sg41
g42
sg43
I4326
sg44
S'2050'
p4922
ssS'gdd5'
p4923
(dp4924
g8
S'2015-03-24 17:29:21'
p4925
sg10
S'no'
p4926
sg12
S'he8550.gdd5'
p4927
sg14
I185
sg15
S'gdd5'
p4928
sg17
S'Growing Degree Days 5C Baseline'
p4929
sg19
S'85'
p4930
sg21
S'he8550'
p4931
sg23
S'../views/GTiff/agclim.he8550.gdd5.tif'
p4932
sg25
S'agclimate'
p4933
sg27
S'agclim.he8550.gdd5'
p4934
sg29
S'6500'
p4935
sg31
S'Growing Degree Days 5C Baseline'
p4936
sg33
g34
sg35
g36
sg37
S'agclim.he8550.gdd5.tif'
p4937
sg39
S'agclim'
p4938
sg41
g42
sg43
I4326
sg44
S'2050'
p4939
ssS'aridity'
p4940
(dp4941
g8
S'2015-03-24 17:29:21'
p4942
sg10
S'no'
p4943
sg12
S'he8550.aridity'
p4944
sg14
I203
sg15
S'aridity'
p4945
sg17
S'CRU Metric of Mean Annual Aridity'
p4946
sg19
S'85'
p4947
sg21
S'he8550'
p4948
sg23
S'../views/GTiff/agclim.he8550.aridity.tif'
p4949
sg25
S'agclimate'
p4950
sg27
S'agclim.he8550.aridity'
p4951
sg29
S'6501'
p4952
sg31
S'CRU Metric of Mean Annual Aridity'
p4953
sg33
g34
sg35
g36
sg37
S'agclim.he8550.aridity.tif'
p4954
sg39
S'agclim'
p4955
sg41
g42
sg43
I4326
sg44
S'2050'
p4956
ssS'petmn'
p4957
(dp4958
g8
S'2015-03-24 17:29:21'
p4959
sg10
S'no'
p4960
sg12
S'he8550.petmn'
p4961
sg14
I306
sg15
S'petmn'
p4962
sg17
S'CRU Mean Annual Evapotranspiration'
p4963
sg19
S'85'
p4964
sg21
S'he8550'
p4965
sg23
S'../views/GTiff/agclim.he8550.petmn.tif'
p4966
sg25
S'agclimate'
p4967
sg27
S'agclim.he8550.petmn'
p4968
sg29
S'6502'
p4969
sg31
S'CRU Mean Annual Evapotranspiration'
p4970
sg33
g34
sg35
g36
sg37
S'agclim.he8550.petmn.tif'
p4971
sg39
S'agclim'
p4972
sg41
g42
sg43
I4326
sg44
S'2050'
p4973
sssS'he2670'
p4974
(dp4975
S'bio06'
p4976
(dp4977
g8
S'2015-03-24 17:29:21'
p4978
sg10
S'no'
p4979
sg12
S'he2670.bio06'
p4980
sg14
I33
sg15
S'bio06'
p4981
sg17
S'Min Temperature of Coldest Month'
p4982
sg19
S'26'
p4983
sg21
g4974
sg23
S'../views/GTiff/agclim.he2670.bio06.tif'
p4984
sg25
S'agclimate'
p4985
sg27
S'agclim.he2670.bio06'
p4986
sg29
S'6503'
p4987
sg31
S'Min Temperature of Coldest Month'
p4988
sg33
g34
sg35
g36
sg37
S'agclim.he2670.bio06.tif'
p4989
sg39
S'agclim'
p4990
sg41
g42
sg43
I4326
sg44
S'2070'
p4991
ssS'bio12'
p4992
(dp4993
g8
S'2015-03-24 17:29:21'
p4994
sg10
S'no'
p4995
sg12
S'he2670.bio12'
p4996
sg14
I219
sg15
S'bio12'
p4997
sg17
S'Annual Precipitation'
p4998
sg19
S'26'
p4999
sg21
S'he2670'
p5000
sg23
S'../views/GTiff/agclim.he2670.bio12.tif'
p5001
sg25
S'agclimate'
p5002
sg27
S'agclim.he2670.bio12'
p5003
sg29
S'6504'
p5004
sg31
S'Annual Precipitation'
p5005
sg33
g34
sg35
g36
sg37
S'agclim.he2670.bio12.tif'
p5006
sg39
S'agclim'
p5007
sg41
g42
sg43
I4326
sg44
S'2070'
p5008
ssS'gdd5'
p5009
(dp5010
g8
S'2015-03-24 17:29:21'
p5011
sg10
S'no'
p5012
sg12
S'he2670.gdd5'
p5013
sg14
I145
sg15
S'gdd5'
p5014
sg17
S'Growing Degree Days 5C Baseline'
p5015
sg19
S'26'
p5016
sg21
S'he2670'
p5017
sg23
S'../views/GTiff/agclim.he2670.gdd5.tif'
p5018
sg25
S'agclimate'
p5019
sg27
S'agclim.he2670.gdd5'
p5020
sg29
S'6505'
p5021
sg31
S'Growing Degree Days 5C Baseline'
p5022
sg33
g34
sg35
g36
sg37
S'agclim.he2670.gdd5.tif'
p5023
sg39
S'agclim'
p5024
sg41
g42
sg43
I4326
sg44
S'2070'
p5025
ssS'aridity'
p5026
(dp5027
g8
S'2015-03-24 17:29:21'
p5028
sg10
S'no'
p5029
sg12
S'he2670.aridity'
p5030
sg14
I260
sg15
S'aridity'
p5031
sg17
S'CRU Metric of Mean Annual Aridity'
p5032
sg19
S'26'
p5033
sg21
S'he2670'
p5034
sg23
S'../views/GTiff/agclim.he2670.aridity.tif'
p5035
sg25
S'agclimate'
p5036
sg27
S'agclim.he2670.aridity'
p5037
sg29
S'6538'
p5038
sg31
S'CRU Metric of Mean Annual Aridity'
p5039
sg33
g34
sg35
g36
sg37
S'agclim.he2670.aridity.tif'
p5040
sg39
S'agclim'
p5041
sg41
g42
sg43
I4326
sg44
S'2070'
p5042
ssS'petmn'
p5043
(dp5044
g8
S'2015-03-24 17:29:21'
p5045
sg10
S'no'
p5046
sg12
S'he2670.petmn'
p5047
sg14
I193
sg15
S'petmn'
p5048
sg17
S'CRU Mean Annual Evapotranspiration'
p5049
sg19
S'26'
p5050
sg21
S'he2670'
p5051
sg23
S'../views/GTiff/agclim.he2670.petmn.tif'
p5052
sg25
S'agclimate'
p5053
sg27
S'agclim.he2670.petmn'
p5054
sg29
S'6506'
p5055
sg31
S'CRU Mean Annual Evapotranspiration'
p5056
sg33
g34
sg35
g36
sg37
S'agclim.he2670.petmn.tif'
p5057
sg39
S'agclim'
p5058
sg41
g42
sg43
I4326
sg44
S'2070'
p5059
sssS'he8570'
p5060
(dp5061
S'bio06'
p5062
(dp5063
g8
S'2015-03-24 17:29:21'
p5064
sg10
S'no'
p5065
sg12
S'he8570.bio06'
p5066
sg14
I69
sg15
S'bio06'
p5067
sg17
S'Min Temperature of Coldest Month'
p5068
sg19
S'85'
p5069
sg21
g5060
sg23
S'../views/GTiff/agclim.he8570.bio06.tif'
p5070
sg25
S'agclimate'
p5071
sg27
S'agclim.he8570.bio06'
p5072
sg29
S'6507'
p5073
sg31
S'Min Temperature of Coldest Month'
p5074
sg33
g34
sg35
g36
sg37
S'agclim.he8570.bio06.tif'
p5075
sg39
S'agclim'
p5076
sg41
g42
sg43
I4326
sg44
S'2070'
p5077
ssS'bio12'
p5078
(dp5079
g8
S'2015-03-24 17:29:21'
p5080
sg10
S'no'
p5081
sg12
S'he8570.bio12'
p5082
sg14
I202
sg15
S'bio12'
p5083
sg17
S'Annual Precipitation'
p5084
sg19
S'85'
p5085
sg21
S'he8570'
p5086
sg23
S'../views/GTiff/agclim.he8570.bio12.tif'
p5087
sg25
S'agclimate'
p5088
sg27
S'agclim.he8570.bio12'
p5089
sg29
S'6508'
p5090
sg31
S'Annual Precipitation'
p5091
sg33
g34
sg35
g36
sg37
S'agclim.he8570.bio12.tif'
p5092
sg39
S'agclim'
p5093
sg41
g42
sg43
I4326
sg44
S'2070'
p5094
ssS'gdd5'
p5095
(dp5096
g8
S'2015-03-24 17:29:21'
p5097
sg10
S'no'
p5098
sg12
S'he8570.gdd5'
p5099
sg14
I200
sg15
S'gdd5'
p5100
sg17
S'Growing Degree Days 5C Baseline'
p5101
sg19
S'85'
p5102
sg21
S'he8570'
p5103
sg23
S'../views/GTiff/agclim.he8570.gdd5.tif'
p5104
sg25
S'agclimate'
p5105
sg27
S'agclim.he8570.gdd5'
p5106
sg29
S'6539'
p5107
sg31
S'Growing Degree Days 5C Baseline'
p5108
sg33
g34
sg35
g36
sg37
S'agclim.he8570.gdd5.tif'
p5109
sg39
S'agclim'
p5110
sg41
g42
sg43
I4326
sg44
S'2070'
p5111
ssS'aridity'
p5112
(dp5113
g8
S'2015-03-24 17:29:21'
p5114
sg10
S'no'
p5115
sg12
S'he8570.aridity'
p5116
sg14
I204
sg15
S'aridity'
p5117
sg17
S'CRU Metric of Mean Annual Aridity'
p5118
sg19
S'85'
p5119
sg21
S'he8570'
p5120
sg23
S'../views/GTiff/agclim.he8570.aridity.tif'
p5121
sg25
S'agclimate'
p5122
sg27
S'agclim.he8570.aridity'
p5123
sg29
S'6509'
p5124
sg31
S'CRU Metric of Mean Annual Aridity'
p5125
sg33
g34
sg35
g36
sg37
S'agclim.he8570.aridity.tif'
p5126
sg39
S'agclim'
p5127
sg41
g42
sg43
I4326
sg44
S'2070'
p5128
ssS'petmn'
p5129
(dp5130
g8
S'2015-03-24 17:29:21'
p5131
sg10
S'no'
p5132
sg12
S'he8570.petmn'
p5133
sg14
I261
sg15
S'petmn'
p5134
sg17
S'CRU Mean Annual Evapotranspiration'
p5135
sg19
S'85'
p5136
sg21
S'he8570'
p5137
sg23
S'../views/GTiff/agclim.he8570.petmn.tif'
p5138
sg25
S'agclimate'
p5139
sg27
S'agclim.he8570.petmn'
p5140
sg29
S'6540'
p5141
sg31
S'CRU Mean Annual Evapotranspiration'
p5142
sg33
g34
sg35
g36
sg37
S'agclim.he8570.petmn.tif'
p5143
sg39
S'agclim'
p5144
sg41
g42
sg43
I4326
sg44
S'2070'
p5145
sssS'he2650'
p5146
(dp5147
S'bio06'
p5148
(dp5149
g8
S'2015-03-24 17:29:21'
p5150
sg10
S'no'
p5151
sg12
S'he2650.bio06'
p5152
sg14
I34
sg15
S'bio06'
p5153
sg17
S'Min Temperature of Coldest Month'
p5154
sg19
S'26'
p5155
sg21
g5146
sg23
S'../views/GTiff/agclim.he2650.bio06.tif'
p5156
sg25
S'agclimate'
p5157
sg27
S'agclim.he2650.bio06'
p5158
sg29
S'6510'
p5159
sg31
S'Min Temperature of Coldest Month'
p5160
sg33
g34
sg35
g36
sg37
S'agclim.he2650.bio06.tif'
p5161
sg39
S'agclim'
p5162
sg41
g42
sg43
I4326
sg44
S'2050'
p5163
ssS'bio12'
p5164
(dp5165
g8
S'2015-03-24 17:29:21'
p5166
sg10
S'no'
p5167
sg12
S'he2650.bio12'
p5168
sg14
I225
sg15
S'bio12'
p5169
sg17
S'Annual Precipitation'
p5170
sg19
S'26'
p5171
sg21
S'he2650'
p5172
sg23
S'../views/GTiff/agclim.he2650.bio12.tif'
p5173
sg25
S'agclimate'
p5174
sg27
S'agclim.he2650.bio12'
p5175
sg29
S'6511'
p5176
sg31
S'Annual Precipitation'
p5177
sg33
g34
sg35
g36
sg37
S'agclim.he2650.bio12.tif'
p5178
sg39
S'agclim'
p5179
sg41
g42
sg43
I4326
sg44
S'2050'
p5180
ssS'gdd5'
p5181
(dp5182
g8
S'2015-03-24 17:29:21'
p5183
sg10
S'no'
p5184
sg12
S'he2650.gdd5'
p5185
sg14
I68
sg15
S'gdd5'
p5186
sg17
S'Growing Degree Days 5C Baseline'
p5187
sg19
S'26'
p5188
sg21
S'he2650'
p5189
sg23
S'../views/GTiff/agclim.he2650.gdd5.tif'
p5190
sg25
S'agclimate'
p5191
sg27
S'agclim.he2650.gdd5'
p5192
sg29
S'6512'
p5193
sg31
S'Growing Degree Days 5C Baseline'
p5194
sg33
g34
sg35
g36
sg37
S'agclim.he2650.gdd5.tif'
p5195
sg39
S'agclim'
p5196
sg41
g42
sg43
I4326
sg44
S'2050'
p5197
ssS'aridity'
p5198
(dp5199
g8
S'2015-03-24 17:29:21'
p5200
sg10
S'no'
p5201
sg12
S'he2650.aridity'
p5202
sg14
I334
sg15
S'aridity'
p5203
sg17
S'CRU Metric of Mean Annual Aridity'
p5204
sg19
S'26'
p5205
sg21
S'he2650'
p5206
sg23
S'../views/GTiff/agclim.he2650.aridity.tif'
p5207
sg25
S'agclimate'
p5208
sg27
S'agclim.he2650.aridity'
p5209
sg29
S'6541'
p5210
sg31
S'CRU Metric of Mean Annual Aridity'
p5211
sg33
g34
sg35
g36
sg37
S'agclim.he2650.aridity.tif'
p5212
sg39
S'agclim'
p5213
sg41
g42
sg43
I4326
sg44
S'2050'
p5214
ssS'petmn'
p5215
(dp5216
g8
S'2015-03-24 17:29:21'
p5217
sg10
S'no'
p5218
sg12
S'he2650.petmn'
p5219
sg14
I307
sg15
S'petmn'
p5220
sg17
S'CRU Mean Annual Evapotranspiration'
p5221
sg19
S'26'
p5222
sg21
S'he2650'
p5223
sg23
S'../views/GTiff/agclim.he2650.petmn.tif'
p5224
sg25
S'agclimate'
p5225
sg27
S'agclim.he2650.petmn'
p5226
sg29
S'6542'
p5227
sg31
S'CRU Mean Annual Evapotranspiration'
p5228
sg33
g34
sg35
g36
sg37
S'agclim.he2650.petmn.tif'
p5229
sg39
S'agclim'
p5230
sg41
g42
sg43
I4326
sg44
S'2050'
p5231
sssS'current'
p5232
(dp5233
S'bio06'
p5234
(dp5235
g8
S'2015-03-24 17:29:21'
p5236
sg10
S'no'
p5237
sg12
S'current.bio06'
p5238
sg14
I41
sg15
S'bio06'
p5239
sg17
S'Min Temperature of Coldest Month'
p5240
sg19
S'current'
p5241
sg21
S'current'
p5242
sg23
S'../views/GTiff/agclim.current.bio06.tif'
p5243
sg25
S'agclimate'
p5244
sg27
S'agclim.current.bio06'
p5245
sg29
S'6513'
p5246
sg31
S'Min Temperature of Coldest Month'
p5247
sg33
g34
sg35
g36
sg37
S'agclim.current.bio06.tif'
p5248
sg39
S'agclim'
p5249
sg41
g42
sg43
I4326
sg44
S'current'
p5250
ssS'bio12'
p5251
(dp5252
g8
S'2015-03-24 17:29:21'
p5253
sg10
S'no'
p5254
sg12
S'current.bio12'
p5255
sg14
I338
sg15
S'bio12'
p5256
sg17
S'Annual Precipitation'
p5257
sg19
S'current'
p5258
sg21
S'current'
p5259
sg23
S'../views/GTiff/agclim.current.bio12.tif'
p5260
sg25
S'agclimate'
p5261
sg27
S'agclim.current.bio12'
p5262
sg29
S'6514'
p5263
sg31
S'Annual Precipitation'
p5264
sg33
g34
sg35
g36
sg37
S'agclim.current.bio12.tif'
p5265
sg39
S'agclim'
p5266
sg41
g42
sg43
I4326
sg44
S'current'
p5267
ssS'gdd5'
p5268
(dp5269
g8
S'2015-03-24 17:29:21'
p5270
sg10
S'no'
p5271
sg12
S'current.gdd5'
p5272
sg14
I37
sg15
S'gdd5'
p5273
sg17
S'Growing Degree Days 5C Baseline'
p5274
sg19
S'current'
p5275
sg21
g5232
sg23
S'../views/GTiff/agclim.current.gdd5.tif'
p5276
sg25
S'agclimate'
p5277
sg27
S'agclim.current.gdd5'
p5278
sg29
S'6515'
p5279
sg31
S'Growing Degree Days 5C Baseline'
p5280
sg33
g34
sg35
g36
sg37
S'agclim.current.gdd5.tif'
p5281
sg39
S'agclim'
p5282
sg41
g42
sg43
I4326
sg44
S'current'
p5283
ssS'aridity'
p5284
(dp5285
g8
S'2015-03-24 17:29:21'
p5286
sg10
S'no'
p5287
sg12
S'current.aridity'
p5288
sg14
I75
sg15
S'aridity'
p5289
sg17
S'CRU Metric of Mean Annual Aridity'
p5290
sg19
S'current'
p5291
sg21
S'current'
p5292
sg23
S'../views/GTiff/agclim.current.aridity.tif'
p5293
sg25
S'agclimate'
p5294
sg27
S'agclim.current.aridity'
p5295
sg29
S'6516'
p5296
sg31
S'CRU Metric of Mean Annual Aridity'
p5297
sg33
g34
sg35
g36
sg37
S'agclim.current.aridity.tif'
p5298
sg39
S'agclim'
p5299
sg41
g42
sg43
I4326
sg44
S'current'
p5300
ssS'petmn'
p5301
(dp5302
g8
S'2015-03-24 17:29:21'
p5303
sg10
S'no'
p5304
sg12
S'current.petmn'
p5305
sg14
I270
sg15
S'petmn'
p5306
sg17
S'CRU Mean Annual Evapotranspiration'
p5307
sg19
S'current'
p5308
sg21
S'current'
p5309
sg23
S'../views/GTiff/agclim.current.petmn.tif'
p5310
sg25
S'agclimate'
p5311
sg27
S'agclim.current.petmn'
p5312
sg29
S'6517'
p5313
sg31
S'CRU Mean Annual Evapotranspiration'
p5314
sg33
g34
sg35
g36
sg37
S'agclim.current.petmn.tif'
p5315
sg39
S'agclim'
p5316
sg41
g42
sg43
I4326
sg44
S'current'
p5317
sssS'he6050'
p5318
(dp5319
S'bio06'
p5320
(dp5321
g8
S'2015-03-24 17:29:21'
p5322
sg10
S'no'
p5323
sg12
S'he6050.bio06'
p5324
sg14
I175
sg15
S'bio06'
p5325
sg17
S'Min Temperature of Coldest Month'
p5326
sg19
S'60'
p5327
sg21
S'he6050'
p5328
sg23
S'../views/GTiff/agclim.he6050.bio06.tif'
p5329
sg25
S'agclimate'
p5330
sg27
S'agclim.he6050.bio06'
p5331
sg29
S'6518'
p5332
sg31
S'Min Temperature of Coldest Month'
p5333
sg33
g34
sg35
g36
sg37
S'agclim.he6050.bio06.tif'
p5334
sg39
S'agclim'
p5335
sg41
g42
sg43
I4326
sg44
S'2050'
p5336
ssS'bio12'
p5337
(dp5338
g8
S'2015-03-24 17:29:21'
p5339
sg10
S'no'
p5340
sg12
S'he6050.bio12'
p5341
sg14
I302
sg15
S'bio12'
p5342
sg17
S'Annual Precipitation'
p5343
sg19
S'60'
p5344
sg21
S'he6050'
p5345
sg23
S'../views/GTiff/agclim.he6050.bio12.tif'
p5346
sg25
S'agclimate'
p5347
sg27
S'agclim.he6050.bio12'
p5348
sg29
S'6519'
p5349
sg31
S'Annual Precipitation'
p5350
sg33
g34
sg35
g36
sg37
S'agclim.he6050.bio12.tif'
p5351
sg39
S'agclim'
p5352
sg41
g42
sg43
I4326
sg44
S'2050'
p5353
ssS'gdd5'
p5354
(dp5355
g8
S'2015-03-24 17:29:21'
p5356
sg10
S'no'
p5357
sg12
S'he6050.gdd5'
p5358
sg14
I155
sg15
S'gdd5'
p5359
sg17
S'Growing Degree Days 5C Baseline'
p5360
sg19
S'60'
p5361
sg21
S'he6050'
p5362
sg23
S'../views/GTiff/agclim.he6050.gdd5.tif'
p5363
sg25
S'agclimate'
p5364
sg27
S'agclim.he6050.gdd5'
p5365
sg29
S'6520'
p5366
sg31
S'Growing Degree Days 5C Baseline'
p5367
sg33
g34
sg35
g36
sg37
S'agclim.he6050.gdd5.tif'
p5368
sg39
S'agclim'
p5369
sg41
g42
sg43
I4326
sg44
S'2050'
p5370
ssS'aridity'
p5371
(dp5372
g8
S'2015-03-24 17:29:21'
p5373
sg10
S'no'
p5374
sg12
S'he6050.aridity'
p5375
sg14
I87
sg15
S'aridity'
p5376
sg17
S'CRU Metric of Mean Annual Aridity'
p5377
sg19
S'60'
p5378
sg21
g5318
sg23
S'../views/GTiff/agclim.he6050.aridity.tif'
p5379
sg25
S'agclimate'
p5380
sg27
S'agclim.he6050.aridity'
p5381
sg29
S'6521'
p5382
sg31
S'CRU Metric of Mean Annual Aridity'
p5383
sg33
g34
sg35
g36
sg37
S'agclim.he6050.aridity.tif'
p5384
sg39
S'agclim'
p5385
sg41
g42
sg43
I4326
sg44
S'2050'
p5386
ssS'petmn'
p5387
(dp5388
g8
S'2015-03-24 17:29:21'
p5389
sg10
S'no'
p5390
sg12
S'he6050.petmn'
p5391
sg14
I265
sg15
S'petmn'
p5392
sg17
S'CRU Mean Annual Evapotranspiration'
p5393
sg19
S'60'
p5394
sg21
S'he6050'
p5395
sg23
S'../views/GTiff/agclim.he6050.petmn.tif'
p5396
sg25
S'agclimate'
p5397
sg27
S'agclim.he6050.petmn'
p5398
sg29
S'6522'
p5399
sg31
S'CRU Mean Annual Evapotranspiration'
p5400
sg33
g34
sg35
g36
sg37
S'agclim.he6050.petmn.tif'
p5401
sg39
S'agclim'
p5402
sg41
g42
sg43
I4326
sg44
S'2050'
p5403
sssS'he4550'
p5404
(dp5405
S'bio06'
p5406
(dp5407
g8
S'2015-03-24 17:29:21'
p5408
sg10
S'no'
p5409
sg12
S'he4550.bio06'
p5410
sg14
I170
sg15
S'bio06'
p5411
sg17
S'Min Temperature of Coldest Month'
p5412
sg19
S'45'
p5413
sg21
S'he4550'
p5414
sg23
S'../views/GTiff/agclim.he4550.bio06.tif'
p5415
sg25
S'agclimate'
p5416
sg27
S'agclim.he4550.bio06'
p5417
sg29
S'6528'
p5418
sg31
S'Min Temperature of Coldest Month'
p5419
sg33
g34
sg35
g36
sg37
S'agclim.he4550.bio06.tif'
p5420
sg39
S'agclim'
p5421
sg41
g42
sg43
I4326
sg44
S'2050'
p5422
ssS'bio12'
p5423
(dp5424
g8
S'2015-03-24 17:29:21'
p5425
sg10
S'no'
p5426
sg12
S'he4550.bio12'
p5427
sg14
I80
sg15
S'bio12'
p5428
sg17
S'Annual Precipitation'
p5429
sg19
S'45'
p5430
sg21
g5404
sg23
S'../views/GTiff/agclim.he4550.bio12.tif'
p5431
sg25
S'agclimate'
p5432
sg27
S'agclim.he4550.bio12'
p5433
sg29
S'6529'
p5434
sg31
S'Annual Precipitation'
p5435
sg33
g34
sg35
g36
sg37
S'agclim.he4550.bio12.tif'
p5436
sg39
S'agclim'
p5437
sg41
g42
sg43
I4326
sg44
S'2050'
p5438
ssS'gdd5'
p5439
(dp5440
g8
S'2015-03-24 17:29:21'
p5441
sg10
S'no'
p5442
sg12
S'he4550.gdd5'
p5443
sg14
I221
sg15
S'gdd5'
p5444
sg17
S'Growing Degree Days 5C Baseline'
p5445
sg19
S'45'
p5446
sg21
S'he4550'
p5447
sg23
S'../views/GTiff/agclim.he4550.gdd5.tif'
p5448
sg25
S'agclimate'
p5449
sg27
S'agclim.he4550.gdd5'
p5450
sg29
S'6530'
p5451
sg31
S'Growing Degree Days 5C Baseline'
p5452
sg33
g34
sg35
g36
sg37
S'agclim.he4550.gdd5.tif'
p5453
sg39
S'agclim'
p5454
sg41
g42
sg43
I4326
sg44
S'2050'
p5455
ssS'aridity'
p5456
(dp5457
g8
S'2015-03-24 17:29:21'
p5458
sg10
S'no'
p5459
sg12
S'he4550.aridity'
p5460
sg14
I331
sg15
S'aridity'
p5461
sg17
S'CRU Metric of Mean Annual Aridity'
p5462
sg19
S'45'
p5463
sg21
S'he4550'
p5464
sg23
S'../views/GTiff/agclim.he4550.aridity.tif'
p5465
sg25
S'agclimate'
p5466
sg27
S'agclim.he4550.aridity'
p5467
sg29
S'6531'
p5468
sg31
S'CRU Metric of Mean Annual Aridity'
p5469
sg33
g34
sg35
g36
sg37
S'agclim.he4550.aridity.tif'
p5470
sg39
S'agclim'
p5471
sg41
g42
sg43
I4326
sg44
S'2050'
p5472
ssS'petmn'
p5473
(dp5474
g8
S'2015-03-24 17:29:21'
p5475
sg10
S'no'
p5476
sg12
S'he4550.petmn'
p5477
sg14
I168
sg15
S'petmn'
p5478
sg17
S'CRU Mean Annual Evapotranspiration'
p5479
sg19
S'45'
p5480
sg21
S'he4550'
p5481
sg23
S'../views/GTiff/agclim.he4550.petmn.tif'
p5482
sg25
S'agclimate'
p5483
sg27
S'agclim.he4550.petmn'
p5484
sg29
S'6532'
p5485
sg31
S'CRU Mean Annual Evapotranspiration'
p5486
sg33
g34
sg35
g36
sg37
S'agclim.he4550.petmn.tif'
p5487
sg39
S'agclim'
p5488
sg41
g42
sg43
I4326
sg44
S'2050'
p5489
sssS'he6070'
p5490
(dp5491
S'bio06'
p5492
(dp5493
g8
S'2015-03-24 17:29:21'
p5494
sg10
S'no'
p5495
sg12
S'he6070.bio06'
p5496
sg14
I13
sg15
S'bio06'
p5497
sg17
S'Min Temperature of Coldest Month'
p5498
sg19
S'60'
p5499
sg21
g5490
sg23
S'../views/GTiff/agclim.he6070.bio06.tif'
p5500
sg25
S'agclimate'
p5501
sg27
S'agclim.he6070.bio06'
p5502
sg29
S'6523'
p5503
sg31
S'Min Temperature of Coldest Month'
p5504
sg33
g34
sg35
g36
sg37
S'agclim.he6070.bio06.tif'
p5505
sg39
g4886
sg41
g42
sg43
I4326
sg44
S'2070'
p5506
ssS'bio12'
p5507
(dp5508
g8
S'2015-03-24 17:29:21'
p5509
sg10
S'no'
p5510
sg12
S'he6070.bio12'
p5511
sg14
I19
sg15
S'bio12'
p5512
sg17
S'Annual Precipitation'
p5513
sg19
S'60'
p5514
sg21
S'he6070'
p5515
sg23
S'../views/GTiff/agclim.he6070.bio12.tif'
p5516
sg25
S'agclimate'
p5517
sg27
S'agclim.he6070.bio12'
p5518
sg29
S'6524'
p5519
sg31
S'Annual Precipitation'
p5520
sg33
g34
sg35
g36
sg37
S'agclim.he6070.bio12.tif'
p5521
sg39
S'agclim'
p5522
sg41
g42
sg43
I4326
sg44
S'2070'
p5523
ssS'gdd5'
p5524
(dp5525
g8
S'2015-03-24 17:29:21'
p5526
sg10
S'no'
p5527
sg12
S'he6070.gdd5'
p5528
sg14
I256
sg15
S'gdd5'
p5529
sg17
S'Growing Degree Days 5C Baseline'
p5530
sg19
S'60'
p5531
sg21
S'he6070'
p5532
sg23
S'../views/GTiff/agclim.he6070.gdd5.tif'
p5533
sg25
S'agclimate'
p5534
sg27
S'agclim.he6070.gdd5'
p5535
sg29
S'6525'
p5536
sg31
S'Growing Degree Days 5C Baseline'
p5537
sg33
g34
sg35
g36
sg37
S'agclim.he6070.gdd5.tif'
p5538
sg39
S'agclim'
p5539
sg41
g42
sg43
I4326
sg44
S'2070'
p5540
ssS'aridity'
p5541
(dp5542
g8
S'2015-03-24 17:29:21'
p5543
sg10
S'no'
p5544
sg12
S'he6070.aridity'
p5545
sg14
I194
sg15
S'aridity'
p5546
sg17
S'CRU Metric of Mean Annual Aridity'
p5547
sg19
S'60'
p5548
sg21
S'he6070'
p5549
sg23
S'../views/GTiff/agclim.he6070.aridity.tif'
p5550
sg25
S'agclimate'
p5551
sg27
S'agclim.he6070.aridity'
p5552
sg29
S'6526'
p5553
sg31
S'CRU Metric of Mean Annual Aridity'
p5554
sg33
g34
sg35
g36
sg37
S'agclim.he6070.aridity.tif'
p5555
sg39
S'agclim'
p5556
sg41
g42
sg43
I4326
sg44
S'2070'
p5557
ssS'petmn'
p5558
(dp5559
g8
S'2015-03-24 17:29:21'
p5560
sg10
S'no'
p5561
sg12
S'he6070.petmn'
p5562
sg14
I186
sg15
S'petmn'
p5563
sg17
S'CRU Mean Annual Evapotranspiration'
p5564
sg19
S'60'
p5565
sg21
S'he6070'
p5566
sg23
S'../views/GTiff/agclim.he6070.petmn.tif'
p5567
sg25
S'agclimate'
p5568
sg27
S'agclim.he6070.petmn'
p5569
sg29
S'6527'
p5570
sg31
S'CRU Mean Annual Evapotranspiration'
p5571
sg33
g34
sg35
g36
sg37
S'agclim.he6070.petmn.tif'
p5572
sg39
S'agclim'
p5573
sg41
g42
sg43
I4326
sg44
S'2070'
p5574
sssS'he4570'
p5575
(dp5576
S'bio06'
p5577
(dp5578
g8
S'2015-03-24 17:29:21'
p5579
sg10
S'no'
p5580
sg12
S'he4570.bio06'
p5581
sg14
I280
sg15
S'bio06'
p5582
sg17
S'Min Temperature of Coldest Month'
p5583
sg19
S'45'
p5584
sg21
S'he4570'
p5585
sg23
S'../views/GTiff/agclim.he4570.bio06.tif'
p5586
sg25
S'agclimate'
p5587
sg27
S'agclim.he4570.bio06'
p5588
sg29
S'6533'
p5589
sg31
S'Min Temperature of Coldest Month'
p5590
sg33
g34
sg35
g36
sg37
S'agclim.he4570.bio06.tif'
p5591
sg39
S'agclim'
p5592
sg41
g42
sg43
I4326
sg44
S'2070'
p5593
ssS'bio12'
p5594
(dp5595
g8
S'2015-03-24 17:29:21'
p5596
sg10
S'no'
p5597
sg12
S'he4570.bio12'
p5598
sg14
I134
sg15
S'bio12'
p5599
sg17
S'Annual Precipitation'
p5600
sg19
S'45'
p5601
sg21
S'he4570'
p5602
sg23
S'../views/GTiff/agclim.he4570.bio12.tif'
p5603
sg25
S'agclimate'
p5604
sg27
S'agclim.he4570.bio12'
p5605
sg29
S'6534'
p5606
sg31
S'Annual Precipitation'
p5607
sg33
g34
sg35
g36
sg37
S'agclim.he4570.bio12.tif'
p5608
sg39
S'agclim'
p5609
sg41
g42
sg43
I4326
sg44
S'2070'
p5610
ssS'gdd5'
p5611
(dp5612
g8
S'2015-03-24 17:29:21'
p5613
sg10
S'no'
p5614
sg12
S'he4570.gdd5'
p5615
sg14
I319
sg15
S'gdd5'
p5616
sg17
S'Growing Degree Days 5C Baseline'
p5617
sg19
S'45'
p5618
sg21
S'he4570'
p5619
sg23
S'../views/GTiff/agclim.he4570.gdd5.tif'
p5620
sg25
S'agclimate'
p5621
sg27
S'agclim.he4570.gdd5'
p5622
sg29
S'6535'
p5623
sg31
S'Growing Degree Days 5C Baseline'
p5624
sg33
g34
sg35
g36
sg37
S'agclim.he4570.gdd5.tif'
p5625
sg39
S'agclim'
p5626
sg41
g42
sg43
I4326
sg44
S'2070'
p5627
ssS'aridity'
p5628
(dp5629
g8
S'2015-03-24 17:29:21'
p5630
sg10
S'no'
p5631
sg12
S'he4570.aridity'
p5632
sg14
I20
sg15
S'aridity'
p5633
sg17
S'CRU Metric of Mean Annual Aridity'
p5634
sg19
S'45'
p5635
sg21
g5575
sg23
S'../views/GTiff/agclim.he4570.aridity.tif'
p5636
sg25
S'agclimate'
p5637
sg27
S'agclim.he4570.aridity'
p5638
sg29
S'6536'
p5639
sg31
S'CRU Metric of Mean Annual Aridity'
p5640
sg33
g34
sg35
g36
sg37
S'agclim.he4570.aridity.tif'
p5641
sg39
S'agclim'
p5642
sg41
g42
sg43
I4326
sg44
S'2070'
p5643
ssS'petmn'
p5644
(dp5645
g8
S'2015-03-24 17:29:21'
p5646
sg10
S'no'
p5647
sg12
S'he4570.petmn'
p5648
sg14
I111
sg15
S'petmn'
p5649
sg17
S'CRU Mean Annual Evapotranspiration'
p5650
sg19
S'45'
p5651
sg21
S'he4570'
p5652
sg23
S'../views/GTiff/agclim.he4570.petmn.tif'
p5653
sg25
S'agclimate'
p5654
sg27
S'agclim.he4570.petmn'
p5655
sg29
S'6537'
p5656
sg31
S'CRU Mean Annual Evapotranspiration'
p5657
sg33
g34
sg35
g36
sg37
S'agclim.he4570.petmn.tif'
p5658
sg39
S'agclim'
p5659
sg41
g42
sg43
I4326
sg44
S'2070'
p5660
ssssS'spat'
p5661
(dp5662
S'svd'
p5663
(dp5664
S'pc2'
p5665
(dp5666
g8
S'2015-03-24 17:29:21'
p5667
sg10
S'no'
p5668
sg12
S'svd.pc2'
p5669
sg14
I129
sg15
S'pc2'
p5670
sg17
S'PC Axis 2 of Distance Matrix'
p5671
sg19
S'current'
p5672
sg21
S'svd'
p5673
sg23
S'../views/GTiff/spat.svd.pc2.tif'
p5674
sg25
S'spatial'
p5675
sg27
S'spat.svd.pc2'
p5676
sg29
S'6557'
p5677
sg31
S'PC Axis 2 of Distance Matrix spatial'
p5678
sg33
g34
sg35
g36
sg37
S'spat.svd.pc2.tif'
p5679
sg39
S'spat'
p5680
sg41
g42
sg43
I4326
sg44
S'current'
p5681
ssS'pc3'
p5682
(dp5683
g8
S'2015-03-24 17:29:21'
p5684
sg10
S'no'
p5685
sg12
S'svd.pc3'
p5686
sg14
I1
sg15
S'pc3'
p5687
sg17
S'PC Axis 3 of Distance Matrix'
p5688
sg19
S'current'
p5689
sg21
g5663
sg23
S'../views/GTiff/spat.svd.pc3.tif'
p5690
sg25
S'spatial'
p5691
sg27
S'spat.svd.pc3'
p5692
sg29
S'6558'
p5693
sg31
S'PC Axis 3 of Distance Matrix spatial'
p5694
sg33
g34
sg35
g36
sg37
S'spat.svd.pc3.tif'
p5695
sg39
g5661
sg41
g42
sg43
I4326
sg44
S'current'
p5696
ssS'pc1'
p5697
(dp5698
g8
S'2015-03-24 17:29:21'
p5699
sg10
S'no'
p5700
sg12
S'svd.pc1'
p5701
sg14
I228
sg15
S'pc1'
p5702
sg17
S'PC Axis 1 of Distance Matrix'
p5703
sg19
S'current'
p5704
sg21
S'svd'
p5705
sg23
S'../views/GTiff/spat.svd.pc1.tif'
p5706
sg25
S'spatial'
p5707
sg27
S'spat.svd.pc1'
p5708
sg29
S'6559'
p5709
sg31
S'PC Axis 1 of Distance Matrix spatial'
p5710
sg33
g34
sg35
g36
sg37
S'spat.svd.pc1.tif'
p5711
sg39
S'spat'
p5712
sg41
g42
sg43
I4326
sg44
S'current'
p5713
ssssS'env'
p5714
(dp5715
S'hwsd'
p5716
(dp5717
S't_gravel'
p5718
(dp5719
g8
S'2015-03-24 17:29:21'
p5720
sg10
S'no'
p5721
sg12
S'hwsd.t_gravel'
p5722
sg14
I290
sg15
S't_gravel'
p5723
sg17
S'HWSD topsoil gravel'
p5724
sg19
S'current'
p5725
sg21
S'hwsd'
p5726
sg23
S'../views/GTiff/env.hwsd.t_gravel.tif'
p5727
sg25
S'environmental'
p5728
sg27
S'env.hwsd.t_gravel'
p5729
sg29
S'6346'
p5730
sg31
S'Harmonized World Soil Database topsoil gravel (% vol.)'
p5731
sg33
g34
sg35
g36
sg37
S'env.hwsd.t_gravel.tif'
p5732
sg39
S'env'
p5733
sg41
g42
sg43
I4326
sg44
S'current'
p5734
ssS't_caco3'
p5735
(dp5736
g8
S'2015-03-24 17:29:21'
p5737
sg10
S'yes'
p5738
sg12
S'hwsd.t_caco3'
p5739
sg14
I320
sg15
S't_caco3'
p5740
sg17
S'HWSD topsoil CACO3'
p5741
sg19
S'current'
p5742
sg21
S'hwsd'
p5743
sg23
S'../views/GTiff/env.hwsd.t_caco3.tif'
p5744
sg25
S'environmental'
p5745
sg27
S'env.hwsd.t_caco3'
p5746
sg29
S'6349'
p5747
sg31
S'Harmonized World Soil Database topsoil CACO3 (% weight)'
p5748
sg33
g34
sg35
g36
sg37
S'env.hwsd.t_caco3.tif'
p5749
sg39
S'env'
p5750
sg41
g42
sg43
I4326
sg44
S'current'
p5751
ssS't_ph'
p5752
(dp5753
g8
S'2015-03-24 17:29:21'
p5754
sg10
S'no'
p5755
sg12
S'hwsd.t_ph'
p5756
sg14
I167
sg15
S't_ph'
p5757
sg17
S'HWSD topsoil pH'
p5758
sg19
S'current'
p5759
sg21
S'hwsd'
p5760
sg23
S'../views/GTiff/env.hwsd.t_ph.tif'
p5761
sg25
S'environmental'
p5762
sg27
S'env.hwsd.t_ph'
p5763
sg29
S'6348'
p5764
sg31
S'Harmonized World Soil Database topsoil pH (log[H+])'
p5765
sg33
g34
sg35
g36
sg37
S'env.hwsd.t_ph.tif'
p5766
sg39
S'env'
p5767
sg41
g42
sg43
I4326
sg44
S'current'
p5768
ssS't_sand'
p5769
(dp5770
g8
S'2015-03-24 17:29:21'
p5771
sg10
S'no'
p5772
sg12
S'hwsd.t_sand'
p5773
sg14
I272
sg15
S't_sand'
p5774
sg17
S'HWSD topsoil sand'
p5775
sg19
S'current'
p5776
sg21
S'hwsd'
p5777
sg23
S'../views/GTiff/env.hwsd.t_sand.tif'
p5778
sg25
S'environmental'
p5779
sg27
S'env.hwsd.t_sand'
p5780
sg29
S'6347'
p5781
sg31
S'Harmonized World Soil Database topsoil sand (% frac.)'
p5782
sg33
g34
sg35
g36
sg37
S'env.hwsd.t_sand.tif'
p5783
sg39
S'env'
p5784
sg41
g42
sg43
I4326
sg44
S'current'
p5785
ssS't_ece'
p5786
(dp5787
g8
S'2015-03-24 17:29:21'
p5788
sg10
S'no'
p5789
sg12
S'hwsd.t_ece'
p5790
sg14
I17
sg15
S't_ece'
p5791
sg17
S'HWSD topsoil ECE'
p5792
sg19
S'current'
p5793
sg21
S'hwsd'
p5794
sg23
S'../views/GTiff/env.hwsd.t_ece.tif'
p5795
sg25
S'environmental'
p5796
sg27
S'env.hwsd.t_ece'
p5797
sg29
S'6350'
p5798
sg31
S'Harmonized World Soil Database topsoil ECE (salinity dS/m)'
p5799
sg33
g34
sg35
g36
sg37
S'env.hwsd.t_ece.tif'
p5800
sg39
S'env'
p5801
sg41
g42
sg43
I4326
sg44
S'current'
p5802
ssS't_silt'
p5803
(dp5804
g8
S'2015-03-24 17:29:21'
p5805
sg10
S'no'
p5806
sg12
S'hwsd.t_silt'
p5807
sg14
I148
sg15
S't_silt'
p5808
sg17
S'HWSD topsoil silt'
p5809
sg19
S'current'
p5810
sg21
S'hwsd'
p5811
sg23
S'../views/GTiff/env.hwsd.t_silt.tif'
p5812
sg25
S'environmental'
p5813
sg27
S'env.hwsd.t_silt'
p5814
sg29
S'6351'
p5815
sg31
S'Harmonized World Soil Database topsoil silt (% frac.)'
p5816
sg33
g34
sg35
g36
sg37
S'env.hwsd.t_silt.tif'
p5817
sg39
S'env'
p5818
sg41
g42
sg43
I4326
sg44
S'current'
p5819
ssS't_clay'
p5820
(dp5821
g8
S'2015-03-24 17:29:21'
p5822
sg10
S'no'
p5823
sg12
S'hwsd.t_clay'
p5824
sg14
I100
sg15
S't_clay'
p5825
sg17
S'HWSD topsoil clay'
p5826
sg19
S'current'
p5827
sg21
S'hwsd'
p5828
sg23
S'../views/GTiff/env.hwsd.t_clay.tif'
p5829
sg25
S'environmental'
p5830
sg27
S'env.hwsd.t_clay'
p5831
sg29
S'6352'
p5832
sg31
S'Harmonized World Soil Database topsoil clay (% frac.)'
p5833
sg33
g34
sg35
g36
sg37
S'env.hwsd.t_clay.tif'
p5834
sg39
S'env'
p5835
sg41
g42
sg43
I4326
sg44
S'current'
p5836
ssS't_caso4'
p5837
(dp5838
g8
S'2015-03-24 17:29:21'
p5839
sg10
S'yes'
p5840
sg12
S'hwsd.t_caso4'
p5841
sg14
I14
sg15
S't_caso4'
p5842
sg17
S'HWSD topsoil CASO4'
p5843
sg19
S'current'
p5844
sg21
g5716
sg23
S'../views/GTiff/env.hwsd.t_caso4.tif'
p5845
sg25
S'environmental'
p5846
sg27
S'env.hwsd.t_caso4'
p5847
sg29
S'6353'
p5848
sg31
S'Harmonized World Soil Database topsoil CASO4 (% weight)'
p5849
sg33
g34
sg35
g36
sg37
S'env.hwsd.t_caso4.tif'
p5850
sg39
g5714
sg41
g42
sg43
I4326
sg44
S'current'
p5851
ssS't_cecsoil'
p5852
(dp5853
g8
S'2015-03-24 17:29:21'
p5854
sg10
S'yes'
p5855
sg12
S'hwsd.t_cecsoil'
p5856
sg14
I264
sg15
S't_cecsoil'
p5857
sg17
S'HWSD topsoil CECsoil'
p5858
sg19
S'current'
p5859
sg21
S'hwsd'
p5860
sg23
S'../views/GTiff/env.hwsd.t_cecsoil.tif'
p5861
sg25
S'environmental'
p5862
sg27
S'env.hwsd.t_cecsoil'
p5863
sg29
S'6354'
p5864
sg31
S'Harmonized World Soil Database topsoil CECsoil (cmol/kg)'
p5865
sg33
g34
sg35
g36
sg37
S'env.hwsd.t_cecsoil.tif'
p5866
sg39
S'env'
p5867
sg41
g42
sg43
I4326
sg44
S'current'
p5868
ssS't_oc'
p5869
(dp5870
g8
S'2015-03-24 17:29:21'
p5871
sg10
S'no'
p5872
sg12
S'hwsd.t_oc'
p5873
sg14
I343
sg15
S't_oc'
p5874
sg17
S'HWSD topsoil oc'
p5875
sg19
S'current'
p5876
sg21
S'hwsd'
p5877
sg23
S'../views/GTiff/env.hwsd.t_oc.tif'
p5878
sg25
S'environmental'
p5879
sg27
S'env.hwsd.t_oc'
p5880
sg29
S'6355'
p5881
sg31
S'Harmonized World Soil Database topsoil organic carbon (% weight)'
p5882
sg33
g34
sg35
g36
sg37
S'env.hwsd.t_oc.tif'
p5883
sg39
S'env'
p5884
sg41
g42
sg43
I4326
sg44
S'current'
p5885
sssS'gmted2010'
p5886
(dp5887
S'elev_mean'
p5888
(dp5889
g8
S'2015-03-24 17:29:21'
p5890
sg10
S'no'
p5891
sg12
S'gmted2010.elev_mean'
p5892
sg14
I104
sg15
S'elev_mean'
p5893
sg17
S'USGS GMTED2010 Mean Elevation'
p5894
sg19
S'current'
p5895
sg21
g5886
sg23
S'../views/GTiff/env.gmted2010.elev_mean.tif'
p5896
sg25
S'environmental'
p5897
sg27
S'env.gmted2010.elev_mean'
p5898
sg29
S'6345'
p5899
sg31
S'USGS GMTED2010 Mean Elevation'
p5900
sg33
g34
sg35
g36
sg37
S'env.gmted2010.elev_mean.tif'
p5901
sg39
S'env'
p5902
sg41
g42
sg43
I4326
sg44
S'current'
p5903
ssss.