(dp1
S'clim'
p2
(dp3
S'current'
p4
(dp5
S'bio10'
p6
(dp7
S'created_at'
p8
S'2015-03-19 18:00:44'
p9
sS'Correlated'
p10
S'yes'
p11
sS'envLayerType'
p12
S'current.bio10'
p13
sS'Name'
p14
I311
sS'typeCode'
p15
S'bio10'
p16
sS'typeCodeDescription'
p17
S'Mean Temperature of Warmest Quarter'
p18
sS'RCP'
p19
S'current'
p20
sS'bioclim'
p21
S'current'
p22
sS'filePath'
p23
S'../views/GTiff/clim.current.bio10.tif'
p24
sS'filterType'
p25
S'climate'
p26
sS'fullname'
p27
S'clim.current.bio10'
p28
sS'lyrID'
p29
S'6264'
p30
sS'layerDescription'
p31
S'Mean Temperature of Warmest Quarter Current Climate 1960-2000'
p32
sS'dataFormat'
p33
S'GTiff'
p34
sS'units'
p35
S'dd'
p36
sS'title'
p37
S'clim.current.bio10.tif'
p38
sS'model'
p39
S'clim'
p40
sS'resolution'
p41
S'30'
p42
sS'epsgCode'
p43
I4326
sS'projectionDate'
p44
S'current'
p45
ssS'bio01'
p46
(dp47
g8
S'2015-03-19 18:00:44'
p48
sg10
S'no'
p49
sg12
S'current.bio01'
p50
sg14
I296
sg15
S'bio01'
p51
sg17
S'Annual Mean Temperature'
p52
sg19
S'current'
p53
sg21
S'current'
p54
sg23
S'../views/GTiff/clim.current.bio01.tif'
p55
sg25
S'climate'
p56
sg27
S'clim.current.bio01'
p57
sg29
S'6277'
p58
sg31
S'Annual Mean Temperature Current Climate 1960-2000'
p59
sg33
g34
sg35
g36
sg37
S'clim.current.bio01.tif'
p60
sg39
S'clim'
p61
sg41
g42
sg43
I4326
sg44
S'current'
p62
ssS'bio11'
p63
(dp64
g8
S'2015-03-19 18:00:44'
p65
sg10
S'yes'
p66
sg12
S'current.bio11'
p67
sg14
I336
sg15
S'bio11'
p68
sg17
S'Mean Temperature of Coldest Quarter'
p69
sg19
S'current'
p70
sg21
S'current'
p71
sg23
S'../views/GTiff/clim.current.bio11.tif'
p72
sg25
S'climate'
p73
sg27
S'clim.current.bio11'
p74
sg29
S'6267'
p75
sg31
S'Mean Temperature of Coldest Quarter Current Climate 1960-2000'
p76
sg33
g34
sg35
g36
sg37
S'clim.current.bio11.tif'
p77
sg39
S'clim'
p78
sg41
g42
sg43
I4326
sg44
S'current'
p79
ssS'bio15'
p80
(dp81
g8
S'2015-03-19 18:00:44'
p82
sg10
S'no'
p83
sg12
S'current.bio15'
p84
sg14
I125
sg15
S'bio15'
p85
sg17
S'Precipitation Seasonality (Coefficient of Variation)'
p86
sg19
S'current'
p87
sg21
S'current'
p88
sg23
S'../views/GTiff/clim.current.bio15.tif'
p89
sg25
S'climate'
p90
sg27
S'clim.current.bio15'
p91
sg29
S'6269'
p92
sg31
S'Precipitation Seasonality (Coefficient of Variation) Current Climate 1960-2000'
p93
sg33
g34
sg35
g36
sg37
S'clim.current.bio15.tif'
p94
sg39
S'clim'
p95
sg41
g42
sg43
I4326
sg44
S'current'
p96
ssS'bio05'
p97
(dp98
g8
S'2015-03-19 18:00:44'
p99
sg10
S'yes'
p100
sg12
S'current.bio05'
p101
sg14
I257
sg15
S'bio05'
p102
sg17
S'Max Temperature of Warmest Month'
p103
sg19
S'current'
p104
sg21
S'current'
p105
sg23
S'../views/GTiff/clim.current.bio05.tif'
p106
sg25
S'climate'
p107
sg27
S'clim.current.bio05'
p108
sg29
S'6273'
p109
sg31
S'Max Temperature of Warmest Month Current Climate 1960-2000'
p110
sg33
g34
sg35
g36
sg37
S'clim.current.bio05.tif'
p111
sg39
S'clim'
p112
sg41
g42
sg43
I4326
sg44
S'current'
p113
ssS'bio14'
p114
(dp115
g8
S'2015-03-19 18:00:44'
p116
sg10
S'yes'
p117
sg12
S'current.bio14'
p118
sg14
I287
sg15
S'bio14'
p119
sg17
S'Precipitation of Driest Month'
p120
sg19
S'current'
p121
sg21
S'current'
p122
sg23
S'../views/GTiff/clim.current.bio14.tif'
p123
sg25
S'climate'
p124
sg27
S'clim.current.bio14'
p125
sg29
S'6280'
p126
sg31
S'Precipitation of Driest Month Current Climate 1960-2000'
p127
sg33
g34
sg35
g36
sg37
S'clim.current.bio14.tif'
p128
sg39
S'clim'
p129
sg41
g42
sg43
I4326
sg44
S'current'
p130
ssS'bio07'
p131
(dp132
g8
S'2015-03-19 18:00:44'
p133
sg10
S'no'
p134
sg12
S'current.bio07'
p135
sg14
I62
sg15
S'bio07'
p136
sg17
S'Temperature Annual Range (BIO5-BIO6)'
p137
sg19
S'current'
p138
sg21
S'current'
p139
sg23
S'../views/GTiff/clim.current.bio07.tif'
p140
sg25
S'climate'
p141
sg27
S'clim.current.bio07'
p142
sg29
S'6271'
p143
sg31
S'Temperature Annual Range (BIO5-BIO6) Current Climate 1960-2000'
p144
sg33
g34
sg35
g36
sg37
S'clim.current.bio07.tif'
p145
sg39
S'clim'
p146
sg41
g42
sg43
I4326
sg44
S'current'
p147
ssS'bio06'
p148
(dp149
g8
S'2015-03-19 18:00:44'
p150
sg10
S'yes'
p151
sg12
S'current.bio06'
p152
sg14
I193
sg15
S'bio06'
p153
sg17
S'Min Temperature of Coldest Month'
p154
sg19
S'current'
p155
sg21
S'current'
p156
sg23
S'../views/GTiff/clim.current.bio06.tif'
p157
sg25
S'climate'
p158
sg27
S'clim.current.bio06'
p159
sg29
S'6272'
p160
sg31
S'Min Temperature of Coldest Month Current Climate 1960-2000'
p161
sg33
g34
sg35
g36
sg37
S'clim.current.bio06.tif'
p162
sg39
S'clim'
p163
sg41
g42
sg43
I4326
sg44
S'current'
p164
ssS'bio12'
p165
(dp166
g8
S'2015-03-19 18:00:44'
p167
sg10
S'no'
p168
sg12
S'current.bio12'
p169
sg14
I239
sg15
S'bio12'
p170
sg17
S'Annual Precipitation'
p171
sg19
S'current'
p172
sg21
S'current'
p173
sg23
S'../views/GTiff/clim.current.bio12.tif'
p174
sg25
S'climate'
p175
sg27
S'clim.current.bio12'
p176
sg29
S'6270'
p177
sg31
S'Annual Precipitation Current Climate 1960-2000'
p178
sg33
g34
sg35
g36
sg37
S'clim.current.bio12.tif'
p179
sg39
S'clim'
p180
sg41
g42
sg43
I4326
sg44
S'current'
p181
ssS'bio13'
p182
(dp183
g8
S'2015-03-19 18:00:44'
p184
sg10
S'yes'
p185
sg12
S'current.bio13'
p186
sg14
I42
sg15
S'bio13'
p187
sg17
S'Precipitation of Wettest Month'
p188
sg19
S'current'
p189
sg21
S'current'
p190
sg23
S'../views/GTiff/clim.current.bio13.tif'
p191
sg25
S'climate'
p192
sg27
S'clim.current.bio13'
p193
sg29
S'6266'
p194
sg31
S'Precipitation of Wettest Month Current Climate 1960-2000'
p195
sg33
g34
sg35
g36
sg37
S'clim.current.bio13.tif'
p196
sg39
S'clim'
p197
sg41
g42
sg43
I4326
sg44
S'current'
p198
ssS'bio03'
p199
(dp200
g8
S'2015-03-19 18:00:44'
p201
sg10
S'yes'
p202
sg12
S'current.bio03'
p203
sg14
I127
sg15
S'bio03'
p204
sg17
S'Isothermality (BIO2/BIO7) (* 100)'
p205
sg19
S'current'
p206
sg21
S'current'
p207
sg23
S'../views/GTiff/clim.current.bio03.tif'
p208
sg25
S'climate'
p209
sg27
S'clim.current.bio03'
p210
sg29
S'6275'
p211
sg31
S'Isothermality (BIO2/BIO7) (* 100) Current Climate 1960-2000'
p212
sg33
g34
sg35
g36
sg37
S'clim.current.bio03.tif'
p213
sg39
S'clim'
p214
sg41
g42
sg43
I4326
sg44
S'current'
p215
ssS'bio02'
p216
(dp217
g8
S'2015-03-19 18:00:44'
p218
sg10
S'yes'
p219
sg12
S'current.bio02'
p220
sg14
I15
sg15
S'bio02'
p221
sg17
S'Mean Diurnal Range (Mean of monthly (max temp - min temp))'
p222
sg19
S'current'
p223
sg21
S'current'
p224
sg23
S'../views/GTiff/clim.current.bio02.tif'
p225
sg25
S'climate'
p226
sg27
S'clim.current.bio02'
p227
sg29
S'6276'
p228
sg31
S'Mean Diurnal Range (Mean of monthly (max temp - min temp)) Current Climate 1960-2000'
p229
sg33
g34
sg35
g36
sg37
S'clim.current.bio02.tif'
p230
sg39
S'clim'
p231
sg41
g42
sg43
I4326
sg44
S'current'
p232
ssS'bio16'
p233
(dp234
g8
S'2015-03-19 18:00:44'
p235
sg10
S'yes'
p236
sg12
S'current.bio16'
p237
sg14
I5
sg15
S'bio16'
p238
sg17
S'Precipitation of Wettest Quarter'
p239
sg19
S'current'
p240
sg21
g4
sg23
S'../views/GTiff/clim.current.bio16.tif'
p241
sg25
S'climate'
p242
sg27
S'clim.current.bio16'
p243
sg29
S'6268'
p244
sg31
S'Precipitation of Wettest Quarter Current Climate 1960-2000'
p245
sg33
g34
sg35
g36
sg37
S'clim.current.bio16.tif'
p246
sg39
S'clim'
p247
sg41
g42
sg43
I4326
sg44
S'current'
p248
ssS'bio17'
p249
(dp250
g8
S'2015-03-19 18:00:44'
p251
sg10
S'yes'
p252
sg12
S'current.bio17'
p253
sg14
I301
sg15
S'bio17'
p254
sg17
S'Precipitation of Driest Quarter'
p255
sg19
S'current'
p256
sg21
S'current'
p257
sg23
S'../views/GTiff/clim.current.bio17.tif'
p258
sg25
S'climate'
p259
sg27
S'clim.current.bio17'
p260
sg29
S'6278'
p261
sg31
S'Precipitation of Driest Quarter Current Climate 1960-2000'
p262
sg33
g34
sg35
g36
sg37
S'clim.current.bio17.tif'
p263
sg39
S'clim'
p264
sg41
g42
sg43
I4326
sg44
S'current'
p265
ssS'bio18'
p266
(dp267
g8
S'2015-03-19 18:00:44'
p268
sg10
S'no'
p269
sg12
S'current.bio18'
p270
sg14
I315
sg15
S'bio18'
p271
sg17
S'Precipitation of Warmest Quarter'
p272
sg19
S'current'
p273
sg21
S'current'
p274
sg23
S'../views/GTiff/clim.current.bio18.tif'
p275
sg25
S'climate'
p276
sg27
S'clim.current.bio18'
p277
sg29
S'6279'
p278
sg31
S'Precipitation of Warmest Quarter Current Climate 1960-2000'
p279
sg33
g34
sg35
g36
sg37
S'clim.current.bio18.tif'
p280
sg39
S'clim'
p281
sg41
g42
sg43
I4326
sg44
S'current'
p282
ssS'bio19'
p283
(dp284
g8
S'2015-03-19 18:00:44'
p285
sg10
S'yes'
p286
sg12
S'current.bio19'
p287
sg14
I84
sg15
S'bio19'
p288
sg17
S'Precipitation of Coldest Quarter'
p289
sg19
S'current'
p290
sg21
S'current'
p291
sg23
S'../views/GTiff/clim.current.bio19.tif'
p292
sg25
S'climate'
p293
sg27
S'clim.current.bio19'
p294
sg29
S'6265'
p295
sg31
S'Precipitation of Coldest Quarter Current Climate 1960-2000'
p296
sg33
g34
sg35
g36
sg37
S'clim.current.bio19.tif'
p297
sg39
S'clim'
p298
sg41
g42
sg43
I4326
sg44
S'current'
p299
ssS'bio04'
p300
(dp301
g8
S'2015-03-19 18:00:44'
p302
sg10
S'yes'
p303
sg12
S'current.bio04'
p304
sg14
I292
sg15
S'bio04'
p305
sg17
S'Temperature Seasonality (standard deviation *100)'
p306
sg19
S'current'
p307
sg21
S'current'
p308
sg23
S'../views/GTiff/clim.current.bio04.tif'
p309
sg25
S'climate'
p310
sg27
S'clim.current.bio04'
p311
sg29
S'6274'
p312
sg31
S'Temperature Seasonality (standard deviation *100) Current Climate 1960-2000'
p313
sg33
g34
sg35
g36
sg37
S'clim.current.bio04.tif'
p314
sg39
S'clim'
p315
sg41
g42
sg43
I4326
sg44
S'current'
p316
ssS'bio09'
p317
(dp318
g8
S'2015-03-19 18:00:44'
p319
sg10
S'yes'
p320
sg12
S'current.bio09'
p321
sg14
I128
sg15
S'bio09'
p322
sg17
S'Mean Temperature of Driest Quarter'
p323
sg19
S'current'
p324
sg21
S'current'
p325
sg23
S'../views/GTiff/clim.current.bio09.tif'
p326
sg25
S'climate'
p327
sg27
S'clim.current.bio09'
p328
sg29
S'6281'
p329
sg31
S'Mean Temperature of Driest Quarter Current Climate 1960-2000'
p330
sg33
g34
sg35
g36
sg37
S'clim.current.bio09.tif'
p331
sg39
S'clim'
p332
sg41
g42
sg43
I4326
sg44
S'current'
p333
ssS'bio08'
p334
(dp335
g8
S'2015-03-19 18:00:44'
p336
sg10
S'no'
p337
sg12
S'current.bio08'
p338
sg14
I26
sg15
S'bio08'
p339
sg17
S'Mean Temperature of Wettest Quarter'
p340
sg19
S'current'
p341
sg21
S'current'
p342
sg23
S'../views/GTiff/clim.current.bio08.tif'
p343
sg25
S'climate'
p344
sg27
S'clim.current.bio08'
p345
sg29
S'6282'
p346
sg31
S'Mean Temperature of Wettest Quarter Current Climate 1960-2000'
p347
sg33
g34
sg35
g36
sg37
S'clim.current.bio08.tif'
p348
sg39
S'clim'
p349
sg41
g42
sg43
I4326
sg44
S'current'
p350
sssS'he2670'
p351
(dp352
S'bio07'
p353
(dp354
g8
S'2015-03-19 18:00:44'
p355
sg10
S'no'
p356
sg12
S'he2670.bio07'
p357
sg14
I142
sg15
S'bio07'
p358
sg17
S'Temperature Annual Range (BIO5-BIO6)'
p359
sg19
S'26'
p360
sg21
S'he2670'
p361
sg23
S'../views/GTiff/clim.he2670.bio07.tif'
p362
sg25
S'climate'
p363
sg27
S'clim.he2670.bio07'
p364
sg29
S'6154'
p365
sg31
S'Temperature Annual Range (BIO5-BIO6) HE RCP26 2070'
p366
sg33
g34
sg35
g36
sg37
S'clim.he2670.bio07.tif'
p367
sg39
S'clim'
p368
sg41
g42
sg43
I4326
sg44
S'2070'
p369
ssS'bio16'
p370
(dp371
g8
S'2015-03-19 18:00:44'
p372
sg10
S'yes'
p373
sg12
S'he2670.bio16'
p374
sg14
I186
sg15
S'bio16'
p375
sg17
S'Precipitation of Wettest Quarter'
p376
sg19
S'26'
p377
sg21
S'he2670'
p378
sg23
S'../views/GTiff/clim.he2670.bio16.tif'
p379
sg25
S'climate'
p380
sg27
S'clim.he2670.bio16'
p381
sg29
S'6151'
p382
sg31
S'Precipitation of Wettest Quarter HE RCP26 2070'
p383
sg33
g34
sg35
g36
sg37
S'clim.he2670.bio16.tif'
p384
sg39
S'clim'
p385
sg41
g42
sg43
I4326
sg44
S'2070'
p386
ssS'bio06'
p387
(dp388
g8
S'2015-03-19 18:00:44'
p389
sg10
S'yes'
p390
sg12
S'he2670.bio06'
p391
sg14
I202
sg15
S'bio06'
p392
sg17
S'Min Temperature of Coldest Month'
p393
sg19
S'26'
p394
sg21
S'he2670'
p395
sg23
S'../views/GTiff/clim.he2670.bio06.tif'
p396
sg25
S'climate'
p397
sg27
S'clim.he2670.bio06'
p398
sg29
S'6155'
p399
sg31
S'Min Temperature of Coldest Month HE RCP26 2070'
p400
sg33
g34
sg35
g36
sg37
S'clim.he2670.bio06.tif'
p401
sg39
S'clim'
p402
sg41
g42
sg43
I4326
sg44
S'2070'
p403
ssS'bio17'
p404
(dp405
g8
S'2015-03-19 18:00:44'
p406
sg10
S'yes'
p407
sg12
S'he2670.bio17'
p408
sg14
I308
sg15
S'bio17'
p409
sg17
S'Precipitation of Driest Quarter'
p410
sg19
S'26'
p411
sg21
S'he2670'
p412
sg23
S'../views/GTiff/clim.he2670.bio17.tif'
p413
sg25
S'climate'
p414
sg27
S'clim.he2670.bio17'
p415
sg29
S'6161'
p416
sg31
S'Precipitation of Driest Quarter HE RCP26 2070'
p417
sg33
g34
sg35
g36
sg37
S'clim.he2670.bio17.tif'
p418
sg39
S'clim'
p419
sg41
g42
sg43
I4326
sg44
S'2070'
p420
ssS'bio12'
p421
(dp422
g8
S'2015-03-19 18:00:44'
p423
sg10
S'no'
p424
sg12
S'he2670.bio12'
p425
sg14
I176
sg15
S'bio12'
p426
sg17
S'Annual Precipitation'
p427
sg19
S'26'
p428
sg21
S'he2670'
p429
sg23
S'../views/GTiff/clim.he2670.bio12.tif'
p430
sg25
S'climate'
p431
sg27
S'clim.he2670.bio12'
p432
sg29
S'6153'
p433
sg31
S'Annual Precipitation HE RCP26 2070'
p434
sg33
g34
sg35
g36
sg37
S'clim.he2670.bio12.tif'
p435
sg39
S'clim'
p436
sg41
g42
sg43
I4326
sg44
S'2070'
p437
ssS'bio10'
p438
(dp439
g8
S'2015-03-19 18:00:44'
p440
sg10
S'yes'
p441
sg12
S'he2670.bio10'
p442
sg14
I133
sg15
S'bio10'
p443
sg17
S'Mean Temperature of Warmest Quarter'
p444
sg19
S'26'
p445
sg21
S'he2670'
p446
sg23
S'../views/GTiff/clim.he2670.bio10.tif'
p447
sg25
S'climate'
p448
sg27
S'clim.he2670.bio10'
p449
sg29
S'6147'
p450
sg31
S'Mean Temperature of Warmest Quarter HE RCP26 2070'
p451
sg33
g34
sg35
g36
sg37
S'clim.he2670.bio10.tif'
p452
sg39
S'clim'
p453
sg41
g42
sg43
I4326
sg44
S'2070'
p454
ssS'bio11'
p455
(dp456
g8
S'2015-03-19 18:00:44'
p457
sg10
S'yes'
p458
sg12
S'he2670.bio11'
p459
sg14
I122
sg15
S'bio11'
p460
sg17
S'Mean Temperature of Coldest Quarter'
p461
sg19
S'26'
p462
sg21
S'he2670'
p463
sg23
S'../views/GTiff/clim.he2670.bio11.tif'
p464
sg25
S'climate'
p465
sg27
S'clim.he2670.bio11'
p466
sg29
S'6150'
p467
sg31
S'Mean Temperature of Coldest Quarter HE RCP26 2070'
p468
sg33
g34
sg35
g36
sg37
S'clim.he2670.bio11.tif'
p469
sg39
S'clim'
p470
sg41
g42
sg43
I4326
sg44
S'2070'
p471
ssS'bio05'
p472
(dp473
g8
S'2015-03-19 18:00:44'
p474
sg10
S'yes'
p475
sg12
S'he2670.bio05'
p476
sg14
I28
sg15
S'bio05'
p477
sg17
S'Max Temperature of Warmest Month'
p478
sg19
S'26'
p479
sg21
S'he2670'
p480
sg23
S'../views/GTiff/clim.he2670.bio05.tif'
p481
sg25
S'climate'
p482
sg27
S'clim.he2670.bio05'
p483
sg29
S'6156'
p484
sg31
S'Max Temperature of Warmest Month HE RCP26 2070'
p485
sg33
g34
sg35
g36
sg37
S'clim.he2670.bio05.tif'
p486
sg39
S'clim'
p487
sg41
g42
sg43
I4326
sg44
S'2070'
p488
ssS'bio13'
p489
(dp490
g8
S'2015-03-19 18:00:44'
p491
sg10
S'yes'
p492
sg12
S'he2670.bio13'
p493
sg14
I194
sg15
S'bio13'
p494
sg17
S'Precipitation of Wettest Month'
p495
sg19
S'26'
p496
sg21
S'he2670'
p497
sg23
S'../views/GTiff/clim.he2670.bio13.tif'
p498
sg25
S'climate'
p499
sg27
S'clim.he2670.bio13'
p500
sg29
S'6149'
p501
sg31
S'Precipitation of Wettest Month HE RCP26 2070'
p502
sg33
g34
sg35
g36
sg37
S'clim.he2670.bio13.tif'
p503
sg39
S'clim'
p504
sg41
g42
sg43
I4326
sg44
S'2070'
p505
ssS'bio03'
p506
(dp507
g8
S'2015-03-19 18:00:44'
p508
sg10
S'yes'
p509
sg12
S'he2670.bio03'
p510
sg14
I61
sg15
S'bio03'
p511
sg17
S'Isothermality (BIO2/BIO7) (* 100)'
p512
sg19
S'26'
p513
sg21
S'he2670'
p514
sg23
S'../views/GTiff/clim.he2670.bio03.tif'
p515
sg25
S'climate'
p516
sg27
S'clim.he2670.bio03'
p517
sg29
S'6158'
p518
sg31
S'Isothermality (BIO2/BIO7) (* 100) HE RCP26 2070'
p519
sg33
g34
sg35
g36
sg37
S'clim.he2670.bio03.tif'
p520
sg39
S'clim'
p521
sg41
g42
sg43
I4326
sg44
S'2070'
p522
ssS'bio02'
p523
(dp524
g8
S'2015-03-19 18:00:44'
p525
sg10
S'yes'
p526
sg12
S'he2670.bio02'
p527
sg14
I81
sg15
S'bio02'
p528
sg17
S'Mean Diurnal Range (Mean of monthly (max temp - min temp))'
p529
sg19
S'26'
p530
sg21
S'he2670'
p531
sg23
S'../views/GTiff/clim.he2670.bio02.tif'
p532
sg25
S'climate'
p533
sg27
S'clim.he2670.bio02'
p534
sg29
S'6159'
p535
sg31
S'Mean Diurnal Range (Mean of monthly (max temp - min temp)) HE RCP26 2070'
p536
sg33
g34
sg35
g36
sg37
S'clim.he2670.bio02.tif'
p537
sg39
S'clim'
p538
sg41
g42
sg43
I4326
sg44
S'2070'
p539
ssS'bio01'
p540
(dp541
g8
S'2015-03-19 18:00:44'
p542
sg10
S'no'
p543
sg12
S'he2670.bio01'
p544
sg14
I52
sg15
S'bio01'
p545
sg17
S'Annual Mean Temperature'
p546
sg19
S'26'
p547
sg21
S'he2670'
p548
sg23
S'../views/GTiff/clim.he2670.bio01.tif'
p549
sg25
S'climate'
p550
sg27
S'clim.he2670.bio01'
p551
sg29
S'6160'
p552
sg31
S'Annual Mean Temperature HE RCP26 2070'
p553
sg33
g34
sg35
g36
sg37
S'clim.he2670.bio01.tif'
p554
sg39
S'clim'
p555
sg41
g42
sg43
I4326
sg44
S'2070'
p556
ssS'bio19'
p557
(dp558
g8
S'2015-03-19 18:00:44'
p559
sg10
S'yes'
p560
sg12
S'he2670.bio19'
p561
sg14
I256
sg15
S'bio19'
p562
sg17
S'Precipitation of Coldest Quarter'
p563
sg19
S'26'
p564
sg21
S'he2670'
p565
sg23
S'../views/GTiff/clim.he2670.bio19.tif'
p566
sg25
S'climate'
p567
sg27
S'clim.he2670.bio19'
p568
sg29
S'6148'
p569
sg31
S'Precipitation of Coldest Quarter HE RCP26 2070'
p570
sg33
g34
sg35
g36
sg37
S'clim.he2670.bio19.tif'
p571
sg39
S'clim'
p572
sg41
g42
sg43
I4326
sg44
S'2070'
p573
ssS'bio18'
p574
(dp575
g8
S'2015-03-19 18:00:44'
p576
sg10
S'no'
p577
sg12
S'he2670.bio18'
p578
sg14
I188
sg15
S'bio18'
p579
sg17
S'Precipitation of Warmest Quarter'
p580
sg19
S'26'
p581
sg21
S'he2670'
p582
sg23
S'../views/GTiff/clim.he2670.bio18.tif'
p583
sg25
S'climate'
p584
sg27
S'clim.he2670.bio18'
p585
sg29
S'6162'
p586
sg31
S'Precipitation of Warmest Quarter HE RCP26 2070'
p587
sg33
g34
sg35
g36
sg37
S'clim.he2670.bio18.tif'
p588
sg39
S'clim'
p589
sg41
g42
sg43
I4326
sg44
S'2070'
p590
ssS'bio14'
p591
(dp592
g8
S'2015-03-19 18:00:44'
p593
sg10
S'yes'
p594
sg12
S'he2670.bio14'
p595
sg14
I207
sg15
S'bio14'
p596
sg17
S'Precipitation of Driest Month'
p597
sg19
S'26'
p598
sg21
S'he2670'
p599
sg23
S'../views/GTiff/clim.he2670.bio14.tif'
p600
sg25
S'climate'
p601
sg27
S'clim.he2670.bio14'
p602
sg29
S'6163'
p603
sg31
S'Precipitation of Driest Month HE RCP26 2070'
p604
sg33
g34
sg35
g36
sg37
S'clim.he2670.bio14.tif'
p605
sg39
S'clim'
p606
sg41
g42
sg43
I4326
sg44
S'2070'
p607
ssS'bio04'
p608
(dp609
g8
S'2015-03-19 18:00:44'
p610
sg10
S'yes'
p611
sg12
S'he2670.bio04'
p612
sg14
I228
sg15
S'bio04'
p613
sg17
S'Temperature Seasonality (standard deviation *100)'
p614
sg19
S'26'
p615
sg21
S'he2670'
p616
sg23
S'../views/GTiff/clim.he2670.bio04.tif'
p617
sg25
S'climate'
p618
sg27
S'clim.he2670.bio04'
p619
sg29
S'6157'
p620
sg31
S'Temperature Seasonality (standard deviation *100) HE RCP26 2070'
p621
sg33
g34
sg35
g36
sg37
S'clim.he2670.bio04.tif'
p622
sg39
S'clim'
p623
sg41
g42
sg43
I4326
sg44
S'2070'
p624
ssS'bio08'
p625
(dp626
g8
S'2015-03-19 18:00:44'
p627
sg10
S'no'
p628
sg12
S'he2670.bio08'
p629
sg14
I18
sg15
S'bio08'
p630
sg17
S'Mean Temperature of Wettest Quarter'
p631
sg19
S'26'
p632
sg21
g351
sg23
S'../views/GTiff/clim.he2670.bio08.tif'
p633
sg25
S'climate'
p634
sg27
S'clim.he2670.bio08'
p635
sg29
S'6165'
p636
sg31
S'Mean Temperature of Wettest Quarter HE RCP26 2070'
p637
sg33
g34
sg35
g36
sg37
S'clim.he2670.bio08.tif'
p638
sg39
S'clim'
p639
sg41
g42
sg43
I4326
sg44
S'2070'
p640
ssS'bio09'
p641
(dp642
g8
S'2015-03-19 18:00:44'
p643
sg10
S'yes'
p644
sg12
S'he2670.bio09'
p645
sg14
I156
sg15
S'bio09'
p646
sg17
S'Mean Temperature of Driest Quarter'
p647
sg19
S'26'
p648
sg21
S'he2670'
p649
sg23
S'../views/GTiff/clim.he2670.bio09.tif'
p650
sg25
S'climate'
p651
sg27
S'clim.he2670.bio09'
p652
sg29
S'6164'
p653
sg31
S'Mean Temperature of Driest Quarter HE RCP26 2070'
p654
sg33
g34
sg35
g36
sg37
S'clim.he2670.bio09.tif'
p655
sg39
S'clim'
p656
sg41
g42
sg43
I4326
sg44
S'2070'
p657
ssS'bio15'
p658
(dp659
g8
S'2015-03-19 18:00:44'
p660
sg10
S'no'
p661
sg12
S'he2670.bio15'
p662
sg14
I70
sg15
S'bio15'
p663
sg17
S'Precipitation Seasonality (Coefficient of Variation)'
p664
sg19
S'26'
p665
sg21
S'he2670'
p666
sg23
S'../views/GTiff/clim.he2670.bio15.tif'
p667
sg25
S'climate'
p668
sg27
S'clim.he2670.bio15'
p669
sg29
S'6152'
p670
sg31
S'Precipitation Seasonality (Coefficient of Variation) HE RCP26 2070'
p671
sg33
g34
sg35
g36
sg37
S'clim.he2670.bio15.tif'
p672
sg39
S'clim'
p673
sg41
g42
sg43
I4326
sg44
S'2070'
p674
sssS'he8550'
p675
(dp676
S'bio07'
p677
(dp678
g8
S'2015-03-19 18:00:44'
p679
sg10
S'no'
p680
sg12
S'he8550.bio07'
p681
sg14
I295
sg15
S'bio07'
p682
sg17
S'Temperature Annual Range (BIO5-BIO6)'
p683
sg19
S'85'
p684
sg21
S'he8550'
p685
sg23
S'../views/GTiff/clim.he8550.bio07.tif'
p686
sg25
S'climate'
p687
sg27
S'clim.he8550.bio07'
p688
sg29
S'6176'
p689
sg31
S'Temperature Annual Range (BIO5-BIO6) HE RCP85 2050'
p690
sg33
g34
sg35
g36
sg37
S'clim.he8550.bio07.tif'
p691
sg39
S'clim'
p692
sg41
g42
sg43
I4326
sg44
S'2050'
p693
ssS'bio13'
p694
(dp695
g8
S'2015-03-19 18:00:44'
p696
sg10
S'yes'
p697
sg12
S'he8550.bio13'
p698
sg14
I300
sg15
S'bio13'
p699
sg17
S'Precipitation of Wettest Month'
p700
sg19
S'85'
p701
sg21
S'he8550'
p702
sg23
S'../views/GTiff/clim.he8550.bio13.tif'
p703
sg25
S'climate'
p704
sg27
S'clim.he8550.bio13'
p705
sg29
S'6171'
p706
sg31
S'Precipitation of Wettest Month HE RCP85 2050'
p707
sg33
g34
sg35
g36
sg37
S'clim.he8550.bio13.tif'
p708
sg39
S'clim'
p709
sg41
g42
sg43
I4326
sg44
S'2050'
p710
ssS'bio16'
p711
(dp712
g8
S'2015-03-19 18:00:44'
p713
sg10
S'yes'
p714
sg12
S'he8550.bio16'
p715
sg14
I114
sg15
S'bio16'
p716
sg17
S'Precipitation of Wettest Quarter'
p717
sg19
S'85'
p718
sg21
S'he8550'
p719
sg23
S'../views/GTiff/clim.he8550.bio16.tif'
p720
sg25
S'climate'
p721
sg27
S'clim.he8550.bio16'
p722
sg29
S'6173'
p723
sg31
S'Precipitation of Wettest Quarter HE RCP85 2050'
p724
sg33
g34
sg35
g36
sg37
S'clim.he8550.bio16.tif'
p725
sg39
S'clim'
p726
sg41
g42
sg43
I4326
sg44
S'2050'
p727
ssS'bio06'
p728
(dp729
g8
S'2015-03-19 18:00:44'
p730
sg10
S'yes'
p731
sg12
S'he8550.bio06'
p732
sg14
I332
sg15
S'bio06'
p733
sg17
S'Min Temperature of Coldest Month'
p734
sg19
S'85'
p735
sg21
S'he8550'
p736
sg23
S'../views/GTiff/clim.he8550.bio06.tif'
p737
sg25
S'climate'
p738
sg27
S'clim.he8550.bio06'
p739
sg29
S'6177'
p740
sg31
S'Min Temperature of Coldest Month HE RCP85 2050'
p741
sg33
g34
sg35
g36
sg37
S'clim.he8550.bio06.tif'
p742
sg39
S'clim'
p743
sg41
g42
sg43
I4326
sg44
S'2050'
p744
ssS'bio05'
p745
(dp746
g8
S'2015-03-19 18:00:44'
p747
sg10
S'yes'
p748
sg12
S'he8550.bio05'
p749
sg14
I217
sg15
S'bio05'
p750
sg17
S'Max Temperature of Warmest Month'
p751
sg19
S'85'
p752
sg21
S'he8550'
p753
sg23
S'../views/GTiff/clim.he8550.bio05.tif'
p754
sg25
S'climate'
p755
sg27
S'clim.he8550.bio05'
p756
sg29
S'6178'
p757
sg31
S'Max Temperature of Warmest Month HE RCP85 2050'
p758
sg33
g34
sg35
g36
sg37
S'clim.he8550.bio05.tif'
p759
sg39
S'clim'
p760
sg41
g42
sg43
I4326
sg44
S'2050'
p761
ssS'bio10'
p762
(dp763
g8
S'2015-03-19 18:00:44'
p764
sg10
S'yes'
p765
sg12
S'he8550.bio10'
p766
sg14
I103
sg15
S'bio10'
p767
sg17
S'Mean Temperature of Warmest Quarter'
p768
sg19
S'85'
p769
sg21
S'he8550'
p770
sg23
S'../views/GTiff/clim.he8550.bio10.tif'
p771
sg25
S'climate'
p772
sg27
S'clim.he8550.bio10'
p773
sg29
S'6169'
p774
sg31
S'Mean Temperature of Warmest Quarter HE RCP85 2050'
p775
sg33
g34
sg35
g36
sg37
S'clim.he8550.bio10.tif'
p776
sg39
S'clim'
p777
sg41
g42
sg43
I4326
sg44
S'2050'
p778
ssS'bio11'
p779
(dp780
g8
S'2015-03-19 18:00:44'
p781
sg10
S'yes'
p782
sg12
S'he8550.bio11'
p783
sg14
I191
sg15
S'bio11'
p784
sg17
S'Mean Temperature of Coldest Quarter'
p785
sg19
S'85'
p786
sg21
S'he8550'
p787
sg23
S'../views/GTiff/clim.he8550.bio11.tif'
p788
sg25
S'climate'
p789
sg27
S'clim.he8550.bio11'
p790
sg29
S'6172'
p791
sg31
S'Mean Temperature of Coldest Quarter HE RCP85 2050'
p792
sg33
g34
sg35
g36
sg37
S'clim.he8550.bio11.tif'
p793
sg39
S'clim'
p794
sg41
g42
sg43
I4326
sg44
S'2050'
p795
ssS'bio12'
p796
(dp797
g8
S'2015-03-19 18:00:44'
p798
sg10
S'no'
p799
sg12
S'he8550.bio12'
p800
sg14
I68
sg15
S'bio12'
p801
sg17
S'Annual Precipitation'
p802
sg19
S'85'
p803
sg21
S'he8550'
p804
sg23
S'../views/GTiff/clim.he8550.bio12.tif'
p805
sg25
S'climate'
p806
sg27
S'clim.he8550.bio12'
p807
sg29
S'6175'
p808
sg31
S'Annual Precipitation HE RCP85 2050'
p809
sg33
g34
sg35
g36
sg37
S'clim.he8550.bio12.tif'
p810
sg39
S'clim'
p811
sg41
g42
sg43
I4326
sg44
S'2050'
p812
ssS'bio04'
p813
(dp814
g8
S'2015-03-19 18:00:44'
p815
sg10
S'yes'
p816
sg12
S'he8550.bio04'
p817
sg14
I118
sg15
S'bio04'
p818
sg17
S'Temperature Seasonality (standard deviation *100)'
p819
sg19
S'85'
p820
sg21
S'he8550'
p821
sg23
S'../views/GTiff/clim.he8550.bio04.tif'
p822
sg25
S'climate'
p823
sg27
S'clim.he8550.bio04'
p824
sg29
S'6179'
p825
sg31
S'Temperature Seasonality (standard deviation *100) HE RCP85 2050'
p826
sg33
g34
sg35
g36
sg37
S'clim.he8550.bio04.tif'
p827
sg39
S'clim'
p828
sg41
g42
sg43
I4326
sg44
S'2050'
p829
ssS'bio14'
p830
(dp831
g8
S'2015-03-19 18:00:44'
p832
sg10
S'yes'
p833
sg12
S'he8550.bio14'
p834
sg14
I11
sg15
S'bio14'
p835
sg17
S'Precipitation of Driest Month'
p836
sg19
S'85'
p837
sg21
g675
sg23
S'../views/GTiff/clim.he8550.bio14.tif'
p838
sg25
S'climate'
p839
sg27
S'clim.he8550.bio14'
p840
sg29
S'6185'
p841
sg31
S'Precipitation of Driest Month HE RCP85 2050'
p842
sg33
g34
sg35
g36
sg37
S'clim.he8550.bio14.tif'
p843
sg39
S'clim'
p844
sg41
g42
sg43
I4326
sg44
S'2050'
p845
ssS'bio02'
p846
(dp847
g8
S'2015-03-19 18:00:44'
p848
sg10
S'yes'
p849
sg12
S'he8550.bio02'
p850
sg14
I107
sg15
S'bio02'
p851
sg17
S'Mean Diurnal Range (Mean of monthly (max temp - min temp))'
p852
sg19
S'85'
p853
sg21
S'he8550'
p854
sg23
S'../views/GTiff/clim.he8550.bio02.tif'
p855
sg25
S'climate'
p856
sg27
S'clim.he8550.bio02'
p857
sg29
S'6181'
p858
sg31
S'Mean Diurnal Range (Mean of monthly (max temp - min temp)) HE RCP85 2050'
p859
sg33
g34
sg35
g36
sg37
S'clim.he8550.bio02.tif'
p860
sg39
S'clim'
p861
sg41
g42
sg43
I4326
sg44
S'2050'
p862
ssS'bio01'
p863
(dp864
g8
S'2015-03-19 18:00:44'
p865
sg10
S'no'
p866
sg12
S'he8550.bio01'
p867
sg14
I57
sg15
S'bio01'
p868
sg17
S'Annual Mean Temperature'
p869
sg19
S'85'
p870
sg21
S'he8550'
p871
sg23
S'../views/GTiff/clim.he8550.bio01.tif'
p872
sg25
S'climate'
p873
sg27
S'clim.he8550.bio01'
p874
sg29
S'6182'
p875
sg31
S'Annual Mean Temperature HE RCP85 2050'
p876
sg33
g34
sg35
g36
sg37
S'clim.he8550.bio01.tif'
p877
sg39
S'clim'
p878
sg41
g42
sg43
I4326
sg44
S'2050'
p879
ssS'bio17'
p880
(dp881
g8
S'2015-03-19 18:00:44'
p882
sg10
S'yes'
p883
sg12
S'he8550.bio17'
p884
sg14
I250
sg15
S'bio17'
p885
sg17
S'Precipitation of Driest Quarter'
p886
sg19
S'85'
p887
sg21
S'he8550'
p888
sg23
S'../views/GTiff/clim.he8550.bio17.tif'
p889
sg25
S'climate'
p890
sg27
S'clim.he8550.bio17'
p891
sg29
S'6183'
p892
sg31
S'Precipitation of Driest Quarter HE RCP85 2050'
p893
sg33
g34
sg35
g36
sg37
S'clim.he8550.bio17.tif'
p894
sg39
S'clim'
p895
sg41
g42
sg43
I4326
sg44
S'2050'
p896
ssS'bio18'
p897
(dp898
g8
S'2015-03-19 18:00:44'
p899
sg10
S'no'
p900
sg12
S'he8550.bio18'
p901
sg14
I132
sg15
S'bio18'
p902
sg17
S'Precipitation of Warmest Quarter'
p903
sg19
S'85'
p904
sg21
S'he8550'
p905
sg23
S'../views/GTiff/clim.he8550.bio18.tif'
p906
sg25
S'climate'
p907
sg27
S'clim.he8550.bio18'
p908
sg29
S'6184'
p909
sg31
S'Precipitation of Warmest Quarter HE RCP85 2050'
p910
sg33
g34
sg35
g36
sg37
S'clim.he8550.bio18.tif'
p911
sg39
S'clim'
p912
sg41
g42
sg43
I4326
sg44
S'2050'
p913
ssS'bio19'
p914
(dp915
g8
S'2015-03-19 18:00:44'
p916
sg10
S'yes'
p917
sg12
S'he8550.bio19'
p918
sg14
I22
sg15
S'bio19'
p919
sg17
S'Precipitation of Coldest Quarter'
p920
sg19
S'85'
p921
sg21
S'he8550'
p922
sg23
S'../views/GTiff/clim.he8550.bio19.tif'
p923
sg25
S'climate'
p924
sg27
S'clim.he8550.bio19'
p925
sg29
S'6170'
p926
sg31
S'Precipitation of Coldest Quarter HE RCP85 2050'
p927
sg33
g34
sg35
g36
sg37
S'clim.he8550.bio19.tif'
p928
sg39
S'clim'
p929
sg41
g42
sg43
I4326
sg44
S'2050'
p930
ssS'bio08'
p931
(dp932
g8
S'2015-03-19 18:00:44'
p933
sg10
S'no'
p934
sg12
S'he8550.bio08'
p935
sg14
I322
sg15
S'bio08'
p936
sg17
S'Mean Temperature of Wettest Quarter'
p937
sg19
S'85'
p938
sg21
S'he8550'
p939
sg23
S'../views/GTiff/clim.he8550.bio08.tif'
p940
sg25
S'climate'
p941
sg27
S'clim.he8550.bio08'
p942
sg29
S'6187'
p943
sg31
S'Mean Temperature of Wettest Quarter HE RCP85 2050'
p944
sg33
g34
sg35
g36
sg37
S'clim.he8550.bio08.tif'
p945
sg39
S'clim'
p946
sg41
g42
sg43
I4326
sg44
S'2050'
p947
ssS'bio03'
p948
(dp949
g8
S'2015-03-19 18:00:44'
p950
sg10
S'yes'
p951
sg12
S'he8550.bio03'
p952
sg14
I326
sg15
S'bio03'
p953
sg17
S'Isothermality (BIO2/BIO7) (* 100)'
p954
sg19
S'85'
p955
sg21
S'he8550'
p956
sg23
S'../views/GTiff/clim.he8550.bio03.tif'
p957
sg25
S'climate'
p958
sg27
S'clim.he8550.bio03'
p959
sg29
S'6180'
p960
sg31
S'Isothermality (BIO2/BIO7) (* 100) HE RCP85 2050'
p961
sg33
g34
sg35
g36
sg37
S'clim.he8550.bio03.tif'
p962
sg39
S'clim'
p963
sg41
g42
sg43
I4326
sg44
S'2050'
p964
ssS'bio09'
p965
(dp966
g8
S'2015-03-19 18:00:44'
p967
sg10
S'yes'
p968
sg12
S'he8550.bio09'
p969
sg14
I120
sg15
S'bio09'
p970
sg17
S'Mean Temperature of Driest Quarter'
p971
sg19
S'85'
p972
sg21
S'he8550'
p973
sg23
S'../views/GTiff/clim.he8550.bio09.tif'
p974
sg25
S'climate'
p975
sg27
S'clim.he8550.bio09'
p976
sg29
S'6186'
p977
sg31
S'Mean Temperature of Driest Quarter HE RCP85 2050'
p978
sg33
g34
sg35
g36
sg37
S'clim.he8550.bio09.tif'
p979
sg39
S'clim'
p980
sg41
g42
sg43
I4326
sg44
S'2050'
p981
ssS'bio15'
p982
(dp983
g8
S'2015-03-19 18:00:44'
p984
sg10
S'no'
p985
sg12
S'he8550.bio15'
p986
sg14
I108
sg15
S'bio15'
p987
sg17
S'Precipitation Seasonality (Coefficient of Variation)'
p988
sg19
S'85'
p989
sg21
S'he8550'
p990
sg23
S'../views/GTiff/clim.he8550.bio15.tif'
p991
sg25
S'climate'
p992
sg27
S'clim.he8550.bio15'
p993
sg29
S'6174'
p994
sg31
S'Precipitation Seasonality (Coefficient of Variation) HE RCP85 2050'
p995
sg33
g34
sg35
g36
sg37
S'clim.he8550.bio15.tif'
p996
sg39
S'clim'
p997
sg41
g42
sg43
I4326
sg44
S'2050'
p998
sssS'he6070'
p999
(dp1000
S'bio07'
p1001
(dp1002
g8
S'2015-03-19 18:00:44'
p1003
sg10
S'no'
p1004
sg12
S'he6070.bio07'
p1005
sg14
I101
sg15
S'bio07'
p1006
sg17
S'Temperature Annual Range (BIO5-BIO6)'
p1007
sg19
S'60'
p1008
sg21
S'he6070'
p1009
sg23
S'../views/GTiff/clim.he6070.bio07.tif'
p1010
sg25
S'climate'
p1011
sg27
S'clim.he6070.bio07'
p1012
sg29
S'6363'
p1013
sg31
S'Temperature Annual Range (BIO5-BIO6) HE RCP60 2070'
p1014
sg33
g34
sg35
g36
sg37
S'clim.he6070.bio07.tif'
p1015
sg39
S'clim'
p1016
sg41
g42
sg43
I4326
sg44
S'2070'
p1017
ssS'bio01'
p1018
(dp1019
g8
S'2015-03-19 18:00:44'
p1020
sg10
S'no'
p1021
sg12
S'he6070.bio01'
p1022
sg14
I241
sg15
S'bio01'
p1023
sg17
S'Annual Mean Temperature'
p1024
sg19
S'60'
p1025
sg21
S'he6070'
p1026
sg23
S'../views/GTiff/clim.he6070.bio01.tif'
p1027
sg25
S'climate'
p1028
sg27
S'clim.he6070.bio01'
p1029
sg29
S'6369'
p1030
sg31
S'Annual Mean Temperature HE RCP60 2070'
p1031
sg33
g34
sg35
g36
sg37
S'clim.he6070.bio01.tif'
p1032
sg39
S'clim'
p1033
sg41
g42
sg43
I4326
sg44
S'2070'
p1034
ssS'bio11'
p1035
(dp1036
g8
S'2015-03-19 18:00:44'
p1037
sg10
S'yes'
p1038
sg12
S'he6070.bio11'
p1039
sg14
I288
sg15
S'bio11'
p1040
sg17
S'Mean Temperature of Coldest Quarter'
p1041
sg19
S'60'
p1042
sg21
S'he6070'
p1043
sg23
S'../views/GTiff/clim.he6070.bio11.tif'
p1044
sg25
S'climate'
p1045
sg27
S'clim.he6070.bio11'
p1046
sg29
S'6359'
p1047
sg31
S'Mean Temperature of Coldest Quarter HE RCP60 2070'
p1048
sg33
g34
sg35
g36
sg37
S'clim.he6070.bio11.tif'
p1049
sg39
S'clim'
p1050
sg41
g42
sg43
I4326
sg44
S'2070'
p1051
ssS'bio09'
p1052
(dp1053
g8
S'2015-03-19 18:00:44'
p1054
sg10
S'yes'
p1055
sg12
S'he6070.bio09'
p1056
sg14
I146
sg15
S'bio09'
p1057
sg17
S'Mean Temperature of Driest Quarter'
p1058
sg19
S'60'
p1059
sg21
S'he6070'
p1060
sg23
S'../views/GTiff/clim.he6070.bio09.tif'
p1061
sg25
S'climate'
p1062
sg27
S'clim.he6070.bio09'
p1063
sg29
S'6373'
p1064
sg31
S'Mean Temperature of Driest Quarter HE RCP60 2070'
p1065
sg33
g34
sg35
g36
sg37
S'clim.he6070.bio09.tif'
p1066
sg39
S'clim'
p1067
sg41
g42
sg43
I4326
sg44
S'2070'
p1068
ssS'bio17'
p1069
(dp1070
g8
S'2015-03-19 18:00:44'
p1071
sg10
S'yes'
p1072
sg12
S'he6070.bio17'
p1073
sg14
I184
sg15
S'bio17'
p1074
sg17
S'Precipitation of Driest Quarter'
p1075
sg19
S'60'
p1076
sg21
S'he6070'
p1077
sg23
S'../views/GTiff/clim.he6070.bio17.tif'
p1078
sg25
S'climate'
p1079
sg27
S'clim.he6070.bio17'
p1080
sg29
S'6370'
p1081
sg31
S'Precipitation of Driest Quarter HE RCP60 2070'
p1082
sg33
g34
sg35
g36
sg37
S'clim.he6070.bio17.tif'
p1083
sg39
S'clim'
p1084
sg41
g42
sg43
I4326
sg44
S'2070'
p1085
ssS'bio05'
p1086
(dp1087
g8
S'2015-03-19 18:00:44'
p1088
sg10
S'yes'
p1089
sg12
S'he6070.bio05'
p1090
sg14
I161
sg15
S'bio05'
p1091
sg17
S'Max Temperature of Warmest Month'
p1092
sg19
S'60'
p1093
sg21
S'he6070'
p1094
sg23
S'../views/GTiff/clim.he6070.bio05.tif'
p1095
sg25
S'climate'
p1096
sg27
S'clim.he6070.bio05'
p1097
sg29
S'6365'
p1098
sg31
S'Max Temperature of Warmest Month HE RCP60 2070'
p1099
sg33
g34
sg35
g36
sg37
S'clim.he6070.bio05.tif'
p1100
sg39
S'clim'
p1101
sg41
g42
sg43
I4326
sg44
S'2070'
p1102
ssS'bio10'
p1103
(dp1104
g8
S'2015-03-19 18:00:44'
p1105
sg10
S'yes'
p1106
sg12
S'he6070.bio10'
p1107
sg14
I82
sg15
S'bio10'
p1108
sg17
S'Mean Temperature of Warmest Quarter'
p1109
sg19
S'60'
p1110
sg21
S'he6070'
p1111
sg23
S'../views/GTiff/clim.he6070.bio10.tif'
p1112
sg25
S'climate'
p1113
sg27
S'clim.he6070.bio10'
p1114
sg29
S'6356'
p1115
sg31
S'Mean Temperature of Warmest Quarter HE RCP60 2070'
p1116
sg33
g34
sg35
g36
sg37
S'clim.he6070.bio10.tif'
p1117
sg39
S'clim'
p1118
sg41
g42
sg43
I4326
sg44
S'2070'
p1119
ssS'bio06'
p1120
(dp1121
g8
S'2015-03-19 18:00:44'
p1122
sg10
S'yes'
p1123
sg12
S'he6070.bio06'
p1124
sg14
I219
sg15
S'bio06'
p1125
sg17
S'Min Temperature of Coldest Month'
p1126
sg19
S'60'
p1127
sg21
S'he6070'
p1128
sg23
S'../views/GTiff/clim.he6070.bio06.tif'
p1129
sg25
S'climate'
p1130
sg27
S'clim.he6070.bio06'
p1131
sg29
S'6364'
p1132
sg31
S'Min Temperature of Coldest Month HE RCP60 2070'
p1133
sg33
g34
sg35
g36
sg37
S'clim.he6070.bio06.tif'
p1134
sg39
S'clim'
p1135
sg41
g42
sg43
I4326
sg44
S'2070'
p1136
ssS'bio12'
p1137
(dp1138
g8
S'2015-03-19 18:00:44'
p1139
sg10
S'no'
p1140
sg12
S'he6070.bio12'
p1141
sg14
I150
sg15
S'bio12'
p1142
sg17
S'Annual Precipitation'
p1143
sg19
S'60'
p1144
sg21
S'he6070'
p1145
sg23
S'../views/GTiff/clim.he6070.bio12.tif'
p1146
sg25
S'climate'
p1147
sg27
S'clim.he6070.bio12'
p1148
sg29
S'6362'
p1149
sg31
S'Annual Precipitation HE RCP60 2070'
p1150
sg33
g34
sg35
g36
sg37
S'clim.he6070.bio12.tif'
p1151
sg39
S'clim'
p1152
sg41
g42
sg43
I4326
sg44
S'2070'
p1153
ssS'bio13'
p1154
(dp1155
g8
S'2015-03-19 18:00:44'
p1156
sg10
S'yes'
p1157
sg12
S'he6070.bio13'
p1158
sg14
I59
sg15
S'bio13'
p1159
sg17
S'Precipitation of Wettest Month'
p1160
sg19
S'60'
p1161
sg21
S'he6070'
p1162
sg23
S'../views/GTiff/clim.he6070.bio13.tif'
p1163
sg25
S'climate'
p1164
sg27
S'clim.he6070.bio13'
p1165
sg29
S'6358'
p1166
sg31
S'Precipitation of Wettest Month HE RCP60 2070'
p1167
sg33
g34
sg35
g36
sg37
S'clim.he6070.bio13.tif'
p1168
sg39
S'clim'
p1169
sg41
g42
sg43
I4326
sg44
S'2070'
p1170
ssS'bio03'
p1171
(dp1172
g8
S'2015-03-19 18:00:44'
p1173
sg10
S'yes'
p1174
sg12
S'he6070.bio03'
p1175
sg14
I87
sg15
S'bio03'
p1176
sg17
S'Isothermality (BIO2/BIO7) (* 100)'
p1177
sg19
S'60'
p1178
sg21
S'he6070'
p1179
sg23
S'../views/GTiff/clim.he6070.bio03.tif'
p1180
sg25
S'climate'
p1181
sg27
S'clim.he6070.bio03'
p1182
sg29
S'6367'
p1183
sg31
S'Isothermality (BIO2/BIO7) (* 100) HE RCP60 2070'
p1184
sg33
g34
sg35
g36
sg37
S'clim.he6070.bio03.tif'
p1185
sg39
S'clim'
p1186
sg41
g42
sg43
I4326
sg44
S'2070'
p1187
ssS'bio15'
p1188
(dp1189
g8
S'2015-03-19 18:00:44'
p1190
sg10
S'no'
p1191
sg12
S'he6070.bio15'
p1192
sg14
I48
sg15
S'bio15'
p1193
sg17
S'Precipitation Seasonality (Coefficient of Variation)'
p1194
sg19
S'60'
p1195
sg21
S'he6070'
p1196
sg23
S'../views/GTiff/clim.he6070.bio15.tif'
p1197
sg25
S'climate'
p1198
sg27
S'clim.he6070.bio15'
p1199
sg29
S'6361'
p1200
sg31
S'Precipitation Seasonality (Coefficient of Variation) HE RCP60 2070'
p1201
sg33
g34
sg35
g36
sg37
S'clim.he6070.bio15.tif'
p1202
sg39
S'clim'
p1203
sg41
g42
sg43
I4326
sg44
S'2070'
p1204
ssS'bio16'
p1205
(dp1206
g8
S'2015-03-19 18:00:44'
p1207
sg10
S'yes'
p1208
sg12
S'he6070.bio16'
p1209
sg14
I110
sg15
S'bio16'
p1210
sg17
S'Precipitation of Wettest Quarter'
p1211
sg19
S'60'
p1212
sg21
S'he6070'
p1213
sg23
S'../views/GTiff/clim.he6070.bio16.tif'
p1214
sg25
S'climate'
p1215
sg27
S'clim.he6070.bio16'
p1216
sg29
S'6360'
p1217
sg31
S'Precipitation of Wettest Quarter HE RCP60 2070'
p1218
sg33
g34
sg35
g36
sg37
S'clim.he6070.bio16.tif'
p1219
sg39
S'clim'
p1220
sg41
g42
sg43
I4326
sg44
S'2070'
p1221
ssS'bio19'
p1222
(dp1223
g8
S'2015-03-19 18:00:44'
p1224
sg10
S'yes'
p1225
sg12
S'he6070.bio19'
p1226
sg14
I98
sg15
S'bio19'
p1227
sg17
S'Precipitation of Coldest Quarter'
p1228
sg19
S'60'
p1229
sg21
S'he6070'
p1230
sg23
S'../views/GTiff/clim.he6070.bio19.tif'
p1231
sg25
S'climate'
p1232
sg27
S'clim.he6070.bio19'
p1233
sg29
S'6357'
p1234
sg31
S'Precipitation of Coldest Quarter HE RCP60 2070'
p1235
sg33
g34
sg35
g36
sg37
S'clim.he6070.bio19.tif'
p1236
sg39
S'clim'
p1237
sg41
g42
sg43
I4326
sg44
S'2070'
p1238
ssS'bio18'
p1239
(dp1240
g8
S'2015-03-19 18:00:44'
p1241
sg10
S'no'
p1242
sg12
S'he6070.bio18'
p1243
sg14
I154
sg15
S'bio18'
p1244
sg17
S'Precipitation of Warmest Quarter'
p1245
sg19
S'60'
p1246
sg21
S'he6070'
p1247
sg23
S'../views/GTiff/clim.he6070.bio18.tif'
p1248
sg25
S'climate'
p1249
sg27
S'clim.he6070.bio18'
p1250
sg29
S'6371'
p1251
sg31
S'Precipitation of Warmest Quarter HE RCP60 2070'
p1252
sg33
g34
sg35
g36
sg37
S'clim.he6070.bio18.tif'
p1253
sg39
S'clim'
p1254
sg41
g42
sg43
I4326
sg44
S'2070'
p1255
ssS'bio14'
p1256
(dp1257
g8
S'2015-03-19 18:00:44'
p1258
sg10
S'yes'
p1259
sg12
S'he6070.bio14'
p1260
sg14
I25
sg15
S'bio14'
p1261
sg17
S'Precipitation of Driest Month'
p1262
sg19
S'60'
p1263
sg21
g999
sg23
S'../views/GTiff/clim.he6070.bio14.tif'
p1264
sg25
S'climate'
p1265
sg27
S'clim.he6070.bio14'
p1266
sg29
S'6372'
p1267
sg31
S'Precipitation of Driest Month HE RCP60 2070'
p1268
sg33
g34
sg35
g36
sg37
S'clim.he6070.bio14.tif'
p1269
sg39
S'clim'
p1270
sg41
g42
sg43
I4326
sg44
S'2070'
p1271
ssS'bio02'
p1272
(dp1273
g8
S'2015-03-19 18:00:44'
p1274
sg10
S'yes'
p1275
sg12
S'he6070.bio02'
p1276
sg14
I278
sg15
S'bio02'
p1277
sg17
S'Mean Diurnal Range (Mean of monthly (max temp - min temp))'
p1278
sg19
S'60'
p1279
sg21
S'he6070'
p1280
sg23
S'../views/GTiff/clim.he6070.bio02.tif'
p1281
sg25
S'climate'
p1282
sg27
S'clim.he6070.bio02'
p1283
sg29
S'6368'
p1284
sg31
S'Mean Diurnal Range (Mean of monthly (max temp - min temp)) HE RCP60 2070'
p1285
sg33
g34
sg35
g36
sg37
S'clim.he6070.bio02.tif'
p1286
sg39
S'clim'
p1287
sg41
g42
sg43
I4326
sg44
S'2070'
p1288
ssS'bio04'
p1289
(dp1290
g8
S'2015-03-19 18:00:44'
p1291
sg10
S'yes'
p1292
sg12
S'he6070.bio04'
p1293
sg14
I134
sg15
S'bio04'
p1294
sg17
S'Temperature Seasonality (standard deviation *100)'
p1295
sg19
S'60'
p1296
sg21
S'he6070'
p1297
sg23
S'../views/GTiff/clim.he6070.bio04.tif'
p1298
sg25
S'climate'
p1299
sg27
S'clim.he6070.bio04'
p1300
sg29
S'6366'
p1301
sg31
S'Temperature Seasonality (standard deviation *100) HE RCP60 2070'
p1302
sg33
g34
sg35
g36
sg37
S'clim.he6070.bio04.tif'
p1303
sg39
S'clim'
p1304
sg41
g42
sg43
I4326
sg44
S'2070'
p1305
ssS'bio08'
p1306
(dp1307
g8
S'2015-03-19 18:00:44'
p1308
sg10
S'no'
p1309
sg12
S'he6070.bio08'
p1310
sg14
I76
sg15
S'bio08'
p1311
sg17
S'Mean Temperature of Wettest Quarter'
p1312
sg19
S'60'
p1313
sg21
S'he6070'
p1314
sg23
S'../views/GTiff/clim.he6070.bio08.tif'
p1315
sg25
S'climate'
p1316
sg27
S'clim.he6070.bio08'
p1317
sg29
S'6374'
p1318
sg31
S'Mean Temperature of Wettest Quarter HE RCP60 2070'
p1319
sg33
g34
sg35
g36
sg37
S'clim.he6070.bio08.tif'
p1320
sg39
S'clim'
p1321
sg41
g42
sg43
I4326
sg44
S'2070'
p1322
sssS'he8570'
p1323
(dp1324
S'bio07'
p1325
(dp1326
g8
S'2015-03-19 18:00:44'
p1327
sg10
S'no'
p1328
sg12
S'he8570.bio07'
p1329
sg14
I153
sg15
S'bio07'
p1330
sg17
S'Temperature Annual Range (BIO5-BIO6)'
p1331
sg19
S'85'
p1332
sg21
S'he8570'
p1333
sg23
S'../views/GTiff/clim.he8570.bio07.tif'
p1334
sg25
S'climate'
p1335
sg27
S'clim.he8570.bio07'
p1336
sg29
S'6214'
p1337
sg31
S'Temperature Annual Range (BIO5-BIO6) HE RCP85 2070'
p1338
sg33
g34
sg35
g36
sg37
S'clim.he8570.bio07.tif'
p1339
sg39
S'clim'
p1340
sg41
g42
sg43
I4326
sg44
S'2070'
p1341
ssS'bio16'
p1342
(dp1343
g8
S'2015-03-19 18:00:44'
p1344
sg10
S'yes'
p1345
sg12
S'he8570.bio16'
p1346
sg14
I341
sg15
S'bio16'
p1347
sg17
S'Precipitation of Wettest Quarter'
p1348
sg19
S'85'
p1349
sg21
S'he8570'
p1350
sg23
S'../views/GTiff/clim.he8570.bio16.tif'
p1351
sg25
S'climate'
p1352
sg27
S'clim.he8570.bio16'
p1353
sg29
S'6211'
p1354
sg31
S'Precipitation of Wettest Quarter HE RCP85 2070'
p1355
sg33
g34
sg35
g36
sg37
S'clim.he8570.bio16.tif'
p1356
sg39
S'clim'
p1357
sg41
g42
sg43
I4326
sg44
S'2070'
p1358
ssS'bio11'
p1359
(dp1360
g8
S'2015-03-19 18:00:44'
p1361
sg10
S'yes'
p1362
sg12
S'he8570.bio11'
p1363
sg14
I177
sg15
S'bio11'
p1364
sg17
S'Mean Temperature of Coldest Quarter'
p1365
sg19
S'85'
p1366
sg21
S'he8570'
p1367
sg23
S'../views/GTiff/clim.he8570.bio11.tif'
p1368
sg25
S'climate'
p1369
sg27
S'clim.he8570.bio11'
p1370
sg29
S'6210'
p1371
sg31
S'Mean Temperature of Coldest Quarter HE RCP85 2070'
p1372
sg33
g34
sg35
g36
sg37
S'clim.he8570.bio11.tif'
p1373
sg39
S'clim'
p1374
sg41
g42
sg43
I4326
sg44
S'2070'
p1375
ssS'bio15'
p1376
(dp1377
g8
S'2015-03-19 18:00:44'
p1378
sg10
S'no'
p1379
sg12
S'he8570.bio15'
p1380
sg14
I255
sg15
S'bio15'
p1381
sg17
S'Precipitation Seasonality (Coefficient of Variation)'
p1382
sg19
S'85'
p1383
sg21
S'he8570'
p1384
sg23
S'../views/GTiff/clim.he8570.bio15.tif'
p1385
sg25
S'climate'
p1386
sg27
S'clim.he8570.bio15'
p1387
sg29
S'6212'
p1388
sg31
S'Precipitation Seasonality (Coefficient of Variation) HE RCP85 2070'
p1389
sg33
g34
sg35
g36
sg37
S'clim.he8570.bio15.tif'
p1390
sg39
S'clim'
p1391
sg41
g42
sg43
I4326
sg44
S'2070'
p1392
ssS'bio12'
p1393
(dp1394
g8
S'2015-03-19 18:00:44'
p1395
sg10
S'no'
p1396
sg12
S'he8570.bio12'
p1397
sg14
I197
sg15
S'bio12'
p1398
sg17
S'Annual Precipitation'
p1399
sg19
S'85'
p1400
sg21
S'he8570'
p1401
sg23
S'../views/GTiff/clim.he8570.bio12.tif'
p1402
sg25
S'climate'
p1403
sg27
S'clim.he8570.bio12'
p1404
sg29
S'6213'
p1405
sg31
S'Annual Precipitation HE RCP85 2070'
p1406
sg33
g34
sg35
g36
sg37
S'clim.he8570.bio12.tif'
p1407
sg39
S'clim'
p1408
sg41
g42
sg43
I4326
sg44
S'2070'
p1409
ssS'bio14'
p1410
(dp1411
g8
S'2015-03-19 18:00:44'
p1412
sg10
S'yes'
p1413
sg12
S'he8570.bio14'
p1414
sg14
I328
sg15
S'bio14'
p1415
sg17
S'Precipitation of Driest Month'
p1416
sg19
S'85'
p1417
sg21
S'he8570'
p1418
sg23
S'../views/GTiff/clim.he8570.bio14.tif'
p1419
sg25
S'climate'
p1420
sg27
S'clim.he8570.bio14'
p1421
sg29
S'6223'
p1422
sg31
S'Precipitation of Driest Month HE RCP85 2070'
p1423
sg33
g34
sg35
g36
sg37
S'clim.he8570.bio14.tif'
p1424
sg39
S'clim'
p1425
sg41
g42
sg43
I4326
sg44
S'2070'
p1426
ssS'bio10'
p1427
(dp1428
g8
S'2015-03-19 18:00:44'
p1429
sg10
S'yes'
p1430
sg12
S'he8570.bio10'
p1431
sg14
I139
sg15
S'bio10'
p1432
sg17
S'Mean Temperature of Warmest Quarter'
p1433
sg19
S'85'
p1434
sg21
S'he8570'
p1435
sg23
S'../views/GTiff/clim.he8570.bio10.tif'
p1436
sg25
S'climate'
p1437
sg27
S'clim.he8570.bio10'
p1438
sg29
S'6207'
p1439
sg31
S'Mean Temperature of Warmest Quarter HE RCP85 2070'
p1440
sg33
g34
sg35
g36
sg37
S'clim.he8570.bio10.tif'
p1441
sg39
S'clim'
p1442
sg41
g42
sg43
I4326
sg44
S'2070'
p1443
ssS'bio06'
p1444
(dp1445
g8
S'2015-03-19 18:00:44'
p1446
sg10
S'yes'
p1447
sg12
S'he8570.bio06'
p1448
sg14
I24
sg15
S'bio06'
p1449
sg17
S'Min Temperature of Coldest Month'
p1450
sg19
S'85'
p1451
sg21
S'he8570'
p1452
sg23
S'../views/GTiff/clim.he8570.bio06.tif'
p1453
sg25
S'climate'
p1454
sg27
S'clim.he8570.bio06'
p1455
sg29
S'6215'
p1456
sg31
S'Min Temperature of Coldest Month HE RCP85 2070'
p1457
sg33
g34
sg35
g36
sg37
S'clim.he8570.bio06.tif'
p1458
sg39
S'clim'
p1459
sg41
g42
sg43
I4326
sg44
S'2070'
p1460
ssS'bio05'
p1461
(dp1462
g8
S'2015-03-19 18:00:44'
p1463
sg10
S'yes'
p1464
sg12
S'he8570.bio05'
p1465
sg14
I51
sg15
S'bio05'
p1466
sg17
S'Max Temperature of Warmest Month'
p1467
sg19
S'85'
p1468
sg21
S'he8570'
p1469
sg23
S'../views/GTiff/clim.he8570.bio05.tif'
p1470
sg25
S'climate'
p1471
sg27
S'clim.he8570.bio05'
p1472
sg29
S'6216'
p1473
sg31
S'Max Temperature of Warmest Month HE RCP85 2070'
p1474
sg33
g34
sg35
g36
sg37
S'clim.he8570.bio05.tif'
p1475
sg39
S'clim'
p1476
sg41
g42
sg43
I4326
sg44
S'2070'
p1477
ssS'bio13'
p1478
(dp1479
g8
S'2015-03-19 18:00:44'
p1480
sg10
S'yes'
p1481
sg12
S'he8570.bio13'
p1482
sg14
I208
sg15
S'bio13'
p1483
sg17
S'Precipitation of Wettest Month'
p1484
sg19
S'85'
p1485
sg21
S'he8570'
p1486
sg23
S'../views/GTiff/clim.he8570.bio13.tif'
p1487
sg25
S'climate'
p1488
sg27
S'clim.he8570.bio13'
p1489
sg29
S'6209'
p1490
sg31
S'Precipitation of Wettest Month HE RCP85 2070'
p1491
sg33
g34
sg35
g36
sg37
S'clim.he8570.bio13.tif'
p1492
sg39
S'clim'
p1493
sg41
g42
sg43
I4326
sg44
S'2070'
p1494
ssS'bio03'
p1495
(dp1496
g8
S'2015-03-19 18:00:44'
p1497
sg10
S'yes'
p1498
sg12
S'he8570.bio03'
p1499
sg14
I282
sg15
S'bio03'
p1500
sg17
S'Isothermality (BIO2/BIO7) (* 100)'
p1501
sg19
S'85'
p1502
sg21
S'he8570'
p1503
sg23
S'../views/GTiff/clim.he8570.bio03.tif'
p1504
sg25
S'climate'
p1505
sg27
S'clim.he8570.bio03'
p1506
sg29
S'6218'
p1507
sg31
S'Isothermality (BIO2/BIO7) (* 100) HE RCP85 2070'
p1508
sg33
g34
sg35
g36
sg37
S'clim.he8570.bio03.tif'
p1509
sg39
S'clim'
p1510
sg41
g42
sg43
I4326
sg44
S'2070'
p1511
ssS'bio02'
p1512
(dp1513
g8
S'2015-03-19 18:00:44'
p1514
sg10
S'yes'
p1515
sg12
S'he8570.bio02'
p1516
sg14
I19
sg15
S'bio02'
p1517
sg17
S'Mean Diurnal Range (Mean of monthly (max temp - min temp))'
p1518
sg19
S'85'
p1519
sg21
g1323
sg23
S'../views/GTiff/clim.he8570.bio02.tif'
p1520
sg25
S'climate'
p1521
sg27
S'clim.he8570.bio02'
p1522
sg29
S'6219'
p1523
sg31
S'Mean Diurnal Range (Mean of monthly (max temp - min temp)) HE RCP85 2070'
p1524
sg33
g34
sg35
g36
sg37
S'clim.he8570.bio02.tif'
p1525
sg39
S'clim'
p1526
sg41
g42
sg43
I4326
sg44
S'2070'
p1527
ssS'bio01'
p1528
(dp1529
g8
S'2015-03-19 18:00:44'
p1530
sg10
S'no'
p1531
sg12
S'he8570.bio01'
p1532
sg14
I95
sg15
S'bio01'
p1533
sg17
S'Annual Mean Temperature'
p1534
sg19
S'85'
p1535
sg21
S'he8570'
p1536
sg23
S'../views/GTiff/clim.he8570.bio01.tif'
p1537
sg25
S'climate'
p1538
sg27
S'clim.he8570.bio01'
p1539
sg29
S'6220'
p1540
sg31
S'Annual Mean Temperature HE RCP85 2070'
p1541
sg33
g34
sg35
g36
sg37
S'clim.he8570.bio01.tif'
p1542
sg39
S'clim'
p1543
sg41
g42
sg43
I4326
sg44
S'2070'
p1544
ssS'bio17'
p1545
(dp1546
g8
S'2015-03-19 18:00:44'
p1547
sg10
S'yes'
p1548
sg12
S'he8570.bio17'
p1549
sg14
I35
sg15
S'bio17'
p1550
sg17
S'Precipitation of Driest Quarter'
p1551
sg19
S'85'
p1552
sg21
S'he8570'
p1553
sg23
S'../views/GTiff/clim.he8570.bio17.tif'
p1554
sg25
S'climate'
p1555
sg27
S'clim.he8570.bio17'
p1556
sg29
S'6221'
p1557
sg31
S'Precipitation of Driest Quarter HE RCP85 2070'
p1558
sg33
g34
sg35
g36
sg37
S'clim.he8570.bio17.tif'
p1559
sg39
S'clim'
p1560
sg41
g42
sg43
I4326
sg44
S'2070'
p1561
ssS'bio18'
p1562
(dp1563
g8
S'2015-03-19 18:00:44'
p1564
sg10
S'no'
p1565
sg12
S'he8570.bio18'
p1566
sg14
I235
sg15
S'bio18'
p1567
sg17
S'Precipitation of Warmest Quarter'
p1568
sg19
S'85'
p1569
sg21
S'he8570'
p1570
sg23
S'../views/GTiff/clim.he8570.bio18.tif'
p1571
sg25
S'climate'
p1572
sg27
S'clim.he8570.bio18'
p1573
sg29
S'6222'
p1574
sg31
S'Precipitation of Warmest Quarter HE RCP85 2070'
p1575
sg33
g34
sg35
g36
sg37
S'clim.he8570.bio18.tif'
p1576
sg39
S'clim'
p1577
sg41
g42
sg43
I4326
sg44
S'2070'
p1578
ssS'bio19'
p1579
(dp1580
g8
S'2015-03-19 18:00:44'
p1581
sg10
S'yes'
p1582
sg12
S'he8570.bio19'
p1583
sg14
I205
sg15
S'bio19'
p1584
sg17
S'Precipitation of Coldest Quarter'
p1585
sg19
S'85'
p1586
sg21
S'he8570'
p1587
sg23
S'../views/GTiff/clim.he8570.bio19.tif'
p1588
sg25
S'climate'
p1589
sg27
S'clim.he8570.bio19'
p1590
sg29
S'6208'
p1591
sg31
S'Precipitation of Coldest Quarter HE RCP85 2070'
p1592
sg33
g34
sg35
g36
sg37
S'clim.he8570.bio19.tif'
p1593
sg39
S'clim'
p1594
sg41
g42
sg43
I4326
sg44
S'2070'
p1595
ssS'bio04'
p1596
(dp1597
g8
S'2015-03-19 18:00:44'
p1598
sg10
S'yes'
p1599
sg12
S'he8570.bio04'
p1600
sg14
I309
sg15
S'bio04'
p1601
sg17
S'Temperature Seasonality (standard deviation *100)'
p1602
sg19
S'85'
p1603
sg21
S'he8570'
p1604
sg23
S'../views/GTiff/clim.he8570.bio04.tif'
p1605
sg25
S'climate'
p1606
sg27
S'clim.he8570.bio04'
p1607
sg29
S'6217'
p1608
sg31
S'Temperature Seasonality (standard deviation *100) HE RCP85 2070'
p1609
sg33
g34
sg35
g36
sg37
S'clim.he8570.bio04.tif'
p1610
sg39
S'clim'
p1611
sg41
g42
sg43
I4326
sg44
S'2070'
p1612
ssS'bio09'
p1613
(dp1614
g8
S'2015-03-19 18:00:44'
p1615
sg10
S'yes'
p1616
sg12
S'he8570.bio09'
p1617
sg14
I192
sg15
S'bio09'
p1618
sg17
S'Mean Temperature of Driest Quarter'
p1619
sg19
S'85'
p1620
sg21
S'he8570'
p1621
sg23
S'../views/GTiff/clim.he8570.bio09.tif'
p1622
sg25
S'climate'
p1623
sg27
S'clim.he8570.bio09'
p1624
sg29
S'6224'
p1625
sg31
S'Mean Temperature of Driest Quarter HE RCP85 2070'
p1626
sg33
g34
sg35
g36
sg37
S'clim.he8570.bio09.tif'
p1627
sg39
S'clim'
p1628
sg41
g42
sg43
I4326
sg44
S'2070'
p1629
ssS'bio08'
p1630
(dp1631
g8
S'2015-03-19 18:00:44'
p1632
sg10
S'no'
p1633
sg12
S'he8570.bio08'
p1634
sg14
I113
sg15
S'bio08'
p1635
sg17
S'Mean Temperature of Wettest Quarter'
p1636
sg19
S'85'
p1637
sg21
S'he8570'
p1638
sg23
S'../views/GTiff/clim.he8570.bio08.tif'
p1639
sg25
S'climate'
p1640
sg27
S'clim.he8570.bio08'
p1641
sg29
S'6225'
p1642
sg31
S'Mean Temperature of Wettest Quarter HE RCP85 2070'
p1643
sg33
g34
sg35
g36
sg37
S'clim.he8570.bio08.tif'
p1644
sg39
S'clim'
p1645
sg41
g42
sg43
I4326
sg44
S'2070'
p1646
sssS'he2650'
p1647
(dp1648
S'bio10'
p1649
(dp1650
g8
S'2015-03-19 18:00:44'
p1651
sg10
S'yes'
p1652
sg12
S'he2650.bio10'
p1653
sg14
I298
sg15
S'bio10'
p1654
sg17
S'Mean Temperature of Warmest Quarter'
p1655
sg19
S'26'
p1656
sg21
S'he2650'
p1657
sg23
S'../views/GTiff/clim.he2650.bio10.tif'
p1658
sg25
S'climate'
p1659
sg27
S'clim.he2650.bio10'
p1660
sg29
S'6226'
p1661
sg31
S'Mean Temperature of Warmest Quarter HE RCP26 2050'
p1662
sg33
g34
sg35
g36
sg37
S'clim.he2650.bio10.tif'
p1663
sg39
S'clim'
p1664
sg41
g42
sg43
I4326
sg44
S'2050'
p1665
ssS'bio16'
p1666
(dp1667
g8
S'2015-03-19 18:00:44'
p1668
sg10
S'yes'
p1669
sg12
S'he2650.bio16'
p1670
sg14
I324
sg15
S'bio16'
p1671
sg17
S'Precipitation of Wettest Quarter'
p1672
sg19
S'26'
p1673
sg21
S'he2650'
p1674
sg23
S'../views/GTiff/clim.he2650.bio16.tif'
p1675
sg25
S'climate'
p1676
sg27
S'clim.he2650.bio16'
p1677
sg29
S'6230'
p1678
sg31
S'Precipitation of Wettest Quarter HE RCP26 2050'
p1679
sg33
g34
sg35
g36
sg37
S'clim.he2650.bio16.tif'
p1680
sg39
S'clim'
p1681
sg41
g42
sg43
I4326
sg44
S'2050'
p1682
ssS'bio11'
p1683
(dp1684
g8
S'2015-03-19 18:00:44'
p1685
sg10
S'yes'
p1686
sg12
S'he2650.bio11'
p1687
sg14
I119
sg15
S'bio11'
p1688
sg17
S'Mean Temperature of Coldest Quarter'
p1689
sg19
S'26'
p1690
sg21
S'he2650'
p1691
sg23
S'../views/GTiff/clim.he2650.bio11.tif'
p1692
sg25
S'climate'
p1693
sg27
S'clim.he2650.bio11'
p1694
sg29
S'6229'
p1695
sg31
S'Mean Temperature of Coldest Quarter HE RCP26 2050'
p1696
sg33
g34
sg35
g36
sg37
S'clim.he2650.bio11.tif'
p1697
sg39
S'clim'
p1698
sg41
g42
sg43
I4326
sg44
S'2050'
p1699
ssS'bio09'
p1700
(dp1701
g8
S'2015-03-19 18:00:44'
p1702
sg10
S'yes'
p1703
sg12
S'he2650.bio09'
p1704
sg14
I277
sg15
S'bio09'
p1705
sg17
S'Mean Temperature of Driest Quarter'
p1706
sg19
S'26'
p1707
sg21
S'he2650'
p1708
sg23
S'../views/GTiff/clim.he2650.bio09.tif'
p1709
sg25
S'climate'
p1710
sg27
S'clim.he2650.bio09'
p1711
sg29
S'6243'
p1712
sg31
S'Mean Temperature of Driest Quarter HE RCP26 2050'
p1713
sg33
g34
sg35
g36
sg37
S'clim.he2650.bio09.tif'
p1714
sg39
S'clim'
p1715
sg41
g42
sg43
I4326
sg44
S'2050'
p1716
ssS'bio05'
p1717
(dp1718
g8
S'2015-03-19 18:00:44'
p1719
sg10
S'yes'
p1720
sg12
S'he2650.bio05'
p1721
sg14
I289
sg15
S'bio05'
p1722
sg17
S'Max Temperature of Warmest Month'
p1723
sg19
S'26'
p1724
sg21
S'he2650'
p1725
sg23
S'../views/GTiff/clim.he2650.bio05.tif'
p1726
sg25
S'climate'
p1727
sg27
S'clim.he2650.bio05'
p1728
sg29
S'6235'
p1729
sg31
S'Max Temperature of Warmest Month HE RCP26 2050'
p1730
sg33
g34
sg35
g36
sg37
S'clim.he2650.bio05.tif'
p1731
sg39
S'clim'
p1732
sg41
g42
sg43
I4326
sg44
S'2050'
p1733
ssS'bio07'
p1734
(dp1735
g8
S'2015-03-19 18:00:44'
p1736
sg10
S'no'
p1737
sg12
S'he2650.bio07'
p1738
sg14
I2
sg15
S'bio07'
p1739
sg17
S'Temperature Annual Range (BIO5-BIO6)'
p1740
sg19
S'26'
p1741
sg21
g1647
sg23
S'../views/GTiff/clim.he2650.bio07.tif'
p1742
sg25
S'climate'
p1743
sg27
S'clim.he2650.bio07'
p1744
sg29
S'6233'
p1745
sg31
S'Temperature Annual Range (BIO5-BIO6) HE RCP26 2050'
p1746
sg33
g34
sg35
g36
sg37
S'clim.he2650.bio07.tif'
p1747
sg39
S'clim'
p1748
sg41
g42
sg43
I4326
sg44
S'2050'
p1749
ssS'bio06'
p1750
(dp1751
g8
S'2015-03-19 18:00:44'
p1752
sg10
S'yes'
p1753
sg12
S'he2650.bio06'
p1754
sg14
I116
sg15
S'bio06'
p1755
sg17
S'Min Temperature of Coldest Month'
p1756
sg19
S'26'
p1757
sg21
S'he2650'
p1758
sg23
S'../views/GTiff/clim.he2650.bio06.tif'
p1759
sg25
S'climate'
p1760
sg27
S'clim.he2650.bio06'
p1761
sg29
S'6234'
p1762
sg31
S'Min Temperature of Coldest Month HE RCP26 2050'
p1763
sg33
g34
sg35
g36
sg37
S'clim.he2650.bio06.tif'
p1764
sg39
S'clim'
p1765
sg41
g42
sg43
I4326
sg44
S'2050'
p1766
ssS'bio12'
p1767
(dp1768
g8
S'2015-03-19 18:00:44'
p1769
sg10
S'no'
p1770
sg12
S'he2650.bio12'
p1771
sg14
I210
sg15
S'bio12'
p1772
sg17
S'Annual Precipitation'
p1773
sg19
S'26'
p1774
sg21
S'he2650'
p1775
sg23
S'../views/GTiff/clim.he2650.bio12.tif'
p1776
sg25
S'climate'
p1777
sg27
S'clim.he2650.bio12'
p1778
sg29
S'6232'
p1779
sg31
S'Annual Precipitation HE RCP26 2050'
p1780
sg33
g34
sg35
g36
sg37
S'clim.he2650.bio12.tif'
p1781
sg39
S'clim'
p1782
sg41
g42
sg43
I4326
sg44
S'2050'
p1783
ssS'bio13'
p1784
(dp1785
g8
S'2015-03-19 18:00:44'
p1786
sg10
S'yes'
p1787
sg12
S'he2650.bio13'
p1788
sg14
I175
sg15
S'bio13'
p1789
sg17
S'Precipitation of Wettest Month'
p1790
sg19
S'26'
p1791
sg21
S'he2650'
p1792
sg23
S'../views/GTiff/clim.he2650.bio13.tif'
p1793
sg25
S'climate'
p1794
sg27
S'clim.he2650.bio13'
p1795
sg29
S'6228'
p1796
sg31
S'Precipitation of Wettest Month HE RCP26 2050'
p1797
sg33
g34
sg35
g36
sg37
S'clim.he2650.bio13.tif'
p1798
sg39
S'clim'
p1799
sg41
g42
sg43
I4326
sg44
S'2050'
p1800
ssS'bio14'
p1801
(dp1802
g8
S'2015-03-19 18:00:44'
p1803
sg10
S'yes'
p1804
sg12
S'he2650.bio14'
p1805
sg14
I106
sg15
S'bio14'
p1806
sg17
S'Precipitation of Driest Month'
p1807
sg19
S'26'
p1808
sg21
S'he2650'
p1809
sg23
S'../views/GTiff/clim.he2650.bio14.tif'
p1810
sg25
S'climate'
p1811
sg27
S'clim.he2650.bio14'
p1812
sg29
S'6242'
p1813
sg31
S'Precipitation of Driest Month HE RCP26 2050'
p1814
sg33
g34
sg35
g36
sg37
S'clim.he2650.bio14.tif'
p1815
sg39
S'clim'
p1816
sg41
g42
sg43
I4326
sg44
S'2050'
p1817
ssS'bio15'
p1818
(dp1819
g8
S'2015-03-19 18:00:44'
p1820
sg10
S'no'
p1821
sg12
S'he2650.bio15'
p1822
sg14
I90
sg15
S'bio15'
p1823
sg17
S'Precipitation Seasonality (Coefficient of Variation)'
p1824
sg19
S'26'
p1825
sg21
S'he2650'
p1826
sg23
S'../views/GTiff/clim.he2650.bio15.tif'
p1827
sg25
S'climate'
p1828
sg27
S'clim.he2650.bio15'
p1829
sg29
S'6231'
p1830
sg31
S'Precipitation Seasonality (Coefficient of Variation) HE RCP26 2050'
p1831
sg33
g34
sg35
g36
sg37
S'clim.he2650.bio15.tif'
p1832
sg39
S'clim'
p1833
sg41
g42
sg43
I4326
sg44
S'2050'
p1834
ssS'bio01'
p1835
(dp1836
g8
S'2015-03-19 18:00:44'
p1837
sg10
S'no'
p1838
sg12
S'he2650.bio01'
p1839
sg14
I74
sg15
S'bio01'
p1840
sg17
S'Annual Mean Temperature'
p1841
sg19
S'26'
p1842
sg21
S'he2650'
p1843
sg23
S'../views/GTiff/clim.he2650.bio01.tif'
p1844
sg25
S'climate'
p1845
sg27
S'clim.he2650.bio01'
p1846
sg29
S'6239'
p1847
sg31
S'Annual Mean Temperature HE RCP26 2050'
p1848
sg33
g34
sg35
g36
sg37
S'clim.he2650.bio01.tif'
p1849
sg39
S'clim'
p1850
sg41
g42
sg43
I4326
sg44
S'2050'
p1851
ssS'bio17'
p1852
(dp1853
g8
S'2015-03-19 18:00:44'
p1854
sg10
S'yes'
p1855
sg12
S'he2650.bio17'
p1856
sg14
I249
sg15
S'bio17'
p1857
sg17
S'Precipitation of Driest Quarter'
p1858
sg19
S'26'
p1859
sg21
S'he2650'
p1860
sg23
S'../views/GTiff/clim.he2650.bio17.tif'
p1861
sg25
S'climate'
p1862
sg27
S'clim.he2650.bio17'
p1863
sg29
S'6240'
p1864
sg31
S'Precipitation of Driest Quarter HE RCP26 2050'
p1865
sg33
g34
sg35
g36
sg37
S'clim.he2650.bio17.tif'
p1866
sg39
S'clim'
p1867
sg41
g42
sg43
I4326
sg44
S'2050'
p1868
ssS'bio18'
p1869
(dp1870
g8
S'2015-03-19 18:00:44'
p1871
sg10
S'no'
p1872
sg12
S'he2650.bio18'
p1873
sg14
I303
sg15
S'bio18'
p1874
sg17
S'Precipitation of Warmest Quarter'
p1875
sg19
S'26'
p1876
sg21
S'he2650'
p1877
sg23
S'../views/GTiff/clim.he2650.bio18.tif'
p1878
sg25
S'climate'
p1879
sg27
S'clim.he2650.bio18'
p1880
sg29
S'6241'
p1881
sg31
S'Precipitation of Warmest Quarter HE RCP26 2050'
p1882
sg33
g34
sg35
g36
sg37
S'clim.he2650.bio18.tif'
p1883
sg39
S'clim'
p1884
sg41
g42
sg43
I4326
sg44
S'2050'
p1885
ssS'bio19'
p1886
(dp1887
g8
S'2015-03-19 18:00:44'
p1888
sg10
S'yes'
p1889
sg12
S'he2650.bio19'
p1890
sg14
I172
sg15
S'bio19'
p1891
sg17
S'Precipitation of Coldest Quarter'
p1892
sg19
S'26'
p1893
sg21
S'he2650'
p1894
sg23
S'../views/GTiff/clim.he2650.bio19.tif'
p1895
sg25
S'climate'
p1896
sg27
S'clim.he2650.bio19'
p1897
sg29
S'6227'
p1898
sg31
S'Precipitation of Coldest Quarter HE RCP26 2050'
p1899
sg33
g34
sg35
g36
sg37
S'clim.he2650.bio19.tif'
p1900
sg39
S'clim'
p1901
sg41
g42
sg43
I4326
sg44
S'2050'
p1902
ssS'bio08'
p1903
(dp1904
g8
S'2015-03-19 18:00:44'
p1905
sg10
S'no'
p1906
sg12
S'he2650.bio08'
p1907
sg14
I229
sg15
S'bio08'
p1908
sg17
S'Mean Temperature of Wettest Quarter'
p1909
sg19
S'26'
p1910
sg21
S'he2650'
p1911
sg23
S'../views/GTiff/clim.he2650.bio08.tif'
p1912
sg25
S'climate'
p1913
sg27
S'clim.he2650.bio08'
p1914
sg29
S'6244'
p1915
sg31
S'Mean Temperature of Wettest Quarter HE RCP26 2050'
p1916
sg33
g34
sg35
g36
sg37
S'clim.he2650.bio08.tif'
p1917
sg39
S'clim'
p1918
sg41
g42
sg43
I4326
sg44
S'2050'
p1919
ssS'bio03'
p1920
(dp1921
g8
S'2015-03-19 18:00:44'
p1922
sg10
S'yes'
p1923
sg12
S'he2650.bio03'
p1924
sg14
I316
sg15
S'bio03'
p1925
sg17
S'Isothermality (BIO2/BIO7) (* 100)'
p1926
sg19
S'26'
p1927
sg21
S'he2650'
p1928
sg23
S'../views/GTiff/clim.he2650.bio03.tif'
p1929
sg25
S'climate'
p1930
sg27
S'clim.he2650.bio03'
p1931
sg29
S'6237'
p1932
sg31
S'Isothermality (BIO2/BIO7) (* 100) HE RCP26 2050'
p1933
sg33
g34
sg35
g36
sg37
S'clim.he2650.bio03.tif'
p1934
sg39
S'clim'
p1935
sg41
g42
sg43
I4326
sg44
S'2050'
p1936
ssS'bio04'
p1937
(dp1938
g8
S'2015-03-19 18:00:44'
p1939
sg10
S'yes'
p1940
sg12
S'he2650.bio04'
p1941
sg14
I260
sg15
S'bio04'
p1942
sg17
S'Temperature Seasonality (standard deviation *100)'
p1943
sg19
S'26'
p1944
sg21
S'he2650'
p1945
sg23
S'../views/GTiff/clim.he2650.bio04.tif'
p1946
sg25
S'climate'
p1947
sg27
S'clim.he2650.bio04'
p1948
sg29
S'6236'
p1949
sg31
S'Temperature Seasonality (standard deviation *100) HE RCP26 2050'
p1950
sg33
g34
sg35
g36
sg37
S'clim.he2650.bio04.tif'
p1951
sg39
S'clim'
p1952
sg41
g42
sg43
I4326
sg44
S'2050'
p1953
ssS'bio02'
p1954
(dp1955
g8
S'2015-03-19 18:00:44'
p1956
sg10
S'yes'
p1957
sg12
S'he2650.bio02'
p1958
sg14
I92
sg15
S'bio02'
p1959
sg17
S'Mean Diurnal Range (Mean of monthly (max temp - min temp))'
p1960
sg19
S'26'
p1961
sg21
S'he2650'
p1962
sg23
S'../views/GTiff/clim.he2650.bio02.tif'
p1963
sg25
S'climate'
p1964
sg27
S'clim.he2650.bio02'
p1965
sg29
S'6238'
p1966
sg31
S'Mean Diurnal Range (Mean of monthly (max temp - min temp)) HE RCP26 2050'
p1967
sg33
g34
sg35
g36
sg37
S'clim.he2650.bio02.tif'
p1968
sg39
S'clim'
p1969
sg41
g42
sg43
I4326
sg44
S'2050'
p1970
sssS'he6050'
p1971
(dp1972
S'bio10'
p1973
(dp1974
g8
S'2015-03-19 18:00:44'
p1975
sg10
S'yes'
p1976
sg12
S'he6050.bio10'
p1977
sg14
I187
sg15
S'bio10'
p1978
sg17
S'Mean Temperature of Warmest Quarter'
p1979
sg19
S'60'
p1980
sg21
S'he6050'
p1981
sg23
S'../views/GTiff/clim.he6050.bio10.tif'
p1982
sg25
S'climate'
p1983
sg27
S'clim.he6050.bio10'
p1984
sg29
S'6245'
p1985
sg31
S'Mean Temperature of Warmest Quarter HE RCP60 2050'
p1986
sg33
g34
sg35
g36
sg37
S'clim.he6050.bio10.tif'
p1987
sg39
S'clim'
p1988
sg41
g42
sg43
I4326
sg44
S'2050'
p1989
ssS'bio19'
p1990
(dp1991
g8
S'2015-03-19 18:00:44'
p1992
sg10
S'yes'
p1993
sg12
S'he6050.bio19'
p1994
sg14
I286
sg15
S'bio19'
p1995
sg17
S'Precipitation of Coldest Quarter'
p1996
sg19
S'60'
p1997
sg21
S'he6050'
p1998
sg23
S'../views/GTiff/clim.he6050.bio19.tif'
p1999
sg25
S'climate'
p2000
sg27
S'clim.he6050.bio19'
p2001
sg29
S'6246'
p2002
sg31
S'Precipitation of Coldest Quarter HE RCP60 2050'
p2003
sg33
g34
sg35
g36
sg37
S'clim.he6050.bio19.tif'
p2004
sg39
S'clim'
p2005
sg41
g42
sg43
I4326
sg44
S'2050'
p2006
ssS'bio01'
p2007
(dp2008
g8
S'2015-03-19 18:00:44'
p2009
sg10
S'no'
p2010
sg12
S'he6050.bio01'
p2011
sg14
I253
sg15
S'bio01'
p2012
sg17
S'Annual Mean Temperature'
p2013
sg19
S'60'
p2014
sg21
S'he6050'
p2015
sg23
S'../views/GTiff/clim.he6050.bio01.tif'
p2016
sg25
S'climate'
p2017
sg27
S'clim.he6050.bio01'
p2018
sg29
S'6258'
p2019
sg31
S'Annual Mean Temperature HE RCP60 2050'
p2020
sg33
g34
sg35
g36
sg37
S'clim.he6050.bio01.tif'
p2021
sg39
S'clim'
p2022
sg41
g42
sg43
I4326
sg44
S'2050'
p2023
ssS'bio11'
p2024
(dp2025
g8
S'2015-03-19 18:00:44'
p2026
sg10
S'yes'
p2027
sg12
S'he6050.bio11'
p2028
sg14
I233
sg15
S'bio11'
p2029
sg17
S'Mean Temperature of Coldest Quarter'
p2030
sg19
S'60'
p2031
sg21
S'he6050'
p2032
sg23
S'../views/GTiff/clim.he6050.bio11.tif'
p2033
sg25
S'climate'
p2034
sg27
S'clim.he6050.bio11'
p2035
sg29
S'6248'
p2036
sg31
S'Mean Temperature of Coldest Quarter HE RCP60 2050'
p2037
sg33
g34
sg35
g36
sg37
S'clim.he6050.bio11.tif'
p2038
sg39
S'clim'
p2039
sg41
g42
sg43
I4326
sg44
S'2050'
p2040
ssS'bio04'
p2041
(dp2042
g8
S'2015-03-19 18:00:44'
p2043
sg10
S'yes'
p2044
sg12
S'he6050.bio04'
p2045
sg14
I321
sg15
S'bio04'
p2046
sg17
S'Temperature Seasonality (standard deviation *100)'
p2047
sg19
S'60'
p2048
sg21
S'he6050'
p2049
sg23
S'../views/GTiff/clim.he6050.bio04.tif'
p2050
sg25
S'climate'
p2051
sg27
S'clim.he6050.bio04'
p2052
sg29
S'6255'
p2053
sg31
S'Temperature Seasonality (standard deviation *100) HE RCP60 2050'
p2054
sg33
g34
sg35
g36
sg37
S'clim.he6050.bio04.tif'
p2055
sg39
S'clim'
p2056
sg41
g42
sg43
I4326
sg44
S'2050'
p2057
ssS'bio12'
p2058
(dp2059
g8
S'2015-03-19 18:00:44'
p2060
sg10
S'no'
p2061
sg12
S'he6050.bio12'
p2062
sg14
I280
sg15
S'bio12'
p2063
sg17
S'Annual Precipitation'
p2064
sg19
S'60'
p2065
sg21
S'he6050'
p2066
sg23
S'../views/GTiff/clim.he6050.bio12.tif'
p2067
sg25
S'climate'
p2068
sg27
S'clim.he6050.bio12'
p2069
sg29
S'6251'
p2070
sg31
S'Annual Precipitation HE RCP60 2050'
p2071
sg33
g34
sg35
g36
sg37
S'clim.he6050.bio12.tif'
p2072
sg39
S'clim'
p2073
sg41
g42
sg43
I4326
sg44
S'2050'
p2074
ssS'bio07'
p2075
(dp2076
g8
S'2015-03-19 18:00:44'
p2077
sg10
S'no'
p2078
sg12
S'he6050.bio07'
p2079
sg14
I131
sg15
S'bio07'
p2080
sg17
S'Temperature Annual Range (BIO5-BIO6)'
p2081
sg19
S'60'
p2082
sg21
S'he6050'
p2083
sg23
S'../views/GTiff/clim.he6050.bio07.tif'
p2084
sg25
S'climate'
p2085
sg27
S'clim.he6050.bio07'
p2086
sg29
S'6252'
p2087
sg31
S'Temperature Annual Range (BIO5-BIO6) HE RCP60 2050'
p2088
sg33
g34
sg35
g36
sg37
S'clim.he6050.bio07.tif'
p2089
sg39
S'clim'
p2090
sg41
g42
sg43
I4326
sg44
S'2050'
p2091
ssS'bio06'
p2092
(dp2093
g8
S'2015-03-19 18:00:44'
p2094
sg10
S'yes'
p2095
sg12
S'he6050.bio06'
p2096
sg14
I179
sg15
S'bio06'
p2097
sg17
S'Min Temperature of Coldest Month'
p2098
sg19
S'60'
p2099
sg21
S'he6050'
p2100
sg23
S'../views/GTiff/clim.he6050.bio06.tif'
p2101
sg25
S'climate'
p2102
sg27
S'clim.he6050.bio06'
p2103
sg29
S'6253'
p2104
sg31
S'Min Temperature of Coldest Month HE RCP60 2050'
p2105
sg33
g34
sg35
g36
sg37
S'clim.he6050.bio06.tif'
p2106
sg39
S'clim'
p2107
sg41
g42
sg43
I4326
sg44
S'2050'
p2108
ssS'bio05'
p2109
(dp2110
g8
S'2015-03-19 18:00:44'
p2111
sg10
S'yes'
p2112
sg12
S'he6050.bio05'
p2113
sg14
I273
sg15
S'bio05'
p2114
sg17
S'Max Temperature of Warmest Month'
p2115
sg19
S'60'
p2116
sg21
S'he6050'
p2117
sg23
S'../views/GTiff/clim.he6050.bio05.tif'
p2118
sg25
S'climate'
p2119
sg27
S'clim.he6050.bio05'
p2120
sg29
S'6254'
p2121
sg31
S'Max Temperature of Warmest Month HE RCP60 2050'
p2122
sg33
g34
sg35
g36
sg37
S'clim.he6050.bio05.tif'
p2123
sg39
S'clim'
p2124
sg41
g42
sg43
I4326
sg44
S'2050'
p2125
ssS'bio13'
p2126
(dp2127
g8
S'2015-03-19 18:00:44'
p2128
sg10
S'yes'
p2129
sg12
S'he6050.bio13'
p2130
sg14
I206
sg15
S'bio13'
p2131
sg17
S'Precipitation of Wettest Month'
p2132
sg19
S'60'
p2133
sg21
S'he6050'
p2134
sg23
S'../views/GTiff/clim.he6050.bio13.tif'
p2135
sg25
S'climate'
p2136
sg27
S'clim.he6050.bio13'
p2137
sg29
S'6247'
p2138
sg31
S'Precipitation of Wettest Month HE RCP60 2050'
p2139
sg33
g34
sg35
g36
sg37
S'clim.he6050.bio13.tif'
p2140
sg39
S'clim'
p2141
sg41
g42
sg43
I4326
sg44
S'2050'
p2142
ssS'bio14'
p2143
(dp2144
g8
S'2015-03-19 18:00:44'
p2145
sg10
S'yes'
p2146
sg12
S'he6050.bio14'
p2147
sg14
I47
sg15
S'bio14'
p2148
sg17
S'Precipitation of Driest Month'
p2149
sg19
S'60'
p2150
sg21
S'he6050'
p2151
sg23
S'../views/GTiff/clim.he6050.bio14.tif'
p2152
sg25
S'climate'
p2153
sg27
S'clim.he6050.bio14'
p2154
sg29
S'6261'
p2155
sg31
S'Precipitation of Driest Month HE RCP60 2050'
p2156
sg33
g34
sg35
g36
sg37
S'clim.he6050.bio14.tif'
p2157
sg39
S'clim'
p2158
sg41
g42
sg43
I4326
sg44
S'2050'
p2159
ssS'bio15'
p2160
(dp2161
g8
S'2015-03-19 18:00:44'
p2162
sg10
S'no'
p2163
sg12
S'he6050.bio15'
p2164
sg14
I60
sg15
S'bio15'
p2165
sg17
S'Precipitation Seasonality (Coefficient of Variation)'
p2166
sg19
S'60'
p2167
sg21
S'he6050'
p2168
sg23
S'../views/GTiff/clim.he6050.bio15.tif'
p2169
sg25
S'climate'
p2170
sg27
S'clim.he6050.bio15'
p2171
sg29
S'6250'
p2172
sg31
S'Precipitation Seasonality (Coefficient of Variation) HE RCP60 2050'
p2173
sg33
g34
sg35
g36
sg37
S'clim.he6050.bio15.tif'
p2174
sg39
S'clim'
p2175
sg41
g42
sg43
I4326
sg44
S'2050'
p2176
ssS'bio16'
p2177
(dp2178
g8
S'2015-03-19 18:00:44'
p2179
sg10
S'yes'
p2180
sg12
S'he6050.bio16'
p2181
sg14
I232
sg15
S'bio16'
p2182
sg17
S'Precipitation of Wettest Quarter'
p2183
sg19
S'60'
p2184
sg21
S'he6050'
p2185
sg23
S'../views/GTiff/clim.he6050.bio16.tif'
p2186
sg25
S'climate'
p2187
sg27
S'clim.he6050.bio16'
p2188
sg29
S'6249'
p2189
sg31
S'Precipitation of Wettest Quarter HE RCP60 2050'
p2190
sg33
g34
sg35
g36
sg37
S'clim.he6050.bio16.tif'
p2191
sg39
S'clim'
p2192
sg41
g42
sg43
I4326
sg44
S'2050'
p2193
ssS'bio17'
p2194
(dp2195
g8
S'2015-03-19 18:00:44'
p2196
sg10
S'yes'
p2197
sg12
S'he6050.bio17'
p2198
sg14
I157
sg15
S'bio17'
p2199
sg17
S'Precipitation of Driest Quarter'
p2200
sg19
S'60'
p2201
sg21
S'he6050'
p2202
sg23
S'../views/GTiff/clim.he6050.bio17.tif'
p2203
sg25
S'climate'
p2204
sg27
S'clim.he6050.bio17'
p2205
sg29
S'6259'
p2206
sg31
S'Precipitation of Driest Quarter HE RCP60 2050'
p2207
sg33
g34
sg35
g36
sg37
S'clim.he6050.bio17.tif'
p2208
sg39
S'clim'
p2209
sg41
g42
sg43
I4326
sg44
S'2050'
p2210
ssS'bio18'
p2211
(dp2212
g8
S'2015-03-19 18:00:44'
p2213
sg10
S'no'
p2214
sg12
S'he6050.bio18'
p2215
sg14
I91
sg15
S'bio18'
p2216
sg17
S'Precipitation of Warmest Quarter'
p2217
sg19
S'60'
p2218
sg21
S'he6050'
p2219
sg23
S'../views/GTiff/clim.he6050.bio18.tif'
p2220
sg25
S'climate'
p2221
sg27
S'clim.he6050.bio18'
p2222
sg29
S'6260'
p2223
sg31
S'Precipitation of Warmest Quarter HE RCP60 2050'
p2224
sg33
g34
sg35
g36
sg37
S'clim.he6050.bio18.tif'
p2225
sg39
S'clim'
p2226
sg41
g42
sg43
I4326
sg44
S'2050'
p2227
ssS'bio03'
p2228
(dp2229
g8
S'2015-03-19 18:00:44'
p2230
sg10
S'yes'
p2231
sg12
S'he6050.bio03'
p2232
sg14
I32
sg15
S'bio03'
p2233
sg17
S'Isothermality (BIO2/BIO7) (* 100)'
p2234
sg19
S'60'
p2235
sg21
g1971
sg23
S'../views/GTiff/clim.he6050.bio03.tif'
p2236
sg25
S'climate'
p2237
sg27
S'clim.he6050.bio03'
p2238
sg29
S'6256'
p2239
sg31
S'Isothermality (BIO2/BIO7) (* 100) HE RCP60 2050'
p2240
sg33
g34
sg35
g36
sg37
S'clim.he6050.bio03.tif'
p2241
sg39
S'clim'
p2242
sg41
g42
sg43
I4326
sg44
S'2050'
p2243
ssS'bio02'
p2244
(dp2245
g8
S'2015-03-19 18:00:44'
p2246
sg10
S'yes'
p2247
sg12
S'he6050.bio02'
p2248
sg14
I243
sg15
S'bio02'
p2249
sg17
S'Mean Diurnal Range (Mean of monthly (max temp - min temp))'
p2250
sg19
S'60'
p2251
sg21
S'he6050'
p2252
sg23
S'../views/GTiff/clim.he6050.bio02.tif'
p2253
sg25
S'climate'
p2254
sg27
S'clim.he6050.bio02'
p2255
sg29
S'6257'
p2256
sg31
S'Mean Diurnal Range (Mean of monthly (max temp - min temp)) HE RCP60 2050'
p2257
sg33
g34
sg35
g36
sg37
S'clim.he6050.bio02.tif'
p2258
sg39
S'clim'
p2259
sg41
g42
sg43
I4326
sg44
S'2050'
p2260
ssS'bio09'
p2261
(dp2262
g8
S'2015-03-19 18:00:44'
p2263
sg10
S'yes'
p2264
sg12
S'he6050.bio09'
p2265
sg14
I244
sg15
S'bio09'
p2266
sg17
S'Mean Temperature of Driest Quarter'
p2267
sg19
S'60'
p2268
sg21
S'he6050'
p2269
sg23
S'../views/GTiff/clim.he6050.bio09.tif'
p2270
sg25
S'climate'
p2271
sg27
S'clim.he6050.bio09'
p2272
sg29
S'6262'
p2273
sg31
S'Mean Temperature of Driest Quarter HE RCP60 2050'
p2274
sg33
g34
sg35
g36
sg37
S'clim.he6050.bio09.tif'
p2275
sg39
S'clim'
p2276
sg41
g42
sg43
I4326
sg44
S'2050'
p2277
ssS'bio08'
p2278
(dp2279
g8
S'2015-03-19 18:00:44'
p2280
sg10
S'no'
p2281
sg12
S'he6050.bio08'
p2282
sg14
I64
sg15
S'bio08'
p2283
sg17
S'Mean Temperature of Wettest Quarter'
p2284
sg19
S'60'
p2285
sg21
S'he6050'
p2286
sg23
S'../views/GTiff/clim.he6050.bio08.tif'
p2287
sg25
S'climate'
p2288
sg27
S'clim.he6050.bio08'
p2289
sg29
S'6263'
p2290
sg31
S'Mean Temperature of Wettest Quarter HE RCP60 2050'
p2291
sg33
g34
sg35
g36
sg37
S'clim.he6050.bio08.tif'
p2292
sg39
S'clim'
p2293
sg41
g42
sg43
I4326
sg44
S'2050'
p2294
sssS'gs4570'
p2295
(dp2296
S'bio07'
p2297
(dp2298
g8
S'2015-03-19 18:00:44'
p2299
sg10
S'no'
p2300
sg12
S'gs4570.bio07'
p2301
sg14
I67
sg15
S'bio07'
p2302
sg17
S'Temperature Annual Range (BIO5-BIO6)'
p2303
sg19
S'45'
p2304
sg21
S'gs4570'
p2305
sg23
S'../views/GTiff/clim.gs4570.bio07.tif'
p2306
sg25
S'climate'
p2307
sg27
S'clim.gs4570.bio07'
p2308
sg29
S'6135'
p2309
sg31
S'Temperature Annual Range (BIO5-BIO6) GS RCP45 2070'
p2310
sg33
g34
sg35
g36
sg37
S'clim.gs4570.bio07.tif'
p2311
sg39
S'clim'
p2312
sg41
g42
sg43
I4326
sg44
S'2070'
p2313
ssS'bio04'
p2314
(dp2315
g8
S'2015-03-19 18:00:44'
p2316
sg10
S'yes'
p2317
sg12
S'gs4570.bio04'
p2318
sg14
I291
sg15
S'bio04'
p2319
sg17
S'Temperature Seasonality (standard deviation *100)'
p2320
sg19
S'45'
p2321
sg21
S'gs4570'
p2322
sg23
S'../views/GTiff/clim.gs4570.bio04.tif'
p2323
sg25
S'climate'
p2324
sg27
S'clim.gs4570.bio04'
p2325
sg29
S'6138'
p2326
sg31
S'Temperature Seasonality (standard deviation *100) GS RCP45 2070'
p2327
sg33
g34
sg35
g36
sg37
S'clim.gs4570.bio04.tif'
p2328
sg39
S'clim'
p2329
sg41
g42
sg43
I4326
sg44
S'2070'
p2330
ssS'bio16'
p2331
(dp2332
g8
S'2015-03-19 18:00:44'
p2333
sg10
S'yes'
p2334
sg12
S'gs4570.bio16'
p2335
sg14
I294
sg15
S'bio16'
p2336
sg17
S'Precipitation of Wettest Quarter'
p2337
sg19
S'45'
p2338
sg21
S'gs4570'
p2339
sg23
S'../views/GTiff/clim.gs4570.bio16.tif'
p2340
sg25
S'climate'
p2341
sg27
S'clim.gs4570.bio16'
p2342
sg29
S'6132'
p2343
sg31
S'Precipitation of Wettest Quarter GS RCP45 2070'
p2344
sg33
g34
sg35
g36
sg37
S'clim.gs4570.bio16.tif'
p2345
sg39
S'clim'
p2346
sg41
g42
sg43
I4326
sg44
S'2070'
p2347
ssS'bio06'
p2348
(dp2349
g8
S'2015-03-19 18:00:44'
p2350
sg10
S'yes'
p2351
sg12
S'gs4570.bio06'
p2352
sg14
I272
sg15
S'bio06'
p2353
sg17
S'Min Temperature of Coldest Month'
p2354
sg19
S'45'
p2355
sg21
S'gs4570'
p2356
sg23
S'../views/GTiff/clim.gs4570.bio06.tif'
p2357
sg25
S'climate'
p2358
sg27
S'clim.gs4570.bio06'
p2359
sg29
S'6136'
p2360
sg31
S'Min Temperature of Coldest Month GS RCP45 2070'
p2361
sg33
g34
sg35
g36
sg37
S'clim.gs4570.bio06.tif'
p2362
sg39
S'clim'
p2363
sg41
g42
sg43
I4326
sg44
S'2070'
p2364
ssS'bio12'
p2365
(dp2366
g8
S'2015-03-19 18:00:44'
p2367
sg10
S'no'
p2368
sg12
S'gs4570.bio12'
p2369
sg14
I230
sg15
S'bio12'
p2370
sg17
S'Annual Precipitation'
p2371
sg19
S'45'
p2372
sg21
S'gs4570'
p2373
sg23
S'../views/GTiff/clim.gs4570.bio12.tif'
p2374
sg25
S'climate'
p2375
sg27
S'clim.gs4570.bio12'
p2376
sg29
S'6134'
p2377
sg31
S'Annual Precipitation GS RCP45 2070'
p2378
sg33
g34
sg35
g36
sg37
S'clim.gs4570.bio12.tif'
p2379
sg39
S'clim'
p2380
sg41
g42
sg43
I4326
sg44
S'2070'
p2381
ssS'bio14'
p2382
(dp2383
g8
S'2015-03-19 18:00:44'
p2384
sg10
S'yes'
p2385
sg12
S'gs4570.bio14'
p2386
sg14
I342
sg15
S'bio14'
p2387
sg17
S'Precipitation of Driest Month'
p2388
sg19
S'45'
p2389
sg21
S'gs4570'
p2390
sg23
S'../views/GTiff/clim.gs4570.bio14.tif'
p2391
sg25
S'climate'
p2392
sg27
S'clim.gs4570.bio14'
p2393
sg29
S'6144'
p2394
sg31
S'Precipitation of Driest Month GS RCP45 2070'
p2395
sg33
g34
sg35
g36
sg37
S'clim.gs4570.bio14.tif'
p2396
sg39
S'clim'
p2397
sg41
g42
sg43
I4326
sg44
S'2070'
p2398
ssS'bio10'
p2399
(dp2400
g8
S'2015-03-19 18:00:44'
p2401
sg10
S'yes'
p2402
sg12
S'gs4570.bio10'
p2403
sg14
I63
sg15
S'bio10'
p2404
sg17
S'Mean Temperature of Warmest Quarter'
p2405
sg19
S'45'
p2406
sg21
S'gs4570'
p2407
sg23
S'../views/GTiff/clim.gs4570.bio10.tif'
p2408
sg25
S'climate'
p2409
sg27
S'clim.gs4570.bio10'
p2410
sg29
S'6128'
p2411
sg31
S'Mean Temperature of Warmest Quarter GS RCP45 2070'
p2412
sg33
g34
sg35
g36
sg37
S'clim.gs4570.bio10.tif'
p2413
sg39
S'clim'
p2414
sg41
g42
sg43
I4326
sg44
S'2070'
p2415
ssS'bio11'
p2416
(dp2417
g8
S'2015-03-19 18:00:44'
p2418
sg10
S'yes'
p2419
sg12
S'gs4570.bio11'
p2420
sg14
I169
sg15
S'bio11'
p2421
sg17
S'Mean Temperature of Coldest Quarter'
p2422
sg19
S'45'
p2423
sg21
S'gs4570'
p2424
sg23
S'../views/GTiff/clim.gs4570.bio11.tif'
p2425
sg25
S'climate'
p2426
sg27
S'clim.gs4570.bio11'
p2427
sg29
S'6131'
p2428
sg31
S'Mean Temperature of Coldest Quarter GS RCP45 2070'
p2429
sg33
g34
sg35
g36
sg37
S'clim.gs4570.bio11.tif'
p2430
sg39
S'clim'
p2431
sg41
g42
sg43
I4326
sg44
S'2070'
p2432
ssS'bio05'
p2433
(dp2434
g8
S'2015-03-19 18:00:44'
p2435
sg10
S'yes'
p2436
sg12
S'gs4570.bio05'
p2437
sg14
I58
sg15
S'bio05'
p2438
sg17
S'Max Temperature of Warmest Month'
p2439
sg19
S'45'
p2440
sg21
S'gs4570'
p2441
sg23
S'../views/GTiff/clim.gs4570.bio05.tif'
p2442
sg25
S'climate'
p2443
sg27
S'clim.gs4570.bio05'
p2444
sg29
S'6137'
p2445
sg31
S'Max Temperature of Warmest Month GS RCP45 2070'
p2446
sg33
g34
sg35
g36
sg37
S'clim.gs4570.bio05.tif'
p2447
sg39
S'clim'
p2448
sg41
g42
sg43
I4326
sg44
S'2070'
p2449
ssS'bio13'
p2450
(dp2451
g8
S'2015-03-19 18:00:44'
p2452
sg10
S'yes'
p2453
sg12
S'gs4570.bio13'
p2454
sg14
I149
sg15
S'bio13'
p2455
sg17
S'Precipitation of Wettest Month'
p2456
sg19
S'45'
p2457
sg21
S'gs4570'
p2458
sg23
S'../views/GTiff/clim.gs4570.bio13.tif'
p2459
sg25
S'climate'
p2460
sg27
S'clim.gs4570.bio13'
p2461
sg29
S'6130'
p2462
sg31
S'Precipitation of Wettest Month GS RCP45 2070'
p2463
sg33
g34
sg35
g36
sg37
S'clim.gs4570.bio13.tif'
p2464
sg39
S'clim'
p2465
sg41
g42
sg43
I4326
sg44
S'2070'
p2466
ssS'bio03'
p2467
(dp2468
g8
S'2015-03-19 18:00:44'
p2469
sg10
S'yes'
p2470
sg12
S'gs4570.bio03'
p2471
sg14
I123
sg15
S'bio03'
p2472
sg17
S'Isothermality (BIO2/BIO7) (* 100)'
p2473
sg19
S'45'
p2474
sg21
S'gs4570'
p2475
sg23
S'../views/GTiff/clim.gs4570.bio03.tif'
p2476
sg25
S'climate'
p2477
sg27
S'clim.gs4570.bio03'
p2478
sg29
S'6139'
p2479
sg31
S'Isothermality (BIO2/BIO7) (* 100) GS RCP45 2070'
p2480
sg33
g34
sg35
g36
sg37
S'clim.gs4570.bio03.tif'
p2481
sg39
S'clim'
p2482
sg41
g42
sg43
I4326
sg44
S'2070'
p2483
ssS'bio15'
p2484
(dp2485
g8
S'2015-03-19 18:00:44'
p2486
sg10
S'no'
p2487
sg12
S'gs4570.bio15'
p2488
sg14
I72
sg15
S'bio15'
p2489
sg17
S'Precipitation Seasonality (Coefficient of Variation)'
p2490
sg19
S'45'
p2491
sg21
S'gs4570'
p2492
sg23
S'../views/GTiff/clim.gs4570.bio15.tif'
p2493
sg25
S'climate'
p2494
sg27
S'clim.gs4570.bio15'
p2495
sg29
S'6133'
p2496
sg31
S'Precipitation Seasonality (Coefficient of Variation) GS RCP45 2070'
p2497
sg33
g34
sg35
g36
sg37
S'clim.gs4570.bio15.tif'
p2498
sg39
S'clim'
p2499
sg41
g42
sg43
I4326
sg44
S'2070'
p2500
ssS'bio01'
p2501
(dp2502
g8
S'2015-03-19 18:00:44'
p2503
sg10
S'no'
p2504
sg12
S'gs4570.bio01'
p2505
sg14
I180
sg15
S'bio01'
p2506
sg17
S'Annual Mean Temperature'
p2507
sg19
S'45'
p2508
sg21
S'gs4570'
p2509
sg23
S'../views/GTiff/clim.gs4570.bio01.tif'
p2510
sg25
S'climate'
p2511
sg27
S'clim.gs4570.bio01'
p2512
sg29
S'6141'
p2513
sg31
S'Annual Mean Temperature GS RCP45 2070'
p2514
sg33
g34
sg35
g36
sg37
S'clim.gs4570.bio01.tif'
p2515
sg39
S'clim'
p2516
sg41
g42
sg43
I4326
sg44
S'2070'
p2517
ssS'bio17'
p2518
(dp2519
g8
S'2015-03-19 18:00:44'
p2520
sg10
S'yes'
p2521
sg12
S'gs4570.bio17'
p2522
sg14
I271
sg15
S'bio17'
p2523
sg17
S'Precipitation of Driest Quarter'
p2524
sg19
S'45'
p2525
sg21
S'gs4570'
p2526
sg23
S'../views/GTiff/clim.gs4570.bio17.tif'
p2527
sg25
S'climate'
p2528
sg27
S'clim.gs4570.bio17'
p2529
sg29
S'6142'
p2530
sg31
S'Precipitation of Driest Quarter GS RCP45 2070'
p2531
sg33
g34
sg35
g36
sg37
S'clim.gs4570.bio17.tif'
p2532
sg39
S'clim'
p2533
sg41
g42
sg43
I4326
sg44
S'2070'
p2534
ssS'bio18'
p2535
(dp2536
g8
S'2015-03-19 18:00:44'
p2537
sg10
S'no'
p2538
sg12
S'gs4570.bio18'
p2539
sg14
I3
sg15
S'bio18'
p2540
sg17
S'Precipitation of Warmest Quarter'
p2541
sg19
S'45'
p2542
sg21
g2295
sg23
S'../views/GTiff/clim.gs4570.bio18.tif'
p2543
sg25
S'climate'
p2544
sg27
S'clim.gs4570.bio18'
p2545
sg29
S'6143'
p2546
sg31
S'Precipitation of Warmest Quarter GS RCP45 2070'
p2547
sg33
g34
sg35
g36
sg37
S'clim.gs4570.bio18.tif'
p2548
sg39
S'clim'
p2549
sg41
g42
sg43
I4326
sg44
S'2070'
p2550
ssS'bio19'
p2551
(dp2552
g8
S'2015-03-19 18:00:44'
p2553
sg10
S'yes'
p2554
sg12
S'gs4570.bio19'
p2555
sg14
I317
sg15
S'bio19'
p2556
sg17
S'Precipitation of Coldest Quarter'
p2557
sg19
S'45'
p2558
sg21
S'gs4570'
p2559
sg23
S'../views/GTiff/clim.gs4570.bio19.tif'
p2560
sg25
S'climate'
p2561
sg27
S'clim.gs4570.bio19'
p2562
sg29
S'6129'
p2563
sg31
S'Precipitation of Coldest Quarter GS RCP45 2070'
p2564
sg33
g34
sg35
g36
sg37
S'clim.gs4570.bio19.tif'
p2565
sg39
S'clim'
p2566
sg41
g42
sg43
I4326
sg44
S'2070'
p2567
ssS'bio02'
p2568
(dp2569
g8
S'2015-03-19 18:00:44'
p2570
sg10
S'yes'
p2571
sg12
S'gs4570.bio02'
p2572
sg14
I231
sg15
S'bio02'
p2573
sg17
S'Mean Diurnal Range (Mean of monthly (max temp - min temp))'
p2574
sg19
S'45'
p2575
sg21
S'gs4570'
p2576
sg23
S'../views/GTiff/clim.gs4570.bio02.tif'
p2577
sg25
S'climate'
p2578
sg27
S'clim.gs4570.bio02'
p2579
sg29
S'6140'
p2580
sg31
S'Mean Diurnal Range (Mean of monthly (max temp - min temp)) GS RCP45 2070'
p2581
sg33
g34
sg35
g36
sg37
S'clim.gs4570.bio02.tif'
p2582
sg39
S'clim'
p2583
sg41
g42
sg43
I4326
sg44
S'2070'
p2584
ssS'bio09'
p2585
(dp2586
g8
S'2015-03-19 18:00:44'
p2587
sg10
S'yes'
p2588
sg12
S'gs4570.bio09'
p2589
sg14
I20
sg15
S'bio09'
p2590
sg17
S'Mean Temperature of Driest Quarter'
p2591
sg19
S'45'
p2592
sg21
S'gs4570'
p2593
sg23
S'../views/GTiff/clim.gs4570.bio09.tif'
p2594
sg25
S'climate'
p2595
sg27
S'clim.gs4570.bio09'
p2596
sg29
S'6145'
p2597
sg31
S'Mean Temperature of Driest Quarter GS RCP45 2070'
p2598
sg33
g34
sg35
g36
sg37
S'clim.gs4570.bio09.tif'
p2599
sg39
S'clim'
p2600
sg41
g42
sg43
I4326
sg44
S'2070'
p2601
ssS'bio08'
p2602
(dp2603
g8
S'2015-03-19 18:00:44'
p2604
sg10
S'no'
p2605
sg12
S'gs4570.bio08'
p2606
sg14
I43
sg15
S'bio08'
p2607
sg17
S'Mean Temperature of Wettest Quarter'
p2608
sg19
S'45'
p2609
sg21
S'gs4570'
p2610
sg23
S'../views/GTiff/clim.gs4570.bio08.tif'
p2611
sg25
S'climate'
p2612
sg27
S'clim.gs4570.bio08'
p2613
sg29
S'6146'
p2614
sg31
S'Mean Temperature of Wettest Quarter GS RCP45 2070'
p2615
sg33
g34
sg35
g36
sg37
S'clim.gs4570.bio08.tif'
p2616
sg39
S'clim'
p2617
sg41
g42
sg43
I4326
sg44
S'2070'
p2618
sssS'ac4570'
p2619
(dp2620
S'bio07'
p2621
(dp2622
g8
S'2015-03-19 18:00:44'
p2623
sg10
S'no'
p2624
sg12
S'ac4570.bio07'
p2625
sg14
I185
sg15
S'bio07'
p2626
sg17
S'Temperature Annual Range (BIO5-BIO6)'
p2627
sg19
S'45'
p2628
sg21
S'ac4570'
p2629
sg23
S'../views/GTiff/clim.ac4570.bio07.tif'
p2630
sg25
S'climate'
p2631
sg27
S'clim.ac4570.bio07'
p2632
sg29
S'6290'
p2633
sg31
S'Temperature Annual Range (BIO5-BIO6) AC RCP45 2070'
p2634
sg33
g34
sg35
g36
sg37
S'clim.ac4570.bio07.tif'
p2635
sg39
S'clim'
p2636
sg41
g42
sg43
I4326
sg44
S'2070'
p2637
ssS'bio16'
p2638
(dp2639
g8
S'2015-03-19 18:00:44'
p2640
sg10
S'yes'
p2641
sg12
S'ac4570.bio16'
p2642
sg14
I69
sg15
S'bio16'
p2643
sg17
S'Precipitation of Wettest Quarter'
p2644
sg19
S'45'
p2645
sg21
S'ac4570'
p2646
sg23
S'../views/GTiff/clim.ac4570.bio16.tif'
p2647
sg25
S'climate'
p2648
sg27
S'clim.ac4570.bio16'
p2649
sg29
S'6287'
p2650
sg31
S'Precipitation of Wettest Quarter AC RCP45 2070'
p2651
sg33
g34
sg35
g36
sg37
S'clim.ac4570.bio16.tif'
p2652
sg39
S'clim'
p2653
sg41
g42
sg43
I4326
sg44
S'2070'
p2654
ssS'bio11'
p2655
(dp2656
g8
S'2015-03-19 18:00:44'
p2657
sg10
S'yes'
p2658
sg12
S'ac4570.bio11'
p2659
sg14
I247
sg15
S'bio11'
p2660
sg17
S'Mean Temperature of Coldest Quarter'
p2661
sg19
S'45'
p2662
sg21
S'ac4570'
p2663
sg23
S'../views/GTiff/clim.ac4570.bio11.tif'
p2664
sg25
S'climate'
p2665
sg27
S'clim.ac4570.bio11'
p2666
sg29
S'6286'
p2667
sg31
S'Mean Temperature of Coldest Quarter AC RCP45 2070'
p2668
sg33
g34
sg35
g36
sg37
S'clim.ac4570.bio11.tif'
p2669
sg39
S'clim'
p2670
sg41
g42
sg43
I4326
sg44
S'2070'
p2671
ssS'bio17'
p2672
(dp2673
g8
S'2015-03-19 18:00:44'
p2674
sg10
S'yes'
p2675
sg12
S'ac4570.bio17'
p2676
sg14
I213
sg15
S'bio17'
p2677
sg17
S'Precipitation of Driest Quarter'
p2678
sg19
S'45'
p2679
sg21
S'ac4570'
p2680
sg23
S'../views/GTiff/clim.ac4570.bio17.tif'
p2681
sg25
S'climate'
p2682
sg27
S'clim.ac4570.bio17'
p2683
sg29
S'6297'
p2684
sg31
S'Precipitation of Driest Quarter AC RCP45 2070'
p2685
sg33
g34
sg35
g36
sg37
S'clim.ac4570.bio17.tif'
p2686
sg39
S'clim'
p2687
sg41
g42
sg43
I4326
sg44
S'2070'
p2688
ssS'bio15'
p2689
(dp2690
g8
S'2015-03-19 18:00:44'
p2691
sg10
S'no'
p2692
sg12
S'ac4570.bio15'
p2693
sg14
I240
sg15
S'bio15'
p2694
sg17
S'Precipitation Seasonality (Coefficient of Variation)'
p2695
sg19
S'45'
p2696
sg21
S'ac4570'
p2697
sg23
S'../views/GTiff/clim.ac4570.bio15.tif'
p2698
sg25
S'climate'
p2699
sg27
S'clim.ac4570.bio15'
p2700
sg29
S'6288'
p2701
sg31
S'Precipitation Seasonality (Coefficient of Variation) AC RCP45 2070'
p2702
sg33
g34
sg35
g36
sg37
S'clim.ac4570.bio15.tif'
p2703
sg39
S'clim'
p2704
sg41
g42
sg43
I4326
sg44
S'2070'
p2705
ssS'bio05'
p2706
(dp2707
g8
S'2015-03-19 18:00:44'
p2708
sg10
S'yes'
p2709
sg12
S'ac4570.bio05'
p2710
sg14
I221
sg15
S'bio05'
p2711
sg17
S'Max Temperature of Warmest Month'
p2712
sg19
S'45'
p2713
sg21
S'ac4570'
p2714
sg23
S'../views/GTiff/clim.ac4570.bio05.tif'
p2715
sg25
S'climate'
p2716
sg27
S'clim.ac4570.bio05'
p2717
sg29
S'6292'
p2718
sg31
S'Max Temperature of Warmest Month AC RCP45 2070'
p2719
sg33
g34
sg35
g36
sg37
S'clim.ac4570.bio05.tif'
p2720
sg39
S'clim'
p2721
sg41
g42
sg43
I4326
sg44
S'2070'
p2722
ssS'bio10'
p2723
(dp2724
g8
S'2015-03-19 18:00:44'
p2725
sg10
S'yes'
p2726
sg12
S'ac4570.bio10'
p2727
sg14
I102
sg15
S'bio10'
p2728
sg17
S'Mean Temperature of Warmest Quarter'
p2729
sg19
S'45'
p2730
sg21
S'ac4570'
p2731
sg23
S'../views/GTiff/clim.ac4570.bio10.tif'
p2732
sg25
S'climate'
p2733
sg27
S'clim.ac4570.bio10'
p2734
sg29
S'6283'
p2735
sg31
S'Mean Temperature of Warmest Quarter AC RCP45 2070'
p2736
sg33
g34
sg35
g36
sg37
S'clim.ac4570.bio10.tif'
p2737
sg39
S'clim'
p2738
sg41
g42
sg43
I4326
sg44
S'2070'
p2739
ssS'bio06'
p2740
(dp2741
g8
S'2015-03-19 18:00:44'
p2742
sg10
S'yes'
p2743
sg12
S'ac4570.bio06'
p2744
sg14
I31
sg15
S'bio06'
p2745
sg17
S'Min Temperature of Coldest Month'
p2746
sg19
S'45'
p2747
sg21
S'ac4570'
p2748
sg23
S'../views/GTiff/clim.ac4570.bio06.tif'
p2749
sg25
S'climate'
p2750
sg27
S'clim.ac4570.bio06'
p2751
sg29
S'6291'
p2752
sg31
S'Min Temperature of Coldest Month AC RCP45 2070'
p2753
sg33
g34
sg35
g36
sg37
S'clim.ac4570.bio06.tif'
p2754
sg39
S'clim'
p2755
sg41
g42
sg43
I4326
sg44
S'2070'
p2756
ssS'bio12'
p2757
(dp2758
g8
S'2015-03-19 18:00:44'
p2759
sg10
S'no'
p2760
sg12
S'ac4570.bio12'
p2761
sg14
I136
sg15
S'bio12'
p2762
sg17
S'Annual Precipitation'
p2763
sg19
S'45'
p2764
sg21
S'ac4570'
p2765
sg23
S'../views/GTiff/clim.ac4570.bio12.tif'
p2766
sg25
S'climate'
p2767
sg27
S'clim.ac4570.bio12'
p2768
sg29
S'6289'
p2769
sg31
S'Annual Precipitation AC RCP45 2070'
p2770
sg33
g34
sg35
g36
sg37
S'clim.ac4570.bio12.tif'
p2771
sg39
S'clim'
p2772
sg41
g42
sg43
I4326
sg44
S'2070'
p2773
ssS'bio13'
p2774
(dp2775
g8
S'2015-03-19 18:00:44'
p2776
sg10
S'yes'
p2777
sg12
S'ac4570.bio13'
p2778
sg14
I181
sg15
S'bio13'
p2779
sg17
S'Precipitation of Wettest Month'
p2780
sg19
S'45'
p2781
sg21
S'ac4570'
p2782
sg23
S'../views/GTiff/clim.ac4570.bio13.tif'
p2783
sg25
S'climate'
p2784
sg27
S'clim.ac4570.bio13'
p2785
sg29
S'6285'
p2786
sg31
S'Precipitation of Wettest Month AC RCP45 2070'
p2787
sg33
g34
sg35
g36
sg37
S'clim.ac4570.bio13.tif'
p2788
sg39
S'clim'
p2789
sg41
g42
sg43
I4326
sg44
S'2070'
p2790
ssS'bio03'
p2791
(dp2792
g8
S'2015-03-19 18:00:44'
p2793
sg10
S'yes'
p2794
sg12
S'ac4570.bio03'
p2795
sg14
I124
sg15
S'bio03'
p2796
sg17
S'Isothermality (BIO2/BIO7) (* 100)'
p2797
sg19
S'45'
p2798
sg21
S'ac4570'
p2799
sg23
S'../views/GTiff/clim.ac4570.bio03.tif'
p2800
sg25
S'climate'
p2801
sg27
S'clim.ac4570.bio03'
p2802
sg29
S'6294'
p2803
sg31
S'Isothermality (BIO2/BIO7) (* 100) AC RCP45 2070'
p2804
sg33
g34
sg35
g36
sg37
S'clim.ac4570.bio03.tif'
p2805
sg39
S'clim'
p2806
sg41
g42
sg43
I4326
sg44
S'2070'
p2807
ssS'bio02'
p2808
(dp2809
g8
S'2015-03-19 18:00:44'
p2810
sg10
S'yes'
p2811
sg12
S'ac4570.bio02'
p2812
sg14
I237
sg15
S'bio02'
p2813
sg17
S'Mean Diurnal Range (Mean of monthly (max temp - min temp))'
p2814
sg19
S'45'
p2815
sg21
S'ac4570'
p2816
sg23
S'../views/GTiff/clim.ac4570.bio02.tif'
p2817
sg25
S'climate'
p2818
sg27
S'clim.ac4570.bio02'
p2819
sg29
S'6295'
p2820
sg31
S'Mean Diurnal Range (Mean of monthly (max temp - min temp)) AC RCP45 2070'
p2821
sg33
g34
sg35
g36
sg37
S'clim.ac4570.bio02.tif'
p2822
sg39
S'clim'
p2823
sg41
g42
sg43
I4326
sg44
S'2070'
p2824
ssS'bio01'
p2825
(dp2826
g8
S'2015-03-19 18:00:44'
p2827
sg10
S'no'
p2828
sg12
S'ac4570.bio01'
p2829
sg14
I79
sg15
S'bio01'
p2830
sg17
S'Annual Mean Temperature'
p2831
sg19
S'45'
p2832
sg21
S'ac4570'
p2833
sg23
S'../views/GTiff/clim.ac4570.bio01.tif'
p2834
sg25
S'climate'
p2835
sg27
S'clim.ac4570.bio01'
p2836
sg29
S'6296'
p2837
sg31
S'Annual Mean Temperature AC RCP45 2070'
p2838
sg33
g34
sg35
g36
sg37
S'clim.ac4570.bio01.tif'
p2839
sg39
S'clim'
p2840
sg41
g42
sg43
I4326
sg44
S'2070'
p2841
ssS'bio19'
p2842
(dp2843
g8
S'2015-03-19 18:00:44'
p2844
sg10
S'yes'
p2845
sg12
S'ac4570.bio19'
p2846
sg14
I211
sg15
S'bio19'
p2847
sg17
S'Precipitation of Coldest Quarter'
p2848
sg19
S'45'
p2849
sg21
S'ac4570'
p2850
sg23
S'../views/GTiff/clim.ac4570.bio19.tif'
p2851
sg25
S'climate'
p2852
sg27
S'clim.ac4570.bio19'
p2853
sg29
S'6284'
p2854
sg31
S'Precipitation of Coldest Quarter AC RCP45 2070'
p2855
sg33
g34
sg35
g36
sg37
S'clim.ac4570.bio19.tif'
p2856
sg39
S'clim'
p2857
sg41
g42
sg43
I4326
sg44
S'2070'
p2858
ssS'bio18'
p2859
(dp2860
g8
S'2015-03-19 18:00:44'
p2861
sg10
S'no'
p2862
sg12
S'ac4570.bio18'
p2863
sg14
I93
sg15
S'bio18'
p2864
sg17
S'Precipitation of Warmest Quarter'
p2865
sg19
S'45'
p2866
sg21
S'ac4570'
p2867
sg23
S'../views/GTiff/clim.ac4570.bio18.tif'
p2868
sg25
S'climate'
p2869
sg27
S'clim.ac4570.bio18'
p2870
sg29
S'6298'
p2871
sg31
S'Precipitation of Warmest Quarter AC RCP45 2070'
p2872
sg33
g34
sg35
g36
sg37
S'clim.ac4570.bio18.tif'
p2873
sg39
S'clim'
p2874
sg41
g42
sg43
I4326
sg44
S'2070'
p2875
ssS'bio14'
p2876
(dp2877
g8
S'2015-03-19 18:00:44'
p2878
sg10
S'yes'
p2879
sg12
S'ac4570.bio14'
p2880
sg14
I137
sg15
S'bio14'
p2881
sg17
S'Precipitation of Driest Month'
p2882
sg19
S'45'
p2883
sg21
S'ac4570'
p2884
sg23
S'../views/GTiff/clim.ac4570.bio14.tif'
p2885
sg25
S'climate'
p2886
sg27
S'clim.ac4570.bio14'
p2887
sg29
S'6299'
p2888
sg31
S'Precipitation of Driest Month AC RCP45 2070'
p2889
sg33
g34
sg35
g36
sg37
S'clim.ac4570.bio14.tif'
p2890
sg39
S'clim'
p2891
sg41
g42
sg43
I4326
sg44
S'2070'
p2892
ssS'bio04'
p2893
(dp2894
g8
S'2015-03-19 18:00:44'
p2895
sg10
S'yes'
p2896
sg12
S'ac4570.bio04'
p2897
sg14
I327
sg15
S'bio04'
p2898
sg17
S'Temperature Seasonality (standard deviation *100)'
p2899
sg19
S'45'
p2900
sg21
S'ac4570'
p2901
sg23
S'../views/GTiff/clim.ac4570.bio04.tif'
p2902
sg25
S'climate'
p2903
sg27
S'clim.ac4570.bio04'
p2904
sg29
S'6293'
p2905
sg31
S'Temperature Seasonality (standard deviation *100) AC RCP45 2070'
p2906
sg33
g34
sg35
g36
sg37
S'clim.ac4570.bio04.tif'
p2907
sg39
S'clim'
p2908
sg41
g42
sg43
I4326
sg44
S'2070'
p2909
ssS'bio09'
p2910
(dp2911
g8
S'2015-03-19 18:00:44'
p2912
sg10
S'yes'
p2913
sg12
S'ac4570.bio09'
p2914
sg14
I23
sg15
S'bio09'
p2915
sg17
S'Mean Temperature of Driest Quarter'
p2916
sg19
S'45'
p2917
sg21
g2619
sg23
S'../views/GTiff/clim.ac4570.bio09.tif'
p2918
sg25
S'climate'
p2919
sg27
S'clim.ac4570.bio09'
p2920
sg29
S'6300'
p2921
sg31
S'Mean Temperature of Driest Quarter AC RCP45 2070'
p2922
sg33
g34
sg35
g36
sg37
S'clim.ac4570.bio09.tif'
p2923
sg39
S'clim'
p2924
sg41
g42
sg43
I4326
sg44
S'2070'
p2925
ssS'bio08'
p2926
(dp2927
g8
S'2015-03-19 18:00:44'
p2928
sg10
S'no'
p2929
sg12
S'ac4570.bio08'
p2930
sg14
I201
sg15
S'bio08'
p2931
sg17
S'Mean Temperature of Wettest Quarter'
p2932
sg19
S'45'
p2933
sg21
S'ac4570'
p2934
sg23
S'../views/GTiff/clim.ac4570.bio08.tif'
p2935
sg25
S'climate'
p2936
sg27
S'clim.ac4570.bio08'
p2937
sg29
S'6301'
p2938
sg31
S'Mean Temperature of Wettest Quarter AC RCP45 2070'
p2939
sg33
g34
sg35
g36
sg37
S'clim.ac4570.bio08.tif'
p2940
sg39
S'clim'
p2941
sg41
g42
sg43
I4326
sg44
S'2070'
p2942
sssS'gd4570'
p2943
(dp2944
S'bio07'
p2945
(dp2946
g8
S'2015-03-19 18:00:44'
p2947
sg10
S'no'
p2948
sg12
S'gd4570.bio07'
p2949
sg14
I283
sg15
S'bio07'
p2950
sg17
S'Temperature Annual Range (BIO5-BIO6)'
p2951
sg19
S'45'
p2952
sg21
S'gd4570'
p2953
sg23
S'../views/GTiff/clim.gd4570.bio07.tif'
p2954
sg25
S'climate'
p2955
sg27
S'clim.gd4570.bio07'
p2956
sg29
S'6309'
p2957
sg31
S'Temperature Annual Range (BIO5-BIO6) GD RCP45 2070'
p2958
sg33
g34
sg35
g36
sg37
S'clim.gd4570.bio07.tif'
p2959
sg39
S'clim'
p2960
sg41
g42
sg43
I4326
sg44
S'2070'
p2961
ssS'bio01'
p2962
(dp2963
g8
S'2015-03-19 18:00:44'
p2964
sg10
S'no'
p2965
sg12
S'gd4570.bio01'
p2966
sg14
I251
sg15
S'bio01'
p2967
sg17
S'Annual Mean Temperature'
p2968
sg19
S'45'
p2969
sg21
S'gd4570'
p2970
sg23
S'../views/GTiff/clim.gd4570.bio01.tif'
p2971
sg25
S'climate'
p2972
sg27
S'clim.gd4570.bio01'
p2973
sg29
S'6315'
p2974
sg31
S'Annual Mean Temperature GD RCP45 2070'
p2975
sg33
g34
sg35
g36
sg37
S'clim.gd4570.bio01.tif'
p2976
sg39
S'clim'
p2977
sg41
g42
sg43
I4326
sg44
S'2070'
p2978
ssS'bio06'
p2979
(dp2980
g8
S'2015-03-19 18:00:44'
p2981
sg10
S'yes'
p2982
sg12
S'gd4570.bio06'
p2983
sg14
I304
sg15
S'bio06'
p2984
sg17
S'Min Temperature of Coldest Month'
p2985
sg19
S'45'
p2986
sg21
S'gd4570'
p2987
sg23
S'../views/GTiff/clim.gd4570.bio06.tif'
p2988
sg25
S'climate'
p2989
sg27
S'clim.gd4570.bio06'
p2990
sg29
S'6310'
p2991
sg31
S'Min Temperature of Coldest Month GD RCP45 2070'
p2992
sg33
g34
sg35
g36
sg37
S'clim.gd4570.bio06.tif'
p2993
sg39
S'clim'
p2994
sg41
g42
sg43
I4326
sg44
S'2070'
p2995
ssS'bio12'
p2996
(dp2997
g8
S'2015-03-19 18:00:44'
p2998
sg10
S'no'
p2999
sg12
S'gd4570.bio12'
p3000
sg14
I312
sg15
S'bio12'
p3001
sg17
S'Annual Precipitation'
p3002
sg19
S'45'
p3003
sg21
S'gd4570'
p3004
sg23
S'../views/GTiff/clim.gd4570.bio12.tif'
p3005
sg25
S'climate'
p3006
sg27
S'clim.gd4570.bio12'
p3007
sg29
S'6308'
p3008
sg31
S'Annual Precipitation GD RCP45 2070'
p3009
sg33
g34
sg35
g36
sg37
S'clim.gd4570.bio12.tif'
p3010
sg39
S'clim'
p3011
sg41
g42
sg43
I4326
sg44
S'2070'
p3012
ssS'bio10'
p3013
(dp3014
g8
S'2015-03-19 18:00:44'
p3015
sg10
S'yes'
p3016
sg12
S'gd4570.bio10'
p3017
sg14
I170
sg15
S'bio10'
p3018
sg17
S'Mean Temperature of Warmest Quarter'
p3019
sg19
S'45'
p3020
sg21
S'gd4570'
p3021
sg23
S'../views/GTiff/clim.gd4570.bio10.tif'
p3022
sg25
S'climate'
p3023
sg27
S'clim.gd4570.bio10'
p3024
sg29
S'6302'
p3025
sg31
S'Mean Temperature of Warmest Quarter GD RCP45 2070'
p3026
sg33
g34
sg35
g36
sg37
S'clim.gd4570.bio10.tif'
p3027
sg39
S'clim'
p3028
sg41
g42
sg43
I4326
sg44
S'2070'
p3029
ssS'bio11'
p3030
(dp3031
g8
S'2015-03-19 18:00:44'
p3032
sg10
S'yes'
p3033
sg12
S'gd4570.bio11'
p3034
sg14
I21
sg15
S'bio11'
p3035
sg17
S'Mean Temperature of Coldest Quarter'
p3036
sg19
S'45'
p3037
sg21
S'gd4570'
p3038
sg23
S'../views/GTiff/clim.gd4570.bio11.tif'
p3039
sg25
S'climate'
p3040
sg27
S'clim.gd4570.bio11'
p3041
sg29
S'6305'
p3042
sg31
S'Mean Temperature of Coldest Quarter GD RCP45 2070'
p3043
sg33
g34
sg35
g36
sg37
S'clim.gd4570.bio11.tif'
p3044
sg39
S'clim'
p3045
sg41
g42
sg43
I4326
sg44
S'2070'
p3046
ssS'bio05'
p3047
(dp3048
g8
S'2015-03-19 18:00:44'
p3049
sg10
S'yes'
p3050
sg12
S'gd4570.bio05'
p3051
sg14
I34
sg15
S'bio05'
p3052
sg17
S'Max Temperature of Warmest Month'
p3053
sg19
S'45'
p3054
sg21
S'gd4570'
p3055
sg23
S'../views/GTiff/clim.gd4570.bio05.tif'
p3056
sg25
S'climate'
p3057
sg27
S'clim.gd4570.bio05'
p3058
sg29
S'6311'
p3059
sg31
S'Max Temperature of Warmest Month GD RCP45 2070'
p3060
sg33
g34
sg35
g36
sg37
S'clim.gd4570.bio05.tif'
p3061
sg39
S'clim'
p3062
sg41
g42
sg43
I4326
sg44
S'2070'
p3063
ssS'bio13'
p3064
(dp3065
g8
S'2015-03-19 18:00:44'
p3066
sg10
S'yes'
p3067
sg12
S'gd4570.bio13'
p3068
sg14
I55
sg15
S'bio13'
p3069
sg17
S'Precipitation of Wettest Month'
p3070
sg19
S'45'
p3071
sg21
S'gd4570'
p3072
sg23
S'../views/GTiff/clim.gd4570.bio13.tif'
p3073
sg25
S'climate'
p3074
sg27
S'clim.gd4570.bio13'
p3075
sg29
S'6304'
p3076
sg31
S'Precipitation of Wettest Month GD RCP45 2070'
p3077
sg33
g34
sg35
g36
sg37
S'clim.gd4570.bio13.tif'
p3078
sg39
S'clim'
p3079
sg41
g42
sg43
I4326
sg44
S'2070'
p3080
ssS'bio14'
p3081
(dp3082
g8
S'2015-03-19 18:00:44'
p3083
sg10
S'yes'
p3084
sg12
S'gd4570.bio14'
p3085
sg14
I266
sg15
S'bio14'
p3086
sg17
S'Precipitation of Driest Month'
p3087
sg19
S'45'
p3088
sg21
S'gd4570'
p3089
sg23
S'../views/GTiff/clim.gd4570.bio14.tif'
p3090
sg25
S'climate'
p3091
sg27
S'clim.gd4570.bio14'
p3092
sg29
S'6318'
p3093
sg31
S'Precipitation of Driest Month GD RCP45 2070'
p3094
sg33
g34
sg35
g36
sg37
S'clim.gd4570.bio14.tif'
p3095
sg39
S'clim'
p3096
sg41
g42
sg43
I4326
sg44
S'2070'
p3097
ssS'bio15'
p3098
(dp3099
g8
S'2015-03-19 18:00:44'
p3100
sg10
S'no'
p3101
sg12
S'gd4570.bio15'
p3102
sg14
I147
sg15
S'bio15'
p3103
sg17
S'Precipitation Seasonality (Coefficient of Variation)'
p3104
sg19
S'45'
p3105
sg21
S'gd4570'
p3106
sg23
S'../views/GTiff/clim.gd4570.bio15.tif'
p3107
sg25
S'climate'
p3108
sg27
S'clim.gd4570.bio15'
p3109
sg29
S'6307'
p3110
sg31
S'Precipitation Seasonality (Coefficient of Variation) GD RCP45 2070'
p3111
sg33
g34
sg35
g36
sg37
S'clim.gd4570.bio15.tif'
p3112
sg39
S'clim'
p3113
sg41
g42
sg43
I4326
sg44
S'2070'
p3114
ssS'bio16'
p3115
(dp3116
g8
S'2015-03-19 18:00:44'
p3117
sg10
S'yes'
p3118
sg12
S'gd4570.bio16'
p3119
sg14
I53
sg15
S'bio16'
p3120
sg17
S'Precipitation of Wettest Quarter'
p3121
sg19
S'45'
p3122
sg21
S'gd4570'
p3123
sg23
S'../views/GTiff/clim.gd4570.bio16.tif'
p3124
sg25
S'climate'
p3125
sg27
S'clim.gd4570.bio16'
p3126
sg29
S'6306'
p3127
sg31
S'Precipitation of Wettest Quarter GD RCP45 2070'
p3128
sg33
g34
sg35
g36
sg37
S'clim.gd4570.bio16.tif'
p3129
sg39
S'clim'
p3130
sg41
g42
sg43
I4326
sg44
S'2070'
p3131
ssS'bio17'
p3132
(dp3133
g8
S'2015-03-19 18:00:44'
p3134
sg10
S'yes'
p3135
sg12
S'gd4570.bio17'
p3136
sg14
I129
sg15
S'bio17'
p3137
sg17
S'Precipitation of Driest Quarter'
p3138
sg19
S'45'
p3139
sg21
S'gd4570'
p3140
sg23
S'../views/GTiff/clim.gd4570.bio17.tif'
p3141
sg25
S'climate'
p3142
sg27
S'clim.gd4570.bio17'
p3143
sg29
S'6316'
p3144
sg31
S'Precipitation of Driest Quarter GD RCP45 2070'
p3145
sg33
g34
sg35
g36
sg37
S'clim.gd4570.bio17.tif'
p3146
sg39
S'clim'
p3147
sg41
g42
sg43
I4326
sg44
S'2070'
p3148
ssS'bio18'
p3149
(dp3150
g8
S'2015-03-19 18:00:44'
p3151
sg10
S'no'
p3152
sg12
S'gd4570.bio18'
p3153
sg14
I4
sg15
S'bio18'
p3154
sg17
S'Precipitation of Warmest Quarter'
p3155
sg19
S'45'
p3156
sg21
g2943
sg23
S'../views/GTiff/clim.gd4570.bio18.tif'
p3157
sg25
S'climate'
p3158
sg27
S'clim.gd4570.bio18'
p3159
sg29
S'6317'
p3160
sg31
S'Precipitation of Warmest Quarter GD RCP45 2070'
p3161
sg33
g34
sg35
g36
sg37
S'clim.gd4570.bio18.tif'
p3162
sg39
S'clim'
p3163
sg41
g42
sg43
I4326
sg44
S'2070'
p3164
ssS'bio19'
p3165
(dp3166
g8
S'2015-03-19 18:00:44'
p3167
sg10
S'yes'
p3168
sg12
S'gd4570.bio19'
p3169
sg14
I6
sg15
S'bio19'
p3170
sg17
S'Precipitation of Coldest Quarter'
p3171
sg19
S'45'
p3172
sg21
S'gd4570'
p3173
sg23
S'../views/GTiff/clim.gd4570.bio19.tif'
p3174
sg25
S'climate'
p3175
sg27
S'clim.gd4570.bio19'
p3176
sg29
S'6303'
p3177
sg31
S'Precipitation of Coldest Quarter GD RCP45 2070'
p3178
sg33
g34
sg35
g36
sg37
S'clim.gd4570.bio19.tif'
p3179
sg39
S'clim'
p3180
sg41
g42
sg43
I4326
sg44
S'2070'
p3181
ssS'bio04'
p3182
(dp3183
g8
S'2015-03-19 18:00:44'
p3184
sg10
S'yes'
p3185
sg12
S'gd4570.bio04'
p3186
sg14
I245
sg15
S'bio04'
p3187
sg17
S'Temperature Seasonality (standard deviation *100)'
p3188
sg19
S'45'
p3189
sg21
S'gd4570'
p3190
sg23
S'../views/GTiff/clim.gd4570.bio04.tif'
p3191
sg25
S'climate'
p3192
sg27
S'clim.gd4570.bio04'
p3193
sg29
S'6312'
p3194
sg31
S'Temperature Seasonality (standard deviation *100) GD RCP45 2070'
p3195
sg33
g34
sg35
g36
sg37
S'clim.gd4570.bio04.tif'
p3196
sg39
S'clim'
p3197
sg41
g42
sg43
I4326
sg44
S'2070'
p3198
ssS'bio08'
p3199
(dp3200
g8
S'2015-03-19 18:00:44'
p3201
sg10
S'no'
p3202
sg12
S'gd4570.bio08'
p3203
sg14
I305
sg15
S'bio08'
p3204
sg17
S'Mean Temperature of Wettest Quarter'
p3205
sg19
S'45'
p3206
sg21
S'gd4570'
p3207
sg23
S'../views/GTiff/clim.gd4570.bio08.tif'
p3208
sg25
S'climate'
p3209
sg27
S'clim.gd4570.bio08'
p3210
sg29
S'6320'
p3211
sg31
S'Mean Temperature of Wettest Quarter GD RCP45 2070'
p3212
sg33
g34
sg35
g36
sg37
S'clim.gd4570.bio08.tif'
p3213
sg39
S'clim'
p3214
sg41
g42
sg43
I4326
sg44
S'2070'
p3215
ssS'bio03'
p3216
(dp3217
g8
S'2015-03-19 18:00:44'
p3218
sg10
S'yes'
p3219
sg12
S'gd4570.bio03'
p3220
sg14
I323
sg15
S'bio03'
p3221
sg17
S'Isothermality (BIO2/BIO7) (* 100)'
p3222
sg19
S'45'
p3223
sg21
S'gd4570'
p3224
sg23
S'../views/GTiff/clim.gd4570.bio03.tif'
p3225
sg25
S'climate'
p3226
sg27
S'clim.gd4570.bio03'
p3227
sg29
S'6313'
p3228
sg31
S'Isothermality (BIO2/BIO7) (* 100) GD RCP45 2070'
p3229
sg33
g34
sg35
g36
sg37
S'clim.gd4570.bio03.tif'
p3230
sg39
S'clim'
p3231
sg41
g42
sg43
I4326
sg44
S'2070'
p3232
ssS'bio09'
p3233
(dp3234
g8
S'2015-03-19 18:00:44'
p3235
sg10
S'yes'
p3236
sg12
S'gd4570.bio09'
p3237
sg14
I215
sg15
S'bio09'
p3238
sg17
S'Mean Temperature of Driest Quarter'
p3239
sg19
S'45'
p3240
sg21
S'gd4570'
p3241
sg23
S'../views/GTiff/clim.gd4570.bio09.tif'
p3242
sg25
S'climate'
p3243
sg27
S'clim.gd4570.bio09'
p3244
sg29
S'6319'
p3245
sg31
S'Mean Temperature of Driest Quarter GD RCP45 2070'
p3246
sg33
g34
sg35
g36
sg37
S'clim.gd4570.bio09.tif'
p3247
sg39
S'clim'
p3248
sg41
g42
sg43
I4326
sg44
S'2070'
p3249
ssS'bio02'
p3250
(dp3251
g8
S'2015-03-19 18:00:44'
p3252
sg10
S'yes'
p3253
sg12
S'gd4570.bio02'
p3254
sg14
I160
sg15
S'bio02'
p3255
sg17
S'Mean Diurnal Range (Mean of monthly (max temp - min temp))'
p3256
sg19
S'45'
p3257
sg21
S'gd4570'
p3258
sg23
S'../views/GTiff/clim.gd4570.bio02.tif'
p3259
sg25
S'climate'
p3260
sg27
S'clim.gd4570.bio02'
p3261
sg29
S'6314'
p3262
sg31
S'Mean Diurnal Range (Mean of monthly (max temp - min temp)) GD RCP45 2070'
p3263
sg33
g34
sg35
g36
sg37
S'clim.gd4570.bio02.tif'
p3264
sg39
S'clim'
p3265
sg41
g42
sg43
I4326
sg44
S'2070'
p3266
sssS'he4550'
p3267
(dp3268
S'bio07'
p3269
(dp3270
g8
S'2015-03-19 18:00:44'
p3271
sg10
S'no'
p3272
sg12
S'he4550.bio07'
p3273
sg14
I96
sg15
S'bio07'
p3274
sg17
S'Temperature Annual Range (BIO5-BIO6)'
p3275
sg19
S'45'
p3276
sg21
S'he4550'
p3277
sg23
S'../views/GTiff/clim.he4550.bio07.tif'
p3278
sg25
S'climate'
p3279
sg27
S'clim.he4550.bio07'
p3280
sg29
S'6388'
p3281
sg31
S'Temperature Annual Range (BIO5-BIO6) HE RCP45 2050'
p3282
sg33
g34
sg35
g36
sg37
S'clim.he4550.bio07.tif'
p3283
sg39
S'clim'
p3284
sg41
g42
sg43
I4326
sg44
S'2050'
p3285
ssS'bio04'
p3286
(dp3287
g8
S'2015-03-19 18:00:44'
p3288
sg10
S'yes'
p3289
sg12
S'he4550.bio04'
p3290
sg14
I265
sg15
S'bio04'
p3291
sg17
S'Temperature Seasonality (standard deviation *100)'
p3292
sg19
S'45'
p3293
sg21
S'he4550'
p3294
sg23
S'../views/GTiff/clim.he4550.bio04.tif'
p3295
sg25
S'climate'
p3296
sg27
S'clim.he4550.bio04'
p3297
sg29
S'6375'
p3298
sg31
S'Temperature Seasonality (standard deviation *100) HE RCP45 2050'
p3299
sg33
g34
sg35
g36
sg37
S'clim.he4550.bio04.tif'
p3300
sg39
S'clim'
p3301
sg41
g42
sg43
I4326
sg44
S'2050'
p3302
ssS'bio01'
p3303
(dp3304
g8
S'2015-03-19 18:00:44'
p3305
sg10
S'no'
p3306
sg12
S'he4550.bio01'
p3307
sg14
I333
sg15
S'bio01'
p3308
sg17
S'Annual Mean Temperature'
p3309
sg19
S'45'
p3310
sg21
S'he4550'
p3311
sg23
S'../views/GTiff/clim.he4550.bio01.tif'
p3312
sg25
S'climate'
p3313
sg27
S'clim.he4550.bio01'
p3314
sg29
S'6378'
p3315
sg31
S'Annual Mean Temperature HE RCP45 2050'
p3316
sg33
g34
sg35
g36
sg37
S'clim.he4550.bio01.tif'
p3317
sg39
S'clim'
p3318
sg41
g42
sg43
I4326
sg44
S'2050'
p3319
ssS'bio06'
p3320
(dp3321
g8
S'2015-03-19 18:00:44'
p3322
sg10
S'yes'
p3323
sg12
S'he4550.bio06'
p3324
sg14
I313
sg15
S'bio06'
p3325
sg17
S'Min Temperature of Coldest Month'
p3326
sg19
S'45'
p3327
sg21
S'he4550'
p3328
sg23
S'../views/GTiff/clim.he4550.bio06.tif'
p3329
sg25
S'climate'
p3330
sg27
S'clim.he4550.bio06'
p3331
sg29
S'6389'
p3332
sg31
S'Min Temperature of Coldest Month HE RCP45 2050'
p3333
sg33
g34
sg35
g36
sg37
S'clim.he4550.bio06.tif'
p3334
sg39
S'clim'
p3335
sg41
g42
sg43
I4326
sg44
S'2050'
p3336
ssS'bio05'
p3337
(dp3338
g8
S'2015-03-19 18:00:44'
p3339
sg10
S'yes'
p3340
sg12
S'he4550.bio05'
p3341
sg14
I310
sg15
S'bio05'
p3342
sg17
S'Max Temperature of Warmest Month'
p3343
sg19
S'45'
p3344
sg21
S'he4550'
p3345
sg23
S'../views/GTiff/clim.he4550.bio05.tif'
p3346
sg25
S'climate'
p3347
sg27
S'clim.he4550.bio05'
p3348
sg29
S'6387'
p3349
sg31
S'Max Temperature of Warmest Month HE RCP45 2050'
p3350
sg33
g34
sg35
g36
sg37
S'clim.he4550.bio05.tif'
p3351
sg39
S'clim'
p3352
sg41
g42
sg43
I4326
sg44
S'2050'
p3353
ssS'bio14'
p3354
(dp3355
g8
S'2015-03-19 18:00:44'
p3356
sg10
S'yes'
p3357
sg12
S'he4550.bio14'
p3358
sg14
I284
sg15
S'bio14'
p3359
sg17
S'Precipitation of Driest Month'
p3360
sg19
S'45'
p3361
sg21
S'he4550'
p3362
sg23
S'../views/GTiff/clim.he4550.bio14.tif'
p3363
sg25
S'climate'
p3364
sg27
S'clim.he4550.bio14'
p3365
sg29
S'6391'
p3366
sg31
S'Precipitation of Driest Month HE RCP45 2050'
p3367
sg33
g34
sg35
g36
sg37
S'clim.he4550.bio14.tif'
p3368
sg39
S'clim'
p3369
sg41
g42
sg43
I4326
sg44
S'2050'
p3370
ssS'bio10'
p3371
(dp3372
g8
S'2015-03-19 18:00:44'
p3373
sg10
S'yes'
p3374
sg12
S'he4550.bio10'
p3375
sg14
I44
sg15
S'bio10'
p3376
sg17
S'Mean Temperature of Warmest Quarter'
p3377
sg19
S'45'
p3378
sg21
S'he4550'
p3379
sg23
S'../views/GTiff/clim.he4550.bio10.tif'
p3380
sg25
S'climate'
p3381
sg27
S'clim.he4550.bio10'
p3382
sg29
S'6321'
p3383
sg31
S'Mean Temperature of Warmest Quarter HE RCP45 2050'
p3384
sg33
g34
sg35
g36
sg37
S'clim.he4550.bio10.tif'
p3385
sg39
S'clim'
p3386
sg41
g42
sg43
I4326
sg44
S'2050'
p3387
ssS'bio11'
p3388
(dp3389
g8
S'2015-03-19 18:00:44'
p3390
sg10
S'yes'
p3391
sg12
S'he4550.bio11'
p3392
sg14
I77
sg15
S'bio11'
p3393
sg17
S'Mean Temperature of Coldest Quarter'
p3394
sg19
S'45'
p3395
sg21
S'he4550'
p3396
sg23
S'../views/GTiff/clim.he4550.bio11.tif'
p3397
sg25
S'climate'
p3398
sg27
S'clim.he4550.bio11'
p3399
sg29
S'6324'
p3400
sg31
S'Mean Temperature of Coldest Quarter HE RCP45 2050'
p3401
sg33
g34
sg35
g36
sg37
S'clim.he4550.bio11.tif'
p3402
sg39
S'clim'
p3403
sg41
g42
sg43
I4326
sg44
S'2050'
p3404
ssS'bio12'
p3405
(dp3406
g8
S'2015-03-19 18:00:44'
p3407
sg10
S'no'
p3408
sg12
S'he4550.bio12'
p3409
sg14
I281
sg15
S'bio12'
p3410
sg17
S'Annual Precipitation'
p3411
sg19
S'45'
p3412
sg21
S'he4550'
p3413
sg23
S'../views/GTiff/clim.he4550.bio12.tif'
p3414
sg25
S'climate'
p3415
sg27
S'clim.he4550.bio12'
p3416
sg29
S'6390'
p3417
sg31
S'Annual Precipitation HE RCP45 2050'
p3418
sg33
g34
sg35
g36
sg37
S'clim.he4550.bio12.tif'
p3419
sg39
S'clim'
p3420
sg41
g42
sg43
I4326
sg44
S'2050'
p3421
ssS'bio13'
p3422
(dp3423
g8
S'2015-03-19 18:00:44'
p3424
sg10
S'yes'
p3425
sg12
S'he4550.bio13'
p3426
sg14
I56
sg15
S'bio13'
p3427
sg17
S'Precipitation of Wettest Month'
p3428
sg19
S'45'
p3429
sg21
S'he4550'
p3430
sg23
S'../views/GTiff/clim.he4550.bio13.tif'
p3431
sg25
S'climate'
p3432
sg27
S'clim.he4550.bio13'
p3433
sg29
S'6323'
p3434
sg31
S'Precipitation of Wettest Month HE RCP45 2050'
p3435
sg33
g34
sg35
g36
sg37
S'clim.he4550.bio13.tif'
p3436
sg39
S'clim'
p3437
sg41
g42
sg43
I4326
sg44
S'2050'
p3438
ssS'bio03'
p3439
(dp3440
g8
S'2015-03-19 18:00:44'
p3441
sg10
S'yes'
p3442
sg12
S'he4550.bio03'
p3443
sg14
I83
sg15
S'bio03'
p3444
sg17
S'Isothermality (BIO2/BIO7) (* 100)'
p3445
sg19
S'45'
p3446
sg21
S'he4550'
p3447
sg23
S'../views/GTiff/clim.he4550.bio03.tif'
p3448
sg25
S'climate'
p3449
sg27
S'clim.he4550.bio03'
p3450
sg29
S'6376'
p3451
sg31
S'Isothermality (BIO2/BIO7) (* 100) HE RCP45 2050'
p3452
sg33
g34
sg35
g36
sg37
S'clim.he4550.bio03.tif'
p3453
sg39
S'clim'
p3454
sg41
g42
sg43
I4326
sg44
S'2050'
p3455
ssS'bio15'
p3456
(dp3457
g8
S'2015-03-19 18:00:44'
p3458
sg10
S'no'
p3459
sg12
S'he4550.bio15'
p3460
sg14
I75
sg15
S'bio15'
p3461
sg17
S'Precipitation Seasonality (Coefficient of Variation)'
p3462
sg19
S'45'
p3463
sg21
S'he4550'
p3464
sg23
S'../views/GTiff/clim.he4550.bio15.tif'
p3465
sg25
S'climate'
p3466
sg27
S'clim.he4550.bio15'
p3467
sg29
S'6392'
p3468
sg31
S'Precipitation Seasonality (Coefficient of Variation) HE RCP45 2050'
p3469
sg33
g34
sg35
g36
sg37
S'clim.he4550.bio15.tif'
p3470
sg39
S'clim'
p3471
sg41
g42
sg43
I4326
sg44
S'2050'
p3472
ssS'bio16'
p3473
(dp3474
g8
S'2015-03-19 18:00:44'
p3475
sg10
S'yes'
p3476
sg12
S'he4550.bio16'
p3477
sg14
I49
sg15
S'bio16'
p3478
sg17
S'Precipitation of Wettest Quarter'
p3479
sg19
S'45'
p3480
sg21
S'he4550'
p3481
sg23
S'../views/GTiff/clim.he4550.bio16.tif'
p3482
sg25
S'climate'
p3483
sg27
S'clim.he4550.bio16'
p3484
sg29
S'6325'
p3485
sg31
S'Precipitation of Wettest Quarter HE RCP45 2050'
p3486
sg33
g34
sg35
g36
sg37
S'clim.he4550.bio16.tif'
p3487
sg39
S'clim'
p3488
sg41
g42
sg43
I4326
sg44
S'2050'
p3489
ssS'bio17'
p3490
(dp3491
g8
S'2015-03-19 18:00:44'
p3492
sg10
S'yes'
p3493
sg12
S'he4550.bio17'
p3494
sg14
I171
sg15
S'bio17'
p3495
sg17
S'Precipitation of Driest Quarter'
p3496
sg19
S'45'
p3497
sg21
S'he4550'
p3498
sg23
S'../views/GTiff/clim.he4550.bio17.tif'
p3499
sg25
S'climate'
p3500
sg27
S'clim.he4550.bio17'
p3501
sg29
S'6393'
p3502
sg31
S'Precipitation of Driest Quarter HE RCP45 2050'
p3503
sg33
g34
sg35
g36
sg37
S'clim.he4550.bio17.tif'
p3504
sg39
S'clim'
p3505
sg41
g42
sg43
I4326
sg44
S'2050'
p3506
ssS'bio18'
p3507
(dp3508
g8
S'2015-03-19 18:00:44'
p3509
sg10
S'no'
p3510
sg12
S'he4550.bio18'
p3511
sg14
I1
sg15
S'bio18'
p3512
sg17
S'Precipitation of Warmest Quarter'
p3513
sg19
S'45'
p3514
sg21
g3267
sg23
S'../views/GTiff/clim.he4550.bio18.tif'
p3515
sg25
S'climate'
p3516
sg27
S'clim.he4550.bio18'
p3517
sg29
S'6394'
p3518
sg31
S'Precipitation of Warmest Quarter HE RCP45 2050'
p3519
sg33
g34
sg35
g36
sg37
S'clim.he4550.bio18.tif'
p3520
sg39
g2
sg41
g42
sg43
I4326
sg44
S'2050'
p3521
ssS'bio19'
p3522
(dp3523
g8
S'2015-03-19 18:00:44'
p3524
sg10
S'yes'
p3525
sg12
S'he4550.bio19'
p3526
sg14
I268
sg15
S'bio19'
p3527
sg17
S'Precipitation of Coldest Quarter'
p3528
sg19
S'45'
p3529
sg21
S'he4550'
p3530
sg23
S'../views/GTiff/clim.he4550.bio19.tif'
p3531
sg25
S'climate'
p3532
sg27
S'clim.he4550.bio19'
p3533
sg29
S'6322'
p3534
sg31
S'Precipitation of Coldest Quarter HE RCP45 2050'
p3535
sg33
g34
sg35
g36
sg37
S'clim.he4550.bio19.tif'
p3536
sg39
S'clim'
p3537
sg41
g42
sg43
I4326
sg44
S'2050'
p3538
ssS'bio02'
p3539
(dp3540
g8
S'2015-03-19 18:00:44'
p3541
sg10
S'yes'
p3542
sg12
S'he4550.bio02'
p3543
sg14
I88
sg15
S'bio02'
p3544
sg17
S'Mean Diurnal Range (Mean of monthly (max temp - min temp))'
p3545
sg19
S'45'
p3546
sg21
S'he4550'
p3547
sg23
S'../views/GTiff/clim.he4550.bio02.tif'
p3548
sg25
S'climate'
p3549
sg27
S'clim.he4550.bio02'
p3550
sg29
S'6377'
p3551
sg31
S'Mean Diurnal Range (Mean of monthly (max temp - min temp)) HE RCP45 2050'
p3552
sg33
g34
sg35
g36
sg37
S'clim.he4550.bio02.tif'
p3553
sg39
S'clim'
p3554
sg41
g42
sg43
I4326
sg44
S'2050'
p3555
ssS'bio09'
p3556
(dp3557
g8
S'2015-03-19 18:00:44'
p3558
sg10
S'yes'
p3559
sg12
S'he4550.bio09'
p3560
sg14
I195
sg15
S'bio09'
p3561
sg17
S'Mean Temperature of Driest Quarter'
p3562
sg19
S'45'
p3563
sg21
S'he4550'
p3564
sg23
S'../views/GTiff/clim.he4550.bio09.tif'
p3565
sg25
S'climate'
p3566
sg27
S'clim.he4550.bio09'
p3567
sg29
S'6395'
p3568
sg31
S'Mean Temperature of Driest Quarter HE RCP45 2050'
p3569
sg33
g34
sg35
g36
sg37
S'clim.he4550.bio09.tif'
p3570
sg39
S'clim'
p3571
sg41
g42
sg43
I4326
sg44
S'2050'
p3572
ssS'bio08'
p3573
(dp3574
g8
S'2015-03-19 18:00:44'
p3575
sg10
S'no'
p3576
sg12
S'he4550.bio08'
p3577
sg14
I37
sg15
S'bio08'
p3578
sg17
S'Mean Temperature of Wettest Quarter'
p3579
sg19
S'45'
p3580
sg21
S'he4550'
p3581
sg23
S'../views/GTiff/clim.he4550.bio08.tif'
p3582
sg25
S'climate'
p3583
sg27
S'clim.he4550.bio08'
p3584
sg29
S'6396'
p3585
sg31
S'Mean Temperature of Wettest Quarter HE RCP45 2050'
p3586
sg33
g34
sg35
g36
sg37
S'clim.he4550.bio08.tif'
p3587
sg39
S'clim'
p3588
sg41
g42
sg43
I4326
sg44
S'2050'
p3589
sssS'gs4550'
p3590
(dp3591
S'bio07'
p3592
(dp3593
g8
S'2015-03-19 18:00:44'
p3594
sg10
S'no'
p3595
sg12
S'gs4550.bio07'
p3596
sg14
I285
sg15
S'bio07'
p3597
sg17
S'Temperature Annual Range (BIO5-BIO6)'
p3598
sg19
S'45'
p3599
sg21
S'gs4550'
p3600
sg23
S'../views/GTiff/clim.gs4550.bio07.tif'
p3601
sg25
S'climate'
p3602
sg27
S'clim.gs4550.bio07'
p3603
sg29
S'6397'
p3604
sg31
S'Temperature Annual Range (BIO5-BIO6) GS RCP45 2050'
p3605
sg33
g34
sg35
g36
sg37
S'clim.gs4550.bio07.tif'
p3606
sg39
S'clim'
p3607
sg41
g42
sg43
I4326
sg44
S'2050'
p3608
ssS'bio16'
p3609
(dp3610
g8
S'2015-03-19 18:00:44'
p3611
sg10
S'yes'
p3612
sg12
S'gs4550.bio16'
p3613
sg14
I159
sg15
S'bio16'
p3614
sg17
S'Precipitation of Wettest Quarter'
p3615
sg19
S'45'
p3616
sg21
S'gs4550'
p3617
sg23
S'../views/GTiff/clim.gs4550.bio16.tif'
p3618
sg25
S'climate'
p3619
sg27
S'clim.gs4550.bio16'
p3620
sg29
S'6406'
p3621
sg31
S'Precipitation of Wettest Quarter GS RCP45 2050'
p3622
sg33
g34
sg35
g36
sg37
S'clim.gs4550.bio16.tif'
p3623
sg39
S'clim'
p3624
sg41
g42
sg43
I4326
sg44
S'2050'
p3625
ssS'bio11'
p3626
(dp3627
g8
S'2015-03-19 18:00:44'
p3628
sg10
S'yes'
p3629
sg12
S'gs4550.bio11'
p3630
sg14
I329
sg15
S'bio11'
p3631
sg17
S'Mean Temperature of Coldest Quarter'
p3632
sg19
S'45'
p3633
sg21
S'gs4550'
p3634
sg23
S'../views/GTiff/clim.gs4550.bio11.tif'
p3635
sg25
S'climate'
p3636
sg27
S'clim.gs4550.bio11'
p3637
sg29
S'6398'
p3638
sg31
S'Mean Temperature of Coldest Quarter GS RCP45 2050'
p3639
sg33
g34
sg35
g36
sg37
S'clim.gs4550.bio11.tif'
p3640
sg39
S'clim'
p3641
sg41
g42
sg43
I4326
sg44
S'2050'
p3642
ssS'bio09'
p3643
(dp3644
g8
S'2015-03-19 18:00:44'
p3645
sg10
S'yes'
p3646
sg12
S'gs4550.bio09'
p3647
sg14
I209
sg15
S'bio09'
p3648
sg17
S'Mean Temperature of Driest Quarter'
p3649
sg19
S'45'
p3650
sg21
S'gs4550'
p3651
sg23
S'../views/GTiff/clim.gs4550.bio09.tif'
p3652
sg25
S'climate'
p3653
sg27
S'clim.gs4550.bio09'
p3654
sg29
S'6410'
p3655
sg31
S'Mean Temperature of Driest Quarter GS RCP45 2050'
p3656
sg33
g34
sg35
g36
sg37
S'clim.gs4550.bio09.tif'
p3657
sg39
S'clim'
p3658
sg41
g42
sg43
I4326
sg44
S'2050'
p3659
ssS'bio15'
p3660
(dp3661
g8
S'2015-03-19 18:00:44'
p3662
sg10
S'no'
p3663
sg12
S'gs4550.bio15'
p3664
sg14
I234
sg15
S'bio15'
p3665
sg17
S'Precipitation Seasonality (Coefficient of Variation)'
p3666
sg19
S'45'
p3667
sg21
S'gs4550'
p3668
sg23
S'../views/GTiff/clim.gs4550.bio15.tif'
p3669
sg25
S'climate'
p3670
sg27
S'clim.gs4550.bio15'
p3671
sg29
S'6405'
p3672
sg31
S'Precipitation Seasonality (Coefficient of Variation) GS RCP45 2050'
p3673
sg33
g34
sg35
g36
sg37
S'clim.gs4550.bio15.tif'
p3674
sg39
S'clim'
p3675
sg41
g42
sg43
I4326
sg44
S'2050'
p3676
ssS'bio12'
p3677
(dp3678
g8
S'2015-03-19 18:00:44'
p3679
sg10
S'no'
p3680
sg12
S'gs4550.bio12'
p3681
sg14
I225
sg15
S'bio12'
p3682
sg17
S'Annual Precipitation'
p3683
sg19
S'45'
p3684
sg21
S'gs4550'
p3685
sg23
S'../views/GTiff/clim.gs4550.bio12.tif'
p3686
sg25
S'climate'
p3687
sg27
S'clim.gs4550.bio12'
p3688
sg29
S'6402'
p3689
sg31
S'Annual Precipitation GS RCP45 2050'
p3690
sg33
g34
sg35
g36
sg37
S'clim.gs4550.bio12.tif'
p3691
sg39
S'clim'
p3692
sg41
g42
sg43
I4326
sg44
S'2050'
p3693
ssS'bio10'
p3694
(dp3695
g8
S'2015-03-19 18:00:44'
p3696
sg10
S'yes'
p3697
sg12
S'gs4550.bio10'
p3698
sg14
I109
sg15
S'bio10'
p3699
sg17
S'Mean Temperature of Warmest Quarter'
p3700
sg19
S'45'
p3701
sg21
S'gs4550'
p3702
sg23
S'../views/GTiff/clim.gs4550.bio10.tif'
p3703
sg25
S'climate'
p3704
sg27
S'clim.gs4550.bio10'
p3705
sg29
S'6400'
p3706
sg31
S'Mean Temperature of Warmest Quarter GS RCP45 2050'
p3707
sg33
g34
sg35
g36
sg37
S'clim.gs4550.bio10.tif'
p3708
sg39
S'clim'
p3709
sg41
g42
sg43
I4326
sg44
S'2050'
p3710
ssS'bio06'
p3711
(dp3712
g8
S'2015-03-19 18:00:44'
p3713
sg10
S'yes'
p3714
sg12
S'gs4550.bio06'
p3715
sg14
I144
sg15
S'bio06'
p3716
sg17
S'Min Temperature of Coldest Month'
p3717
sg19
S'45'
p3718
sg21
S'gs4550'
p3719
sg23
S'../views/GTiff/clim.gs4550.bio06.tif'
p3720
sg25
S'climate'
p3721
sg27
S'clim.gs4550.bio06'
p3722
sg29
S'6401'
p3723
sg31
S'Min Temperature of Coldest Month GS RCP45 2050'
p3724
sg33
g34
sg35
g36
sg37
S'clim.gs4550.bio06.tif'
p3725
sg39
S'clim'
p3726
sg41
g42
sg43
I4326
sg44
S'2050'
p3727
ssS'bio05'
p3728
(dp3729
g8
S'2015-03-19 18:00:44'
p3730
sg10
S'yes'
p3731
sg12
S'gs4550.bio05'
p3732
sg14
I220
sg15
S'bio05'
p3733
sg17
S'Max Temperature of Warmest Month'
p3734
sg19
S'45'
p3735
sg21
S'gs4550'
p3736
sg23
S'../views/GTiff/clim.gs4550.bio05.tif'
p3737
sg25
S'climate'
p3738
sg27
S'clim.gs4550.bio05'
p3739
sg29
S'6399'
p3740
sg31
S'Max Temperature of Warmest Month GS RCP45 2050'
p3741
sg33
g34
sg35
g36
sg37
S'clim.gs4550.bio05.tif'
p3742
sg39
S'clim'
p3743
sg41
g42
sg43
I4326
sg44
S'2050'
p3744
ssS'bio13'
p3745
(dp3746
g8
S'2015-03-19 18:00:44'
p3747
sg10
S'yes'
p3748
sg12
S'gs4550.bio13'
p3749
sg14
I117
sg15
S'bio13'
p3750
sg17
S'Precipitation of Wettest Month'
p3751
sg19
S'45'
p3752
sg21
S'gs4550'
p3753
sg23
S'../views/GTiff/clim.gs4550.bio13.tif'
p3754
sg25
S'climate'
p3755
sg27
S'clim.gs4550.bio13'
p3756
sg29
S'6403'
p3757
sg31
S'Precipitation of Wettest Month GS RCP45 2050'
p3758
sg33
g34
sg35
g36
sg37
S'clim.gs4550.bio13.tif'
p3759
sg39
S'clim'
p3760
sg41
g42
sg43
I4326
sg44
S'2050'
p3761
ssS'bio14'
p3762
(dp3763
g8
S'2015-03-19 18:00:44'
p3764
sg10
S'yes'
p3765
sg12
S'gs4550.bio14'
p3766
sg14
I135
sg15
S'bio14'
p3767
sg17
S'Precipitation of Driest Month'
p3768
sg19
S'45'
p3769
sg21
S'gs4550'
p3770
sg23
S'../views/GTiff/clim.gs4550.bio14.tif'
p3771
sg25
S'climate'
p3772
sg27
S'clim.gs4550.bio14'
p3773
sg29
S'6404'
p3774
sg31
S'Precipitation of Driest Month GS RCP45 2050'
p3775
sg33
g34
sg35
g36
sg37
S'clim.gs4550.bio14.tif'
p3776
sg39
S'clim'
p3777
sg41
g42
sg43
I4326
sg44
S'2050'
p3778
ssS'bio02'
p3779
(dp3780
g8
S'2015-03-19 18:00:44'
p3781
sg10
S'yes'
p3782
sg12
S'gs4550.bio02'
p3783
sg14
I86
sg15
S'bio02'
p3784
sg17
S'Mean Diurnal Range (Mean of monthly (max temp - min temp))'
p3785
sg19
S'45'
p3786
sg21
S'gs4550'
p3787
sg23
S'../views/GTiff/clim.gs4550.bio02.tif'
p3788
sg25
S'climate'
p3789
sg27
S'clim.gs4550.bio02'
p3790
sg29
S'6381'
p3791
sg31
S'Mean Diurnal Range (Mean of monthly (max temp - min temp)) GS RCP45 2050'
p3792
sg33
g34
sg35
g36
sg37
S'clim.gs4550.bio02.tif'
p3793
sg39
S'clim'
p3794
sg41
g42
sg43
I4326
sg44
S'2050'
p3795
ssS'bio01'
p3796
(dp3797
g8
S'2015-03-19 18:00:44'
p3798
sg10
S'no'
p3799
sg12
S'gs4550.bio01'
p3800
sg14
I97
sg15
S'bio01'
p3801
sg17
S'Annual Mean Temperature'
p3802
sg19
S'45'
p3803
sg21
S'gs4550'
p3804
sg23
S'../views/GTiff/clim.gs4550.bio01.tif'
p3805
sg25
S'climate'
p3806
sg27
S'clim.gs4550.bio01'
p3807
sg29
S'6382'
p3808
sg31
S'Annual Mean Temperature GS RCP45 2050'
p3809
sg33
g34
sg35
g36
sg37
S'clim.gs4550.bio01.tif'
p3810
sg39
S'clim'
p3811
sg41
g42
sg43
I4326
sg44
S'2050'
p3812
ssS'bio17'
p3813
(dp3814
g8
S'2015-03-19 18:00:44'
p3815
sg10
S'yes'
p3816
sg12
S'gs4550.bio17'
p3817
sg14
I54
sg15
S'bio17'
p3818
sg17
S'Precipitation of Driest Quarter'
p3819
sg19
S'45'
p3820
sg21
S'gs4550'
p3821
sg23
S'../views/GTiff/clim.gs4550.bio17.tif'
p3822
sg25
S'climate'
p3823
sg27
S'clim.gs4550.bio17'
p3824
sg29
S'6407'
p3825
sg31
S'Precipitation of Driest Quarter GS RCP45 2050'
p3826
sg33
g34
sg35
g36
sg37
S'clim.gs4550.bio17.tif'
p3827
sg39
S'clim'
p3828
sg41
g42
sg43
I4326
sg44
S'2050'
p3829
ssS'bio18'
p3830
(dp3831
g8
S'2015-03-19 18:00:44'
p3832
sg10
S'no'
p3833
sg12
S'gs4550.bio18'
p3834
sg14
I8
sg15
S'bio18'
p3835
sg17
S'Precipitation of Warmest Quarter'
p3836
sg19
S'45'
p3837
sg21
g3590
sg23
S'../views/GTiff/clim.gs4550.bio18.tif'
p3838
sg25
S'climate'
p3839
sg27
S'clim.gs4550.bio18'
p3840
sg29
S'6408'
p3841
sg31
S'Precipitation of Warmest Quarter GS RCP45 2050'
p3842
sg33
g34
sg35
g36
sg37
S'clim.gs4550.bio18.tif'
p3843
sg39
S'clim'
p3844
sg41
g42
sg43
I4326
sg44
S'2050'
p3845
ssS'bio19'
p3846
(dp3847
g8
S'2015-03-19 18:00:44'
p3848
sg10
S'yes'
p3849
sg12
S'gs4550.bio19'
p3850
sg14
I27
sg15
S'bio19'
p3851
sg17
S'Precipitation of Coldest Quarter'
p3852
sg19
S'45'
p3853
sg21
S'gs4550'
p3854
sg23
S'../views/GTiff/clim.gs4550.bio19.tif'
p3855
sg25
S'climate'
p3856
sg27
S'clim.gs4550.bio19'
p3857
sg29
S'6409'
p3858
sg31
S'Precipitation of Coldest Quarter GS RCP45 2050'
p3859
sg33
g34
sg35
g36
sg37
S'clim.gs4550.bio19.tif'
p3860
sg39
S'clim'
p3861
sg41
g42
sg43
I4326
sg44
S'2050'
p3862
ssS'bio03'
p3863
(dp3864
g8
S'2015-03-19 18:00:44'
p3865
sg10
S'yes'
p3866
sg12
S'gs4550.bio03'
p3867
sg14
I236
sg15
S'bio03'
p3868
sg17
S'Isothermality (BIO2/BIO7) (* 100)'
p3869
sg19
S'45'
p3870
sg21
S'gs4550'
p3871
sg23
S'../views/GTiff/clim.gs4550.bio03.tif'
p3872
sg25
S'climate'
p3873
sg27
S'clim.gs4550.bio03'
p3874
sg29
S'6380'
p3875
sg31
S'Isothermality (BIO2/BIO7) (* 100) GS RCP45 2050'
p3876
sg33
g34
sg35
g36
sg37
S'clim.gs4550.bio03.tif'
p3877
sg39
S'clim'
p3878
sg41
g42
sg43
I4326
sg44
S'2050'
p3879
ssS'bio04'
p3880
(dp3881
g8
S'2015-03-19 18:00:44'
p3882
sg10
S'yes'
p3883
sg12
S'gs4550.bio04'
p3884
sg14
I165
sg15
S'bio04'
p3885
sg17
S'Temperature Seasonality (standard deviation *100)'
p3886
sg19
S'45'
p3887
sg21
S'gs4550'
p3888
sg23
S'../views/GTiff/clim.gs4550.bio04.tif'
p3889
sg25
S'climate'
p3890
sg27
S'clim.gs4550.bio04'
p3891
sg29
S'6379'
p3892
sg31
S'Temperature Seasonality (standard deviation *100) GS RCP45 2050'
p3893
sg33
g34
sg35
g36
sg37
S'clim.gs4550.bio04.tif'
p3894
sg39
S'clim'
p3895
sg41
g42
sg43
I4326
sg44
S'2050'
p3896
ssS'bio08'
p3897
(dp3898
g8
S'2015-03-19 18:00:44'
p3899
sg10
S'no'
p3900
sg12
S'gs4550.bio08'
p3901
sg14
I40
sg15
S'bio08'
p3902
sg17
S'Mean Temperature of Wettest Quarter'
p3903
sg19
S'45'
p3904
sg21
S'gs4550'
p3905
sg23
S'../views/GTiff/clim.gs4550.bio08.tif'
p3906
sg25
S'climate'
p3907
sg27
S'clim.gs4550.bio08'
p3908
sg29
S'6411'
p3909
sg31
S'Mean Temperature of Wettest Quarter GS RCP45 2050'
p3910
sg33
g34
sg35
g36
sg37
S'clim.gs4550.bio08.tif'
p3911
sg39
S'clim'
p3912
sg41
g42
sg43
I4326
sg44
S'2050'
p3913
sssS'gd4550'
p3914
(dp3915
S'bio10'
p3916
(dp3917
g8
S'2015-03-19 18:00:44'
p3918
sg10
S'yes'
p3919
sg12
S'gd4550.bio10'
p3920
sg14
I274
sg15
S'bio10'
p3921
sg17
S'Mean Temperature of Warmest Quarter'
p3922
sg19
S'45'
p3923
sg21
S'gd4550'
p3924
sg23
S'../views/GTiff/clim.gd4550.bio10.tif'
p3925
sg25
S'climate'
p3926
sg27
S'clim.gd4550.bio10'
p3927
sg29
S'6188'
p3928
sg31
S'Mean Temperature of Warmest Quarter GD RCP45 2050'
p3929
sg33
g34
sg35
g36
sg37
S'clim.gd4550.bio10.tif'
p3930
sg39
S'clim'
p3931
sg41
g42
sg43
I4326
sg44
S'2050'
p3932
ssS'bio04'
p3933
(dp3934
g8
S'2015-03-19 18:00:44'
p3935
sg10
S'yes'
p3936
sg12
S'gd4550.bio04'
p3937
sg14
I339
sg15
S'bio04'
p3938
sg17
S'Temperature Seasonality (standard deviation *100)'
p3939
sg19
S'45'
p3940
sg21
S'gd4550'
p3941
sg23
S'../views/GTiff/clim.gd4550.bio04.tif'
p3942
sg25
S'climate'
p3943
sg27
S'clim.gd4550.bio04'
p3944
sg29
S'6198'
p3945
sg31
S'Temperature Seasonality (standard deviation *100) GD RCP45 2050'
p3946
sg33
g34
sg35
g36
sg37
S'clim.gd4550.bio04.tif'
p3947
sg39
S'clim'
p3948
sg41
g42
sg43
I4326
sg44
S'2050'
p3949
ssS'bio01'
p3950
(dp3951
g8
S'2015-03-19 18:00:44'
p3952
sg10
S'no'
p3953
sg12
S'gd4550.bio01'
p3954
sg14
I162
sg15
S'bio01'
p3955
sg17
S'Annual Mean Temperature'
p3956
sg19
S'45'
p3957
sg21
S'gd4550'
p3958
sg23
S'../views/GTiff/clim.gd4550.bio01.tif'
p3959
sg25
S'climate'
p3960
sg27
S'clim.gd4550.bio01'
p3961
sg29
S'6201'
p3962
sg31
S'Annual Mean Temperature GD RCP45 2050'
p3963
sg33
g34
sg35
g36
sg37
S'clim.gd4550.bio01.tif'
p3964
sg39
S'clim'
p3965
sg41
g42
sg43
I4326
sg44
S'2050'
p3966
ssS'bio11'
p3967
(dp3968
g8
S'2015-03-19 18:00:44'
p3969
sg10
S'yes'
p3970
sg12
S'gd4550.bio11'
p3971
sg14
I145
sg15
S'bio11'
p3972
sg17
S'Mean Temperature of Coldest Quarter'
p3973
sg19
S'45'
p3974
sg21
S'gd4550'
p3975
sg23
S'../views/GTiff/clim.gd4550.bio11.tif'
p3976
sg25
S'climate'
p3977
sg27
S'clim.gd4550.bio11'
p3978
sg29
S'6191'
p3979
sg31
S'Mean Temperature of Coldest Quarter GD RCP45 2050'
p3980
sg33
g34
sg35
g36
sg37
S'clim.gd4550.bio11.tif'
p3981
sg39
S'clim'
p3982
sg41
g42
sg43
I4326
sg44
S'2050'
p3983
ssS'bio12'
p3984
(dp3985
g8
S'2015-03-19 18:00:44'
p3986
sg10
S'no'
p3987
sg12
S'gd4550.bio12'
p3988
sg14
I269
sg15
S'bio12'
p3989
sg17
S'Annual Precipitation'
p3990
sg19
S'45'
p3991
sg21
S'gd4550'
p3992
sg23
S'../views/GTiff/clim.gd4550.bio12.tif'
p3993
sg25
S'climate'
p3994
sg27
S'clim.gd4550.bio12'
p3995
sg29
S'6194'
p3996
sg31
S'Annual Precipitation GD RCP45 2050'
p3997
sg33
g34
sg35
g36
sg37
S'clim.gd4550.bio12.tif'
p3998
sg39
S'clim'
p3999
sg41
g42
sg43
I4326
sg44
S'2050'
p4000
ssS'bio14'
p4001
(dp4002
g8
S'2015-03-19 18:00:44'
p4003
sg10
S'yes'
p4004
sg12
S'gd4550.bio14'
p4005
sg14
I297
sg15
S'bio14'
p4006
sg17
S'Precipitation of Driest Month'
p4007
sg19
S'45'
p4008
sg21
S'gd4550'
p4009
sg23
S'../views/GTiff/clim.gd4550.bio14.tif'
p4010
sg25
S'climate'
p4011
sg27
S'clim.gd4550.bio14'
p4012
sg29
S'6204'
p4013
sg31
S'Precipitation of Driest Month GD RCP45 2050'
p4014
sg33
g34
sg35
g36
sg37
S'clim.gd4550.bio14.tif'
p4015
sg39
S'clim'
p4016
sg41
g42
sg43
I4326
sg44
S'2050'
p4017
ssS'bio07'
p4018
(dp4019
g8
S'2015-03-19 18:00:44'
p4020
sg10
S'no'
p4021
sg12
S'gd4550.bio07'
p4022
sg14
I248
sg15
S'bio07'
p4023
sg17
S'Temperature Annual Range (BIO5-BIO6)'
p4024
sg19
S'45'
p4025
sg21
S'gd4550'
p4026
sg23
S'../views/GTiff/clim.gd4550.bio07.tif'
p4027
sg25
S'climate'
p4028
sg27
S'clim.gd4550.bio07'
p4029
sg29
S'6195'
p4030
sg31
S'Temperature Annual Range (BIO5-BIO6) GD RCP45 2050'
p4031
sg33
g34
sg35
g36
sg37
S'clim.gd4550.bio07.tif'
p4032
sg39
S'clim'
p4033
sg41
g42
sg43
I4326
sg44
S'2050'
p4034
ssS'bio06'
p4035
(dp4036
g8
S'2015-03-19 18:00:44'
p4037
sg10
S'yes'
p4038
sg12
S'gd4550.bio06'
p4039
sg14
I50
sg15
S'bio06'
p4040
sg17
S'Min Temperature of Coldest Month'
p4041
sg19
S'45'
p4042
sg21
S'gd4550'
p4043
sg23
S'../views/GTiff/clim.gd4550.bio06.tif'
p4044
sg25
S'climate'
p4045
sg27
S'clim.gd4550.bio06'
p4046
sg29
S'6196'
p4047
sg31
S'Min Temperature of Coldest Month GD RCP45 2050'
p4048
sg33
g34
sg35
g36
sg37
S'clim.gd4550.bio06.tif'
p4049
sg39
S'clim'
p4050
sg41
g42
sg43
I4326
sg44
S'2050'
p4051
ssS'bio05'
p4052
(dp4053
g8
S'2015-03-19 18:00:44'
p4054
sg10
S'yes'
p4055
sg12
S'gd4550.bio05'
p4056
sg14
I121
sg15
S'bio05'
p4057
sg17
S'Max Temperature of Warmest Month'
p4058
sg19
S'45'
p4059
sg21
S'gd4550'
p4060
sg23
S'../views/GTiff/clim.gd4550.bio05.tif'
p4061
sg25
S'climate'
p4062
sg27
S'clim.gd4550.bio05'
p4063
sg29
S'6197'
p4064
sg31
S'Max Temperature of Warmest Month GD RCP45 2050'
p4065
sg33
g34
sg35
g36
sg37
S'clim.gd4550.bio05.tif'
p4066
sg39
S'clim'
p4067
sg41
g42
sg43
I4326
sg44
S'2050'
p4068
ssS'bio13'
p4069
(dp4070
g8
S'2015-03-19 18:00:44'
p4071
sg10
S'yes'
p4072
sg12
S'gd4550.bio13'
p4073
sg14
I115
sg15
S'bio13'
p4074
sg17
S'Precipitation of Wettest Month'
p4075
sg19
S'45'
p4076
sg21
S'gd4550'
p4077
sg23
S'../views/GTiff/clim.gd4550.bio13.tif'
p4078
sg25
S'climate'
p4079
sg27
S'clim.gd4550.bio13'
p4080
sg29
S'6190'
p4081
sg31
S'Precipitation of Wettest Month GD RCP45 2050'
p4082
sg33
g34
sg35
g36
sg37
S'clim.gd4550.bio13.tif'
p4083
sg39
S'clim'
p4084
sg41
g42
sg43
I4326
sg44
S'2050'
p4085
ssS'bio03'
p4086
(dp4087
g8
S'2015-03-19 18:00:44'
p4088
sg10
S'yes'
p4089
sg12
S'gd4550.bio03'
p4090
sg14
I112
sg15
S'bio03'
p4091
sg17
S'Isothermality (BIO2/BIO7) (* 100)'
p4092
sg19
S'45'
p4093
sg21
S'gd4550'
p4094
sg23
S'../views/GTiff/clim.gd4550.bio03.tif'
p4095
sg25
S'climate'
p4096
sg27
S'clim.gd4550.bio03'
p4097
sg29
S'6199'
p4098
sg31
S'Isothermality (BIO2/BIO7) (* 100) GD RCP45 2050'
p4099
sg33
g34
sg35
g36
sg37
S'clim.gd4550.bio03.tif'
p4100
sg39
S'clim'
p4101
sg41
g42
sg43
I4326
sg44
S'2050'
p4102
ssS'bio15'
p4103
(dp4104
g8
S'2015-03-19 18:00:44'
p4105
sg10
S'no'
p4106
sg12
S'gd4550.bio15'
p4107
sg14
I94
sg15
S'bio15'
p4108
sg17
S'Precipitation Seasonality (Coefficient of Variation)'
p4109
sg19
S'45'
p4110
sg21
S'gd4550'
p4111
sg23
S'../views/GTiff/clim.gd4550.bio15.tif'
p4112
sg25
S'climate'
p4113
sg27
S'clim.gd4550.bio15'
p4114
sg29
S'6193'
p4115
sg31
S'Precipitation Seasonality (Coefficient of Variation) GD RCP45 2050'
p4116
sg33
g34
sg35
g36
sg37
S'clim.gd4550.bio15.tif'
p4117
sg39
S'clim'
p4118
sg41
g42
sg43
I4326
sg44
S'2050'
p4119
ssS'bio16'
p4120
(dp4121
g8
S'2015-03-19 18:00:44'
p4122
sg10
S'yes'
p4123
sg12
S'gd4550.bio16'
p4124
sg14
I36
sg15
S'bio16'
p4125
sg17
S'Precipitation of Wettest Quarter'
p4126
sg19
S'45'
p4127
sg21
g3914
sg23
S'../views/GTiff/clim.gd4550.bio16.tif'
p4128
sg25
S'climate'
p4129
sg27
S'clim.gd4550.bio16'
p4130
sg29
S'6192'
p4131
sg31
S'Precipitation of Wettest Quarter GD RCP45 2050'
p4132
sg33
g34
sg35
g36
sg37
S'clim.gd4550.bio16.tif'
p4133
sg39
S'clim'
p4134
sg41
g42
sg43
I4326
sg44
S'2050'
p4135
ssS'bio17'
p4136
(dp4137
g8
S'2015-03-19 18:00:44'
p4138
sg10
S'yes'
p4139
sg12
S'gd4550.bio17'
p4140
sg14
I238
sg15
S'bio17'
p4141
sg17
S'Precipitation of Driest Quarter'
p4142
sg19
S'45'
p4143
sg21
S'gd4550'
p4144
sg23
S'../views/GTiff/clim.gd4550.bio17.tif'
p4145
sg25
S'climate'
p4146
sg27
S'clim.gd4550.bio17'
p4147
sg29
S'6202'
p4148
sg31
S'Precipitation of Driest Quarter GD RCP45 2050'
p4149
sg33
g34
sg35
g36
sg37
S'clim.gd4550.bio17.tif'
p4150
sg39
S'clim'
p4151
sg41
g42
sg43
I4326
sg44
S'2050'
p4152
ssS'bio18'
p4153
(dp4154
g8
S'2015-03-19 18:00:44'
p4155
sg10
S'no'
p4156
sg12
S'gd4550.bio18'
p4157
sg14
I41
sg15
S'bio18'
p4158
sg17
S'Precipitation of Warmest Quarter'
p4159
sg19
S'45'
p4160
sg21
S'gd4550'
p4161
sg23
S'../views/GTiff/clim.gd4550.bio18.tif'
p4162
sg25
S'climate'
p4163
sg27
S'clim.gd4550.bio18'
p4164
sg29
S'6203'
p4165
sg31
S'Precipitation of Warmest Quarter GD RCP45 2050'
p4166
sg33
g34
sg35
g36
sg37
S'clim.gd4550.bio18.tif'
p4167
sg39
S'clim'
p4168
sg41
g42
sg43
I4326
sg44
S'2050'
p4169
ssS'bio19'
p4170
(dp4171
g8
S'2015-03-19 18:00:44'
p4172
sg10
S'yes'
p4173
sg12
S'gd4550.bio19'
p4174
sg14
I39
sg15
S'bio19'
p4175
sg17
S'Precipitation of Coldest Quarter'
p4176
sg19
S'45'
p4177
sg21
S'gd4550'
p4178
sg23
S'../views/GTiff/clim.gd4550.bio19.tif'
p4179
sg25
S'climate'
p4180
sg27
S'clim.gd4550.bio19'
p4181
sg29
S'6189'
p4182
sg31
S'Precipitation of Coldest Quarter GD RCP45 2050'
p4183
sg33
g34
sg35
g36
sg37
S'clim.gd4550.bio19.tif'
p4184
sg39
S'clim'
p4185
sg41
g42
sg43
I4326
sg44
S'2050'
p4186
ssS'bio02'
p4187
(dp4188
g8
S'2015-03-19 18:00:44'
p4189
sg10
S'yes'
p4190
sg12
S'gd4550.bio02'
p4191
sg14
I252
sg15
S'bio02'
p4192
sg17
S'Mean Diurnal Range (Mean of monthly (max temp - min temp))'
p4193
sg19
S'45'
p4194
sg21
S'gd4550'
p4195
sg23
S'../views/GTiff/clim.gd4550.bio02.tif'
p4196
sg25
S'climate'
p4197
sg27
S'clim.gd4550.bio02'
p4198
sg29
S'6200'
p4199
sg31
S'Mean Diurnal Range (Mean of monthly (max temp - min temp)) GD RCP45 2050'
p4200
sg33
g34
sg35
g36
sg37
S'clim.gd4550.bio02.tif'
p4201
sg39
S'clim'
p4202
sg41
g42
sg43
I4326
sg44
S'2050'
p4203
ssS'bio09'
p4204
(dp4205
g8
S'2015-03-19 18:00:44'
p4206
sg10
S'yes'
p4207
sg12
S'gd4550.bio09'
p4208
sg14
I299
sg15
S'bio09'
p4209
sg17
S'Mean Temperature of Driest Quarter'
p4210
sg19
S'45'
p4211
sg21
S'gd4550'
p4212
sg23
S'../views/GTiff/clim.gd4550.bio09.tif'
p4213
sg25
S'climate'
p4214
sg27
S'clim.gd4550.bio09'
p4215
sg29
S'6205'
p4216
sg31
S'Mean Temperature of Driest Quarter GD RCP45 2050'
p4217
sg33
g34
sg35
g36
sg37
S'clim.gd4550.bio09.tif'
p4218
sg39
S'clim'
p4219
sg41
g42
sg43
I4326
sg44
S'2050'
p4220
ssS'bio08'
p4221
(dp4222
g8
S'2015-03-19 18:00:44'
p4223
sg10
S'no'
p4224
sg12
S'gd4550.bio08'
p4225
sg14
I138
sg15
S'bio08'
p4226
sg17
S'Mean Temperature of Wettest Quarter'
p4227
sg19
S'45'
p4228
sg21
S'gd4550'
p4229
sg23
S'../views/GTiff/clim.gd4550.bio08.tif'
p4230
sg25
S'climate'
p4231
sg27
S'clim.gd4550.bio08'
p4232
sg29
S'6206'
p4233
sg31
S'Mean Temperature of Wettest Quarter GD RCP45 2050'
p4234
sg33
g34
sg35
g36
sg37
S'clim.gd4550.bio08.tif'
p4235
sg39
S'clim'
p4236
sg41
g42
sg43
I4326
sg44
S'2050'
p4237
sssS'ac4550'
p4238
(dp4239
S'bio07'
p4240
(dp4241
g8
S'2015-03-19 18:00:44'
p4242
sg10
S'no'
p4243
sg12
S'ac4550.bio07'
p4244
sg14
I334
sg15
S'bio07'
p4245
sg17
S'Temperature Annual Range (BIO5-BIO6)'
p4246
sg19
S'45'
p4247
sg21
S'ac4550'
p4248
sg23
S'../views/GTiff/clim.ac4550.bio07.tif'
p4249
sg25
S'climate'
p4250
sg27
S'clim.ac4550.bio07'
p4251
sg29
S'6333'
p4252
sg31
S'Temperature Annual Range (BIO5-BIO6) AC RCP45 2050'
p4253
sg33
g34
sg35
g36
sg37
S'clim.ac4550.bio07.tif'
p4254
sg39
S'clim'
p4255
sg41
g42
sg43
I4326
sg44
S'2050'
p4256
ssS'bio16'
p4257
(dp4258
g8
S'2015-03-19 18:00:44'
p4259
sg10
S'yes'
p4260
sg12
S'ac4550.bio16'
p4261
sg14
I224
sg15
S'bio16'
p4262
sg17
S'Precipitation of Wettest Quarter'
p4263
sg19
S'45'
p4264
sg21
S'ac4550'
p4265
sg23
S'../views/GTiff/clim.ac4550.bio16.tif'
p4266
sg25
S'climate'
p4267
sg27
S'clim.ac4550.bio16'
p4268
sg29
S'6330'
p4269
sg31
S'Precipitation of Wettest Quarter AC RCP45 2050'
p4270
sg33
g34
sg35
g36
sg37
S'clim.ac4550.bio16.tif'
p4271
sg39
S'clim'
p4272
sg41
g42
sg43
I4326
sg44
S'2050'
p4273
ssS'bio11'
p4274
(dp4275
g8
S'2015-03-19 18:00:44'
p4276
sg10
S'yes'
p4277
sg12
S'ac4550.bio11'
p4278
sg14
I330
sg15
S'bio11'
p4279
sg17
S'Mean Temperature of Coldest Quarter'
p4280
sg19
S'45'
p4281
sg21
S'ac4550'
p4282
sg23
S'../views/GTiff/clim.ac4550.bio11.tif'
p4283
sg25
S'climate'
p4284
sg27
S'clim.ac4550.bio11'
p4285
sg29
S'6329'
p4286
sg31
S'Mean Temperature of Coldest Quarter AC RCP45 2050'
p4287
sg33
g34
sg35
g36
sg37
S'clim.ac4550.bio11.tif'
p4288
sg39
S'clim'
p4289
sg41
g42
sg43
I4326
sg44
S'2050'
p4290
ssS'bio17'
p4291
(dp4292
g8
S'2015-03-19 18:00:44'
p4293
sg10
S'yes'
p4294
sg12
S'ac4550.bio17'
p4295
sg14
I337
sg15
S'bio17'
p4296
sg17
S'Precipitation of Driest Quarter'
p4297
sg19
S'45'
p4298
sg21
S'ac4550'
p4299
sg23
S'../views/GTiff/clim.ac4550.bio17.tif'
p4300
sg25
S'climate'
p4301
sg27
S'clim.ac4550.bio17'
p4302
sg29
S'6340'
p4303
sg31
S'Precipitation of Driest Quarter AC RCP45 2050'
p4304
sg33
g34
sg35
g36
sg37
S'clim.ac4550.bio17.tif'
p4305
sg39
S'clim'
p4306
sg41
g42
sg43
I4326
sg44
S'2050'
p4307
ssS'bio05'
p4308
(dp4309
g8
S'2015-03-19 18:00:44'
p4310
sg10
S'yes'
p4311
sg12
S'ac4550.bio05'
p4312
sg14
I275
sg15
S'bio05'
p4313
sg17
S'Max Temperature of Warmest Month'
p4314
sg19
S'45'
p4315
sg21
S'ac4550'
p4316
sg23
S'../views/GTiff/clim.ac4550.bio05.tif'
p4317
sg25
S'climate'
p4318
sg27
S'clim.ac4550.bio05'
p4319
sg29
S'6335'
p4320
sg31
S'Max Temperature of Warmest Month AC RCP45 2050'
p4321
sg33
g34
sg35
g36
sg37
S'clim.ac4550.bio05.tif'
p4322
sg39
S'clim'
p4323
sg41
g42
sg43
I4326
sg44
S'2050'
p4324
ssS'bio10'
p4325
(dp4326
g8
S'2015-03-19 18:00:44'
p4327
sg10
S'yes'
p4328
sg12
S'ac4550.bio10'
p4329
sg14
I212
sg15
S'bio10'
p4330
sg17
S'Mean Temperature of Warmest Quarter'
p4331
sg19
S'45'
p4332
sg21
S'ac4550'
p4333
sg23
S'../views/GTiff/clim.ac4550.bio10.tif'
p4334
sg25
S'climate'
p4335
sg27
S'clim.ac4550.bio10'
p4336
sg29
S'6326'
p4337
sg31
S'Mean Temperature of Warmest Quarter AC RCP45 2050'
p4338
sg33
g34
sg35
g36
sg37
S'clim.ac4550.bio10.tif'
p4339
sg39
S'clim'
p4340
sg41
g42
sg43
I4326
sg44
S'2050'
p4341
ssS'bio06'
p4342
(dp4343
g8
S'2015-03-19 18:00:44'
p4344
sg10
S'yes'
p4345
sg12
S'ac4550.bio06'
p4346
sg14
I246
sg15
S'bio06'
p4347
sg17
S'Min Temperature of Coldest Month'
p4348
sg19
S'45'
p4349
sg21
S'ac4550'
p4350
sg23
S'../views/GTiff/clim.ac4550.bio06.tif'
p4351
sg25
S'climate'
p4352
sg27
S'clim.ac4550.bio06'
p4353
sg29
S'6334'
p4354
sg31
S'Min Temperature of Coldest Month AC RCP45 2050'
p4355
sg33
g34
sg35
g36
sg37
S'clim.ac4550.bio06.tif'
p4356
sg39
S'clim'
p4357
sg41
g42
sg43
I4326
sg44
S'2050'
p4358
ssS'bio12'
p4359
(dp4360
g8
S'2015-03-19 18:00:44'
p4361
sg10
S'no'
p4362
sg12
S'ac4550.bio12'
p4363
sg14
I105
sg15
S'bio12'
p4364
sg17
S'Annual Precipitation'
p4365
sg19
S'45'
p4366
sg21
S'ac4550'
p4367
sg23
S'../views/GTiff/clim.ac4550.bio12.tif'
p4368
sg25
S'climate'
p4369
sg27
S'clim.ac4550.bio12'
p4370
sg29
S'6332'
p4371
sg31
S'Annual Precipitation AC RCP45 2050'
p4372
sg33
g34
sg35
g36
sg37
S'clim.ac4550.bio12.tif'
p4373
sg39
S'clim'
p4374
sg41
g42
sg43
I4326
sg44
S'2050'
p4375
ssS'bio13'
p4376
(dp4377
g8
S'2015-03-19 18:00:44'
p4378
sg10
S'yes'
p4379
sg12
S'ac4550.bio13'
p4380
sg14
I151
sg15
S'bio13'
p4381
sg17
S'Precipitation of Wettest Month'
p4382
sg19
S'45'
p4383
sg21
S'ac4550'
p4384
sg23
S'../views/GTiff/clim.ac4550.bio13.tif'
p4385
sg25
S'climate'
p4386
sg27
S'clim.ac4550.bio13'
p4387
sg29
S'6328'
p4388
sg31
S'Precipitation of Wettest Month AC RCP45 2050'
p4389
sg33
g34
sg35
g36
sg37
S'clim.ac4550.bio13.tif'
p4390
sg39
S'clim'
p4391
sg41
g42
sg43
I4326
sg44
S'2050'
p4392
ssS'bio03'
p4393
(dp4394
g8
S'2015-03-19 18:00:44'
p4395
sg10
S'yes'
p4396
sg12
S'ac4550.bio03'
p4397
sg14
I46
sg15
S'bio03'
p4398
sg17
S'Isothermality (BIO2/BIO7) (* 100)'
p4399
sg19
S'45'
p4400
sg21
S'ac4550'
p4401
sg23
S'../views/GTiff/clim.ac4550.bio03.tif'
p4402
sg25
S'climate'
p4403
sg27
S'clim.ac4550.bio03'
p4404
sg29
S'6337'
p4405
sg31
S'Isothermality (BIO2/BIO7) (* 100) AC RCP45 2050'
p4406
sg33
g34
sg35
g36
sg37
S'clim.ac4550.bio03.tif'
p4407
sg39
S'clim'
p4408
sg41
g42
sg43
I4326
sg44
S'2050'
p4409
ssS'bio15'
p4410
(dp4411
g8
S'2015-03-19 18:00:44'
p4412
sg10
S'no'
p4413
sg12
S'ac4550.bio15'
p4414
sg14
I80
sg15
S'bio15'
p4415
sg17
S'Precipitation Seasonality (Coefficient of Variation)'
p4416
sg19
S'45'
p4417
sg21
S'ac4550'
p4418
sg23
S'../views/GTiff/clim.ac4550.bio15.tif'
p4419
sg25
S'climate'
p4420
sg27
S'clim.ac4550.bio15'
p4421
sg29
S'6331'
p4422
sg31
S'Precipitation Seasonality (Coefficient of Variation) AC RCP45 2050'
p4423
sg33
g34
sg35
g36
sg37
S'clim.ac4550.bio15.tif'
p4424
sg39
S'clim'
p4425
sg41
g42
sg43
I4326
sg44
S'2050'
p4426
ssS'bio01'
p4427
(dp4428
g8
S'2015-03-19 18:00:44'
p4429
sg10
S'no'
p4430
sg12
S'ac4550.bio01'
p4431
sg14
I7
sg15
S'bio01'
p4432
sg17
S'Annual Mean Temperature'
p4433
sg19
S'45'
p4434
sg21
g4238
sg23
S'../views/GTiff/clim.ac4550.bio01.tif'
p4435
sg25
S'climate'
p4436
sg27
S'clim.ac4550.bio01'
p4437
sg29
S'6339'
p4438
sg31
S'Annual Mean Temperature AC RCP45 2050'
p4439
sg33
g34
sg35
g36
sg37
S'clim.ac4550.bio01.tif'
p4440
sg39
S'clim'
p4441
sg41
g42
sg43
I4326
sg44
S'2050'
p4442
ssS'bio19'
p4443
(dp4444
g8
S'2015-03-19 18:00:44'
p4445
sg10
S'yes'
p4446
sg12
S'ac4550.bio19'
p4447
sg14
I318
sg15
S'bio19'
p4448
sg17
S'Precipitation of Coldest Quarter'
p4449
sg19
S'45'
p4450
sg21
S'ac4550'
p4451
sg23
S'../views/GTiff/clim.ac4550.bio19.tif'
p4452
sg25
S'climate'
p4453
sg27
S'clim.ac4550.bio19'
p4454
sg29
S'6327'
p4455
sg31
S'Precipitation of Coldest Quarter AC RCP45 2050'
p4456
sg33
g34
sg35
g36
sg37
S'clim.ac4550.bio19.tif'
p4457
sg39
S'clim'
p4458
sg41
g42
sg43
I4326
sg44
S'2050'
p4459
ssS'bio18'
p4460
(dp4461
g8
S'2015-03-19 18:00:44'
p4462
sg10
S'no'
p4463
sg12
S'ac4550.bio18'
p4464
sg14
I155
sg15
S'bio18'
p4465
sg17
S'Precipitation of Warmest Quarter'
p4466
sg19
S'45'
p4467
sg21
S'ac4550'
p4468
sg23
S'../views/GTiff/clim.ac4550.bio18.tif'
p4469
sg25
S'climate'
p4470
sg27
S'clim.ac4550.bio18'
p4471
sg29
S'6341'
p4472
sg31
S'Precipitation of Warmest Quarter AC RCP45 2050'
p4473
sg33
g34
sg35
g36
sg37
S'clim.ac4550.bio18.tif'
p4474
sg39
S'clim'
p4475
sg41
g42
sg43
I4326
sg44
S'2050'
p4476
ssS'bio14'
p4477
(dp4478
g8
S'2015-03-19 18:00:44'
p4479
sg10
S'yes'
p4480
sg12
S'ac4550.bio14'
p4481
sg14
I163
sg15
S'bio14'
p4482
sg17
S'Precipitation of Driest Month'
p4483
sg19
S'45'
p4484
sg21
S'ac4550'
p4485
sg23
S'../views/GTiff/clim.ac4550.bio14.tif'
p4486
sg25
S'climate'
p4487
sg27
S'clim.ac4550.bio14'
p4488
sg29
S'6342'
p4489
sg31
S'Precipitation of Driest Month AC RCP45 2050'
p4490
sg33
g34
sg35
g36
sg37
S'clim.ac4550.bio14.tif'
p4491
sg39
S'clim'
p4492
sg41
g42
sg43
I4326
sg44
S'2050'
p4493
ssS'bio04'
p4494
(dp4495
g8
S'2015-03-19 18:00:44'
p4496
sg10
S'yes'
p4497
sg12
S'ac4550.bio04'
p4498
sg14
I325
sg15
S'bio04'
p4499
sg17
S'Temperature Seasonality (standard deviation *100)'
p4500
sg19
S'45'
p4501
sg21
S'ac4550'
p4502
sg23
S'../views/GTiff/clim.ac4550.bio04.tif'
p4503
sg25
S'climate'
p4504
sg27
S'clim.ac4550.bio04'
p4505
sg29
S'6336'
p4506
sg31
S'Temperature Seasonality (standard deviation *100) AC RCP45 2050'
p4507
sg33
g34
sg35
g36
sg37
S'clim.ac4550.bio04.tif'
p4508
sg39
S'clim'
p4509
sg41
g42
sg43
I4326
sg44
S'2050'
p4510
ssS'bio08'
p4511
(dp4512
g8
S'2015-03-19 18:00:44'
p4513
sg10
S'no'
p4514
sg12
S'ac4550.bio08'
p4515
sg14
I293
sg15
S'bio08'
p4516
sg17
S'Mean Temperature of Wettest Quarter'
p4517
sg19
S'45'
p4518
sg21
S'ac4550'
p4519
sg23
S'../views/GTiff/clim.ac4550.bio08.tif'
p4520
sg25
S'climate'
p4521
sg27
S'clim.ac4550.bio08'
p4522
sg29
S'6344'
p4523
sg31
S'Mean Temperature of Wettest Quarter AC RCP45 2050'
p4524
sg33
g34
sg35
g36
sg37
S'clim.ac4550.bio08.tif'
p4525
sg39
S'clim'
p4526
sg41
g42
sg43
I4326
sg44
S'2050'
p4527
ssS'bio09'
p4528
(dp4529
g8
S'2015-03-19 18:00:44'
p4530
sg10
S'yes'
p4531
sg12
S'ac4550.bio09'
p4532
sg14
I178
sg15
S'bio09'
p4533
sg17
S'Mean Temperature of Driest Quarter'
p4534
sg19
S'45'
p4535
sg21
S'ac4550'
p4536
sg23
S'../views/GTiff/clim.ac4550.bio09.tif'
p4537
sg25
S'climate'
p4538
sg27
S'clim.ac4550.bio09'
p4539
sg29
S'6343'
p4540
sg31
S'Mean Temperature of Driest Quarter AC RCP45 2050'
p4541
sg33
g34
sg35
g36
sg37
S'clim.ac4550.bio09.tif'
p4542
sg39
S'clim'
p4543
sg41
g42
sg43
I4326
sg44
S'2050'
p4544
ssS'bio02'
p4545
(dp4546
g8
S'2015-03-19 18:00:44'
p4547
sg10
S'yes'
p4548
sg12
S'ac4550.bio02'
p4549
sg14
I261
sg15
S'bio02'
p4550
sg17
S'Mean Diurnal Range (Mean of monthly (max temp - min temp))'
p4551
sg19
S'45'
p4552
sg21
S'ac4550'
p4553
sg23
S'../views/GTiff/clim.ac4550.bio02.tif'
p4554
sg25
S'climate'
p4555
sg27
S'clim.ac4550.bio02'
p4556
sg29
S'6338'
p4557
sg31
S'Mean Diurnal Range (Mean of monthly (max temp - min temp)) AC RCP45 2050'
p4558
sg33
g34
sg35
g36
sg37
S'clim.ac4550.bio02.tif'
p4559
sg39
S'clim'
p4560
sg41
g42
sg43
I4326
sg44
S'2050'
p4561
sssS'he4570'
p4562
(dp4563
S'bio10'
p4564
(dp4565
g8
S'2015-03-19 18:00:44'
p4566
sg10
S'yes'
p4567
sg12
S'he4570.bio10'
p4568
sg14
I276
sg15
S'bio10'
p4569
sg17
S'Mean Temperature of Warmest Quarter'
p4570
sg19
S'45'
p4571
sg21
S'he4570'
p4572
sg23
S'../views/GTiff/clim.he4570.bio10.tif'
p4573
sg25
S'climate'
p4574
sg27
S'clim.he4570.bio10'
p4575
sg29
S'6415'
p4576
sg31
S'Mean Temperature of Warmest Quarter HE RCP45 2070'
p4577
sg33
g34
sg35
g36
sg37
S'clim.he4570.bio10.tif'
p4578
sg39
S'clim'
p4579
sg41
g42
sg43
I4326
sg44
S'2070'
p4580
ssS'bio19'
p4581
(dp4582
g8
S'2015-03-19 18:00:44'
p4583
sg10
S'yes'
p4584
sg12
S'he4570.bio19'
p4585
sg14
I203
sg15
S'bio19'
p4586
sg17
S'Precipitation of Coldest Quarter'
p4587
sg19
S'45'
p4588
sg21
S'he4570'
p4589
sg23
S'../views/GTiff/clim.he4570.bio19.tif'
p4590
sg25
S'climate'
p4591
sg27
S'clim.he4570.bio19'
p4592
sg29
S'6424'
p4593
sg31
S'Precipitation of Coldest Quarter HE RCP45 2070'
p4594
sg33
g34
sg35
g36
sg37
S'clim.he4570.bio19.tif'
p4595
sg39
S'clim'
p4596
sg41
g42
sg43
I4326
sg44
S'2070'
p4597
ssS'bio16'
p4598
(dp4599
g8
S'2015-03-19 18:00:44'
p4600
sg10
S'yes'
p4601
sg12
S'he4570.bio16'
p4602
sg14
I340
sg15
S'bio16'
p4603
sg17
S'Precipitation of Wettest Quarter'
p4604
sg19
S'45'
p4605
sg21
S'he4570'
p4606
sg23
S'../views/GTiff/clim.he4570.bio16.tif'
p4607
sg25
S'climate'
p4608
sg27
S'clim.he4570.bio16'
p4609
sg29
S'6421'
p4610
sg31
S'Precipitation of Wettest Quarter HE RCP45 2070'
p4611
sg33
g34
sg35
g36
sg37
S'clim.he4570.bio16.tif'
p4612
sg39
S'clim'
p4613
sg41
g42
sg43
I4326
sg44
S'2070'
p4614
ssS'bio06'
p4615
(dp4616
g8
S'2015-03-19 18:00:44'
p4617
sg10
S'yes'
p4618
sg12
S'he4570.bio06'
p4619
sg14
I148
sg15
S'bio06'
p4620
sg17
S'Min Temperature of Coldest Month'
p4621
sg19
S'45'
p4622
sg21
S'he4570'
p4623
sg23
S'../views/GTiff/clim.he4570.bio06.tif'
p4624
sg25
S'climate'
p4625
sg27
S'clim.he4570.bio06'
p4626
sg29
S'6413'
p4627
sg31
S'Min Temperature of Coldest Month HE RCP45 2070'
p4628
sg33
g34
sg35
g36
sg37
S'clim.he4570.bio06.tif'
p4629
sg39
S'clim'
p4630
sg41
g42
sg43
I4326
sg44
S'2070'
p4631
ssS'bio09'
p4632
(dp4633
g8
S'2015-03-19 18:00:44'
p4634
sg10
S'yes'
p4635
sg12
S'he4570.bio09'
p4636
sg14
I242
sg15
S'bio09'
p4637
sg17
S'Mean Temperature of Driest Quarter'
p4638
sg19
S'45'
p4639
sg21
S'he4570'
p4640
sg23
S'../views/GTiff/clim.he4570.bio09.tif'
p4641
sg25
S'climate'
p4642
sg27
S'clim.he4570.bio09'
p4643
sg29
S'6425'
p4644
sg31
S'Mean Temperature of Driest Quarter HE RCP45 2070'
p4645
sg33
g34
sg35
g36
sg37
S'clim.he4570.bio09.tif'
p4646
sg39
S'clim'
p4647
sg41
g42
sg43
I4326
sg44
S'2070'
p4648
ssS'bio15'
p4649
(dp4650
g8
S'2015-03-19 18:00:44'
p4651
sg10
S'no'
p4652
sg12
S'he4570.bio15'
p4653
sg14
I314
sg15
S'bio15'
p4654
sg17
S'Precipitation Seasonality (Coefficient of Variation)'
p4655
sg19
S'45'
p4656
sg21
S'he4570'
p4657
sg23
S'../views/GTiff/clim.he4570.bio15.tif'
p4658
sg25
S'climate'
p4659
sg27
S'clim.he4570.bio15'
p4660
sg29
S'6420'
p4661
sg31
S'Precipitation Seasonality (Coefficient of Variation) HE RCP45 2070'
p4662
sg33
g34
sg35
g36
sg37
S'clim.he4570.bio15.tif'
p4663
sg39
S'clim'
p4664
sg41
g42
sg43
I4326
sg44
S'2070'
p4665
ssS'bio12'
p4666
(dp4667
g8
S'2015-03-19 18:00:44'
p4668
sg10
S'no'
p4669
sg12
S'he4570.bio12'
p4670
sg14
I214
sg15
S'bio12'
p4671
sg17
S'Annual Precipitation'
p4672
sg19
S'45'
p4673
sg21
S'he4570'
p4674
sg23
S'../views/GTiff/clim.he4570.bio12.tif'
p4675
sg25
S'climate'
p4676
sg27
S'clim.he4570.bio12'
p4677
sg29
S'6417'
p4678
sg31
S'Annual Precipitation HE RCP45 2070'
p4679
sg33
g34
sg35
g36
sg37
S'clim.he4570.bio12.tif'
p4680
sg39
S'clim'
p4681
sg41
g42
sg43
I4326
sg44
S'2070'
p4682
ssS'bio07'
p4683
(dp4684
g8
S'2015-03-19 18:00:44'
p4685
sg10
S'no'
p4686
sg12
S'he4570.bio07'
p4687
sg14
I222
sg15
S'bio07'
p4688
sg17
S'Temperature Annual Range (BIO5-BIO6)'
p4689
sg19
S'45'
p4690
sg21
S'he4570'
p4691
sg23
S'../views/GTiff/clim.he4570.bio07.tif'
p4692
sg25
S'climate'
p4693
sg27
S'clim.he4570.bio07'
p4694
sg29
S'6412'
p4695
sg31
S'Temperature Annual Range (BIO5-BIO6) HE RCP45 2070'
p4696
sg33
g34
sg35
g36
sg37
S'clim.he4570.bio07.tif'
p4697
sg39
S'clim'
p4698
sg41
g42
sg43
I4326
sg44
S'2070'
p4699
ssS'bio11'
p4700
(dp4701
g8
S'2015-03-19 18:00:44'
p4702
sg10
S'yes'
p4703
sg12
S'he4570.bio11'
p4704
sg14
I45
sg15
S'bio11'
p4705
sg17
S'Mean Temperature of Coldest Quarter'
p4706
sg19
S'45'
p4707
sg21
S'he4570'
p4708
sg23
S'../views/GTiff/clim.he4570.bio11.tif'
p4709
sg25
S'climate'
p4710
sg27
S'clim.he4570.bio11'
p4711
sg29
S'6416'
p4712
sg31
S'Mean Temperature of Coldest Quarter HE RCP45 2070'
p4713
sg33
g34
sg35
g36
sg37
S'clim.he4570.bio11.tif'
p4714
sg39
S'clim'
p4715
sg41
g42
sg43
I4326
sg44
S'2070'
p4716
ssS'bio05'
p4717
(dp4718
g8
S'2015-03-19 18:00:44'
p4719
sg10
S'yes'
p4720
sg12
S'he4570.bio05'
p4721
sg14
I141
sg15
S'bio05'
p4722
sg17
S'Max Temperature of Warmest Month'
p4723
sg19
S'45'
p4724
sg21
S'he4570'
p4725
sg23
S'../views/GTiff/clim.he4570.bio05.tif'
p4726
sg25
S'climate'
p4727
sg27
S'clim.he4570.bio05'
p4728
sg29
S'6414'
p4729
sg31
S'Max Temperature of Warmest Month HE RCP45 2070'
p4730
sg33
g34
sg35
g36
sg37
S'clim.he4570.bio05.tif'
p4731
sg39
S'clim'
p4732
sg41
g42
sg43
I4326
sg44
S'2070'
p4733
ssS'bio13'
p4734
(dp4735
g8
S'2015-03-19 18:00:44'
p4736
sg10
S'yes'
p4737
sg12
S'he4570.bio13'
p4738
sg14
I13
sg15
S'bio13'
p4739
sg17
S'Precipitation of Wettest Month'
p4740
sg19
S'45'
p4741
sg21
g4562
sg23
S'../views/GTiff/clim.he4570.bio13.tif'
p4742
sg25
S'climate'
p4743
sg27
S'clim.he4570.bio13'
p4744
sg29
S'6418'
p4745
sg31
S'Precipitation of Wettest Month HE RCP45 2070'
p4746
sg33
g34
sg35
g36
sg37
S'clim.he4570.bio13.tif'
p4747
sg39
S'clim'
p4748
sg41
g42
sg43
I4326
sg44
S'2070'
p4749
ssS'bio03'
p4750
(dp4751
g8
S'2015-03-19 18:00:44'
p4752
sg10
S'yes'
p4753
sg12
S'he4570.bio03'
p4754
sg14
I89
sg15
S'bio03'
p4755
sg17
S'Isothermality (BIO2/BIO7) (* 100)'
p4756
sg19
S'45'
p4757
sg21
S'he4570'
p4758
sg23
S'../views/GTiff/clim.he4570.bio03.tif'
p4759
sg25
S'climate'
p4760
sg27
S'clim.he4570.bio03'
p4761
sg29
S'6384'
p4762
sg31
S'Isothermality (BIO2/BIO7) (* 100) HE RCP45 2070'
p4763
sg33
g34
sg35
g36
sg37
S'clim.he4570.bio03.tif'
p4764
sg39
S'clim'
p4765
sg41
g42
sg43
I4326
sg44
S'2070'
p4766
ssS'bio02'
p4767
(dp4768
g8
S'2015-03-19 18:00:44'
p4769
sg10
S'yes'
p4770
sg12
S'he4570.bio02'
p4771
sg14
I158
sg15
S'bio02'
p4772
sg17
S'Mean Diurnal Range (Mean of monthly (max temp - min temp))'
p4773
sg19
S'45'
p4774
sg21
S'he4570'
p4775
sg23
S'../views/GTiff/clim.he4570.bio02.tif'
p4776
sg25
S'climate'
p4777
sg27
S'clim.he4570.bio02'
p4778
sg29
S'6385'
p4779
sg31
S'Mean Diurnal Range (Mean of monthly (max temp - min temp)) HE RCP45 2070'
p4780
sg33
g34
sg35
g36
sg37
S'clim.he4570.bio02.tif'
p4781
sg39
S'clim'
p4782
sg41
g42
sg43
I4326
sg44
S'2070'
p4783
ssS'bio01'
p4784
(dp4785
g8
S'2015-03-19 18:00:44'
p4786
sg10
S'no'
p4787
sg12
S'he4570.bio01'
p4788
sg14
I174
sg15
S'bio01'
p4789
sg17
S'Annual Mean Temperature'
p4790
sg19
S'45'
p4791
sg21
S'he4570'
p4792
sg23
S'../views/GTiff/clim.he4570.bio01.tif'
p4793
sg25
S'climate'
p4794
sg27
S'clim.he4570.bio01'
p4795
sg29
S'6386'
p4796
sg31
S'Annual Mean Temperature HE RCP45 2070'
p4797
sg33
g34
sg35
g36
sg37
S'clim.he4570.bio01.tif'
p4798
sg39
S'clim'
p4799
sg41
g42
sg43
I4326
sg44
S'2070'
p4800
ssS'bio17'
p4801
(dp4802
g8
S'2015-03-19 18:00:44'
p4803
sg10
S'yes'
p4804
sg12
S'he4570.bio17'
p4805
sg14
I73
sg15
S'bio17'
p4806
sg17
S'Precipitation of Driest Quarter'
p4807
sg19
S'45'
p4808
sg21
S'he4570'
p4809
sg23
S'../views/GTiff/clim.he4570.bio17.tif'
p4810
sg25
S'climate'
p4811
sg27
S'clim.he4570.bio17'
p4812
sg29
S'6422'
p4813
sg31
S'Precipitation of Driest Quarter HE RCP45 2070'
p4814
sg33
g34
sg35
g36
sg37
S'clim.he4570.bio17.tif'
p4815
sg39
S'clim'
p4816
sg41
g42
sg43
I4326
sg44
S'2070'
p4817
ssS'bio18'
p4818
(dp4819
g8
S'2015-03-19 18:00:44'
p4820
sg10
S'no'
p4821
sg12
S'he4570.bio18'
p4822
sg14
I99
sg15
S'bio18'
p4823
sg17
S'Precipitation of Warmest Quarter'
p4824
sg19
S'45'
p4825
sg21
S'he4570'
p4826
sg23
S'../views/GTiff/clim.he4570.bio18.tif'
p4827
sg25
S'climate'
p4828
sg27
S'clim.he4570.bio18'
p4829
sg29
S'6423'
p4830
sg31
S'Precipitation of Warmest Quarter HE RCP45 2070'
p4831
sg33
g34
sg35
g36
sg37
S'clim.he4570.bio18.tif'
p4832
sg39
S'clim'
p4833
sg41
g42
sg43
I4326
sg44
S'2070'
p4834
ssS'bio14'
p4835
(dp4836
g8
S'2015-03-19 18:00:44'
p4837
sg10
S'yes'
p4838
sg12
S'he4570.bio14'
p4839
sg14
I167
sg15
S'bio14'
p4840
sg17
S'Precipitation of Driest Month'
p4841
sg19
S'45'
p4842
sg21
S'he4570'
p4843
sg23
S'../views/GTiff/clim.he4570.bio14.tif'
p4844
sg25
S'climate'
p4845
sg27
S'clim.he4570.bio14'
p4846
sg29
S'6419'
p4847
sg31
S'Precipitation of Driest Month HE RCP45 2070'
p4848
sg33
g34
sg35
g36
sg37
S'clim.he4570.bio14.tif'
p4849
sg39
S'clim'
p4850
sg41
g42
sg43
I4326
sg44
S'2070'
p4851
ssS'bio04'
p4852
(dp4853
g8
S'2015-03-19 18:00:44'
p4854
sg10
S'yes'
p4855
sg12
S'he4570.bio04'
p4856
sg14
I227
sg15
S'bio04'
p4857
sg17
S'Temperature Seasonality (standard deviation *100)'
p4858
sg19
S'45'
p4859
sg21
S'he4570'
p4860
sg23
S'../views/GTiff/clim.he4570.bio04.tif'
p4861
sg25
S'climate'
p4862
sg27
S'clim.he4570.bio04'
p4863
sg29
S'6383'
p4864
sg31
S'Temperature Seasonality (standard deviation *100) HE RCP45 2070'
p4865
sg33
g34
sg35
g36
sg37
S'clim.he4570.bio04.tif'
p4866
sg39
S'clim'
p4867
sg41
g42
sg43
I4326
sg44
S'2070'
p4868
ssS'bio08'
p4869
(dp4870
g8
S'2015-03-19 18:00:44'
p4871
sg10
S'no'
p4872
sg12
S'he4570.bio08'
p4873
sg14
I204
sg15
S'bio08'
p4874
sg17
S'Mean Temperature of Wettest Quarter'
p4875
sg19
S'45'
p4876
sg21
S'he4570'
p4877
sg23
S'../views/GTiff/clim.he4570.bio08.tif'
p4878
sg25
S'climate'
p4879
sg27
S'clim.he4570.bio08'
p4880
sg29
S'6426'
p4881
sg31
S'Mean Temperature of Wettest Quarter HE RCP45 2070'
p4882
sg33
g34
sg35
g36
sg37
S'clim.he4570.bio08.tif'
p4883
sg39
S'clim'
p4884
sg41
g42
sg43
I4326
sg44
S'2070'
p4885
ssssS'agclim'
p4886
(dp4887
S'he8550'
p4888
(dp4889
S'bio06'
p4890
(dp4891
g8
S'2015-03-19 18:00:44'
p4892
sg10
S'no'
p4893
sg12
S'he8550.bio06'
p4894
sg14
I264
sg15
S'bio06'
p4895
sg17
S'Min Temperature of Coldest Month'
p4896
sg19
S'85'
p4897
sg21
S'he8550'
p4898
sg23
S'../views/GTiff/agclim.he8550.bio06.tif'
p4899
sg25
S'agclimate'
p4900
sg27
S'agclim.he8550.bio06'
p4901
sg29
S'6498'
p4902
sg31
S'Min Temperature of Coldest Month'
p4903
sg33
g34
sg35
g36
sg37
S'agclim.he8550.bio06.tif'
p4904
sg39
S'agclim'
p4905
sg41
g42
sg43
I4326
sg44
S'2050'
p4906
ssS'bio12'
p4907
(dp4908
g8
S'2015-03-19 18:00:44'
p4909
sg10
S'no'
p4910
sg12
S'he8550.bio12'
p4911
sg14
I12
sg15
S'bio12'
p4912
sg17
S'Annual Precipitation'
p4913
sg19
S'85'
p4914
sg21
g4888
sg23
S'../views/GTiff/agclim.he8550.bio12.tif'
p4915
sg25
S'agclimate'
p4916
sg27
S'agclim.he8550.bio12'
p4917
sg29
S'6499'
p4918
sg31
S'Annual Precipitation'
p4919
sg33
g34
sg35
g36
sg37
S'agclim.he8550.bio12.tif'
p4920
sg39
S'agclim'
p4921
sg41
g42
sg43
I4326
sg44
S'2050'
p4922
ssS'gdd5'
p4923
(dp4924
g8
S'2015-03-19 18:00:44'
p4925
sg10
S'no'
p4926
sg12
S'he8550.gdd5'
p4927
sg14
I182
sg15
S'gdd5'
p4928
sg17
S'Growing Degree Days 5C Baseline'
p4929
sg19
S'85'
p4930
sg21
S'he8550'
p4931
sg23
S'../views/GTiff/agclim.he8550.gdd5.tif'
p4932
sg25
S'agclimate'
p4933
sg27
S'agclim.he8550.gdd5'
p4934
sg29
S'6500'
p4935
sg31
S'Growing Degree Days 5C Baseline'
p4936
sg33
g34
sg35
g36
sg37
S'agclim.he8550.gdd5.tif'
p4937
sg39
S'agclim'
p4938
sg41
g42
sg43
I4326
sg44
S'2050'
p4939
ssS'aridity'
p4940
(dp4941
g8
S'2015-03-19 18:00:44'
p4942
sg10
S'no'
p4943
sg12
S'he8550.aridity'
p4944
sg14
I199
sg15
S'aridity'
p4945
sg17
S'CRU Metric of Mean Annual Aridity'
p4946
sg19
S'85'
p4947
sg21
S'he8550'
p4948
sg23
S'../views/GTiff/agclim.he8550.aridity.tif'
p4949
sg25
S'agclimate'
p4950
sg27
S'agclim.he8550.aridity'
p4951
sg29
S'6501'
p4952
sg31
S'CRU Metric of Mean Annual Aridity'
p4953
sg33
g34
sg35
g36
sg37
S'agclim.he8550.aridity.tif'
p4954
sg39
S'agclim'
p4955
sg41
g42
sg43
I4326
sg44
S'2050'
p4956
ssS'petmn'
p4957
(dp4958
g8
S'2015-03-19 18:00:44'
p4959
sg10
S'no'
p4960
sg12
S'he8550.petmn'
p4961
sg14
I306
sg15
S'petmn'
p4962
sg17
S'CRU Mean Annual Evapotranspiration'
p4963
sg19
S'85'
p4964
sg21
S'he8550'
p4965
sg23
S'../views/GTiff/agclim.he8550.petmn.tif'
p4966
sg25
S'agclimate'
p4967
sg27
S'agclim.he8550.petmn'
p4968
sg29
S'6502'
p4969
sg31
S'CRU Mean Annual Evapotranspiration'
p4970
sg33
g34
sg35
g36
sg37
S'agclim.he8550.petmn.tif'
p4971
sg39
S'agclim'
p4972
sg41
g42
sg43
I4326
sg44
S'2050'
p4973
sssS'he2670'
p4974
(dp4975
S'bio06'
p4976
(dp4977
g8
S'2015-03-19 18:00:44'
p4978
sg10
S'no'
p4979
sg12
S'he2670.bio06'
p4980
sg14
I29
sg15
S'bio06'
p4981
sg17
S'Min Temperature of Coldest Month'
p4982
sg19
S'26'
p4983
sg21
g4974
sg23
S'../views/GTiff/agclim.he2670.bio06.tif'
p4984
sg25
S'agclimate'
p4985
sg27
S'agclim.he2670.bio06'
p4986
sg29
S'6503'
p4987
sg31
S'Min Temperature of Coldest Month'
p4988
sg33
g34
sg35
g36
sg37
S'agclim.he2670.bio06.tif'
p4989
sg39
S'agclim'
p4990
sg41
g42
sg43
I4326
sg44
S'2070'
p4991
ssS'bio12'
p4992
(dp4993
g8
S'2015-03-19 18:00:44'
p4994
sg10
S'no'
p4995
sg12
S'he2670.bio12'
p4996
sg14
I216
sg15
S'bio12'
p4997
sg17
S'Annual Precipitation'
p4998
sg19
S'26'
p4999
sg21
S'he2670'
p5000
sg23
S'../views/GTiff/agclim.he2670.bio12.tif'
p5001
sg25
S'agclimate'
p5002
sg27
S'agclim.he2670.bio12'
p5003
sg29
S'6504'
p5004
sg31
S'Annual Precipitation'
p5005
sg33
g34
sg35
g36
sg37
S'agclim.he2670.bio12.tif'
p5006
sg39
S'agclim'
p5007
sg41
g42
sg43
I4326
sg44
S'2070'
p5008
ssS'gdd5'
p5009
(dp5010
g8
S'2015-03-19 18:00:44'
p5011
sg10
S'no'
p5012
sg12
S'he2670.gdd5'
p5013
sg14
I140
sg15
S'gdd5'
p5014
sg17
S'Growing Degree Days 5C Baseline'
p5015
sg19
S'26'
p5016
sg21
S'he2670'
p5017
sg23
S'../views/GTiff/agclim.he2670.gdd5.tif'
p5018
sg25
S'agclimate'
p5019
sg27
S'agclim.he2670.gdd5'
p5020
sg29
S'6505'
p5021
sg31
S'Growing Degree Days 5C Baseline'
p5022
sg33
g34
sg35
g36
sg37
S'agclim.he2670.gdd5.tif'
p5023
sg39
S'agclim'
p5024
sg41
g42
sg43
I4326
sg44
S'2070'
p5025
ssS'aridity'
p5026
(dp5027
g8
S'2015-03-19 18:00:44'
p5028
sg10
S'no'
p5029
sg12
S'he2670.aridity'
p5030
sg14
I258
sg15
S'aridity'
p5031
sg17
S'CRU Metric of Mean Annual Aridity'
p5032
sg19
S'26'
p5033
sg21
S'he2670'
p5034
sg23
S'../views/GTiff/agclim.he2670.aridity.tif'
p5035
sg25
S'agclimate'
p5036
sg27
S'agclim.he2670.aridity'
p5037
sg29
S'6538'
p5038
sg31
S'CRU Metric of Mean Annual Aridity'
p5039
sg33
g34
sg35
g36
sg37
S'agclim.he2670.aridity.tif'
p5040
sg39
S'agclim'
p5041
sg41
g42
sg43
I4326
sg44
S'2070'
p5042
ssS'petmn'
p5043
(dp5044
g8
S'2015-03-19 18:00:44'
p5045
sg10
S'no'
p5046
sg12
S'he2670.petmn'
p5047
sg14
I189
sg15
S'petmn'
p5048
sg17
S'CRU Mean Annual Evapotranspiration'
p5049
sg19
S'26'
p5050
sg21
S'he2670'
p5051
sg23
S'../views/GTiff/agclim.he2670.petmn.tif'
p5052
sg25
S'agclimate'
p5053
sg27
S'agclim.he2670.petmn'
p5054
sg29
S'6506'
p5055
sg31
S'CRU Mean Annual Evapotranspiration'
p5056
sg33
g34
sg35
g36
sg37
S'agclim.he2670.petmn.tif'
p5057
sg39
S'agclim'
p5058
sg41
g42
sg43
I4326
sg44
S'2070'
p5059
sssS'he8570'
p5060
(dp5061
S'bio06'
p5062
(dp5063
g8
S'2015-03-19 18:00:44'
p5064
sg10
S'no'
p5065
sg12
S'he8570.bio06'
p5066
sg14
I66
sg15
S'bio06'
p5067
sg17
S'Min Temperature of Coldest Month'
p5068
sg19
S'85'
p5069
sg21
g5060
sg23
S'../views/GTiff/agclim.he8570.bio06.tif'
p5070
sg25
S'agclimate'
p5071
sg27
S'agclim.he8570.bio06'
p5072
sg29
S'6507'
p5073
sg31
S'Min Temperature of Coldest Month'
p5074
sg33
g34
sg35
g36
sg37
S'agclim.he8570.bio06.tif'
p5075
sg39
S'agclim'
p5076
sg41
g42
sg43
I4326
sg44
S'2070'
p5077
ssS'bio12'
p5078
(dp5079
g8
S'2015-03-19 18:00:44'
p5080
sg10
S'no'
p5081
sg12
S'he8570.bio12'
p5082
sg14
I198
sg15
S'bio12'
p5083
sg17
S'Annual Precipitation'
p5084
sg19
S'85'
p5085
sg21
S'he8570'
p5086
sg23
S'../views/GTiff/agclim.he8570.bio12.tif'
p5087
sg25
S'agclimate'
p5088
sg27
S'agclim.he8570.bio12'
p5089
sg29
S'6508'
p5090
sg31
S'Annual Precipitation'
p5091
sg33
g34
sg35
g36
sg37
S'agclim.he8570.bio12.tif'
p5092
sg39
S'agclim'
p5093
sg41
g42
sg43
I4326
sg44
S'2070'
p5094
ssS'gdd5'
p5095
(dp5096
g8
S'2015-03-19 18:00:44'
p5097
sg10
S'no'
p5098
sg12
S'he8570.gdd5'
p5099
sg14
I196
sg15
S'gdd5'
p5100
sg17
S'Growing Degree Days 5C Baseline'
p5101
sg19
S'85'
p5102
sg21
S'he8570'
p5103
sg23
S'../views/GTiff/agclim.he8570.gdd5.tif'
p5104
sg25
S'agclimate'
p5105
sg27
S'agclim.he8570.gdd5'
p5106
sg29
S'6539'
p5107
sg31
S'Growing Degree Days 5C Baseline'
p5108
sg33
g34
sg35
g36
sg37
S'agclim.he8570.gdd5.tif'
p5109
sg39
S'agclim'
p5110
sg41
g42
sg43
I4326
sg44
S'2070'
p5111
ssS'aridity'
p5112
(dp5113
g8
S'2015-03-19 18:00:44'
p5114
sg10
S'no'
p5115
sg12
S'he8570.aridity'
p5116
sg14
I200
sg15
S'aridity'
p5117
sg17
S'CRU Metric of Mean Annual Aridity'
p5118
sg19
S'85'
p5119
sg21
S'he8570'
p5120
sg23
S'../views/GTiff/agclim.he8570.aridity.tif'
p5121
sg25
S'agclimate'
p5122
sg27
S'agclim.he8570.aridity'
p5123
sg29
S'6509'
p5124
sg31
S'CRU Metric of Mean Annual Aridity'
p5125
sg33
g34
sg35
g36
sg37
S'agclim.he8570.aridity.tif'
p5126
sg39
S'agclim'
p5127
sg41
g42
sg43
I4326
sg44
S'2070'
p5128
ssS'petmn'
p5129
(dp5130
g8
S'2015-03-19 18:00:44'
p5131
sg10
S'no'
p5132
sg12
S'he8570.petmn'
p5133
sg14
I259
sg15
S'petmn'
p5134
sg17
S'CRU Mean Annual Evapotranspiration'
p5135
sg19
S'85'
p5136
sg21
S'he8570'
p5137
sg23
S'../views/GTiff/agclim.he8570.petmn.tif'
p5138
sg25
S'agclimate'
p5139
sg27
S'agclim.he8570.petmn'
p5140
sg29
S'6540'
p5141
sg31
S'CRU Mean Annual Evapotranspiration'
p5142
sg33
g34
sg35
g36
sg37
S'agclim.he8570.petmn.tif'
p5143
sg39
S'agclim'
p5144
sg41
g42
sg43
I4326
sg44
S'2070'
p5145
sssS'he2650'
p5146
(dp5147
S'bio06'
p5148
(dp5149
g8
S'2015-03-19 18:00:44'
p5150
sg10
S'no'
p5151
sg12
S'he2650.bio06'
p5152
sg14
I30
sg15
S'bio06'
p5153
sg17
S'Min Temperature of Coldest Month'
p5154
sg19
S'26'
p5155
sg21
g5146
sg23
S'../views/GTiff/agclim.he2650.bio06.tif'
p5156
sg25
S'agclimate'
p5157
sg27
S'agclim.he2650.bio06'
p5158
sg29
S'6510'
p5159
sg31
S'Min Temperature of Coldest Month'
p5160
sg33
g34
sg35
g36
sg37
S'agclim.he2650.bio06.tif'
p5161
sg39
S'agclim'
p5162
sg41
g42
sg43
I4326
sg44
S'2050'
p5163
ssS'bio12'
p5164
(dp5165
g8
S'2015-03-19 18:00:44'
p5166
sg10
S'no'
p5167
sg12
S'he2650.bio12'
p5168
sg14
I223
sg15
S'bio12'
p5169
sg17
S'Annual Precipitation'
p5170
sg19
S'26'
p5171
sg21
S'he2650'
p5172
sg23
S'../views/GTiff/agclim.he2650.bio12.tif'
p5173
sg25
S'agclimate'
p5174
sg27
S'agclim.he2650.bio12'
p5175
sg29
S'6511'
p5176
sg31
S'Annual Precipitation'
p5177
sg33
g34
sg35
g36
sg37
S'agclim.he2650.bio12.tif'
p5178
sg39
S'agclim'
p5179
sg41
g42
sg43
I4326
sg44
S'2050'
p5180
ssS'gdd5'
p5181
(dp5182
g8
S'2015-03-19 18:00:44'
p5183
sg10
S'no'
p5184
sg12
S'he2650.gdd5'
p5185
sg14
I65
sg15
S'gdd5'
p5186
sg17
S'Growing Degree Days 5C Baseline'
p5187
sg19
S'26'
p5188
sg21
S'he2650'
p5189
sg23
S'../views/GTiff/agclim.he2650.gdd5.tif'
p5190
sg25
S'agclimate'
p5191
sg27
S'agclim.he2650.gdd5'
p5192
sg29
S'6512'
p5193
sg31
S'Growing Degree Days 5C Baseline'
p5194
sg33
g34
sg35
g36
sg37
S'agclim.he2650.gdd5.tif'
p5195
sg39
S'agclim'
p5196
sg41
g42
sg43
I4326
sg44
S'2050'
p5197
ssS'aridity'
p5198
(dp5199
g8
S'2015-03-19 18:00:44'
p5200
sg10
S'no'
p5201
sg12
S'he2650.aridity'
p5202
sg14
I335
sg15
S'aridity'
p5203
sg17
S'CRU Metric of Mean Annual Aridity'
p5204
sg19
S'26'
p5205
sg21
S'he2650'
p5206
sg23
S'../views/GTiff/agclim.he2650.aridity.tif'
p5207
sg25
S'agclimate'
p5208
sg27
S'agclim.he2650.aridity'
p5209
sg29
S'6541'
p5210
sg31
S'CRU Metric of Mean Annual Aridity'
p5211
sg33
g34
sg35
g36
sg37
S'agclim.he2650.aridity.tif'
p5212
sg39
S'agclim'
p5213
sg41
g42
sg43
I4326
sg44
S'2050'
p5214
ssS'petmn'
p5215
(dp5216
g8
S'2015-03-19 18:00:44'
p5217
sg10
S'no'
p5218
sg12
S'he2650.petmn'
p5219
sg14
I307
sg15
S'petmn'
p5220
sg17
S'CRU Mean Annual Evapotranspiration'
p5221
sg19
S'26'
p5222
sg21
S'he2650'
p5223
sg23
S'../views/GTiff/agclim.he2650.petmn.tif'
p5224
sg25
S'agclimate'
p5225
sg27
S'agclim.he2650.petmn'
p5226
sg29
S'6542'
p5227
sg31
S'CRU Mean Annual Evapotranspiration'
p5228
sg33
g34
sg35
g36
sg37
S'agclim.he2650.petmn.tif'
p5229
sg39
S'agclim'
p5230
sg41
g42
sg43
I4326
sg44
S'2050'
p5231
sssS'current'
p5232
(dp5233
S'bio06'
p5234
(dp5235
g8
S'2015-03-19 18:00:44'
p5236
sg10
S'no'
p5237
sg12
S'current.bio06'
p5238
sg14
I38
sg15
S'bio06'
p5239
sg17
S'Min Temperature of Coldest Month'
p5240
sg19
S'current'
p5241
sg21
S'current'
p5242
sg23
S'../views/GTiff/agclim.current.bio06.tif'
p5243
sg25
S'agclimate'
p5244
sg27
S'agclim.current.bio06'
p5245
sg29
S'6513'
p5246
sg31
S'Min Temperature of Coldest Month'
p5247
sg33
g34
sg35
g36
sg37
S'agclim.current.bio06.tif'
p5248
sg39
S'agclim'
p5249
sg41
g42
sg43
I4326
sg44
S'current'
p5250
ssS'bio12'
p5251
(dp5252
g8
S'2015-03-19 18:00:44'
p5253
sg10
S'no'
p5254
sg12
S'current.bio12'
p5255
sg14
I338
sg15
S'bio12'
p5256
sg17
S'Annual Precipitation'
p5257
sg19
S'current'
p5258
sg21
S'current'
p5259
sg23
S'../views/GTiff/agclim.current.bio12.tif'
p5260
sg25
S'agclimate'
p5261
sg27
S'agclim.current.bio12'
p5262
sg29
S'6514'
p5263
sg31
S'Annual Precipitation'
p5264
sg33
g34
sg35
g36
sg37
S'agclim.current.bio12.tif'
p5265
sg39
S'agclim'
p5266
sg41
g42
sg43
I4326
sg44
S'current'
p5267
ssS'gdd5'
p5268
(dp5269
g8
S'2015-03-19 18:00:44'
p5270
sg10
S'no'
p5271
sg12
S'current.gdd5'
p5272
sg14
I33
sg15
S'gdd5'
p5273
sg17
S'Growing Degree Days 5C Baseline'
p5274
sg19
S'current'
p5275
sg21
g5232
sg23
S'../views/GTiff/agclim.current.gdd5.tif'
p5276
sg25
S'agclimate'
p5277
sg27
S'agclim.current.gdd5'
p5278
sg29
S'6515'
p5279
sg31
S'Growing Degree Days 5C Baseline'
p5280
sg33
g34
sg35
g36
sg37
S'agclim.current.gdd5.tif'
p5281
sg39
S'agclim'
p5282
sg41
g42
sg43
I4326
sg44
S'current'
p5283
ssS'aridity'
p5284
(dp5285
g8
S'2015-03-19 18:00:44'
p5286
sg10
S'no'
p5287
sg12
S'current.aridity'
p5288
sg14
I71
sg15
S'aridity'
p5289
sg17
S'CRU Metric of Mean Annual Aridity'
p5290
sg19
S'current'
p5291
sg21
S'current'
p5292
sg23
S'../views/GTiff/agclim.current.aridity.tif'
p5293
sg25
S'agclimate'
p5294
sg27
S'agclim.current.aridity'
p5295
sg29
S'6516'
p5296
sg31
S'CRU Metric of Mean Annual Aridity'
p5297
sg33
g34
sg35
g36
sg37
S'agclim.current.aridity.tif'
p5298
sg39
S'agclim'
p5299
sg41
g42
sg43
I4326
sg44
S'current'
p5300
ssS'petmn'
p5301
(dp5302
g8
S'2015-03-19 18:00:44'
p5303
sg10
S'no'
p5304
sg12
S'current.petmn'
p5305
sg14
I267
sg15
S'petmn'
p5306
sg17
S'CRU Mean Annual Evapotranspiration'
p5307
sg19
S'current'
p5308
sg21
S'current'
p5309
sg23
S'../views/GTiff/agclim.current.petmn.tif'
p5310
sg25
S'agclimate'
p5311
sg27
S'agclim.current.petmn'
p5312
sg29
S'6517'
p5313
sg31
S'CRU Mean Annual Evapotranspiration'
p5314
sg33
g34
sg35
g36
sg37
S'agclim.current.petmn.tif'
p5315
sg39
S'agclim'
p5316
sg41
g42
sg43
I4326
sg44
S'current'
p5317
sssS'he6050'
p5318
(dp5319
S'bio06'
p5320
(dp5321
g8
S'2015-03-19 18:00:44'
p5322
sg10
S'no'
p5323
sg12
S'he6050.bio06'
p5324
sg14
I173
sg15
S'bio06'
p5325
sg17
S'Min Temperature of Coldest Month'
p5326
sg19
S'60'
p5327
sg21
S'he6050'
p5328
sg23
S'../views/GTiff/agclim.he6050.bio06.tif'
p5329
sg25
S'agclimate'
p5330
sg27
S'agclim.he6050.bio06'
p5331
sg29
S'6518'
p5332
sg31
S'Min Temperature of Coldest Month'
p5333
sg33
g34
sg35
g36
sg37
S'agclim.he6050.bio06.tif'
p5334
sg39
S'agclim'
p5335
sg41
g42
sg43
I4326
sg44
S'2050'
p5336
ssS'bio12'
p5337
(dp5338
g8
S'2015-03-19 18:00:44'
p5339
sg10
S'no'
p5340
sg12
S'he6050.bio12'
p5341
sg14
I302
sg15
S'bio12'
p5342
sg17
S'Annual Precipitation'
p5343
sg19
S'60'
p5344
sg21
S'he6050'
p5345
sg23
S'../views/GTiff/agclim.he6050.bio12.tif'
p5346
sg25
S'agclimate'
p5347
sg27
S'agclim.he6050.bio12'
p5348
sg29
S'6519'
p5349
sg31
S'Annual Precipitation'
p5350
sg33
g34
sg35
g36
sg37
S'agclim.he6050.bio12.tif'
p5351
sg39
S'agclim'
p5352
sg41
g42
sg43
I4326
sg44
S'2050'
p5353
ssS'gdd5'
p5354
(dp5355
g8
S'2015-03-19 18:00:44'
p5356
sg10
S'no'
p5357
sg12
S'he6050.gdd5'
p5358
sg14
I152
sg15
S'gdd5'
p5359
sg17
S'Growing Degree Days 5C Baseline'
p5360
sg19
S'60'
p5361
sg21
S'he6050'
p5362
sg23
S'../views/GTiff/agclim.he6050.gdd5.tif'
p5363
sg25
S'agclimate'
p5364
sg27
S'agclim.he6050.gdd5'
p5365
sg29
S'6520'
p5366
sg31
S'Growing Degree Days 5C Baseline'
p5367
sg33
g34
sg35
g36
sg37
S'agclim.he6050.gdd5.tif'
p5368
sg39
S'agclim'
p5369
sg41
g42
sg43
I4326
sg44
S'2050'
p5370
ssS'aridity'
p5371
(dp5372
g8
S'2015-03-19 18:00:44'
p5373
sg10
S'no'
p5374
sg12
S'he6050.aridity'
p5375
sg14
I85
sg15
S'aridity'
p5376
sg17
S'CRU Metric of Mean Annual Aridity'
p5377
sg19
S'60'
p5378
sg21
g5318
sg23
S'../views/GTiff/agclim.he6050.aridity.tif'
p5379
sg25
S'agclimate'
p5380
sg27
S'agclim.he6050.aridity'
p5381
sg29
S'6521'
p5382
sg31
S'CRU Metric of Mean Annual Aridity'
p5383
sg33
g34
sg35
g36
sg37
S'agclim.he6050.aridity.tif'
p5384
sg39
S'agclim'
p5385
sg41
g42
sg43
I4326
sg44
S'2050'
p5386
ssS'petmn'
p5387
(dp5388
g8
S'2015-03-19 18:00:44'
p5389
sg10
S'no'
p5390
sg12
S'he6050.petmn'
p5391
sg14
I263
sg15
S'petmn'
p5392
sg17
S'CRU Mean Annual Evapotranspiration'
p5393
sg19
S'60'
p5394
sg21
S'he6050'
p5395
sg23
S'../views/GTiff/agclim.he6050.petmn.tif'
p5396
sg25
S'agclimate'
p5397
sg27
S'agclim.he6050.petmn'
p5398
sg29
S'6522'
p5399
sg31
S'CRU Mean Annual Evapotranspiration'
p5400
sg33
g34
sg35
g36
sg37
S'agclim.he6050.petmn.tif'
p5401
sg39
S'agclim'
p5402
sg41
g42
sg43
I4326
sg44
S'2050'
p5403
sssS'he4550'
p5404
(dp5405
S'bio06'
p5406
(dp5407
g8
S'2015-03-19 18:00:44'
p5408
sg10
S'no'
p5409
sg12
S'he4550.bio06'
p5410
sg14
I168
sg15
S'bio06'
p5411
sg17
S'Min Temperature of Coldest Month'
p5412
sg19
S'45'
p5413
sg21
S'he4550'
p5414
sg23
S'../views/GTiff/agclim.he4550.bio06.tif'
p5415
sg25
S'agclimate'
p5416
sg27
S'agclim.he4550.bio06'
p5417
sg29
S'6528'
p5418
sg31
S'Min Temperature of Coldest Month'
p5419
sg33
g34
sg35
g36
sg37
S'agclim.he4550.bio06.tif'
p5420
sg39
S'agclim'
p5421
sg41
g42
sg43
I4326
sg44
S'2050'
p5422
ssS'bio12'
p5423
(dp5424
g8
S'2015-03-19 18:00:44'
p5425
sg10
S'no'
p5426
sg12
S'he4550.bio12'
p5427
sg14
I78
sg15
S'bio12'
p5428
sg17
S'Annual Precipitation'
p5429
sg19
S'45'
p5430
sg21
g5404
sg23
S'../views/GTiff/agclim.he4550.bio12.tif'
p5431
sg25
S'agclimate'
p5432
sg27
S'agclim.he4550.bio12'
p5433
sg29
S'6529'
p5434
sg31
S'Annual Precipitation'
p5435
sg33
g34
sg35
g36
sg37
S'agclim.he4550.bio12.tif'
p5436
sg39
S'agclim'
p5437
sg41
g42
sg43
I4326
sg44
S'2050'
p5438
ssS'gdd5'
p5439
(dp5440
g8
S'2015-03-19 18:00:44'
p5441
sg10
S'no'
p5442
sg12
S'he4550.gdd5'
p5443
sg14
I218
sg15
S'gdd5'
p5444
sg17
S'Growing Degree Days 5C Baseline'
p5445
sg19
S'45'
p5446
sg21
S'he4550'
p5447
sg23
S'../views/GTiff/agclim.he4550.gdd5.tif'
p5448
sg25
S'agclimate'
p5449
sg27
S'agclim.he4550.gdd5'
p5450
sg29
S'6530'
p5451
sg31
S'Growing Degree Days 5C Baseline'
p5452
sg33
g34
sg35
g36
sg37
S'agclim.he4550.gdd5.tif'
p5453
sg39
S'agclim'
p5454
sg41
g42
sg43
I4326
sg44
S'2050'
p5455
ssS'aridity'
p5456
(dp5457
g8
S'2015-03-19 18:00:44'
p5458
sg10
S'no'
p5459
sg12
S'he4550.aridity'
p5460
sg14
I331
sg15
S'aridity'
p5461
sg17
S'CRU Metric of Mean Annual Aridity'
p5462
sg19
S'45'
p5463
sg21
S'he4550'
p5464
sg23
S'../views/GTiff/agclim.he4550.aridity.tif'
p5465
sg25
S'agclimate'
p5466
sg27
S'agclim.he4550.aridity'
p5467
sg29
S'6531'
p5468
sg31
S'CRU Metric of Mean Annual Aridity'
p5469
sg33
g34
sg35
g36
sg37
S'agclim.he4550.aridity.tif'
p5470
sg39
S'agclim'
p5471
sg41
g42
sg43
I4326
sg44
S'2050'
p5472
ssS'petmn'
p5473
(dp5474
g8
S'2015-03-19 18:00:44'
p5475
sg10
S'no'
p5476
sg12
S'he4550.petmn'
p5477
sg14
I166
sg15
S'petmn'
p5478
sg17
S'CRU Mean Annual Evapotranspiration'
p5479
sg19
S'45'
p5480
sg21
S'he4550'
p5481
sg23
S'../views/GTiff/agclim.he4550.petmn.tif'
p5482
sg25
S'agclimate'
p5483
sg27
S'agclim.he4550.petmn'
p5484
sg29
S'6532'
p5485
sg31
S'CRU Mean Annual Evapotranspiration'
p5486
sg33
g34
sg35
g36
sg37
S'agclim.he4550.petmn.tif'
p5487
sg39
S'agclim'
p5488
sg41
g42
sg43
I4326
sg44
S'2050'
p5489
sssS'he6070'
p5490
(dp5491
S'bio06'
p5492
(dp5493
g8
S'2015-03-19 18:00:44'
p5494
sg10
S'no'
p5495
sg12
S'he6070.bio06'
p5496
sg14
I9
sg15
S'bio06'
p5497
sg17
S'Min Temperature of Coldest Month'
p5498
sg19
S'60'
p5499
sg21
g5490
sg23
S'../views/GTiff/agclim.he6070.bio06.tif'
p5500
sg25
S'agclimate'
p5501
sg27
S'agclim.he6070.bio06'
p5502
sg29
S'6523'
p5503
sg31
S'Min Temperature of Coldest Month'
p5504
sg33
g34
sg35
g36
sg37
S'agclim.he6070.bio06.tif'
p5505
sg39
g4886
sg41
g42
sg43
I4326
sg44
S'2070'
p5506
ssS'bio12'
p5507
(dp5508
g8
S'2015-03-19 18:00:44'
p5509
sg10
S'no'
p5510
sg12
S'he6070.bio12'
p5511
sg14
I16
sg15
S'bio12'
p5512
sg17
S'Annual Precipitation'
p5513
sg19
S'60'
p5514
sg21
S'he6070'
p5515
sg23
S'../views/GTiff/agclim.he6070.bio12.tif'
p5516
sg25
S'agclimate'
p5517
sg27
S'agclim.he6070.bio12'
p5518
sg29
S'6524'
p5519
sg31
S'Annual Precipitation'
p5520
sg33
g34
sg35
g36
sg37
S'agclim.he6070.bio12.tif'
p5521
sg39
S'agclim'
p5522
sg41
g42
sg43
I4326
sg44
S'2070'
p5523
ssS'gdd5'
p5524
(dp5525
g8
S'2015-03-19 18:00:44'
p5526
sg10
S'no'
p5527
sg12
S'he6070.gdd5'
p5528
sg14
I254
sg15
S'gdd5'
p5529
sg17
S'Growing Degree Days 5C Baseline'
p5530
sg19
S'60'
p5531
sg21
S'he6070'
p5532
sg23
S'../views/GTiff/agclim.he6070.gdd5.tif'
p5533
sg25
S'agclimate'
p5534
sg27
S'agclim.he6070.gdd5'
p5535
sg29
S'6525'
p5536
sg31
S'Growing Degree Days 5C Baseline'
p5537
sg33
g34
sg35
g36
sg37
S'agclim.he6070.gdd5.tif'
p5538
sg39
S'agclim'
p5539
sg41
g42
sg43
I4326
sg44
S'2070'
p5540
ssS'aridity'
p5541
(dp5542
g8
S'2015-03-19 18:00:44'
p5543
sg10
S'no'
p5544
sg12
S'he6070.aridity'
p5545
sg14
I190
sg15
S'aridity'
p5546
sg17
S'CRU Metric of Mean Annual Aridity'
p5547
sg19
S'60'
p5548
sg21
S'he6070'
p5549
sg23
S'../views/GTiff/agclim.he6070.aridity.tif'
p5550
sg25
S'agclimate'
p5551
sg27
S'agclim.he6070.aridity'
p5552
sg29
S'6526'
p5553
sg31
S'CRU Metric of Mean Annual Aridity'
p5554
sg33
g34
sg35
g36
sg37
S'agclim.he6070.aridity.tif'
p5555
sg39
S'agclim'
p5556
sg41
g42
sg43
I4326
sg44
S'2070'
p5557
ssS'petmn'
p5558
(dp5559
g8
S'2015-03-19 18:00:44'
p5560
sg10
S'no'
p5561
sg12
S'he6070.petmn'
p5562
sg14
I183
sg15
S'petmn'
p5563
sg17
S'CRU Mean Annual Evapotranspiration'
p5564
sg19
S'60'
p5565
sg21
S'he6070'
p5566
sg23
S'../views/GTiff/agclim.he6070.petmn.tif'
p5567
sg25
S'agclimate'
p5568
sg27
S'agclim.he6070.petmn'
p5569
sg29
S'6527'
p5570
sg31
S'CRU Mean Annual Evapotranspiration'
p5571
sg33
g34
sg35
g36
sg37
S'agclim.he6070.petmn.tif'
p5572
sg39
S'agclim'
p5573
sg41
g42
sg43
I4326
sg44
S'2070'
p5574
sssS'he4570'
p5575
(dp5576
S'bio06'
p5577
(dp5578
g8
S'2015-03-19 18:00:44'
p5579
sg10
S'no'
p5580
sg12
S'he4570.bio06'
p5581
sg14
I279
sg15
S'bio06'
p5582
sg17
S'Min Temperature of Coldest Month'
p5583
sg19
S'45'
p5584
sg21
S'he4570'
p5585
sg23
S'../views/GTiff/agclim.he4570.bio06.tif'
p5586
sg25
S'agclimate'
p5587
sg27
S'agclim.he4570.bio06'
p5588
sg29
S'6533'
p5589
sg31
S'Min Temperature of Coldest Month'
p5590
sg33
g34
sg35
g36
sg37
S'agclim.he4570.bio06.tif'
p5591
sg39
S'agclim'
p5592
sg41
g42
sg43
I4326
sg44
S'2070'
p5593
ssS'bio12'
p5594
(dp5595
g8
S'2015-03-19 18:00:44'
p5596
sg10
S'no'
p5597
sg12
S'he4570.bio12'
p5598
sg14
I130
sg15
S'bio12'
p5599
sg17
S'Annual Precipitation'
p5600
sg19
S'45'
p5601
sg21
S'he4570'
p5602
sg23
S'../views/GTiff/agclim.he4570.bio12.tif'
p5603
sg25
S'agclimate'
p5604
sg27
S'agclim.he4570.bio12'
p5605
sg29
S'6534'
p5606
sg31
S'Annual Precipitation'
p5607
sg33
g34
sg35
g36
sg37
S'agclim.he4570.bio12.tif'
p5608
sg39
S'agclim'
p5609
sg41
g42
sg43
I4326
sg44
S'2070'
p5610
ssS'gdd5'
p5611
(dp5612
g8
S'2015-03-19 18:00:44'
p5613
sg10
S'no'
p5614
sg12
S'he4570.gdd5'
p5615
sg14
I319
sg15
S'gdd5'
p5616
sg17
S'Growing Degree Days 5C Baseline'
p5617
sg19
S'45'
p5618
sg21
S'he4570'
p5619
sg23
S'../views/GTiff/agclim.he4570.gdd5.tif'
p5620
sg25
S'agclimate'
p5621
sg27
S'agclim.he4570.gdd5'
p5622
sg29
S'6535'
p5623
sg31
S'Growing Degree Days 5C Baseline'
p5624
sg33
g34
sg35
g36
sg37
S'agclim.he4570.gdd5.tif'
p5625
sg39
S'agclim'
p5626
sg41
g42
sg43
I4326
sg44
S'2070'
p5627
ssS'aridity'
p5628
(dp5629
g8
S'2015-03-19 18:00:44'
p5630
sg10
S'no'
p5631
sg12
S'he4570.aridity'
p5632
sg14
I17
sg15
S'aridity'
p5633
sg17
S'CRU Metric of Mean Annual Aridity'
p5634
sg19
S'45'
p5635
sg21
g5575
sg23
S'../views/GTiff/agclim.he4570.aridity.tif'
p5636
sg25
S'agclimate'
p5637
sg27
S'agclim.he4570.aridity'
p5638
sg29
S'6536'
p5639
sg31
S'CRU Metric of Mean Annual Aridity'
p5640
sg33
g34
sg35
g36
sg37
S'agclim.he4570.aridity.tif'
p5641
sg39
S'agclim'
p5642
sg41
g42
sg43
I4326
sg44
S'2070'
p5643
ssS'petmn'
p5644
(dp5645
g8
S'2015-03-19 18:00:44'
p5646
sg10
S'no'
p5647
sg12
S'he4570.petmn'
p5648
sg14
I111
sg15
S'petmn'
p5649
sg17
S'CRU Mean Annual Evapotranspiration'
p5650
sg19
S'45'
p5651
sg21
S'he4570'
p5652
sg23
S'../views/GTiff/agclim.he4570.petmn.tif'
p5653
sg25
S'agclimate'
p5654
sg27
S'agclim.he4570.petmn'
p5655
sg29
S'6537'
p5656
sg31
S'CRU Mean Annual Evapotranspiration'
p5657
sg33
g34
sg35
g36
sg37
S'agclim.he4570.petmn.tif'
p5658
sg39
S'agclim'
p5659
sg41
g42
sg43
I4326
sg44
S'2070'
p5660
ssssS'spat'
p5661
(dp5662
S'svd'
p5663
(dp5664
S'pc2'
p5665
(dp5666
g8
S'2015-03-19 18:00:44'
p5667
sg10
S'no'
p5668
sg12
S'svd.pc2'
p5669
sg14
I126
sg15
S'pc2'
p5670
sg17
S'PC Axis 2 of Distance Matrix'
p5671
sg19
S'current'
p5672
sg21
S'svd'
p5673
sg23
S'../views/GTiff/spat.svd.pc2.tif'
p5674
sg25
S'spatial'
p5675
sg27
S'spat.svd.pc2'
p5676
sg29
S'6557'
p5677
sg31
S'PC Axis 2 of Distance Matrix spatial'
p5678
sg33
g34
sg35
g36
sg37
S'spat.svd.pc2.tif'
p5679
sg39
S'spat'
p5680
sg41
g42
sg43
I4326
sg44
S'current'
p5681
ssS'pc3'
p5682
(dp5683
g8
S'2015-03-19 18:00:44'
p5684
sg10
S'no'
p5685
sg12
S'svd.pc3'
p5686
sg14
I0
sg15
S'pc3'
p5687
sg17
S'PC Axis 3 of Distance Matrix'
p5688
sg19
S'current'
p5689
sg21
g5663
sg23
S'../views/GTiff/spat.svd.pc3.tif'
p5690
sg25
S'spatial'
p5691
sg27
S'spat.svd.pc3'
p5692
sg29
S'6558'
p5693
sg31
S'PC Axis 3 of Distance Matrix spatial'
p5694
sg33
g34
sg35
g36
sg37
S'spat.svd.pc3.tif'
p5695
sg39
g5661
sg41
g42
sg43
I4326
sg44
S'current'
p5696
ssS'pc1'
p5697
(dp5698
g8
S'2015-03-19 18:00:44'
p5699
sg10
S'no'
p5700
sg12
S'svd.pc1'
p5701
sg14
I226
sg15
S'pc1'
p5702
sg17
S'PC Axis 1 of Distance Matrix'
p5703
sg19
S'current'
p5704
sg21
S'svd'
p5705
sg23
S'../views/GTiff/spat.svd.pc1.tif'
p5706
sg25
S'spatial'
p5707
sg27
S'spat.svd.pc1'
p5708
sg29
S'6559'
p5709
sg31
S'PC Axis 1 of Distance Matrix spatial'
p5710
sg33
g34
sg35
g36
sg37
S'spat.svd.pc1.tif'
p5711
sg39
S'spat'
p5712
sg41
g42
sg43
I4326
sg44
S'current'
p5713
ssssS'env'
p5714
(dp5715
S'hwsd'
p5716
(dp5717
S't_gravel'
p5718
(dp5719
g8
S'2015-03-19 18:00:44'
p5720
sg10
S'no'
p5721
sg12
S'hwsd.t_gravel'
p5722
sg14
I290
sg15
S't_gravel'
p5723
sg17
S'HWSD topsoil gravel'
p5724
sg19
S'current'
p5725
sg21
S'hwsd'
p5726
sg23
S'../views/GTiff/env.hwsd.t_gravel.tif'
p5727
sg25
S'environmental'
p5728
sg27
S'env.hwsd.t_gravel'
p5729
sg29
S'6346'
p5730
sg31
S'Harmonized World Soil Database topsoil gravel (% vol.)'
p5731
sg33
g34
sg35
g36
sg37
S'env.hwsd.t_gravel.tif'
p5732
sg39
S'env'
p5733
sg41
g42
sg43
I4326
sg44
S'current'
p5734
ssS't_caco3'
p5735
(dp5736
g8
S'2015-03-19 18:00:44'
p5737
sg10
S'yes'
p5738
sg12
S'hwsd.t_caco3'
p5739
sg14
I320
sg15
S't_caco3'
p5740
sg17
S'HWSD topsoil CACO3'
p5741
sg19
S'current'
p5742
sg21
S'hwsd'
p5743
sg23
S'../views/GTiff/env.hwsd.t_caco3.tif'
p5744
sg25
S'environmental'
p5745
sg27
S'env.hwsd.t_caco3'
p5746
sg29
S'6349'
p5747
sg31
S'Harmonized World Soil Database topsoil CACO3 (% weight)'
p5748
sg33
g34
sg35
g36
sg37
S'env.hwsd.t_caco3.tif'
p5749
sg39
S'env'
p5750
sg41
g42
sg43
I4326
sg44
S'current'
p5751
ssS't_ph'
p5752
(dp5753
g8
S'2015-03-19 18:00:44'
p5754
sg10
S'no'
p5755
sg12
S'hwsd.t_ph'
p5756
sg14
I164
sg15
S't_ph'
p5757
sg17
S'HWSD topsoil pH'
p5758
sg19
S'current'
p5759
sg21
S'hwsd'
p5760
sg23
S'../views/GTiff/env.hwsd.t_ph.tif'
p5761
sg25
S'environmental'
p5762
sg27
S'env.hwsd.t_ph'
p5763
sg29
S'6348'
p5764
sg31
S'Harmonized World Soil Database topsoil pH (log[H+])'
p5765
sg33
g34
sg35
g36
sg37
S'env.hwsd.t_ph.tif'
p5766
sg39
S'env'
p5767
sg41
g42
sg43
I4326
sg44
S'current'
p5768
ssS't_sand'
p5769
(dp5770
g8
S'2015-03-19 18:00:44'
p5771
sg10
S'no'
p5772
sg12
S'hwsd.t_sand'
p5773
sg14
I270
sg15
S't_sand'
p5774
sg17
S'HWSD topsoil sand'
p5775
sg19
S'current'
p5776
sg21
S'hwsd'
p5777
sg23
S'../views/GTiff/env.hwsd.t_sand.tif'
p5778
sg25
S'environmental'
p5779
sg27
S'env.hwsd.t_sand'
p5780
sg29
S'6347'
p5781
sg31
S'Harmonized World Soil Database topsoil sand (% frac.)'
p5782
sg33
g34
sg35
g36
sg37
S'env.hwsd.t_sand.tif'
p5783
sg39
S'env'
p5784
sg41
g42
sg43
I4326
sg44
S'current'
p5785
ssS't_ece'
p5786
(dp5787
g8
S'2015-03-19 18:00:44'
p5788
sg10
S'no'
p5789
sg12
S'hwsd.t_ece'
p5790
sg14
I14
sg15
S't_ece'
p5791
sg17
S'HWSD topsoil ECE'
p5792
sg19
S'current'
p5793
sg21
S'hwsd'
p5794
sg23
S'../views/GTiff/env.hwsd.t_ece.tif'
p5795
sg25
S'environmental'
p5796
sg27
S'env.hwsd.t_ece'
p5797
sg29
S'6350'
p5798
sg31
S'Harmonized World Soil Database topsoil ECE (salinity dS/m)'
p5799
sg33
g34
sg35
g36
sg37
S'env.hwsd.t_ece.tif'
p5800
sg39
S'env'
p5801
sg41
g42
sg43
I4326
sg44
S'current'
p5802
ssS't_silt'
p5803
(dp5804
g8
S'2015-03-19 18:00:44'
p5805
sg10
S'no'
p5806
sg12
S'hwsd.t_silt'
p5807
sg14
I143
sg15
S't_silt'
p5808
sg17
S'HWSD topsoil silt'
p5809
sg19
S'current'
p5810
sg21
S'hwsd'
p5811
sg23
S'../views/GTiff/env.hwsd.t_silt.tif'
p5812
sg25
S'environmental'
p5813
sg27
S'env.hwsd.t_silt'
p5814
sg29
S'6351'
p5815
sg31
S'Harmonized World Soil Database topsoil silt (% frac.)'
p5816
sg33
g34
sg35
g36
sg37
S'env.hwsd.t_silt.tif'
p5817
sg39
S'env'
p5818
sg41
g42
sg43
I4326
sg44
S'current'
p5819
ssS't_clay'
p5820
(dp5821
g8
S'2015-03-19 18:00:44'
p5822
sg10
S'no'
p5823
sg12
S'hwsd.t_clay'
p5824
sg14
I100
sg15
S't_clay'
p5825
sg17
S'HWSD topsoil clay'
p5826
sg19
S'current'
p5827
sg21
S'hwsd'
p5828
sg23
S'../views/GTiff/env.hwsd.t_clay.tif'
p5829
sg25
S'environmental'
p5830
sg27
S'env.hwsd.t_clay'
p5831
sg29
S'6352'
p5832
sg31
S'Harmonized World Soil Database topsoil clay (% frac.)'
p5833
sg33
g34
sg35
g36
sg37
S'env.hwsd.t_clay.tif'
p5834
sg39
S'env'
p5835
sg41
g42
sg43
I4326
sg44
S'current'
p5836
ssS't_caso4'
p5837
(dp5838
g8
S'2015-03-19 18:00:44'
p5839
sg10
S'yes'
p5840
sg12
S'hwsd.t_caso4'
p5841
sg14
I10
sg15
S't_caso4'
p5842
sg17
S'HWSD topsoil CASO4'
p5843
sg19
S'current'
p5844
sg21
g5716
sg23
S'../views/GTiff/env.hwsd.t_caso4.tif'
p5845
sg25
S'environmental'
p5846
sg27
S'env.hwsd.t_caso4'
p5847
sg29
S'6353'
p5848
sg31
S'Harmonized World Soil Database topsoil CASO4 (% weight)'
p5849
sg33
g34
sg35
g36
sg37
S'env.hwsd.t_caso4.tif'
p5850
sg39
g5714
sg41
g42
sg43
I4326
sg44
S'current'
p5851
ssS't_cecsoil'
p5852
(dp5853
g8
S'2015-03-19 18:00:44'
p5854
sg10
S'yes'
p5855
sg12
S'hwsd.t_cecsoil'
p5856
sg14
I262
sg15
S't_cecsoil'
p5857
sg17
S'HWSD topsoil CECsoil'
p5858
sg19
S'current'
p5859
sg21
S'hwsd'
p5860
sg23
S'../views/GTiff/env.hwsd.t_cecsoil.tif'
p5861
sg25
S'environmental'
p5862
sg27
S'env.hwsd.t_cecsoil'
p5863
sg29
S'6354'
p5864
sg31
S'Harmonized World Soil Database topsoil CECsoil (cmol/kg)'
p5865
sg33
g34
sg35
g36
sg37
S'env.hwsd.t_cecsoil.tif'
p5866
sg39
S'env'
p5867
sg41
g42
sg43
I4326
sg44
S'current'
p5868
ssS't_oc'
p5869
(dp5870
g8
S'2015-03-19 18:00:44'
p5871
sg10
S'no'
p5872
sg12
S'hwsd.t_oc'
p5873
sg14
I343
sg15
S't_oc'
p5874
sg17
S'HWSD topsoil oc'
p5875
sg19
S'current'
p5876
sg21
S'hwsd'
p5877
sg23
S'../views/GTiff/env.hwsd.t_oc.tif'
p5878
sg25
S'environmental'
p5879
sg27
S'env.hwsd.t_oc'
p5880
sg29
S'6355'
p5881
sg31
S'Harmonized World Soil Database topsoil organic carbon (% weight)'
p5882
sg33
g34
sg35
g36
sg37
S'env.hwsd.t_oc.tif'
p5883
sg39
S'env'
p5884
sg41
g42
sg43
I4326
sg44
S'current'
p5885
sssS'gmted2010'
p5886
(dp5887
S'elev_mean'
p5888
(dp5889
g8
S'2015-03-19 18:00:44'
p5890
sg10
S'no'
p5891
sg12
S'gmted2010.elev_mean'
p5892
sg14
I104
sg15
S'elev_mean'
p5893
sg17
S'USGS GMTED2010 Mean Elevation'
p5894
sg19
S'current'
p5895
sg21
g5886
sg23
S'../views/GTiff/env.gmted2010.elev_mean.tif'
p5896
sg25
S'environmental'
p5897
sg27
S'env.gmted2010.elev_mean'
p5898
sg29
S'6345'
p5899
sg31
S'USGS GMTED2010 Mean Elevation'
p5900
sg33
g34
sg35
g36
sg37
S'env.gmted2010.elev_mean.tif'
p5901
sg39
S'env'
p5902
sg41
g42
sg43
I4326
sg44
S'current'
p5903
ssss.