(dp1
S'clim'
p2
(dp3
S'he8550'
p4
(dp5
S'bio10'
p6
(dp7
S'created_at'
p8
S'2015-03-18 20:48:21'
p9
sS'Correlated'
p10
S'yes'
p11
sS'envLayerType'
p12
S'he8550.bio10'
p13
sS'Name'
p14
I329
sS'typeCode'
p15
S'bio10'
p16
sS'typeCodeDescription'
p17
S'Mean Temperature of Warmest Quarter'
p18
sS'RCP'
p19
S'85'
p20
sS'bioclim'
p21
S'he8550'
p22
sS'filePath'
p23
S'../views/GTiff/clim.he8550.bio10.tif'
p24
sS'filterType'
p25
S'climate'
p26
sS'fullname'
p27
S'clim.he8550.bio10'
p28
sS'lyrID'
p29
S'6169'
p30
sS'layerDescription'
p31
S'Mean Temperature of Warmest Quarter HE RCP85 2050'
p32
sS'dataFormat'
p33
S'GTiff'
p34
sS'units'
p35
S'dd'
p36
sS'title'
p37
S'clim.he8550.bio10.tif'
p38
sS'model'
p39
S'clim'
p40
sS'resolution'
p41
S'30'
p42
sS'epsgCode'
p43
I4326
sS'projectionDate'
p44
S'2050'
p45
ssS'bio16'
p46
(dp47
g8
S'2015-03-18 20:48:21'
p48
sg10
S'yes'
p49
sg12
S'he8550.bio16'
p50
sg14
I262
sg15
S'bio16'
p51
sg17
S'Precipitation of Wettest Quarter'
p52
sg19
S'85'
p53
sg21
S'he8550'
p54
sg23
S'../views/GTiff/clim.he8550.bio16.tif'
p55
sg25
S'climate'
p56
sg27
S'clim.he8550.bio16'
p57
sg29
S'6173'
p58
sg31
S'Precipitation of Wettest Quarter HE RCP85 2050'
p59
sg33
g34
sg35
g36
sg37
S'clim.he8550.bio16.tif'
p60
sg39
S'clim'
p61
sg41
g42
sg43
I4326
sg44
S'2050'
p62
ssS'bio06'
p63
(dp64
g8
S'2015-03-18 20:48:21'
p65
sg10
S'yes'
p66
sg12
S'he8550.bio06'
p67
sg14
I233
sg15
S'bio06'
p68
sg17
S'Min Temperature of Coldest Month'
p69
sg19
S'85'
p70
sg21
S'he8550'
p71
sg23
S'../views/GTiff/clim.he8550.bio06.tif'
p72
sg25
S'climate'
p73
sg27
S'clim.he8550.bio06'
p74
sg29
S'6177'
p75
sg31
S'Min Temperature of Coldest Month HE RCP85 2050'
p76
sg33
g34
sg35
g36
sg37
S'clim.he8550.bio06.tif'
p77
sg39
S'clim'
p78
sg41
g42
sg43
I4326
sg44
S'2050'
p79
ssS'bio17'
p80
(dp81
g8
S'2015-03-18 20:48:21'
p82
sg10
S'yes'
p83
sg12
S'he8550.bio17'
p84
sg14
I234
sg15
S'bio17'
p85
sg17
S'Precipitation of Driest Quarter'
p86
sg19
S'85'
p87
sg21
S'he8550'
p88
sg23
S'../views/GTiff/clim.he8550.bio17.tif'
p89
sg25
S'climate'
p90
sg27
S'clim.he8550.bio17'
p91
sg29
S'6183'
p92
sg31
S'Precipitation of Driest Quarter HE RCP85 2050'
p93
sg33
g34
sg35
g36
sg37
S'clim.he8550.bio17.tif'
p94
sg39
S'clim'
p95
sg41
g42
sg43
I4326
sg44
S'2050'
p96
ssS'bio15'
p97
(dp98
g8
S'2015-03-18 20:48:21'
p99
sg10
S'no'
p100
sg12
S'he8550.bio15'
p101
sg14
I342
sg15
S'bio15'
p102
sg17
S'Precipitation Seasonality (Coefficient of Variation)'
p103
sg19
S'85'
p104
sg21
S'he8550'
p105
sg23
S'../views/GTiff/clim.he8550.bio15.tif'
p106
sg25
S'climate'
p107
sg27
S'clim.he8550.bio15'
p108
sg29
S'6174'
p109
sg31
S'Precipitation Seasonality (Coefficient of Variation) HE RCP85 2050'
p110
sg33
g34
sg35
g36
sg37
S'clim.he8550.bio15.tif'
p111
sg39
S'clim'
p112
sg41
g42
sg43
I4326
sg44
S'2050'
p113
ssS'bio05'
p114
(dp115
g8
S'2015-03-18 20:48:21'
p116
sg10
S'yes'
p117
sg12
S'he8550.bio05'
p118
sg14
I341
sg15
S'bio05'
p119
sg17
S'Max Temperature of Warmest Month'
p120
sg19
S'85'
p121
sg21
S'he8550'
p122
sg23
S'../views/GTiff/clim.he8550.bio05.tif'
p123
sg25
S'climate'
p124
sg27
S'clim.he8550.bio05'
p125
sg29
S'6178'
p126
sg31
S'Max Temperature of Warmest Month HE RCP85 2050'
p127
sg33
g34
sg35
g36
sg37
S'clim.he8550.bio05.tif'
p128
sg39
S'clim'
p129
sg41
g42
sg43
I4326
sg44
S'2050'
p130
ssS'bio07'
p131
(dp132
g8
S'2015-03-18 20:48:21'
p133
sg10
S'no'
p134
sg12
S'he8550.bio07'
p135
sg14
I286
sg15
S'bio07'
p136
sg17
S'Temperature Annual Range (BIO5-BIO6)'
p137
sg19
S'85'
p138
sg21
S'he8550'
p139
sg23
S'../views/GTiff/clim.he8550.bio07.tif'
p140
sg25
S'climate'
p141
sg27
S'clim.he8550.bio07'
p142
sg29
S'6176'
p143
sg31
S'Temperature Annual Range (BIO5-BIO6) HE RCP85 2050'
p144
sg33
g34
sg35
g36
sg37
S'clim.he8550.bio07.tif'
p145
sg39
S'clim'
p146
sg41
g42
sg43
I4326
sg44
S'2050'
p147
ssS'bio11'
p148
(dp149
g8
S'2015-03-18 20:48:21'
p150
sg10
S'yes'
p151
sg12
S'he8550.bio11'
p152
sg14
I227
sg15
S'bio11'
p153
sg17
S'Mean Temperature of Coldest Quarter'
p154
sg19
S'85'
p155
sg21
S'he8550'
p156
sg23
S'../views/GTiff/clim.he8550.bio11.tif'
p157
sg25
S'climate'
p158
sg27
S'clim.he8550.bio11'
p159
sg29
S'6172'
p160
sg31
S'Mean Temperature of Coldest Quarter HE RCP85 2050'
p161
sg33
g34
sg35
g36
sg37
S'clim.he8550.bio11.tif'
p162
sg39
S'clim'
p163
sg41
g42
sg43
I4326
sg44
S'2050'
p164
ssS'bio12'
p165
(dp166
g8
S'2015-03-18 20:48:21'
p167
sg10
S'no'
p168
sg12
S'he8550.bio12'
p169
sg14
I161
sg15
S'bio12'
p170
sg17
S'Annual Precipitation'
p171
sg19
S'85'
p172
sg21
S'he8550'
p173
sg23
S'../views/GTiff/clim.he8550.bio12.tif'
p174
sg25
S'climate'
p175
sg27
S'clim.he8550.bio12'
p176
sg29
S'6175'
p177
sg31
S'Annual Precipitation HE RCP85 2050'
p178
sg33
g34
sg35
g36
sg37
S'clim.he8550.bio12.tif'
p179
sg39
S'clim'
p180
sg41
g42
sg43
I4326
sg44
S'2050'
p181
ssS'bio13'
p182
(dp183
g8
S'2015-03-18 20:48:21'
p184
sg10
S'yes'
p185
sg12
S'he8550.bio13'
p186
sg14
I148
sg15
S'bio13'
p187
sg17
S'Precipitation of Wettest Month'
p188
sg19
S'85'
p189
sg21
S'he8550'
p190
sg23
S'../views/GTiff/clim.he8550.bio13.tif'
p191
sg25
S'climate'
p192
sg27
S'clim.he8550.bio13'
p193
sg29
S'6171'
p194
sg31
S'Precipitation of Wettest Month HE RCP85 2050'
p195
sg33
g34
sg35
g36
sg37
S'clim.he8550.bio13.tif'
p196
sg39
S'clim'
p197
sg41
g42
sg43
I4326
sg44
S'2050'
p198
ssS'bio03'
p199
(dp200
g8
S'2015-03-18 20:48:21'
p201
sg10
S'yes'
p202
sg12
S'he8550.bio03'
p203
sg14
I113
sg15
S'bio03'
p204
sg17
S'Isothermality (BIO2/BIO7) (* 100)'
p205
sg19
S'85'
p206
sg21
S'he8550'
p207
sg23
S'../views/GTiff/clim.he8550.bio03.tif'
p208
sg25
S'climate'
p209
sg27
S'clim.he8550.bio03'
p210
sg29
S'6180'
p211
sg31
S'Isothermality (BIO2/BIO7) (* 100) HE RCP85 2050'
p212
sg33
g34
sg35
g36
sg37
S'clim.he8550.bio03.tif'
p213
sg39
S'clim'
p214
sg41
g42
sg43
I4326
sg44
S'2050'
p215
ssS'bio02'
p216
(dp217
g8
S'2015-03-18 20:48:21'
p218
sg10
S'yes'
p219
sg12
S'he8550.bio02'
p220
sg14
I109
sg15
S'bio02'
p221
sg17
S'Mean Diurnal Range (Mean of monthly (max temp - min temp))'
p222
sg19
S'85'
p223
sg21
S'he8550'
p224
sg23
S'../views/GTiff/clim.he8550.bio02.tif'
p225
sg25
S'climate'
p226
sg27
S'clim.he8550.bio02'
p227
sg29
S'6181'
p228
sg31
S'Mean Diurnal Range (Mean of monthly (max temp - min temp)) HE RCP85 2050'
p229
sg33
g34
sg35
g36
sg37
S'clim.he8550.bio02.tif'
p230
sg39
S'clim'
p231
sg41
g42
sg43
I4326
sg44
S'2050'
p232
ssS'bio01'
p233
(dp234
g8
S'2015-03-18 20:48:21'
p235
sg10
S'no'
p236
sg12
S'he8550.bio01'
p237
sg14
I4
sg15
S'bio01'
p238
sg17
S'Annual Mean Temperature'
p239
sg19
S'85'
p240
sg21
g4
sg23
S'../views/GTiff/clim.he8550.bio01.tif'
p241
sg25
S'climate'
p242
sg27
S'clim.he8550.bio01'
p243
sg29
S'6182'
p244
sg31
S'Annual Mean Temperature HE RCP85 2050'
p245
sg33
g34
sg35
g36
sg37
S'clim.he8550.bio01.tif'
p246
sg39
S'clim'
p247
sg41
g42
sg43
I4326
sg44
S'2050'
p248
ssS'bio19'
p249
(dp250
g8
S'2015-03-18 20:48:21'
p251
sg10
S'yes'
p252
sg12
S'he8550.bio19'
p253
sg14
I143
sg15
S'bio19'
p254
sg17
S'Precipitation of Coldest Quarter'
p255
sg19
S'85'
p256
sg21
S'he8550'
p257
sg23
S'../views/GTiff/clim.he8550.bio19.tif'
p258
sg25
S'climate'
p259
sg27
S'clim.he8550.bio19'
p260
sg29
S'6170'
p261
sg31
S'Precipitation of Coldest Quarter HE RCP85 2050'
p262
sg33
g34
sg35
g36
sg37
S'clim.he8550.bio19.tif'
p263
sg39
S'clim'
p264
sg41
g42
sg43
I4326
sg44
S'2050'
p265
ssS'bio18'
p266
(dp267
g8
S'2015-03-18 20:48:21'
p268
sg10
S'no'
p269
sg12
S'he8550.bio18'
p270
sg14
I126
sg15
S'bio18'
p271
sg17
S'Precipitation of Warmest Quarter'
p272
sg19
S'85'
p273
sg21
S'he8550'
p274
sg23
S'../views/GTiff/clim.he8550.bio18.tif'
p275
sg25
S'climate'
p276
sg27
S'clim.he8550.bio18'
p277
sg29
S'6184'
p278
sg31
S'Precipitation of Warmest Quarter HE RCP85 2050'
p279
sg33
g34
sg35
g36
sg37
S'clim.he8550.bio18.tif'
p280
sg39
S'clim'
p281
sg41
g42
sg43
I4326
sg44
S'2050'
p282
ssS'bio14'
p283
(dp284
g8
S'2015-03-18 20:48:21'
p285
sg10
S'yes'
p286
sg12
S'he8550.bio14'
p287
sg14
I80
sg15
S'bio14'
p288
sg17
S'Precipitation of Driest Month'
p289
sg19
S'85'
p290
sg21
S'he8550'
p291
sg23
S'../views/GTiff/clim.he8550.bio14.tif'
p292
sg25
S'climate'
p293
sg27
S'clim.he8550.bio14'
p294
sg29
S'6185'
p295
sg31
S'Precipitation of Driest Month HE RCP85 2050'
p296
sg33
g34
sg35
g36
sg37
S'clim.he8550.bio14.tif'
p297
sg39
S'clim'
p298
sg41
g42
sg43
I4326
sg44
S'2050'
p299
ssS'bio04'
p300
(dp301
g8
S'2015-03-18 20:48:21'
p302
sg10
S'yes'
p303
sg12
S'he8550.bio04'
p304
sg14
I174
sg15
S'bio04'
p305
sg17
S'Temperature Seasonality (standard deviation *100)'
p306
sg19
S'85'
p307
sg21
S'he8550'
p308
sg23
S'../views/GTiff/clim.he8550.bio04.tif'
p309
sg25
S'climate'
p310
sg27
S'clim.he8550.bio04'
p311
sg29
S'6179'
p312
sg31
S'Temperature Seasonality (standard deviation *100) HE RCP85 2050'
p313
sg33
g34
sg35
g36
sg37
S'clim.he8550.bio04.tif'
p314
sg39
S'clim'
p315
sg41
g42
sg43
I4326
sg44
S'2050'
p316
ssS'bio09'
p317
(dp318
g8
S'2015-03-18 20:48:21'
p319
sg10
S'yes'
p320
sg12
S'he8550.bio09'
p321
sg14
I102
sg15
S'bio09'
p322
sg17
S'Mean Temperature of Driest Quarter'
p323
sg19
S'85'
p324
sg21
S'he8550'
p325
sg23
S'../views/GTiff/clim.he8550.bio09.tif'
p326
sg25
S'climate'
p327
sg27
S'clim.he8550.bio09'
p328
sg29
S'6186'
p329
sg31
S'Mean Temperature of Driest Quarter HE RCP85 2050'
p330
sg33
g34
sg35
g36
sg37
S'clim.he8550.bio09.tif'
p331
sg39
S'clim'
p332
sg41
g42
sg43
I4326
sg44
S'2050'
p333
ssS'bio08'
p334
(dp335
g8
S'2015-03-18 20:48:21'
p336
sg10
S'no'
p337
sg12
S'he8550.bio08'
p338
sg14
I245
sg15
S'bio08'
p339
sg17
S'Mean Temperature of Wettest Quarter'
p340
sg19
S'85'
p341
sg21
S'he8550'
p342
sg23
S'../views/GTiff/clim.he8550.bio08.tif'
p343
sg25
S'climate'
p344
sg27
S'clim.he8550.bio08'
p345
sg29
S'6187'
p346
sg31
S'Mean Temperature of Wettest Quarter HE RCP85 2050'
p347
sg33
g34
sg35
g36
sg37
S'clim.he8550.bio08.tif'
p348
sg39
S'clim'
p349
sg41
g42
sg43
I4326
sg44
S'2050'
p350
sssS'he2670'
p351
(dp352
S'bio10'
p353
(dp354
g8
S'2015-03-18 20:48:21'
p355
sg10
S'yes'
p356
sg12
S'he2670.bio10'
p357
sg14
I116
sg15
S'bio10'
p358
sg17
S'Mean Temperature of Warmest Quarter'
p359
sg19
S'26'
p360
sg21
S'he2670'
p361
sg23
S'../views/GTiff/clim.he2670.bio10.tif'
p362
sg25
S'climate'
p363
sg27
S'clim.he2670.bio10'
p364
sg29
S'6147'
p365
sg31
S'Mean Temperature of Warmest Quarter HE RCP26 2070'
p366
sg33
g34
sg35
g36
sg37
S'clim.he2670.bio10.tif'
p367
sg39
S'clim'
p368
sg41
g42
sg43
I4326
sg44
S'2070'
p369
ssS'bio01'
p370
(dp371
g8
S'2015-03-18 20:48:21'
p372
sg10
S'no'
p373
sg12
S'he2670.bio01'
p374
sg14
I305
sg15
S'bio01'
p375
sg17
S'Annual Mean Temperature'
p376
sg19
S'26'
p377
sg21
S'he2670'
p378
sg23
S'../views/GTiff/clim.he2670.bio01.tif'
p379
sg25
S'climate'
p380
sg27
S'clim.he2670.bio01'
p381
sg29
S'6160'
p382
sg31
S'Annual Mean Temperature HE RCP26 2070'
p383
sg33
g34
sg35
g36
sg37
S'clim.he2670.bio01.tif'
p384
sg39
S'clim'
p385
sg41
g42
sg43
I4326
sg44
S'2070'
p386
ssS'bio11'
p387
(dp388
g8
S'2015-03-18 20:48:21'
p389
sg10
S'yes'
p390
sg12
S'he2670.bio11'
p391
sg14
I338
sg15
S'bio11'
p392
sg17
S'Mean Temperature of Coldest Quarter'
p393
sg19
S'26'
p394
sg21
S'he2670'
p395
sg23
S'../views/GTiff/clim.he2670.bio11.tif'
p396
sg25
S'climate'
p397
sg27
S'clim.he2670.bio11'
p398
sg29
S'6150'
p399
sg31
S'Mean Temperature of Coldest Quarter HE RCP26 2070'
p400
sg33
g34
sg35
g36
sg37
S'clim.he2670.bio11.tif'
p401
sg39
S'clim'
p402
sg41
g42
sg43
I4326
sg44
S'2070'
p403
ssS'bio15'
p404
(dp405
g8
S'2015-03-18 20:48:21'
p406
sg10
S'no'
p407
sg12
S'he2670.bio15'
p408
sg14
I317
sg15
S'bio15'
p409
sg17
S'Precipitation Seasonality (Coefficient of Variation)'
p410
sg19
S'26'
p411
sg21
S'he2670'
p412
sg23
S'../views/GTiff/clim.he2670.bio15.tif'
p413
sg25
S'climate'
p414
sg27
S'clim.he2670.bio15'
p415
sg29
S'6152'
p416
sg31
S'Precipitation Seasonality (Coefficient of Variation) HE RCP26 2070'
p417
sg33
g34
sg35
g36
sg37
S'clim.he2670.bio15.tif'
p418
sg39
S'clim'
p419
sg41
g42
sg43
I4326
sg44
S'2070'
p420
ssS'bio12'
p421
(dp422
g8
S'2015-03-18 20:48:21'
p423
sg10
S'no'
p424
sg12
S'he2670.bio12'
p425
sg14
I287
sg15
S'bio12'
p426
sg17
S'Annual Precipitation'
p427
sg19
S'26'
p428
sg21
S'he2670'
p429
sg23
S'../views/GTiff/clim.he2670.bio12.tif'
p430
sg25
S'climate'
p431
sg27
S'clim.he2670.bio12'
p432
sg29
S'6153'
p433
sg31
S'Annual Precipitation HE RCP26 2070'
p434
sg33
g34
sg35
g36
sg37
S'clim.he2670.bio12.tif'
p435
sg39
S'clim'
p436
sg41
g42
sg43
I4326
sg44
S'2070'
p437
ssS'bio07'
p438
(dp439
g8
S'2015-03-18 20:48:21'
p440
sg10
S'no'
p441
sg12
S'he2670.bio07'
p442
sg14
I94
sg15
S'bio07'
p443
sg17
S'Temperature Annual Range (BIO5-BIO6)'
p444
sg19
S'26'
p445
sg21
S'he2670'
p446
sg23
S'../views/GTiff/clim.he2670.bio07.tif'
p447
sg25
S'climate'
p448
sg27
S'clim.he2670.bio07'
p449
sg29
S'6154'
p450
sg31
S'Temperature Annual Range (BIO5-BIO6) HE RCP26 2070'
p451
sg33
g34
sg35
g36
sg37
S'clim.he2670.bio07.tif'
p452
sg39
S'clim'
p453
sg41
g42
sg43
I4326
sg44
S'2070'
p454
ssS'bio06'
p455
(dp456
g8
S'2015-03-18 20:48:21'
p457
sg10
S'yes'
p458
sg12
S'he2670.bio06'
p459
sg14
I332
sg15
S'bio06'
p460
sg17
S'Min Temperature of Coldest Month'
p461
sg19
S'26'
p462
sg21
S'he2670'
p463
sg23
S'../views/GTiff/clim.he2670.bio06.tif'
p464
sg25
S'climate'
p465
sg27
S'clim.he2670.bio06'
p466
sg29
S'6155'
p467
sg31
S'Min Temperature of Coldest Month HE RCP26 2070'
p468
sg33
g34
sg35
g36
sg37
S'clim.he2670.bio06.tif'
p469
sg39
S'clim'
p470
sg41
g42
sg43
I4326
sg44
S'2070'
p471
ssS'bio05'
p472
(dp473
g8
S'2015-03-18 20:48:21'
p474
sg10
S'yes'
p475
sg12
S'he2670.bio05'
p476
sg14
I255
sg15
S'bio05'
p477
sg17
S'Max Temperature of Warmest Month'
p478
sg19
S'26'
p479
sg21
S'he2670'
p480
sg23
S'../views/GTiff/clim.he2670.bio05.tif'
p481
sg25
S'climate'
p482
sg27
S'clim.he2670.bio05'
p483
sg29
S'6156'
p484
sg31
S'Max Temperature of Warmest Month HE RCP26 2070'
p485
sg33
g34
sg35
g36
sg37
S'clim.he2670.bio05.tif'
p486
sg39
S'clim'
p487
sg41
g42
sg43
I4326
sg44
S'2070'
p488
ssS'bio13'
p489
(dp490
g8
S'2015-03-18 20:48:21'
p491
sg10
S'yes'
p492
sg12
S'he2670.bio13'
p493
sg14
I242
sg15
S'bio13'
p494
sg17
S'Precipitation of Wettest Month'
p495
sg19
S'26'
p496
sg21
S'he2670'
p497
sg23
S'../views/GTiff/clim.he2670.bio13.tif'
p498
sg25
S'climate'
p499
sg27
S'clim.he2670.bio13'
p500
sg29
S'6149'
p501
sg31
S'Precipitation of Wettest Month HE RCP26 2070'
p502
sg33
g34
sg35
g36
sg37
S'clim.he2670.bio13.tif'
p503
sg39
S'clim'
p504
sg41
g42
sg43
I4326
sg44
S'2070'
p505
ssS'bio14'
p506
(dp507
g8
S'2015-03-18 20:48:21'
p508
sg10
S'yes'
p509
sg12
S'he2670.bio14'
p510
sg14
I75
sg15
S'bio14'
p511
sg17
S'Precipitation of Driest Month'
p512
sg19
S'26'
p513
sg21
S'he2670'
p514
sg23
S'../views/GTiff/clim.he2670.bio14.tif'
p515
sg25
S'climate'
p516
sg27
S'clim.he2670.bio14'
p517
sg29
S'6163'
p518
sg31
S'Precipitation of Driest Month HE RCP26 2070'
p519
sg33
g34
sg35
g36
sg37
S'clim.he2670.bio14.tif'
p520
sg39
S'clim'
p521
sg41
g42
sg43
I4326
sg44
S'2070'
p522
ssS'bio02'
p523
(dp524
g8
S'2015-03-18 20:48:21'
p525
sg10
S'yes'
p526
sg12
S'he2670.bio02'
p527
sg14
I62
sg15
S'bio02'
p528
sg17
S'Mean Diurnal Range (Mean of monthly (max temp - min temp))'
p529
sg19
S'26'
p530
sg21
S'he2670'
p531
sg23
S'../views/GTiff/clim.he2670.bio02.tif'
p532
sg25
S'climate'
p533
sg27
S'clim.he2670.bio02'
p534
sg29
S'6159'
p535
sg31
S'Mean Diurnal Range (Mean of monthly (max temp - min temp)) HE RCP26 2070'
p536
sg33
g34
sg35
g36
sg37
S'clim.he2670.bio02.tif'
p537
sg39
S'clim'
p538
sg41
g42
sg43
I4326
sg44
S'2070'
p539
ssS'bio16'
p540
(dp541
g8
S'2015-03-18 20:48:21'
p542
sg10
S'yes'
p543
sg12
S'he2670.bio16'
p544
sg14
I294
sg15
S'bio16'
p545
sg17
S'Precipitation of Wettest Quarter'
p546
sg19
S'26'
p547
sg21
S'he2670'
p548
sg23
S'../views/GTiff/clim.he2670.bio16.tif'
p549
sg25
S'climate'
p550
sg27
S'clim.he2670.bio16'
p551
sg29
S'6151'
p552
sg31
S'Precipitation of Wettest Quarter HE RCP26 2070'
p553
sg33
g34
sg35
g36
sg37
S'clim.he2670.bio16.tif'
p554
sg39
S'clim'
p555
sg41
g42
sg43
I4326
sg44
S'2070'
p556
ssS'bio17'
p557
(dp558
g8
S'2015-03-18 20:48:21'
p559
sg10
S'yes'
p560
sg12
S'he2670.bio17'
p561
sg14
I314
sg15
S'bio17'
p562
sg17
S'Precipitation of Driest Quarter'
p563
sg19
S'26'
p564
sg21
S'he2670'
p565
sg23
S'../views/GTiff/clim.he2670.bio17.tif'
p566
sg25
S'climate'
p567
sg27
S'clim.he2670.bio17'
p568
sg29
S'6161'
p569
sg31
S'Precipitation of Driest Quarter HE RCP26 2070'
p570
sg33
g34
sg35
g36
sg37
S'clim.he2670.bio17.tif'
p571
sg39
S'clim'
p572
sg41
g42
sg43
I4326
sg44
S'2070'
p573
ssS'bio18'
p574
(dp575
g8
S'2015-03-18 20:48:21'
p576
sg10
S'no'
p577
sg12
S'he2670.bio18'
p578
sg14
I300
sg15
S'bio18'
p579
sg17
S'Precipitation of Warmest Quarter'
p580
sg19
S'26'
p581
sg21
S'he2670'
p582
sg23
S'../views/GTiff/clim.he2670.bio18.tif'
p583
sg25
S'climate'
p584
sg27
S'clim.he2670.bio18'
p585
sg29
S'6162'
p586
sg31
S'Precipitation of Warmest Quarter HE RCP26 2070'
p587
sg33
g34
sg35
g36
sg37
S'clim.he2670.bio18.tif'
p588
sg39
S'clim'
p589
sg41
g42
sg43
I4326
sg44
S'2070'
p590
ssS'bio19'
p591
(dp592
g8
S'2015-03-18 20:48:21'
p593
sg10
S'yes'
p594
sg12
S'he2670.bio19'
p595
sg14
I110
sg15
S'bio19'
p596
sg17
S'Precipitation of Coldest Quarter'
p597
sg19
S'26'
p598
sg21
S'he2670'
p599
sg23
S'../views/GTiff/clim.he2670.bio19.tif'
p600
sg25
S'climate'
p601
sg27
S'clim.he2670.bio19'
p602
sg29
S'6148'
p603
sg31
S'Precipitation of Coldest Quarter HE RCP26 2070'
p604
sg33
g34
sg35
g36
sg37
S'clim.he2670.bio19.tif'
p605
sg39
S'clim'
p606
sg41
g42
sg43
I4326
sg44
S'2070'
p607
ssS'bio04'
p608
(dp609
g8
S'2015-03-18 20:48:21'
p610
sg10
S'yes'
p611
sg12
S'he2670.bio04'
p612
sg14
I335
sg15
S'bio04'
p613
sg17
S'Temperature Seasonality (standard deviation *100)'
p614
sg19
S'26'
p615
sg21
S'he2670'
p616
sg23
S'../views/GTiff/clim.he2670.bio04.tif'
p617
sg25
S'climate'
p618
sg27
S'clim.he2670.bio04'
p619
sg29
S'6157'
p620
sg31
S'Temperature Seasonality (standard deviation *100) HE RCP26 2070'
p621
sg33
g34
sg35
g36
sg37
S'clim.he2670.bio04.tif'
p622
sg39
S'clim'
p623
sg41
g42
sg43
I4326
sg44
S'2070'
p624
ssS'bio03'
p625
(dp626
g8
S'2015-03-18 20:48:21'
p627
sg10
S'yes'
p628
sg12
S'he2670.bio03'
p629
sg14
I133
sg15
S'bio03'
p630
sg17
S'Isothermality (BIO2/BIO7) (* 100)'
p631
sg19
S'26'
p632
sg21
S'he2670'
p633
sg23
S'../views/GTiff/clim.he2670.bio03.tif'
p634
sg25
S'climate'
p635
sg27
S'clim.he2670.bio03'
p636
sg29
S'6158'
p637
sg31
S'Isothermality (BIO2/BIO7) (* 100) HE RCP26 2070'
p638
sg33
g34
sg35
g36
sg37
S'clim.he2670.bio03.tif'
p639
sg39
S'clim'
p640
sg41
g42
sg43
I4326
sg44
S'2070'
p641
ssS'bio09'
p642
(dp643
g8
S'2015-03-18 20:48:21'
p644
sg10
S'yes'
p645
sg12
S'he2670.bio09'
p646
sg14
I11
sg15
S'bio09'
p647
sg17
S'Mean Temperature of Driest Quarter'
p648
sg19
S'26'
p649
sg21
g351
sg23
S'../views/GTiff/clim.he2670.bio09.tif'
p650
sg25
S'climate'
p651
sg27
S'clim.he2670.bio09'
p652
sg29
S'6164'
p653
sg31
S'Mean Temperature of Driest Quarter HE RCP26 2070'
p654
sg33
g34
sg35
g36
sg37
S'clim.he2670.bio09.tif'
p655
sg39
S'clim'
p656
sg41
g42
sg43
I4326
sg44
S'2070'
p657
ssS'bio08'
p658
(dp659
g8
S'2015-03-18 20:48:21'
p660
sg10
S'no'
p661
sg12
S'he2670.bio08'
p662
sg14
I118
sg15
S'bio08'
p663
sg17
S'Mean Temperature of Wettest Quarter'
p664
sg19
S'26'
p665
sg21
S'he2670'
p666
sg23
S'../views/GTiff/clim.he2670.bio08.tif'
p667
sg25
S'climate'
p668
sg27
S'clim.he2670.bio08'
p669
sg29
S'6165'
p670
sg31
S'Mean Temperature of Wettest Quarter HE RCP26 2070'
p671
sg33
g34
sg35
g36
sg37
S'clim.he2670.bio08.tif'
p672
sg39
S'clim'
p673
sg41
g42
sg43
I4326
sg44
S'2070'
p674
sssS'ac4550'
p675
(dp676
S'bio10'
p677
(dp678
g8
S'2015-03-18 20:48:21'
p679
sg10
S'yes'
p680
sg12
S'ac4550.bio10'
p681
sg14
I252
sg15
S'bio10'
p682
sg17
S'Mean Temperature of Warmest Quarter'
p683
sg19
S'45'
p684
sg21
S'ac4550'
p685
sg23
S'../views/GTiff/clim.ac4550.bio10.tif'
p686
sg25
S'climate'
p687
sg27
S'clim.ac4550.bio10'
p688
sg29
S'6326'
p689
sg31
S'Mean Temperature of Warmest Quarter AC RCP45 2050'
p690
sg33
g34
sg35
g36
sg37
S'clim.ac4550.bio10.tif'
p691
sg39
S'clim'
p692
sg41
g42
sg43
I4326
sg44
S'2050'
p693
ssS'bio19'
p694
(dp695
g8
S'2015-03-18 20:48:21'
p696
sg10
S'yes'
p697
sg12
S'ac4550.bio19'
p698
sg14
I186
sg15
S'bio19'
p699
sg17
S'Precipitation of Coldest Quarter'
p700
sg19
S'45'
p701
sg21
S'ac4550'
p702
sg23
S'../views/GTiff/clim.ac4550.bio19.tif'
p703
sg25
S'climate'
p704
sg27
S'clim.ac4550.bio19'
p705
sg29
S'6327'
p706
sg31
S'Precipitation of Coldest Quarter AC RCP45 2050'
p707
sg33
g34
sg35
g36
sg37
S'clim.ac4550.bio19.tif'
p708
sg39
S'clim'
p709
sg41
g42
sg43
I4326
sg44
S'2050'
p710
ssS'bio13'
p711
(dp712
g8
S'2015-03-18 20:48:21'
p713
sg10
S'yes'
p714
sg12
S'ac4550.bio13'
p715
sg14
I250
sg15
S'bio13'
p716
sg17
S'Precipitation of Wettest Month'
p717
sg19
S'45'
p718
sg21
S'ac4550'
p719
sg23
S'../views/GTiff/clim.ac4550.bio13.tif'
p720
sg25
S'climate'
p721
sg27
S'clim.ac4550.bio13'
p722
sg29
S'6328'
p723
sg31
S'Precipitation of Wettest Month AC RCP45 2050'
p724
sg33
g34
sg35
g36
sg37
S'clim.ac4550.bio13.tif'
p725
sg39
S'clim'
p726
sg41
g42
sg43
I4326
sg44
S'2050'
p727
ssS'bio06'
p728
(dp729
g8
S'2015-03-18 20:48:21'
p730
sg10
S'yes'
p731
sg12
S'ac4550.bio06'
p732
sg14
I311
sg15
S'bio06'
p733
sg17
S'Min Temperature of Coldest Month'
p734
sg19
S'45'
p735
sg21
S'ac4550'
p736
sg23
S'../views/GTiff/clim.ac4550.bio06.tif'
p737
sg25
S'climate'
p738
sg27
S'clim.ac4550.bio06'
p739
sg29
S'6334'
p740
sg31
S'Min Temperature of Coldest Month AC RCP45 2050'
p741
sg33
g34
sg35
g36
sg37
S'clim.ac4550.bio06.tif'
p742
sg39
S'clim'
p743
sg41
g42
sg43
I4326
sg44
S'2050'
p744
ssS'bio16'
p745
(dp746
g8
S'2015-03-18 20:48:21'
p747
sg10
S'yes'
p748
sg12
S'ac4550.bio16'
p749
sg14
I343
sg15
S'bio16'
p750
sg17
S'Precipitation of Wettest Quarter'
p751
sg19
S'45'
p752
sg21
S'ac4550'
p753
sg23
S'../views/GTiff/clim.ac4550.bio16.tif'
p754
sg25
S'climate'
p755
sg27
S'clim.ac4550.bio16'
p756
sg29
S'6330'
p757
sg31
S'Precipitation of Wettest Quarter AC RCP45 2050'
p758
sg33
g34
sg35
g36
sg37
S'clim.ac4550.bio16.tif'
p759
sg39
S'clim'
p760
sg41
g42
sg43
I4326
sg44
S'2050'
p761
ssS'bio12'
p762
(dp763
g8
S'2015-03-18 20:48:21'
p764
sg10
S'no'
p765
sg12
S'ac4550.bio12'
p766
sg14
I200
sg15
S'bio12'
p767
sg17
S'Annual Precipitation'
p768
sg19
S'45'
p769
sg21
S'ac4550'
p770
sg23
S'../views/GTiff/clim.ac4550.bio12.tif'
p771
sg25
S'climate'
p772
sg27
S'clim.ac4550.bio12'
p773
sg29
S'6332'
p774
sg31
S'Annual Precipitation AC RCP45 2050'
p775
sg33
g34
sg35
g36
sg37
S'clim.ac4550.bio12.tif'
p776
sg39
S'clim'
p777
sg41
g42
sg43
I4326
sg44
S'2050'
p778
ssS'bio07'
p779
(dp780
g8
S'2015-03-18 20:48:21'
p781
sg10
S'no'
p782
sg12
S'ac4550.bio07'
p783
sg14
I239
sg15
S'bio07'
p784
sg17
S'Temperature Annual Range (BIO5-BIO6)'
p785
sg19
S'45'
p786
sg21
S'ac4550'
p787
sg23
S'../views/GTiff/clim.ac4550.bio07.tif'
p788
sg25
S'climate'
p789
sg27
S'clim.ac4550.bio07'
p790
sg29
S'6333'
p791
sg31
S'Temperature Annual Range (BIO5-BIO6) AC RCP45 2050'
p792
sg33
g34
sg35
g36
sg37
S'clim.ac4550.bio07.tif'
p793
sg39
S'clim'
p794
sg41
g42
sg43
I4326
sg44
S'2050'
p795
ssS'bio11'
p796
(dp797
g8
S'2015-03-18 20:48:21'
p798
sg10
S'yes'
p799
sg12
S'ac4550.bio11'
p800
sg14
I69
sg15
S'bio11'
p801
sg17
S'Mean Temperature of Coldest Quarter'
p802
sg19
S'45'
p803
sg21
S'ac4550'
p804
sg23
S'../views/GTiff/clim.ac4550.bio11.tif'
p805
sg25
S'climate'
p806
sg27
S'clim.ac4550.bio11'
p807
sg29
S'6329'
p808
sg31
S'Mean Temperature of Coldest Quarter AC RCP45 2050'
p809
sg33
g34
sg35
g36
sg37
S'clim.ac4550.bio11.tif'
p810
sg39
S'clim'
p811
sg41
g42
sg43
I4326
sg44
S'2050'
p812
ssS'bio05'
p813
(dp814
g8
S'2015-03-18 20:48:21'
p815
sg10
S'yes'
p816
sg12
S'ac4550.bio05'
p817
sg14
I16
sg15
S'bio05'
p818
sg17
S'Max Temperature of Warmest Month'
p819
sg19
S'45'
p820
sg21
g675
sg23
S'../views/GTiff/clim.ac4550.bio05.tif'
p821
sg25
S'climate'
p822
sg27
S'clim.ac4550.bio05'
p823
sg29
S'6335'
p824
sg31
S'Max Temperature of Warmest Month AC RCP45 2050'
p825
sg33
g34
sg35
g36
sg37
S'clim.ac4550.bio05.tif'
p826
sg39
S'clim'
p827
sg41
g42
sg43
I4326
sg44
S'2050'
p828
ssS'bio04'
p829
(dp830
g8
S'2015-03-18 20:48:21'
p831
sg10
S'yes'
p832
sg12
S'ac4550.bio04'
p833
sg14
I111
sg15
S'bio04'
p834
sg17
S'Temperature Seasonality (standard deviation *100)'
p835
sg19
S'45'
p836
sg21
S'ac4550'
p837
sg23
S'../views/GTiff/clim.ac4550.bio04.tif'
p838
sg25
S'climate'
p839
sg27
S'clim.ac4550.bio04'
p840
sg29
S'6336'
p841
sg31
S'Temperature Seasonality (standard deviation *100) AC RCP45 2050'
p842
sg33
g34
sg35
g36
sg37
S'clim.ac4550.bio04.tif'
p843
sg39
S'clim'
p844
sg41
g42
sg43
I4326
sg44
S'2050'
p845
ssS'bio14'
p846
(dp847
g8
S'2015-03-18 20:48:21'
p848
sg10
S'yes'
p849
sg12
S'ac4550.bio14'
p850
sg14
I107
sg15
S'bio14'
p851
sg17
S'Precipitation of Driest Month'
p852
sg19
S'45'
p853
sg21
S'ac4550'
p854
sg23
S'../views/GTiff/clim.ac4550.bio14.tif'
p855
sg25
S'climate'
p856
sg27
S'clim.ac4550.bio14'
p857
sg29
S'6342'
p858
sg31
S'Precipitation of Driest Month AC RCP45 2050'
p859
sg33
g34
sg35
g36
sg37
S'clim.ac4550.bio14.tif'
p860
sg39
S'clim'
p861
sg41
g42
sg43
I4326
sg44
S'2050'
p862
ssS'bio15'
p863
(dp864
g8
S'2015-03-18 20:48:21'
p865
sg10
S'no'
p866
sg12
S'ac4550.bio15'
p867
sg14
I71
sg15
S'bio15'
p868
sg17
S'Precipitation Seasonality (Coefficient of Variation)'
p869
sg19
S'45'
p870
sg21
S'ac4550'
p871
sg23
S'../views/GTiff/clim.ac4550.bio15.tif'
p872
sg25
S'climate'
p873
sg27
S'clim.ac4550.bio15'
p874
sg29
S'6331'
p875
sg31
S'Precipitation Seasonality (Coefficient of Variation) AC RCP45 2050'
p876
sg33
g34
sg35
g36
sg37
S'clim.ac4550.bio15.tif'
p877
sg39
S'clim'
p878
sg41
g42
sg43
I4326
sg44
S'2050'
p879
ssS'bio01'
p880
(dp881
g8
S'2015-03-18 20:48:21'
p882
sg10
S'no'
p883
sg12
S'ac4550.bio01'
p884
sg14
I333
sg15
S'bio01'
p885
sg17
S'Annual Mean Temperature'
p886
sg19
S'45'
p887
sg21
S'ac4550'
p888
sg23
S'../views/GTiff/clim.ac4550.bio01.tif'
p889
sg25
S'climate'
p890
sg27
S'clim.ac4550.bio01'
p891
sg29
S'6339'
p892
sg31
S'Annual Mean Temperature AC RCP45 2050'
p893
sg33
g34
sg35
g36
sg37
S'clim.ac4550.bio01.tif'
p894
sg39
S'clim'
p895
sg41
g42
sg43
I4326
sg44
S'2050'
p896
ssS'bio17'
p897
(dp898
g8
S'2015-03-18 20:48:21'
p899
sg10
S'yes'
p900
sg12
S'ac4550.bio17'
p901
sg14
I169
sg15
S'bio17'
p902
sg17
S'Precipitation of Driest Quarter'
p903
sg19
S'45'
p904
sg21
S'ac4550'
p905
sg23
S'../views/GTiff/clim.ac4550.bio17.tif'
p906
sg25
S'climate'
p907
sg27
S'clim.ac4550.bio17'
p908
sg29
S'6340'
p909
sg31
S'Precipitation of Driest Quarter AC RCP45 2050'
p910
sg33
g34
sg35
g36
sg37
S'clim.ac4550.bio17.tif'
p911
sg39
S'clim'
p912
sg41
g42
sg43
I4326
sg44
S'2050'
p913
ssS'bio18'
p914
(dp915
g8
S'2015-03-18 20:48:21'
p916
sg10
S'no'
p917
sg12
S'ac4550.bio18'
p918
sg14
I73
sg15
S'bio18'
p919
sg17
S'Precipitation of Warmest Quarter'
p920
sg19
S'45'
p921
sg21
S'ac4550'
p922
sg23
S'../views/GTiff/clim.ac4550.bio18.tif'
p923
sg25
S'climate'
p924
sg27
S'clim.ac4550.bio18'
p925
sg29
S'6341'
p926
sg31
S'Precipitation of Warmest Quarter AC RCP45 2050'
p927
sg33
g34
sg35
g36
sg37
S'clim.ac4550.bio18.tif'
p928
sg39
S'clim'
p929
sg41
g42
sg43
I4326
sg44
S'2050'
p930
ssS'bio03'
p931
(dp932
g8
S'2015-03-18 20:48:21'
p933
sg10
S'yes'
p934
sg12
S'ac4550.bio03'
p935
sg14
I115
sg15
S'bio03'
p936
sg17
S'Isothermality (BIO2/BIO7) (* 100)'
p937
sg19
S'45'
p938
sg21
S'ac4550'
p939
sg23
S'../views/GTiff/clim.ac4550.bio03.tif'
p940
sg25
S'climate'
p941
sg27
S'clim.ac4550.bio03'
p942
sg29
S'6337'
p943
sg31
S'Isothermality (BIO2/BIO7) (* 100) AC RCP45 2050'
p944
sg33
g34
sg35
g36
sg37
S'clim.ac4550.bio03.tif'
p945
sg39
S'clim'
p946
sg41
g42
sg43
I4326
sg44
S'2050'
p947
ssS'bio02'
p948
(dp949
g8
S'2015-03-18 20:48:21'
p950
sg10
S'yes'
p951
sg12
S'ac4550.bio02'
p952
sg14
I275
sg15
S'bio02'
p953
sg17
S'Mean Diurnal Range (Mean of monthly (max temp - min temp))'
p954
sg19
S'45'
p955
sg21
S'ac4550'
p956
sg23
S'../views/GTiff/clim.ac4550.bio02.tif'
p957
sg25
S'climate'
p958
sg27
S'clim.ac4550.bio02'
p959
sg29
S'6338'
p960
sg31
S'Mean Diurnal Range (Mean of monthly (max temp - min temp)) AC RCP45 2050'
p961
sg33
g34
sg35
g36
sg37
S'clim.ac4550.bio02.tif'
p962
sg39
S'clim'
p963
sg41
g42
sg43
I4326
sg44
S'2050'
p964
ssS'bio09'
p965
(dp966
g8
S'2015-03-18 20:48:21'
p967
sg10
S'yes'
p968
sg12
S'ac4550.bio09'
p969
sg14
I164
sg15
S'bio09'
p970
sg17
S'Mean Temperature of Driest Quarter'
p971
sg19
S'45'
p972
sg21
S'ac4550'
p973
sg23
S'../views/GTiff/clim.ac4550.bio09.tif'
p974
sg25
S'climate'
p975
sg27
S'clim.ac4550.bio09'
p976
sg29
S'6343'
p977
sg31
S'Mean Temperature of Driest Quarter AC RCP45 2050'
p978
sg33
g34
sg35
g36
sg37
S'clim.ac4550.bio09.tif'
p979
sg39
S'clim'
p980
sg41
g42
sg43
I4326
sg44
S'2050'
p981
ssS'bio08'
p982
(dp983
g8
S'2015-03-18 20:48:21'
p984
sg10
S'no'
p985
sg12
S'ac4550.bio08'
p986
sg14
I209
sg15
S'bio08'
p987
sg17
S'Mean Temperature of Wettest Quarter'
p988
sg19
S'45'
p989
sg21
S'ac4550'
p990
sg23
S'../views/GTiff/clim.ac4550.bio08.tif'
p991
sg25
S'climate'
p992
sg27
S'clim.ac4550.bio08'
p993
sg29
S'6344'
p994
sg31
S'Mean Temperature of Wettest Quarter AC RCP45 2050'
p995
sg33
g34
sg35
g36
sg37
S'clim.ac4550.bio08.tif'
p996
sg39
S'clim'
p997
sg41
g42
sg43
I4326
sg44
S'2050'
p998
sssS'he8570'
p999
(dp1000
S'bio07'
p1001
(dp1002
g8
S'2015-03-18 20:48:21'
p1003
sg10
S'no'
p1004
sg12
S'he8570.bio07'
p1005
sg14
I251
sg15
S'bio07'
p1006
sg17
S'Temperature Annual Range (BIO5-BIO6)'
p1007
sg19
S'85'
p1008
sg21
S'he8570'
p1009
sg23
S'../views/GTiff/clim.he8570.bio07.tif'
p1010
sg25
S'climate'
p1011
sg27
S'clim.he8570.bio07'
p1012
sg29
S'6214'
p1013
sg31
S'Temperature Annual Range (BIO5-BIO6) HE RCP85 2070'
p1014
sg33
g34
sg35
g36
sg37
S'clim.he8570.bio07.tif'
p1015
sg39
S'clim'
p1016
sg41
g42
sg43
I4326
sg44
S'2070'
p1017
ssS'bio16'
p1018
(dp1019
g8
S'2015-03-18 20:48:21'
p1020
sg10
S'yes'
p1021
sg12
S'he8570.bio16'
p1022
sg14
I230
sg15
S'bio16'
p1023
sg17
S'Precipitation of Wettest Quarter'
p1024
sg19
S'85'
p1025
sg21
S'he8570'
p1026
sg23
S'../views/GTiff/clim.he8570.bio16.tif'
p1027
sg25
S'climate'
p1028
sg27
S'clim.he8570.bio16'
p1029
sg29
S'6211'
p1030
sg31
S'Precipitation of Wettest Quarter HE RCP85 2070'
p1031
sg33
g34
sg35
g36
sg37
S'clim.he8570.bio16.tif'
p1032
sg39
S'clim'
p1033
sg41
g42
sg43
I4326
sg44
S'2070'
p1034
ssS'bio06'
p1035
(dp1036
g8
S'2015-03-18 20:48:21'
p1037
sg10
S'yes'
p1038
sg12
S'he8570.bio06'
p1039
sg14
I331
sg15
S'bio06'
p1040
sg17
S'Min Temperature of Coldest Month'
p1041
sg19
S'85'
p1042
sg21
S'he8570'
p1043
sg23
S'../views/GTiff/clim.he8570.bio06.tif'
p1044
sg25
S'climate'
p1045
sg27
S'clim.he8570.bio06'
p1046
sg29
S'6215'
p1047
sg31
S'Min Temperature of Coldest Month HE RCP85 2070'
p1048
sg33
g34
sg35
g36
sg37
S'clim.he8570.bio06.tif'
p1049
sg39
S'clim'
p1050
sg41
g42
sg43
I4326
sg44
S'2070'
p1051
ssS'bio15'
p1052
(dp1053
g8
S'2015-03-18 20:48:21'
p1054
sg10
S'no'
p1055
sg12
S'he8570.bio15'
p1056
sg14
I171
sg15
S'bio15'
p1057
sg17
S'Precipitation Seasonality (Coefficient of Variation)'
p1058
sg19
S'85'
p1059
sg21
S'he8570'
p1060
sg23
S'../views/GTiff/clim.he8570.bio15.tif'
p1061
sg25
S'climate'
p1062
sg27
S'clim.he8570.bio15'
p1063
sg29
S'6212'
p1064
sg31
S'Precipitation Seasonality (Coefficient of Variation) HE RCP85 2070'
p1065
sg33
g34
sg35
g36
sg37
S'clim.he8570.bio15.tif'
p1066
sg39
S'clim'
p1067
sg41
g42
sg43
I4326
sg44
S'2070'
p1068
ssS'bio12'
p1069
(dp1070
g8
S'2015-03-18 20:48:21'
p1071
sg10
S'no'
p1072
sg12
S'he8570.bio12'
p1073
sg14
I106
sg15
S'bio12'
p1074
sg17
S'Annual Precipitation'
p1075
sg19
S'85'
p1076
sg21
S'he8570'
p1077
sg23
S'../views/GTiff/clim.he8570.bio12.tif'
p1078
sg25
S'climate'
p1079
sg27
S'clim.he8570.bio12'
p1080
sg29
S'6213'
p1081
sg31
S'Annual Precipitation HE RCP85 2070'
p1082
sg33
g34
sg35
g36
sg37
S'clim.he8570.bio12.tif'
p1083
sg39
S'clim'
p1084
sg41
g42
sg43
I4326
sg44
S'2070'
p1085
ssS'bio14'
p1086
(dp1087
g8
S'2015-03-18 20:48:21'
p1088
sg10
S'yes'
p1089
sg12
S'he8570.bio14'
p1090
sg14
I259
sg15
S'bio14'
p1091
sg17
S'Precipitation of Driest Month'
p1092
sg19
S'85'
p1093
sg21
S'he8570'
p1094
sg23
S'../views/GTiff/clim.he8570.bio14.tif'
p1095
sg25
S'climate'
p1096
sg27
S'clim.he8570.bio14'
p1097
sg29
S'6223'
p1098
sg31
S'Precipitation of Driest Month HE RCP85 2070'
p1099
sg33
g34
sg35
g36
sg37
S'clim.he8570.bio14.tif'
p1100
sg39
S'clim'
p1101
sg41
g42
sg43
I4326
sg44
S'2070'
p1102
ssS'bio10'
p1103
(dp1104
g8
S'2015-03-18 20:48:21'
p1105
sg10
S'yes'
p1106
sg12
S'he8570.bio10'
p1107
sg14
I235
sg15
S'bio10'
p1108
sg17
S'Mean Temperature of Warmest Quarter'
p1109
sg19
S'85'
p1110
sg21
S'he8570'
p1111
sg23
S'../views/GTiff/clim.he8570.bio10.tif'
p1112
sg25
S'climate'
p1113
sg27
S'clim.he8570.bio10'
p1114
sg29
S'6207'
p1115
sg31
S'Mean Temperature of Warmest Quarter HE RCP85 2070'
p1116
sg33
g34
sg35
g36
sg37
S'clim.he8570.bio10.tif'
p1117
sg39
S'clim'
p1118
sg41
g42
sg43
I4326
sg44
S'2070'
p1119
ssS'bio11'
p1120
(dp1121
g8
S'2015-03-18 20:48:21'
p1122
sg10
S'yes'
p1123
sg12
S'he8570.bio11'
p1124
sg14
I322
sg15
S'bio11'
p1125
sg17
S'Mean Temperature of Coldest Quarter'
p1126
sg19
S'85'
p1127
sg21
S'he8570'
p1128
sg23
S'../views/GTiff/clim.he8570.bio11.tif'
p1129
sg25
S'climate'
p1130
sg27
S'clim.he8570.bio11'
p1131
sg29
S'6210'
p1132
sg31
S'Mean Temperature of Coldest Quarter HE RCP85 2070'
p1133
sg33
g34
sg35
g36
sg37
S'clim.he8570.bio11.tif'
p1134
sg39
S'clim'
p1135
sg41
g42
sg43
I4326
sg44
S'2070'
p1136
ssS'bio05'
p1137
(dp1138
g8
S'2015-03-18 20:48:21'
p1139
sg10
S'yes'
p1140
sg12
S'he8570.bio05'
p1141
sg14
I58
sg15
S'bio05'
p1142
sg17
S'Max Temperature of Warmest Month'
p1143
sg19
S'85'
p1144
sg21
S'he8570'
p1145
sg23
S'../views/GTiff/clim.he8570.bio05.tif'
p1146
sg25
S'climate'
p1147
sg27
S'clim.he8570.bio05'
p1148
sg29
S'6216'
p1149
sg31
S'Max Temperature of Warmest Month HE RCP85 2070'
p1150
sg33
g34
sg35
g36
sg37
S'clim.he8570.bio05.tif'
p1151
sg39
S'clim'
p1152
sg41
g42
sg43
I4326
sg44
S'2070'
p1153
ssS'bio13'
p1154
(dp1155
g8
S'2015-03-18 20:48:21'
p1156
sg10
S'yes'
p1157
sg12
S'he8570.bio13'
p1158
sg14
I172
sg15
S'bio13'
p1159
sg17
S'Precipitation of Wettest Month'
p1160
sg19
S'85'
p1161
sg21
S'he8570'
p1162
sg23
S'../views/GTiff/clim.he8570.bio13.tif'
p1163
sg25
S'climate'
p1164
sg27
S'clim.he8570.bio13'
p1165
sg29
S'6209'
p1166
sg31
S'Precipitation of Wettest Month HE RCP85 2070'
p1167
sg33
g34
sg35
g36
sg37
S'clim.he8570.bio13.tif'
p1168
sg39
S'clim'
p1169
sg41
g42
sg43
I4326
sg44
S'2070'
p1170
ssS'bio03'
p1171
(dp1172
g8
S'2015-03-18 20:48:21'
p1173
sg10
S'yes'
p1174
sg12
S'he8570.bio03'
p1175
sg14
I2
sg15
S'bio03'
p1176
sg17
S'Isothermality (BIO2/BIO7) (* 100)'
p1177
sg19
S'85'
p1178
sg21
g999
sg23
S'../views/GTiff/clim.he8570.bio03.tif'
p1179
sg25
S'climate'
p1180
sg27
S'clim.he8570.bio03'
p1181
sg29
S'6218'
p1182
sg31
S'Isothermality (BIO2/BIO7) (* 100) HE RCP85 2070'
p1183
sg33
g34
sg35
g36
sg37
S'clim.he8570.bio03.tif'
p1184
sg39
S'clim'
p1185
sg41
g42
sg43
I4326
sg44
S'2070'
p1186
ssS'bio02'
p1187
(dp1188
g8
S'2015-03-18 20:48:21'
p1189
sg10
S'yes'
p1190
sg12
S'he8570.bio02'
p1191
sg14
I101
sg15
S'bio02'
p1192
sg17
S'Mean Diurnal Range (Mean of monthly (max temp - min temp))'
p1193
sg19
S'85'
p1194
sg21
S'he8570'
p1195
sg23
S'../views/GTiff/clim.he8570.bio02.tif'
p1196
sg25
S'climate'
p1197
sg27
S'clim.he8570.bio02'
p1198
sg29
S'6219'
p1199
sg31
S'Mean Diurnal Range (Mean of monthly (max temp - min temp)) HE RCP85 2070'
p1200
sg33
g34
sg35
g36
sg37
S'clim.he8570.bio02.tif'
p1201
sg39
S'clim'
p1202
sg41
g42
sg43
I4326
sg44
S'2070'
p1203
ssS'bio01'
p1204
(dp1205
g8
S'2015-03-18 20:48:21'
p1206
sg10
S'no'
p1207
sg12
S'he8570.bio01'
p1208
sg14
I12
sg15
S'bio01'
p1209
sg17
S'Annual Mean Temperature'
p1210
sg19
S'85'
p1211
sg21
S'he8570'
p1212
sg23
S'../views/GTiff/clim.he8570.bio01.tif'
p1213
sg25
S'climate'
p1214
sg27
S'clim.he8570.bio01'
p1215
sg29
S'6220'
p1216
sg31
S'Annual Mean Temperature HE RCP85 2070'
p1217
sg33
g34
sg35
g36
sg37
S'clim.he8570.bio01.tif'
p1218
sg39
S'clim'
p1219
sg41
g42
sg43
I4326
sg44
S'2070'
p1220
ssS'bio17'
p1221
(dp1222
g8
S'2015-03-18 20:48:21'
p1223
sg10
S'yes'
p1224
sg12
S'he8570.bio17'
p1225
sg14
I86
sg15
S'bio17'
p1226
sg17
S'Precipitation of Driest Quarter'
p1227
sg19
S'85'
p1228
sg21
S'he8570'
p1229
sg23
S'../views/GTiff/clim.he8570.bio17.tif'
p1230
sg25
S'climate'
p1231
sg27
S'clim.he8570.bio17'
p1232
sg29
S'6221'
p1233
sg31
S'Precipitation of Driest Quarter HE RCP85 2070'
p1234
sg33
g34
sg35
g36
sg37
S'clim.he8570.bio17.tif'
p1235
sg39
S'clim'
p1236
sg41
g42
sg43
I4326
sg44
S'2070'
p1237
ssS'bio18'
p1238
(dp1239
g8
S'2015-03-18 20:48:21'
p1240
sg10
S'no'
p1241
sg12
S'he8570.bio18'
p1242
sg14
I82
sg15
S'bio18'
p1243
sg17
S'Precipitation of Warmest Quarter'
p1244
sg19
S'85'
p1245
sg21
S'he8570'
p1246
sg23
S'../views/GTiff/clim.he8570.bio18.tif'
p1247
sg25
S'climate'
p1248
sg27
S'clim.he8570.bio18'
p1249
sg29
S'6222'
p1250
sg31
S'Precipitation of Warmest Quarter HE RCP85 2070'
p1251
sg33
g34
sg35
g36
sg37
S'clim.he8570.bio18.tif'
p1252
sg39
S'clim'
p1253
sg41
g42
sg43
I4326
sg44
S'2070'
p1254
ssS'bio19'
p1255
(dp1256
g8
S'2015-03-18 20:48:21'
p1257
sg10
S'yes'
p1258
sg12
S'he8570.bio19'
p1259
sg14
I13
sg15
S'bio19'
p1260
sg17
S'Precipitation of Coldest Quarter'
p1261
sg19
S'85'
p1262
sg21
S'he8570'
p1263
sg23
S'../views/GTiff/clim.he8570.bio19.tif'
p1264
sg25
S'climate'
p1265
sg27
S'clim.he8570.bio19'
p1266
sg29
S'6208'
p1267
sg31
S'Precipitation of Coldest Quarter HE RCP85 2070'
p1268
sg33
g34
sg35
g36
sg37
S'clim.he8570.bio19.tif'
p1269
sg39
S'clim'
p1270
sg41
g42
sg43
I4326
sg44
S'2070'
p1271
ssS'bio04'
p1272
(dp1273
g8
S'2015-03-18 20:48:21'
p1274
sg10
S'yes'
p1275
sg12
S'he8570.bio04'
p1276
sg14
I203
sg15
S'bio04'
p1277
sg17
S'Temperature Seasonality (standard deviation *100)'
p1278
sg19
S'85'
p1279
sg21
S'he8570'
p1280
sg23
S'../views/GTiff/clim.he8570.bio04.tif'
p1281
sg25
S'climate'
p1282
sg27
S'clim.he8570.bio04'
p1283
sg29
S'6217'
p1284
sg31
S'Temperature Seasonality (standard deviation *100) HE RCP85 2070'
p1285
sg33
g34
sg35
g36
sg37
S'clim.he8570.bio04.tif'
p1286
sg39
S'clim'
p1287
sg41
g42
sg43
I4326
sg44
S'2070'
p1288
ssS'bio09'
p1289
(dp1290
g8
S'2015-03-18 20:48:21'
p1291
sg10
S'yes'
p1292
sg12
S'he8570.bio09'
p1293
sg14
I78
sg15
S'bio09'
p1294
sg17
S'Mean Temperature of Driest Quarter'
p1295
sg19
S'85'
p1296
sg21
S'he8570'
p1297
sg23
S'../views/GTiff/clim.he8570.bio09.tif'
p1298
sg25
S'climate'
p1299
sg27
S'clim.he8570.bio09'
p1300
sg29
S'6224'
p1301
sg31
S'Mean Temperature of Driest Quarter HE RCP85 2070'
p1302
sg33
g34
sg35
g36
sg37
S'clim.he8570.bio09.tif'
p1303
sg39
S'clim'
p1304
sg41
g42
sg43
I4326
sg44
S'2070'
p1305
ssS'bio08'
p1306
(dp1307
g8
S'2015-03-18 20:48:21'
p1308
sg10
S'no'
p1309
sg12
S'he8570.bio08'
p1310
sg14
I22
sg15
S'bio08'
p1311
sg17
S'Mean Temperature of Wettest Quarter'
p1312
sg19
S'85'
p1313
sg21
S'he8570'
p1314
sg23
S'../views/GTiff/clim.he8570.bio08.tif'
p1315
sg25
S'climate'
p1316
sg27
S'clim.he8570.bio08'
p1317
sg29
S'6225'
p1318
sg31
S'Mean Temperature of Wettest Quarter HE RCP85 2070'
p1319
sg33
g34
sg35
g36
sg37
S'clim.he8570.bio08.tif'
p1320
sg39
S'clim'
p1321
sg41
g42
sg43
I4326
sg44
S'2070'
p1322
sssS'he2650'
p1323
(dp1324
S'bio07'
p1325
(dp1326
g8
S'2015-03-18 20:48:21'
p1327
sg10
S'no'
p1328
sg12
S'he2650.bio07'
p1329
sg14
I268
sg15
S'bio07'
p1330
sg17
S'Temperature Annual Range (BIO5-BIO6)'
p1331
sg19
S'26'
p1332
sg21
S'he2650'
p1333
sg23
S'../views/GTiff/clim.he2650.bio07.tif'
p1334
sg25
S'climate'
p1335
sg27
S'clim.he2650.bio07'
p1336
sg29
S'6233'
p1337
sg31
S'Temperature Annual Range (BIO5-BIO6) HE RCP26 2050'
p1338
sg33
g34
sg35
g36
sg37
S'clim.he2650.bio07.tif'
p1339
sg39
S'clim'
p1340
sg41
g42
sg43
I4326
sg44
S'2050'
p1341
ssS'bio16'
p1342
(dp1343
g8
S'2015-03-18 20:48:21'
p1344
sg10
S'yes'
p1345
sg12
S'he2650.bio16'
p1346
sg14
I191
sg15
S'bio16'
p1347
sg17
S'Precipitation of Wettest Quarter'
p1348
sg19
S'26'
p1349
sg21
S'he2650'
p1350
sg23
S'../views/GTiff/clim.he2650.bio16.tif'
p1351
sg25
S'climate'
p1352
sg27
S'clim.he2650.bio16'
p1353
sg29
S'6230'
p1354
sg31
S'Precipitation of Wettest Quarter HE RCP26 2050'
p1355
sg33
g34
sg35
g36
sg37
S'clim.he2650.bio16.tif'
p1356
sg39
S'clim'
p1357
sg41
g42
sg43
I4326
sg44
S'2050'
p1358
ssS'bio06'
p1359
(dp1360
g8
S'2015-03-18 20:48:21'
p1361
sg10
S'yes'
p1362
sg12
S'he2650.bio06'
p1363
sg14
I182
sg15
S'bio06'
p1364
sg17
S'Min Temperature of Coldest Month'
p1365
sg19
S'26'
p1366
sg21
S'he2650'
p1367
sg23
S'../views/GTiff/clim.he2650.bio06.tif'
p1368
sg25
S'climate'
p1369
sg27
S'clim.he2650.bio06'
p1370
sg29
S'6234'
p1371
sg31
S'Min Temperature of Coldest Month HE RCP26 2050'
p1372
sg33
g34
sg35
g36
sg37
S'clim.he2650.bio06.tif'
p1373
sg39
S'clim'
p1374
sg41
g42
sg43
I4326
sg44
S'2050'
p1375
ssS'bio12'
p1376
(dp1377
g8
S'2015-03-18 20:48:21'
p1378
sg10
S'no'
p1379
sg12
S'he2650.bio12'
p1380
sg14
I50
sg15
S'bio12'
p1381
sg17
S'Annual Precipitation'
p1382
sg19
S'26'
p1383
sg21
S'he2650'
p1384
sg23
S'../views/GTiff/clim.he2650.bio12.tif'
p1385
sg25
S'climate'
p1386
sg27
S'clim.he2650.bio12'
p1387
sg29
S'6232'
p1388
sg31
S'Annual Precipitation HE RCP26 2050'
p1389
sg33
g34
sg35
g36
sg37
S'clim.he2650.bio12.tif'
p1390
sg39
S'clim'
p1391
sg41
g42
sg43
I4326
sg44
S'2050'
p1392
ssS'bio10'
p1393
(dp1394
g8
S'2015-03-18 20:48:21'
p1395
sg10
S'yes'
p1396
sg12
S'he2650.bio10'
p1397
sg14
I112
sg15
S'bio10'
p1398
sg17
S'Mean Temperature of Warmest Quarter'
p1399
sg19
S'26'
p1400
sg21
S'he2650'
p1401
sg23
S'../views/GTiff/clim.he2650.bio10.tif'
p1402
sg25
S'climate'
p1403
sg27
S'clim.he2650.bio10'
p1404
sg29
S'6226'
p1405
sg31
S'Mean Temperature of Warmest Quarter HE RCP26 2050'
p1406
sg33
g34
sg35
g36
sg37
S'clim.he2650.bio10.tif'
p1407
sg39
S'clim'
p1408
sg41
g42
sg43
I4326
sg44
S'2050'
p1409
ssS'bio11'
p1410
(dp1411
g8
S'2015-03-18 20:48:21'
p1412
sg10
S'yes'
p1413
sg12
S'he2650.bio11'
p1414
sg14
I76
sg15
S'bio11'
p1415
sg17
S'Mean Temperature of Coldest Quarter'
p1416
sg19
S'26'
p1417
sg21
S'he2650'
p1418
sg23
S'../views/GTiff/clim.he2650.bio11.tif'
p1419
sg25
S'climate'
p1420
sg27
S'clim.he2650.bio11'
p1421
sg29
S'6229'
p1422
sg31
S'Mean Temperature of Coldest Quarter HE RCP26 2050'
p1423
sg33
g34
sg35
g36
sg37
S'clim.he2650.bio11.tif'
p1424
sg39
S'clim'
p1425
sg41
g42
sg43
I4326
sg44
S'2050'
p1426
ssS'bio05'
p1427
(dp1428
g8
S'2015-03-18 20:48:21'
p1429
sg10
S'yes'
p1430
sg12
S'he2650.bio05'
p1431
sg14
I20
sg15
S'bio05'
p1432
sg17
S'Max Temperature of Warmest Month'
p1433
sg19
S'26'
p1434
sg21
g1323
sg23
S'../views/GTiff/clim.he2650.bio05.tif'
p1435
sg25
S'climate'
p1436
sg27
S'clim.he2650.bio05'
p1437
sg29
S'6235'
p1438
sg31
S'Max Temperature of Warmest Month HE RCP26 2050'
p1439
sg33
g34
sg35
g36
sg37
S'clim.he2650.bio05.tif'
p1440
sg39
S'clim'
p1441
sg41
g42
sg43
I4326
sg44
S'2050'
p1442
ssS'bio13'
p1443
(dp1444
g8
S'2015-03-18 20:48:21'
p1445
sg10
S'yes'
p1446
sg12
S'he2650.bio13'
p1447
sg14
I196
sg15
S'bio13'
p1448
sg17
S'Precipitation of Wettest Month'
p1449
sg19
S'26'
p1450
sg21
S'he2650'
p1451
sg23
S'../views/GTiff/clim.he2650.bio13.tif'
p1452
sg25
S'climate'
p1453
sg27
S'clim.he2650.bio13'
p1454
sg29
S'6228'
p1455
sg31
S'Precipitation of Wettest Month HE RCP26 2050'
p1456
sg33
g34
sg35
g36
sg37
S'clim.he2650.bio13.tif'
p1457
sg39
S'clim'
p1458
sg41
g42
sg43
I4326
sg44
S'2050'
p1459
ssS'bio14'
p1460
(dp1461
g8
S'2015-03-18 20:48:21'
p1462
sg10
S'yes'
p1463
sg12
S'he2650.bio14'
p1464
sg14
I246
sg15
S'bio14'
p1465
sg17
S'Precipitation of Driest Month'
p1466
sg19
S'26'
p1467
sg21
S'he2650'
p1468
sg23
S'../views/GTiff/clim.he2650.bio14.tif'
p1469
sg25
S'climate'
p1470
sg27
S'clim.he2650.bio14'
p1471
sg29
S'6242'
p1472
sg31
S'Precipitation of Driest Month HE RCP26 2050'
p1473
sg33
g34
sg35
g36
sg37
S'clim.he2650.bio14.tif'
p1474
sg39
S'clim'
p1475
sg41
g42
sg43
I4326
sg44
S'2050'
p1476
ssS'bio15'
p1477
(dp1478
g8
S'2015-03-18 20:48:21'
p1479
sg10
S'no'
p1480
sg12
S'he2650.bio15'
p1481
sg14
I63
sg15
S'bio15'
p1482
sg17
S'Precipitation Seasonality (Coefficient of Variation)'
p1483
sg19
S'26'
p1484
sg21
S'he2650'
p1485
sg23
S'../views/GTiff/clim.he2650.bio15.tif'
p1486
sg25
S'climate'
p1487
sg27
S'clim.he2650.bio15'
p1488
sg29
S'6231'
p1489
sg31
S'Precipitation Seasonality (Coefficient of Variation) HE RCP26 2050'
p1490
sg33
g34
sg35
g36
sg37
S'clim.he2650.bio15.tif'
p1491
sg39
S'clim'
p1492
sg41
g42
sg43
I4326
sg44
S'2050'
p1493
ssS'bio01'
p1494
(dp1495
g8
S'2015-03-18 20:48:21'
p1496
sg10
S'no'
p1497
sg12
S'he2650.bio01'
p1498
sg14
I74
sg15
S'bio01'
p1499
sg17
S'Annual Mean Temperature'
p1500
sg19
S'26'
p1501
sg21
S'he2650'
p1502
sg23
S'../views/GTiff/clim.he2650.bio01.tif'
p1503
sg25
S'climate'
p1504
sg27
S'clim.he2650.bio01'
p1505
sg29
S'6239'
p1506
sg31
S'Annual Mean Temperature HE RCP26 2050'
p1507
sg33
g34
sg35
g36
sg37
S'clim.he2650.bio01.tif'
p1508
sg39
S'clim'
p1509
sg41
g42
sg43
I4326
sg44
S'2050'
p1510
ssS'bio17'
p1511
(dp1512
g8
S'2015-03-18 20:48:21'
p1513
sg10
S'yes'
p1514
sg12
S'he2650.bio17'
p1515
sg14
I39
sg15
S'bio17'
p1516
sg17
S'Precipitation of Driest Quarter'
p1517
sg19
S'26'
p1518
sg21
S'he2650'
p1519
sg23
S'../views/GTiff/clim.he2650.bio17.tif'
p1520
sg25
S'climate'
p1521
sg27
S'clim.he2650.bio17'
p1522
sg29
S'6240'
p1523
sg31
S'Precipitation of Driest Quarter HE RCP26 2050'
p1524
sg33
g34
sg35
g36
sg37
S'clim.he2650.bio17.tif'
p1525
sg39
S'clim'
p1526
sg41
g42
sg43
I4326
sg44
S'2050'
p1527
ssS'bio18'
p1528
(dp1529
g8
S'2015-03-18 20:48:21'
p1530
sg10
S'no'
p1531
sg12
S'he2650.bio18'
p1532
sg14
I165
sg15
S'bio18'
p1533
sg17
S'Precipitation of Warmest Quarter'
p1534
sg19
S'26'
p1535
sg21
S'he2650'
p1536
sg23
S'../views/GTiff/clim.he2650.bio18.tif'
p1537
sg25
S'climate'
p1538
sg27
S'clim.he2650.bio18'
p1539
sg29
S'6241'
p1540
sg31
S'Precipitation of Warmest Quarter HE RCP26 2050'
p1541
sg33
g34
sg35
g36
sg37
S'clim.he2650.bio18.tif'
p1542
sg39
S'clim'
p1543
sg41
g42
sg43
I4326
sg44
S'2050'
p1544
ssS'bio19'
p1545
(dp1546
g8
S'2015-03-18 20:48:21'
p1547
sg10
S'yes'
p1548
sg12
S'he2650.bio19'
p1549
sg14
I90
sg15
S'bio19'
p1550
sg17
S'Precipitation of Coldest Quarter'
p1551
sg19
S'26'
p1552
sg21
S'he2650'
p1553
sg23
S'../views/GTiff/clim.he2650.bio19.tif'
p1554
sg25
S'climate'
p1555
sg27
S'clim.he2650.bio19'
p1556
sg29
S'6227'
p1557
sg31
S'Precipitation of Coldest Quarter HE RCP26 2050'
p1558
sg33
g34
sg35
g36
sg37
S'clim.he2650.bio19.tif'
p1559
sg39
S'clim'
p1560
sg41
g42
sg43
I4326
sg44
S'2050'
p1561
ssS'bio04'
p1562
(dp1563
g8
S'2015-03-18 20:48:21'
p1564
sg10
S'yes'
p1565
sg12
S'he2650.bio04'
p1566
sg14
I318
sg15
S'bio04'
p1567
sg17
S'Temperature Seasonality (standard deviation *100)'
p1568
sg19
S'26'
p1569
sg21
S'he2650'
p1570
sg23
S'../views/GTiff/clim.he2650.bio04.tif'
p1571
sg25
S'climate'
p1572
sg27
S'clim.he2650.bio04'
p1573
sg29
S'6236'
p1574
sg31
S'Temperature Seasonality (standard deviation *100) HE RCP26 2050'
p1575
sg33
g34
sg35
g36
sg37
S'clim.he2650.bio04.tif'
p1576
sg39
S'clim'
p1577
sg41
g42
sg43
I4326
sg44
S'2050'
p1578
ssS'bio08'
p1579
(dp1580
g8
S'2015-03-18 20:48:21'
p1581
sg10
S'no'
p1582
sg12
S'he2650.bio08'
p1583
sg14
I137
sg15
S'bio08'
p1584
sg17
S'Mean Temperature of Wettest Quarter'
p1585
sg19
S'26'
p1586
sg21
S'he2650'
p1587
sg23
S'../views/GTiff/clim.he2650.bio08.tif'
p1588
sg25
S'climate'
p1589
sg27
S'clim.he2650.bio08'
p1590
sg29
S'6244'
p1591
sg31
S'Mean Temperature of Wettest Quarter HE RCP26 2050'
p1592
sg33
g34
sg35
g36
sg37
S'clim.he2650.bio08.tif'
p1593
sg39
S'clim'
p1594
sg41
g42
sg43
I4326
sg44
S'2050'
p1595
ssS'bio03'
p1596
(dp1597
g8
S'2015-03-18 20:48:21'
p1598
sg10
S'yes'
p1599
sg12
S'he2650.bio03'
p1600
sg14
I304
sg15
S'bio03'
p1601
sg17
S'Isothermality (BIO2/BIO7) (* 100)'
p1602
sg19
S'26'
p1603
sg21
S'he2650'
p1604
sg23
S'../views/GTiff/clim.he2650.bio03.tif'
p1605
sg25
S'climate'
p1606
sg27
S'clim.he2650.bio03'
p1607
sg29
S'6237'
p1608
sg31
S'Isothermality (BIO2/BIO7) (* 100) HE RCP26 2050'
p1609
sg33
g34
sg35
g36
sg37
S'clim.he2650.bio03.tif'
p1610
sg39
S'clim'
p1611
sg41
g42
sg43
I4326
sg44
S'2050'
p1612
ssS'bio09'
p1613
(dp1614
g8
S'2015-03-18 20:48:21'
p1615
sg10
S'yes'
p1616
sg12
S'he2650.bio09'
p1617
sg14
I151
sg15
S'bio09'
p1618
sg17
S'Mean Temperature of Driest Quarter'
p1619
sg19
S'26'
p1620
sg21
S'he2650'
p1621
sg23
S'../views/GTiff/clim.he2650.bio09.tif'
p1622
sg25
S'climate'
p1623
sg27
S'clim.he2650.bio09'
p1624
sg29
S'6243'
p1625
sg31
S'Mean Temperature of Driest Quarter HE RCP26 2050'
p1626
sg33
g34
sg35
g36
sg37
S'clim.he2650.bio09.tif'
p1627
sg39
S'clim'
p1628
sg41
g42
sg43
I4326
sg44
S'2050'
p1629
ssS'bio02'
p1630
(dp1631
g8
S'2015-03-18 20:48:21'
p1632
sg10
S'yes'
p1633
sg12
S'he2650.bio02'
p1634
sg14
I100
sg15
S'bio02'
p1635
sg17
S'Mean Diurnal Range (Mean of monthly (max temp - min temp))'
p1636
sg19
S'26'
p1637
sg21
S'he2650'
p1638
sg23
S'../views/GTiff/clim.he2650.bio02.tif'
p1639
sg25
S'climate'
p1640
sg27
S'clim.he2650.bio02'
p1641
sg29
S'6238'
p1642
sg31
S'Mean Diurnal Range (Mean of monthly (max temp - min temp)) HE RCP26 2050'
p1643
sg33
g34
sg35
g36
sg37
S'clim.he2650.bio02.tif'
p1644
sg39
S'clim'
p1645
sg41
g42
sg43
I4326
sg44
S'2050'
p1646
sssS'ac4570'
p1647
(dp1648
S'bio10'
p1649
(dp1650
g8
S'2015-03-18 20:48:21'
p1651
sg10
S'yes'
p1652
sg12
S'ac4570.bio10'
p1653
sg14
I219
sg15
S'bio10'
p1654
sg17
S'Mean Temperature of Warmest Quarter'
p1655
sg19
S'45'
p1656
sg21
S'ac4570'
p1657
sg23
S'../views/GTiff/clim.ac4570.bio10.tif'
p1658
sg25
S'climate'
p1659
sg27
S'clim.ac4570.bio10'
p1660
sg29
S'6283'
p1661
sg31
S'Mean Temperature of Warmest Quarter AC RCP45 2070'
p1662
sg33
g34
sg35
g36
sg37
S'clim.ac4570.bio10.tif'
p1663
sg39
S'clim'
p1664
sg41
g42
sg43
I4326
sg44
S'2070'
p1665
ssS'bio04'
p1666
(dp1667
g8
S'2015-03-18 20:48:21'
p1668
sg10
S'yes'
p1669
sg12
S'ac4570.bio04'
p1670
sg14
I326
sg15
S'bio04'
p1671
sg17
S'Temperature Seasonality (standard deviation *100)'
p1672
sg19
S'45'
p1673
sg21
S'ac4570'
p1674
sg23
S'../views/GTiff/clim.ac4570.bio04.tif'
p1675
sg25
S'climate'
p1676
sg27
S'clim.ac4570.bio04'
p1677
sg29
S'6293'
p1678
sg31
S'Temperature Seasonality (standard deviation *100) AC RCP45 2070'
p1679
sg33
g34
sg35
g36
sg37
S'clim.ac4570.bio04.tif'
p1680
sg39
S'clim'
p1681
sg41
g42
sg43
I4326
sg44
S'2070'
p1682
ssS'bio16'
p1683
(dp1684
g8
S'2015-03-18 20:48:21'
p1685
sg10
S'yes'
p1686
sg12
S'ac4570.bio16'
p1687
sg14
I328
sg15
S'bio16'
p1688
sg17
S'Precipitation of Wettest Quarter'
p1689
sg19
S'45'
p1690
sg21
S'ac4570'
p1691
sg23
S'../views/GTiff/clim.ac4570.bio16.tif'
p1692
sg25
S'climate'
p1693
sg27
S'clim.ac4570.bio16'
p1694
sg29
S'6287'
p1695
sg31
S'Precipitation of Wettest Quarter AC RCP45 2070'
p1696
sg33
g34
sg35
g36
sg37
S'clim.ac4570.bio16.tif'
p1697
sg39
S'clim'
p1698
sg41
g42
sg43
I4326
sg44
S'2070'
p1699
ssS'bio06'
p1700
(dp1701
g8
S'2015-03-18 20:48:21'
p1702
sg10
S'yes'
p1703
sg12
S'ac4570.bio06'
p1704
sg14
I236
sg15
S'bio06'
p1705
sg17
S'Min Temperature of Coldest Month'
p1706
sg19
S'45'
p1707
sg21
S'ac4570'
p1708
sg23
S'../views/GTiff/clim.ac4570.bio06.tif'
p1709
sg25
S'climate'
p1710
sg27
S'clim.ac4570.bio06'
p1711
sg29
S'6291'
p1712
sg31
S'Min Temperature of Coldest Month AC RCP45 2070'
p1713
sg33
g34
sg35
g36
sg37
S'clim.ac4570.bio06.tif'
p1714
sg39
S'clim'
p1715
sg41
g42
sg43
I4326
sg44
S'2070'
p1716
ssS'bio05'
p1717
(dp1718
g8
S'2015-03-18 20:48:21'
p1719
sg10
S'yes'
p1720
sg12
S'ac4570.bio05'
p1721
sg14
I64
sg15
S'bio05'
p1722
sg17
S'Max Temperature of Warmest Month'
p1723
sg19
S'45'
p1724
sg21
S'ac4570'
p1725
sg23
S'../views/GTiff/clim.ac4570.bio05.tif'
p1726
sg25
S'climate'
p1727
sg27
S'clim.ac4570.bio05'
p1728
sg29
S'6292'
p1729
sg31
S'Max Temperature of Warmest Month AC RCP45 2070'
p1730
sg33
g34
sg35
g36
sg37
S'clim.ac4570.bio05.tif'
p1731
sg39
S'clim'
p1732
sg41
g42
sg43
I4326
sg44
S'2070'
p1733
ssS'bio07'
p1734
(dp1735
g8
S'2015-03-18 20:48:21'
p1736
sg10
S'no'
p1737
sg12
S'ac4570.bio07'
p1738
sg14
I61
sg15
S'bio07'
p1739
sg17
S'Temperature Annual Range (BIO5-BIO6)'
p1740
sg19
S'45'
p1741
sg21
S'ac4570'
p1742
sg23
S'../views/GTiff/clim.ac4570.bio07.tif'
p1743
sg25
S'climate'
p1744
sg27
S'clim.ac4570.bio07'
p1745
sg29
S'6290'
p1746
sg31
S'Temperature Annual Range (BIO5-BIO6) AC RCP45 2070'
p1747
sg33
g34
sg35
g36
sg37
S'clim.ac4570.bio07.tif'
p1748
sg39
S'clim'
p1749
sg41
g42
sg43
I4326
sg44
S'2070'
p1750
ssS'bio11'
p1751
(dp1752
g8
S'2015-03-18 20:48:21'
p1753
sg10
S'yes'
p1754
sg12
S'ac4570.bio11'
p1755
sg14
I47
sg15
S'bio11'
p1756
sg17
S'Mean Temperature of Coldest Quarter'
p1757
sg19
S'45'
p1758
sg21
S'ac4570'
p1759
sg23
S'../views/GTiff/clim.ac4570.bio11.tif'
p1760
sg25
S'climate'
p1761
sg27
S'clim.ac4570.bio11'
p1762
sg29
S'6286'
p1763
sg31
S'Mean Temperature of Coldest Quarter AC RCP45 2070'
p1764
sg33
g34
sg35
g36
sg37
S'clim.ac4570.bio11.tif'
p1765
sg39
S'clim'
p1766
sg41
g42
sg43
I4326
sg44
S'2070'
p1767
ssS'bio12'
p1768
(dp1769
g8
S'2015-03-18 20:48:21'
p1770
sg10
S'no'
p1771
sg12
S'ac4570.bio12'
p1772
sg14
I36
sg15
S'bio12'
p1773
sg17
S'Annual Precipitation'
p1774
sg19
S'45'
p1775
sg21
S'ac4570'
p1776
sg23
S'../views/GTiff/clim.ac4570.bio12.tif'
p1777
sg25
S'climate'
p1778
sg27
S'clim.ac4570.bio12'
p1779
sg29
S'6289'
p1780
sg31
S'Annual Precipitation AC RCP45 2070'
p1781
sg33
g34
sg35
g36
sg37
S'clim.ac4570.bio12.tif'
p1782
sg39
S'clim'
p1783
sg41
g42
sg43
I4326
sg44
S'2070'
p1784
ssS'bio13'
p1785
(dp1786
g8
S'2015-03-18 20:48:21'
p1787
sg10
S'yes'
p1788
sg12
S'ac4570.bio13'
p1789
sg14
I70
sg15
S'bio13'
p1790
sg17
S'Precipitation of Wettest Month'
p1791
sg19
S'45'
p1792
sg21
S'ac4570'
p1793
sg23
S'../views/GTiff/clim.ac4570.bio13.tif'
p1794
sg25
S'climate'
p1795
sg27
S'clim.ac4570.bio13'
p1796
sg29
S'6285'
p1797
sg31
S'Precipitation of Wettest Month AC RCP45 2070'
p1798
sg33
g34
sg35
g36
sg37
S'clim.ac4570.bio13.tif'
p1799
sg39
S'clim'
p1800
sg41
g42
sg43
I4326
sg44
S'2070'
p1801
ssS'bio14'
p1802
(dp1803
g8
S'2015-03-18 20:48:21'
p1804
sg10
S'yes'
p1805
sg12
S'ac4570.bio14'
p1806
sg14
I273
sg15
S'bio14'
p1807
sg17
S'Precipitation of Driest Month'
p1808
sg19
S'45'
p1809
sg21
S'ac4570'
p1810
sg23
S'../views/GTiff/clim.ac4570.bio14.tif'
p1811
sg25
S'climate'
p1812
sg27
S'clim.ac4570.bio14'
p1813
sg29
S'6299'
p1814
sg31
S'Precipitation of Driest Month AC RCP45 2070'
p1815
sg33
g34
sg35
g36
sg37
S'clim.ac4570.bio14.tif'
p1816
sg39
S'clim'
p1817
sg41
g42
sg43
I4326
sg44
S'2070'
p1818
ssS'bio15'
p1819
(dp1820
g8
S'2015-03-18 20:48:21'
p1821
sg10
S'no'
p1822
sg12
S'ac4570.bio15'
p1823
sg14
I93
sg15
S'bio15'
p1824
sg17
S'Precipitation Seasonality (Coefficient of Variation)'
p1825
sg19
S'45'
p1826
sg21
S'ac4570'
p1827
sg23
S'../views/GTiff/clim.ac4570.bio15.tif'
p1828
sg25
S'climate'
p1829
sg27
S'clim.ac4570.bio15'
p1830
sg29
S'6288'
p1831
sg31
S'Precipitation Seasonality (Coefficient of Variation) AC RCP45 2070'
p1832
sg33
g34
sg35
g36
sg37
S'clim.ac4570.bio15.tif'
p1833
sg39
S'clim'
p1834
sg41
g42
sg43
I4326
sg44
S'2070'
p1835
ssS'bio01'
p1836
(dp1837
g8
S'2015-03-18 20:48:21'
p1838
sg10
S'no'
p1839
sg12
S'ac4570.bio01'
p1840
sg14
I184
sg15
S'bio01'
p1841
sg17
S'Annual Mean Temperature'
p1842
sg19
S'45'
p1843
sg21
S'ac4570'
p1844
sg23
S'../views/GTiff/clim.ac4570.bio01.tif'
p1845
sg25
S'climate'
p1846
sg27
S'clim.ac4570.bio01'
p1847
sg29
S'6296'
p1848
sg31
S'Annual Mean Temperature AC RCP45 2070'
p1849
sg33
g34
sg35
g36
sg37
S'clim.ac4570.bio01.tif'
p1850
sg39
S'clim'
p1851
sg41
g42
sg43
I4326
sg44
S'2070'
p1852
ssS'bio17'
p1853
(dp1854
g8
S'2015-03-18 20:48:21'
p1855
sg10
S'yes'
p1856
sg12
S'ac4570.bio17'
p1857
sg14
I95
sg15
S'bio17'
p1858
sg17
S'Precipitation of Driest Quarter'
p1859
sg19
S'45'
p1860
sg21
S'ac4570'
p1861
sg23
S'../views/GTiff/clim.ac4570.bio17.tif'
p1862
sg25
S'climate'
p1863
sg27
S'clim.ac4570.bio17'
p1864
sg29
S'6297'
p1865
sg31
S'Precipitation of Driest Quarter AC RCP45 2070'
p1866
sg33
g34
sg35
g36
sg37
S'clim.ac4570.bio17.tif'
p1867
sg39
S'clim'
p1868
sg41
g42
sg43
I4326
sg44
S'2070'
p1869
ssS'bio18'
p1870
(dp1871
g8
S'2015-03-18 20:48:21'
p1872
sg10
S'no'
p1873
sg12
S'ac4570.bio18'
p1874
sg14
I21
sg15
S'bio18'
p1875
sg17
S'Precipitation of Warmest Quarter'
p1876
sg19
S'45'
p1877
sg21
g1647
sg23
S'../views/GTiff/clim.ac4570.bio18.tif'
p1878
sg25
S'climate'
p1879
sg27
S'clim.ac4570.bio18'
p1880
sg29
S'6298'
p1881
sg31
S'Precipitation of Warmest Quarter AC RCP45 2070'
p1882
sg33
g34
sg35
g36
sg37
S'clim.ac4570.bio18.tif'
p1883
sg39
S'clim'
p1884
sg41
g42
sg43
I4326
sg44
S'2070'
p1885
ssS'bio19'
p1886
(dp1887
g8
S'2015-03-18 20:48:21'
p1888
sg10
S'yes'
p1889
sg12
S'ac4570.bio19'
p1890
sg14
I149
sg15
S'bio19'
p1891
sg17
S'Precipitation of Coldest Quarter'
p1892
sg19
S'45'
p1893
sg21
S'ac4570'
p1894
sg23
S'../views/GTiff/clim.ac4570.bio19.tif'
p1895
sg25
S'climate'
p1896
sg27
S'clim.ac4570.bio19'
p1897
sg29
S'6284'
p1898
sg31
S'Precipitation of Coldest Quarter AC RCP45 2070'
p1899
sg33
g34
sg35
g36
sg37
S'clim.ac4570.bio19.tif'
p1900
sg39
S'clim'
p1901
sg41
g42
sg43
I4326
sg44
S'2070'
p1902
ssS'bio02'
p1903
(dp1904
g8
S'2015-03-18 20:48:21'
p1905
sg10
S'yes'
p1906
sg12
S'ac4570.bio02'
p1907
sg14
I285
sg15
S'bio02'
p1908
sg17
S'Mean Diurnal Range (Mean of monthly (max temp - min temp))'
p1909
sg19
S'45'
p1910
sg21
S'ac4570'
p1911
sg23
S'../views/GTiff/clim.ac4570.bio02.tif'
p1912
sg25
S'climate'
p1913
sg27
S'clim.ac4570.bio02'
p1914
sg29
S'6295'
p1915
sg31
S'Mean Diurnal Range (Mean of monthly (max temp - min temp)) AC RCP45 2070'
p1916
sg33
g34
sg35
g36
sg37
S'clim.ac4570.bio02.tif'
p1917
sg39
S'clim'
p1918
sg41
g42
sg43
I4326
sg44
S'2070'
p1919
ssS'bio03'
p1920
(dp1921
g8
S'2015-03-18 20:48:21'
p1922
sg10
S'yes'
p1923
sg12
S'ac4570.bio03'
p1924
sg14
I308
sg15
S'bio03'
p1925
sg17
S'Isothermality (BIO2/BIO7) (* 100)'
p1926
sg19
S'45'
p1927
sg21
S'ac4570'
p1928
sg23
S'../views/GTiff/clim.ac4570.bio03.tif'
p1929
sg25
S'climate'
p1930
sg27
S'clim.ac4570.bio03'
p1931
sg29
S'6294'
p1932
sg31
S'Isothermality (BIO2/BIO7) (* 100) AC RCP45 2070'
p1933
sg33
g34
sg35
g36
sg37
S'clim.ac4570.bio03.tif'
p1934
sg39
S'clim'
p1935
sg41
g42
sg43
I4326
sg44
S'2070'
p1936
ssS'bio09'
p1937
(dp1938
g8
S'2015-03-18 20:48:21'
p1939
sg10
S'yes'
p1940
sg12
S'ac4570.bio09'
p1941
sg14
I147
sg15
S'bio09'
p1942
sg17
S'Mean Temperature of Driest Quarter'
p1943
sg19
S'45'
p1944
sg21
S'ac4570'
p1945
sg23
S'../views/GTiff/clim.ac4570.bio09.tif'
p1946
sg25
S'climate'
p1947
sg27
S'clim.ac4570.bio09'
p1948
sg29
S'6300'
p1949
sg31
S'Mean Temperature of Driest Quarter AC RCP45 2070'
p1950
sg33
g34
sg35
g36
sg37
S'clim.ac4570.bio09.tif'
p1951
sg39
S'clim'
p1952
sg41
g42
sg43
I4326
sg44
S'2070'
p1953
ssS'bio08'
p1954
(dp1955
g8
S'2015-03-18 20:48:21'
p1956
sg10
S'no'
p1957
sg12
S'ac4570.bio08'
p1958
sg14
I176
sg15
S'bio08'
p1959
sg17
S'Mean Temperature of Wettest Quarter'
p1960
sg19
S'45'
p1961
sg21
S'ac4570'
p1962
sg23
S'../views/GTiff/clim.ac4570.bio08.tif'
p1963
sg25
S'climate'
p1964
sg27
S'clim.ac4570.bio08'
p1965
sg29
S'6301'
p1966
sg31
S'Mean Temperature of Wettest Quarter AC RCP45 2070'
p1967
sg33
g34
sg35
g36
sg37
S'clim.ac4570.bio08.tif'
p1968
sg39
S'clim'
p1969
sg41
g42
sg43
I4326
sg44
S'2070'
p1970
sssS'gs4570'
p1971
(dp1972
S'bio10'
p1973
(dp1974
g8
S'2015-03-18 20:48:21'
p1975
sg10
S'yes'
p1976
sg12
S'gs4570.bio10'
p1977
sg14
I225
sg15
S'bio10'
p1978
sg17
S'Mean Temperature of Warmest Quarter'
p1979
sg19
S'45'
p1980
sg21
S'gs4570'
p1981
sg23
S'../views/GTiff/clim.gs4570.bio10.tif'
p1982
sg25
S'climate'
p1983
sg27
S'clim.gs4570.bio10'
p1984
sg29
S'6128'
p1985
sg31
S'Mean Temperature of Warmest Quarter GS RCP45 2070'
p1986
sg33
g34
sg35
g36
sg37
S'clim.gs4570.bio10.tif'
p1987
sg39
S'clim'
p1988
sg41
g42
sg43
I4326
sg44
S'2070'
p1989
ssS'bio16'
p1990
(dp1991
g8
S'2015-03-18 20:48:21'
p1992
sg10
S'yes'
p1993
sg12
S'gs4570.bio16'
p1994
sg14
I163
sg15
S'bio16'
p1995
sg17
S'Precipitation of Wettest Quarter'
p1996
sg19
S'45'
p1997
sg21
S'gs4570'
p1998
sg23
S'../views/GTiff/clim.gs4570.bio16.tif'
p1999
sg25
S'climate'
p2000
sg27
S'clim.gs4570.bio16'
p2001
sg29
S'6132'
p2002
sg31
S'Precipitation of Wettest Quarter GS RCP45 2070'
p2003
sg33
g34
sg35
g36
sg37
S'clim.gs4570.bio16.tif'
p2004
sg39
S'clim'
p2005
sg41
g42
sg43
I4326
sg44
S'2070'
p2006
ssS'bio11'
p2007
(dp2008
g8
S'2015-03-18 20:48:21'
p2009
sg10
S'yes'
p2010
sg12
S'gs4570.bio11'
p2011
sg14
I153
sg15
S'bio11'
p2012
sg17
S'Mean Temperature of Coldest Quarter'
p2013
sg19
S'45'
p2014
sg21
S'gs4570'
p2015
sg23
S'../views/GTiff/clim.gs4570.bio11.tif'
p2016
sg25
S'climate'
p2017
sg27
S'clim.gs4570.bio11'
p2018
sg29
S'6131'
p2019
sg31
S'Mean Temperature of Coldest Quarter GS RCP45 2070'
p2020
sg33
g34
sg35
g36
sg37
S'clim.gs4570.bio11.tif'
p2021
sg39
S'clim'
p2022
sg41
g42
sg43
I4326
sg44
S'2070'
p2023
ssS'bio09'
p2024
(dp2025
g8
S'2015-03-18 20:48:21'
p2026
sg10
S'yes'
p2027
sg12
S'gs4570.bio09'
p2028
sg14
I277
sg15
S'bio09'
p2029
sg17
S'Mean Temperature of Driest Quarter'
p2030
sg19
S'45'
p2031
sg21
S'gs4570'
p2032
sg23
S'../views/GTiff/clim.gs4570.bio09.tif'
p2033
sg25
S'climate'
p2034
sg27
S'clim.gs4570.bio09'
p2035
sg29
S'6145'
p2036
sg31
S'Mean Temperature of Driest Quarter GS RCP45 2070'
p2037
sg33
g34
sg35
g36
sg37
S'clim.gs4570.bio09.tif'
p2038
sg39
S'clim'
p2039
sg41
g42
sg43
I4326
sg44
S'2070'
p2040
ssS'bio05'
p2041
(dp2042
g8
S'2015-03-18 20:48:21'
p2043
sg10
S'yes'
p2044
sg12
S'gs4570.bio05'
p2045
sg14
I316
sg15
S'bio05'
p2046
sg17
S'Max Temperature of Warmest Month'
p2047
sg19
S'45'
p2048
sg21
S'gs4570'
p2049
sg23
S'../views/GTiff/clim.gs4570.bio05.tif'
p2050
sg25
S'climate'
p2051
sg27
S'clim.gs4570.bio05'
p2052
sg29
S'6137'
p2053
sg31
S'Max Temperature of Warmest Month GS RCP45 2070'
p2054
sg33
g34
sg35
g36
sg37
S'clim.gs4570.bio05.tif'
p2055
sg39
S'clim'
p2056
sg41
g42
sg43
I4326
sg44
S'2070'
p2057
ssS'bio07'
p2058
(dp2059
g8
S'2015-03-18 20:48:21'
p2060
sg10
S'no'
p2061
sg12
S'gs4570.bio07'
p2062
sg14
I91
sg15
S'bio07'
p2063
sg17
S'Temperature Annual Range (BIO5-BIO6)'
p2064
sg19
S'45'
p2065
sg21
S'gs4570'
p2066
sg23
S'../views/GTiff/clim.gs4570.bio07.tif'
p2067
sg25
S'climate'
p2068
sg27
S'clim.gs4570.bio07'
p2069
sg29
S'6135'
p2070
sg31
S'Temperature Annual Range (BIO5-BIO6) GS RCP45 2070'
p2071
sg33
g34
sg35
g36
sg37
S'clim.gs4570.bio07.tif'
p2072
sg39
S'clim'
p2073
sg41
g42
sg43
I4326
sg44
S'2070'
p2074
ssS'bio06'
p2075
(dp2076
g8
S'2015-03-18 20:48:21'
p2077
sg10
S'yes'
p2078
sg12
S'gs4570.bio06'
p2079
sg14
I38
sg15
S'bio06'
p2080
sg17
S'Min Temperature of Coldest Month'
p2081
sg19
S'45'
p2082
sg21
S'gs4570'
p2083
sg23
S'../views/GTiff/clim.gs4570.bio06.tif'
p2084
sg25
S'climate'
p2085
sg27
S'clim.gs4570.bio06'
p2086
sg29
S'6136'
p2087
sg31
S'Min Temperature of Coldest Month GS RCP45 2070'
p2088
sg33
g34
sg35
g36
sg37
S'clim.gs4570.bio06.tif'
p2089
sg39
S'clim'
p2090
sg41
g42
sg43
I4326
sg44
S'2070'
p2091
ssS'bio12'
p2092
(dp2093
g8
S'2015-03-18 20:48:21'
p2094
sg10
S'no'
p2095
sg12
S'gs4570.bio12'
p2096
sg14
I166
sg15
S'bio12'
p2097
sg17
S'Annual Precipitation'
p2098
sg19
S'45'
p2099
sg21
S'gs4570'
p2100
sg23
S'../views/GTiff/clim.gs4570.bio12.tif'
p2101
sg25
S'climate'
p2102
sg27
S'clim.gs4570.bio12'
p2103
sg29
S'6134'
p2104
sg31
S'Annual Precipitation GS RCP45 2070'
p2105
sg33
g34
sg35
g36
sg37
S'clim.gs4570.bio12.tif'
p2106
sg39
S'clim'
p2107
sg41
g42
sg43
I4326
sg44
S'2070'
p2108
ssS'bio13'
p2109
(dp2110
g8
S'2015-03-18 20:48:21'
p2111
sg10
S'yes'
p2112
sg12
S'gs4570.bio13'
p2113
sg14
I14
sg15
S'bio13'
p2114
sg17
S'Precipitation of Wettest Month'
p2115
sg19
S'45'
p2116
sg21
S'gs4570'
p2117
sg23
S'../views/GTiff/clim.gs4570.bio13.tif'
p2118
sg25
S'climate'
p2119
sg27
S'clim.gs4570.bio13'
p2120
sg29
S'6130'
p2121
sg31
S'Precipitation of Wettest Month GS RCP45 2070'
p2122
sg33
g34
sg35
g36
sg37
S'clim.gs4570.bio13.tif'
p2123
sg39
S'clim'
p2124
sg41
g42
sg43
I4326
sg44
S'2070'
p2125
ssS'bio14'
p2126
(dp2127
g8
S'2015-03-18 20:48:21'
p2128
sg10
S'yes'
p2129
sg12
S'gs4570.bio14'
p2130
sg14
I7
sg15
S'bio14'
p2131
sg17
S'Precipitation of Driest Month'
p2132
sg19
S'45'
p2133
sg21
S'gs4570'
p2134
sg23
S'../views/GTiff/clim.gs4570.bio14.tif'
p2135
sg25
S'climate'
p2136
sg27
S'clim.gs4570.bio14'
p2137
sg29
S'6144'
p2138
sg31
S'Precipitation of Driest Month GS RCP45 2070'
p2139
sg33
g34
sg35
g36
sg37
S'clim.gs4570.bio14.tif'
p2140
sg39
S'clim'
p2141
sg41
g42
sg43
I4326
sg44
S'2070'
p2142
ssS'bio15'
p2143
(dp2144
g8
S'2015-03-18 20:48:21'
p2145
sg10
S'no'
p2146
sg12
S'gs4570.bio15'
p2147
sg14
I212
sg15
S'bio15'
p2148
sg17
S'Precipitation Seasonality (Coefficient of Variation)'
p2149
sg19
S'45'
p2150
sg21
S'gs4570'
p2151
sg23
S'../views/GTiff/clim.gs4570.bio15.tif'
p2152
sg25
S'climate'
p2153
sg27
S'clim.gs4570.bio15'
p2154
sg29
S'6133'
p2155
sg31
S'Precipitation Seasonality (Coefficient of Variation) GS RCP45 2070'
p2156
sg33
g34
sg35
g36
sg37
S'clim.gs4570.bio15.tif'
p2157
sg39
S'clim'
p2158
sg41
g42
sg43
I4326
sg44
S'2070'
p2159
ssS'bio01'
p2160
(dp2161
g8
S'2015-03-18 20:48:21'
p2162
sg10
S'no'
p2163
sg12
S'gs4570.bio01'
p2164
sg14
I17
sg15
S'bio01'
p2165
sg17
S'Annual Mean Temperature'
p2166
sg19
S'45'
p2167
sg21
S'gs4570'
p2168
sg23
S'../views/GTiff/clim.gs4570.bio01.tif'
p2169
sg25
S'climate'
p2170
sg27
S'clim.gs4570.bio01'
p2171
sg29
S'6141'
p2172
sg31
S'Annual Mean Temperature GS RCP45 2070'
p2173
sg33
g34
sg35
g36
sg37
S'clim.gs4570.bio01.tif'
p2174
sg39
S'clim'
p2175
sg41
g42
sg43
I4326
sg44
S'2070'
p2176
ssS'bio17'
p2177
(dp2178
g8
S'2015-03-18 20:48:21'
p2179
sg10
S'yes'
p2180
sg12
S'gs4570.bio17'
p2181
sg14
I325
sg15
S'bio17'
p2182
sg17
S'Precipitation of Driest Quarter'
p2183
sg19
S'45'
p2184
sg21
S'gs4570'
p2185
sg23
S'../views/GTiff/clim.gs4570.bio17.tif'
p2186
sg25
S'climate'
p2187
sg27
S'clim.gs4570.bio17'
p2188
sg29
S'6142'
p2189
sg31
S'Precipitation of Driest Quarter GS RCP45 2070'
p2190
sg33
g34
sg35
g36
sg37
S'clim.gs4570.bio17.tif'
p2191
sg39
S'clim'
p2192
sg41
g42
sg43
I4326
sg44
S'2070'
p2193
ssS'bio18'
p2194
(dp2195
g8
S'2015-03-18 20:48:21'
p2196
sg10
S'no'
p2197
sg12
S'gs4570.bio18'
p2198
sg14
I96
sg15
S'bio18'
p2199
sg17
S'Precipitation of Warmest Quarter'
p2200
sg19
S'45'
p2201
sg21
S'gs4570'
p2202
sg23
S'../views/GTiff/clim.gs4570.bio18.tif'
p2203
sg25
S'climate'
p2204
sg27
S'clim.gs4570.bio18'
p2205
sg29
S'6143'
p2206
sg31
S'Precipitation of Warmest Quarter GS RCP45 2070'
p2207
sg33
g34
sg35
g36
sg37
S'clim.gs4570.bio18.tif'
p2208
sg39
S'clim'
p2209
sg41
g42
sg43
I4326
sg44
S'2070'
p2210
ssS'bio19'
p2211
(dp2212
g8
S'2015-03-18 20:48:21'
p2213
sg10
S'yes'
p2214
sg12
S'gs4570.bio19'
p2215
sg14
I3
sg15
S'bio19'
p2216
sg17
S'Precipitation of Coldest Quarter'
p2217
sg19
S'45'
p2218
sg21
g1971
sg23
S'../views/GTiff/clim.gs4570.bio19.tif'
p2219
sg25
S'climate'
p2220
sg27
S'clim.gs4570.bio19'
p2221
sg29
S'6129'
p2222
sg31
S'Precipitation of Coldest Quarter GS RCP45 2070'
p2223
sg33
g34
sg35
g36
sg37
S'clim.gs4570.bio19.tif'
p2224
sg39
S'clim'
p2225
sg41
g42
sg43
I4326
sg44
S'2070'
p2226
ssS'bio02'
p2227
(dp2228
g8
S'2015-03-18 20:48:21'
p2229
sg10
S'yes'
p2230
sg12
S'gs4570.bio02'
p2231
sg14
I243
sg15
S'bio02'
p2232
sg17
S'Mean Diurnal Range (Mean of monthly (max temp - min temp))'
p2233
sg19
S'45'
p2234
sg21
S'gs4570'
p2235
sg23
S'../views/GTiff/clim.gs4570.bio02.tif'
p2236
sg25
S'climate'
p2237
sg27
S'clim.gs4570.bio02'
p2238
sg29
S'6140'
p2239
sg31
S'Mean Diurnal Range (Mean of monthly (max temp - min temp)) GS RCP45 2070'
p2240
sg33
g34
sg35
g36
sg37
S'clim.gs4570.bio02.tif'
p2241
sg39
S'clim'
p2242
sg41
g42
sg43
I4326
sg44
S'2070'
p2243
ssS'bio03'
p2244
(dp2245
g8
S'2015-03-18 20:48:21'
p2246
sg10
S'yes'
p2247
sg12
S'gs4570.bio03'
p2248
sg14
I339
sg15
S'bio03'
p2249
sg17
S'Isothermality (BIO2/BIO7) (* 100)'
p2250
sg19
S'45'
p2251
sg21
S'gs4570'
p2252
sg23
S'../views/GTiff/clim.gs4570.bio03.tif'
p2253
sg25
S'climate'
p2254
sg27
S'clim.gs4570.bio03'
p2255
sg29
S'6139'
p2256
sg31
S'Isothermality (BIO2/BIO7) (* 100) GS RCP45 2070'
p2257
sg33
g34
sg35
g36
sg37
S'clim.gs4570.bio03.tif'
p2258
sg39
S'clim'
p2259
sg41
g42
sg43
I4326
sg44
S'2070'
p2260
ssS'bio04'
p2261
(dp2262
g8
S'2015-03-18 20:48:21'
p2263
sg10
S'yes'
p2264
sg12
S'gs4570.bio04'
p2265
sg14
I67
sg15
S'bio04'
p2266
sg17
S'Temperature Seasonality (standard deviation *100)'
p2267
sg19
S'45'
p2268
sg21
S'gs4570'
p2269
sg23
S'../views/GTiff/clim.gs4570.bio04.tif'
p2270
sg25
S'climate'
p2271
sg27
S'clim.gs4570.bio04'
p2272
sg29
S'6138'
p2273
sg31
S'Temperature Seasonality (standard deviation *100) GS RCP45 2070'
p2274
sg33
g34
sg35
g36
sg37
S'clim.gs4570.bio04.tif'
p2275
sg39
S'clim'
p2276
sg41
g42
sg43
I4326
sg44
S'2070'
p2277
ssS'bio08'
p2278
(dp2279
g8
S'2015-03-18 20:48:21'
p2280
sg10
S'no'
p2281
sg12
S'gs4570.bio08'
p2282
sg14
I46
sg15
S'bio08'
p2283
sg17
S'Mean Temperature of Wettest Quarter'
p2284
sg19
S'45'
p2285
sg21
S'gs4570'
p2286
sg23
S'../views/GTiff/clim.gs4570.bio08.tif'
p2287
sg25
S'climate'
p2288
sg27
S'clim.gs4570.bio08'
p2289
sg29
S'6146'
p2290
sg31
S'Mean Temperature of Wettest Quarter GS RCP45 2070'
p2291
sg33
g34
sg35
g36
sg37
S'clim.gs4570.bio08.tif'
p2292
sg39
S'clim'
p2293
sg41
g42
sg43
I4326
sg44
S'2070'
p2294
sssS'he6050'
p2295
(dp2296
S'bio10'
p2297
(dp2298
g8
S'2015-03-18 20:48:21'
p2299
sg10
S'yes'
p2300
sg12
S'he6050.bio10'
p2301
sg14
I303
sg15
S'bio10'
p2302
sg17
S'Mean Temperature of Warmest Quarter'
p2303
sg19
S'60'
p2304
sg21
S'he6050'
p2305
sg23
S'../views/GTiff/clim.he6050.bio10.tif'
p2306
sg25
S'climate'
p2307
sg27
S'clim.he6050.bio10'
p2308
sg29
S'6245'
p2309
sg31
S'Mean Temperature of Warmest Quarter HE RCP60 2050'
p2310
sg33
g34
sg35
g36
sg37
S'clim.he6050.bio10.tif'
p2311
sg39
S'clim'
p2312
sg41
g42
sg43
I4326
sg44
S'2050'
p2313
ssS'bio16'
p2314
(dp2315
g8
S'2015-03-18 20:48:21'
p2316
sg10
S'yes'
p2317
sg12
S'he6050.bio16'
p2318
sg14
I87
sg15
S'bio16'
p2319
sg17
S'Precipitation of Wettest Quarter'
p2320
sg19
S'60'
p2321
sg21
S'he6050'
p2322
sg23
S'../views/GTiff/clim.he6050.bio16.tif'
p2323
sg25
S'climate'
p2324
sg27
S'clim.he6050.bio16'
p2325
sg29
S'6249'
p2326
sg31
S'Precipitation of Wettest Quarter HE RCP60 2050'
p2327
sg33
g34
sg35
g36
sg37
S'clim.he6050.bio16.tif'
p2328
sg39
S'clim'
p2329
sg41
g42
sg43
I4326
sg44
S'2050'
p2330
ssS'bio06'
p2331
(dp2332
g8
S'2015-03-18 20:48:21'
p2333
sg10
S'yes'
p2334
sg12
S'he6050.bio06'
p2335
sg14
I320
sg15
S'bio06'
p2336
sg17
S'Min Temperature of Coldest Month'
p2337
sg19
S'60'
p2338
sg21
S'he6050'
p2339
sg23
S'../views/GTiff/clim.he6050.bio06.tif'
p2340
sg25
S'climate'
p2341
sg27
S'clim.he6050.bio06'
p2342
sg29
S'6253'
p2343
sg31
S'Min Temperature of Coldest Month HE RCP60 2050'
p2344
sg33
g34
sg35
g36
sg37
S'clim.he6050.bio06.tif'
p2345
sg39
S'clim'
p2346
sg41
g42
sg43
I4326
sg44
S'2050'
p2347
ssS'bio05'
p2348
(dp2349
g8
S'2015-03-18 20:48:21'
p2350
sg10
S'yes'
p2351
sg12
S'he6050.bio05'
p2352
sg14
I336
sg15
S'bio05'
p2353
sg17
S'Max Temperature of Warmest Month'
p2354
sg19
S'60'
p2355
sg21
S'he6050'
p2356
sg23
S'../views/GTiff/clim.he6050.bio05.tif'
p2357
sg25
S'climate'
p2358
sg27
S'clim.he6050.bio05'
p2359
sg29
S'6254'
p2360
sg31
S'Max Temperature of Warmest Month HE RCP60 2050'
p2361
sg33
g34
sg35
g36
sg37
S'clim.he6050.bio05.tif'
p2362
sg39
S'clim'
p2363
sg41
g42
sg43
I4326
sg44
S'2050'
p2364
ssS'bio14'
p2365
(dp2366
g8
S'2015-03-18 20:48:21'
p2367
sg10
S'yes'
p2368
sg12
S'he6050.bio14'
p2369
sg14
I198
sg15
S'bio14'
p2370
sg17
S'Precipitation of Driest Month'
p2371
sg19
S'60'
p2372
sg21
S'he6050'
p2373
sg23
S'../views/GTiff/clim.he6050.bio14.tif'
p2374
sg25
S'climate'
p2375
sg27
S'clim.he6050.bio14'
p2376
sg29
S'6261'
p2377
sg31
S'Precipitation of Driest Month HE RCP60 2050'
p2378
sg33
g34
sg35
g36
sg37
S'clim.he6050.bio14.tif'
p2379
sg39
S'clim'
p2380
sg41
g42
sg43
I4326
sg44
S'2050'
p2381
ssS'bio07'
p2382
(dp2383
g8
S'2015-03-18 20:48:21'
p2384
sg10
S'no'
p2385
sg12
S'he6050.bio07'
p2386
sg14
I52
sg15
S'bio07'
p2387
sg17
S'Temperature Annual Range (BIO5-BIO6)'
p2388
sg19
S'60'
p2389
sg21
S'he6050'
p2390
sg23
S'../views/GTiff/clim.he6050.bio07.tif'
p2391
sg25
S'climate'
p2392
sg27
S'clim.he6050.bio07'
p2393
sg29
S'6252'
p2394
sg31
S'Temperature Annual Range (BIO5-BIO6) HE RCP60 2050'
p2395
sg33
g34
sg35
g36
sg37
S'clim.he6050.bio07.tif'
p2396
sg39
S'clim'
p2397
sg41
g42
sg43
I4326
sg44
S'2050'
p2398
ssS'bio11'
p2399
(dp2400
g8
S'2015-03-18 20:48:21'
p2401
sg10
S'yes'
p2402
sg12
S'he6050.bio11'
p2403
sg14
I231
sg15
S'bio11'
p2404
sg17
S'Mean Temperature of Coldest Quarter'
p2405
sg19
S'60'
p2406
sg21
S'he6050'
p2407
sg23
S'../views/GTiff/clim.he6050.bio11.tif'
p2408
sg25
S'climate'
p2409
sg27
S'clim.he6050.bio11'
p2410
sg29
S'6248'
p2411
sg31
S'Mean Temperature of Coldest Quarter HE RCP60 2050'
p2412
sg33
g34
sg35
g36
sg37
S'clim.he6050.bio11.tif'
p2413
sg39
S'clim'
p2414
sg41
g42
sg43
I4326
sg44
S'2050'
p2415
ssS'bio12'
p2416
(dp2417
g8
S'2015-03-18 20:48:21'
p2418
sg10
S'no'
p2419
sg12
S'he6050.bio12'
p2420
sg14
I0
sg15
S'bio12'
p2421
sg17
S'Annual Precipitation'
p2422
sg19
S'60'
p2423
sg21
g2295
sg23
S'../views/GTiff/clim.he6050.bio12.tif'
p2424
sg25
S'climate'
p2425
sg27
S'clim.he6050.bio12'
p2426
sg29
S'6251'
p2427
sg31
S'Annual Precipitation HE RCP60 2050'
p2428
sg33
g34
sg35
g36
sg37
S'clim.he6050.bio12.tif'
p2429
sg39
g2
sg41
g42
sg43
I4326
sg44
S'2050'
p2430
ssS'bio13'
p2431
(dp2432
g8
S'2015-03-18 20:48:21'
p2433
sg10
S'yes'
p2434
sg12
S'he6050.bio13'
p2435
sg14
I99
sg15
S'bio13'
p2436
sg17
S'Precipitation of Wettest Month'
p2437
sg19
S'60'
p2438
sg21
S'he6050'
p2439
sg23
S'../views/GTiff/clim.he6050.bio13.tif'
p2440
sg25
S'climate'
p2441
sg27
S'clim.he6050.bio13'
p2442
sg29
S'6247'
p2443
sg31
S'Precipitation of Wettest Month HE RCP60 2050'
p2444
sg33
g34
sg35
g36
sg37
S'clim.he6050.bio13.tif'
p2445
sg39
S'clim'
p2446
sg41
g42
sg43
I4326
sg44
S'2050'
p2447
ssS'bio03'
p2448
(dp2449
g8
S'2015-03-18 20:48:21'
p2450
sg10
S'yes'
p2451
sg12
S'he6050.bio03'
p2452
sg14
I65
sg15
S'bio03'
p2453
sg17
S'Isothermality (BIO2/BIO7) (* 100)'
p2454
sg19
S'60'
p2455
sg21
S'he6050'
p2456
sg23
S'../views/GTiff/clim.he6050.bio03.tif'
p2457
sg25
S'climate'
p2458
sg27
S'clim.he6050.bio03'
p2459
sg29
S'6256'
p2460
sg31
S'Isothermality (BIO2/BIO7) (* 100) HE RCP60 2050'
p2461
sg33
g34
sg35
g36
sg37
S'clim.he6050.bio03.tif'
p2462
sg39
S'clim'
p2463
sg41
g42
sg43
I4326
sg44
S'2050'
p2464
ssS'bio02'
p2465
(dp2466
g8
S'2015-03-18 20:48:21'
p2467
sg10
S'yes'
p2468
sg12
S'he6050.bio02'
p2469
sg14
I32
sg15
S'bio02'
p2470
sg17
S'Mean Diurnal Range (Mean of monthly (max temp - min temp))'
p2471
sg19
S'60'
p2472
sg21
S'he6050'
p2473
sg23
S'../views/GTiff/clim.he6050.bio02.tif'
p2474
sg25
S'climate'
p2475
sg27
S'clim.he6050.bio02'
p2476
sg29
S'6257'
p2477
sg31
S'Mean Diurnal Range (Mean of monthly (max temp - min temp)) HE RCP60 2050'
p2478
sg33
g34
sg35
g36
sg37
S'clim.he6050.bio02.tif'
p2479
sg39
S'clim'
p2480
sg41
g42
sg43
I4326
sg44
S'2050'
p2481
ssS'bio01'
p2482
(dp2483
g8
S'2015-03-18 20:48:21'
p2484
sg10
S'no'
p2485
sg12
S'he6050.bio01'
p2486
sg14
I28
sg15
S'bio01'
p2487
sg17
S'Annual Mean Temperature'
p2488
sg19
S'60'
p2489
sg21
S'he6050'
p2490
sg23
S'../views/GTiff/clim.he6050.bio01.tif'
p2491
sg25
S'climate'
p2492
sg27
S'clim.he6050.bio01'
p2493
sg29
S'6258'
p2494
sg31
S'Annual Mean Temperature HE RCP60 2050'
p2495
sg33
g34
sg35
g36
sg37
S'clim.he6050.bio01.tif'
p2496
sg39
S'clim'
p2497
sg41
g42
sg43
I4326
sg44
S'2050'
p2498
ssS'bio17'
p2499
(dp2500
g8
S'2015-03-18 20:48:21'
p2501
sg10
S'yes'
p2502
sg12
S'he6050.bio17'
p2503
sg14
I19
sg15
S'bio17'
p2504
sg17
S'Precipitation of Driest Quarter'
p2505
sg19
S'60'
p2506
sg21
S'he6050'
p2507
sg23
S'../views/GTiff/clim.he6050.bio17.tif'
p2508
sg25
S'climate'
p2509
sg27
S'clim.he6050.bio17'
p2510
sg29
S'6259'
p2511
sg31
S'Precipitation of Driest Quarter HE RCP60 2050'
p2512
sg33
g34
sg35
g36
sg37
S'clim.he6050.bio17.tif'
p2513
sg39
S'clim'
p2514
sg41
g42
sg43
I4326
sg44
S'2050'
p2515
ssS'bio18'
p2516
(dp2517
g8
S'2015-03-18 20:48:21'
p2518
sg10
S'no'
p2519
sg12
S'he6050.bio18'
p2520
sg14
I301
sg15
S'bio18'
p2521
sg17
S'Precipitation of Warmest Quarter'
p2522
sg19
S'60'
p2523
sg21
S'he6050'
p2524
sg23
S'../views/GTiff/clim.he6050.bio18.tif'
p2525
sg25
S'climate'
p2526
sg27
S'clim.he6050.bio18'
p2527
sg29
S'6260'
p2528
sg31
S'Precipitation of Warmest Quarter HE RCP60 2050'
p2529
sg33
g34
sg35
g36
sg37
S'clim.he6050.bio18.tif'
p2530
sg39
S'clim'
p2531
sg41
g42
sg43
I4326
sg44
S'2050'
p2532
ssS'bio19'
p2533
(dp2534
g8
S'2015-03-18 20:48:21'
p2535
sg10
S'yes'
p2536
sg12
S'he6050.bio19'
p2537
sg14
I108
sg15
S'bio19'
p2538
sg17
S'Precipitation of Coldest Quarter'
p2539
sg19
S'60'
p2540
sg21
S'he6050'
p2541
sg23
S'../views/GTiff/clim.he6050.bio19.tif'
p2542
sg25
S'climate'
p2543
sg27
S'clim.he6050.bio19'
p2544
sg29
S'6246'
p2545
sg31
S'Precipitation of Coldest Quarter HE RCP60 2050'
p2546
sg33
g34
sg35
g36
sg37
S'clim.he6050.bio19.tif'
p2547
sg39
S'clim'
p2548
sg41
g42
sg43
I4326
sg44
S'2050'
p2549
ssS'bio04'
p2550
(dp2551
g8
S'2015-03-18 20:48:21'
p2552
sg10
S'yes'
p2553
sg12
S'he6050.bio04'
p2554
sg14
I124
sg15
S'bio04'
p2555
sg17
S'Temperature Seasonality (standard deviation *100)'
p2556
sg19
S'60'
p2557
sg21
S'he6050'
p2558
sg23
S'../views/GTiff/clim.he6050.bio04.tif'
p2559
sg25
S'climate'
p2560
sg27
S'clim.he6050.bio04'
p2561
sg29
S'6255'
p2562
sg31
S'Temperature Seasonality (standard deviation *100) HE RCP60 2050'
p2563
sg33
g34
sg35
g36
sg37
S'clim.he6050.bio04.tif'
p2564
sg39
S'clim'
p2565
sg41
g42
sg43
I4326
sg44
S'2050'
p2566
ssS'bio08'
p2567
(dp2568
g8
S'2015-03-18 20:48:21'
p2569
sg10
S'no'
p2570
sg12
S'he6050.bio08'
p2571
sg14
I215
sg15
S'bio08'
p2572
sg17
S'Mean Temperature of Wettest Quarter'
p2573
sg19
S'60'
p2574
sg21
S'he6050'
p2575
sg23
S'../views/GTiff/clim.he6050.bio08.tif'
p2576
sg25
S'climate'
p2577
sg27
S'clim.he6050.bio08'
p2578
sg29
S'6263'
p2579
sg31
S'Mean Temperature of Wettest Quarter HE RCP60 2050'
p2580
sg33
g34
sg35
g36
sg37
S'clim.he6050.bio08.tif'
p2581
sg39
S'clim'
p2582
sg41
g42
sg43
I4326
sg44
S'2050'
p2583
ssS'bio09'
p2584
(dp2585
g8
S'2015-03-18 20:48:21'
p2586
sg10
S'yes'
p2587
sg12
S'he6050.bio09'
p2588
sg14
I98
sg15
S'bio09'
p2589
sg17
S'Mean Temperature of Driest Quarter'
p2590
sg19
S'60'
p2591
sg21
S'he6050'
p2592
sg23
S'../views/GTiff/clim.he6050.bio09.tif'
p2593
sg25
S'climate'
p2594
sg27
S'clim.he6050.bio09'
p2595
sg29
S'6262'
p2596
sg31
S'Mean Temperature of Driest Quarter HE RCP60 2050'
p2597
sg33
g34
sg35
g36
sg37
S'clim.he6050.bio09.tif'
p2598
sg39
S'clim'
p2599
sg41
g42
sg43
I4326
sg44
S'2050'
p2600
ssS'bio15'
p2601
(dp2602
g8
S'2015-03-18 20:48:21'
p2603
sg10
S'no'
p2604
sg12
S'he6050.bio15'
p2605
sg14
I121
sg15
S'bio15'
p2606
sg17
S'Precipitation Seasonality (Coefficient of Variation)'
p2607
sg19
S'60'
p2608
sg21
S'he6050'
p2609
sg23
S'../views/GTiff/clim.he6050.bio15.tif'
p2610
sg25
S'climate'
p2611
sg27
S'clim.he6050.bio15'
p2612
sg29
S'6250'
p2613
sg31
S'Precipitation Seasonality (Coefficient of Variation) HE RCP60 2050'
p2614
sg33
g34
sg35
g36
sg37
S'clim.he6050.bio15.tif'
p2615
sg39
S'clim'
p2616
sg41
g42
sg43
I4326
sg44
S'2050'
p2617
sssS'gd4570'
p2618
(dp2619
S'bio10'
p2620
(dp2621
g8
S'2015-03-18 20:48:21'
p2622
sg10
S'yes'
p2623
sg12
S'gd4570.bio10'
p2624
sg14
I122
sg15
S'bio10'
p2625
sg17
S'Mean Temperature of Warmest Quarter'
p2626
sg19
S'45'
p2627
sg21
S'gd4570'
p2628
sg23
S'../views/GTiff/clim.gd4570.bio10.tif'
p2629
sg25
S'climate'
p2630
sg27
S'clim.gd4570.bio10'
p2631
sg29
S'6302'
p2632
sg31
S'Mean Temperature of Warmest Quarter GD RCP45 2070'
p2633
sg33
g34
sg35
g36
sg37
S'clim.gd4570.bio10.tif'
p2634
sg39
S'clim'
p2635
sg41
g42
sg43
I4326
sg44
S'2070'
p2636
ssS'bio19'
p2637
(dp2638
g8
S'2015-03-18 20:48:21'
p2639
sg10
S'yes'
p2640
sg12
S'gd4570.bio19'
p2641
sg14
I307
sg15
S'bio19'
p2642
sg17
S'Precipitation of Coldest Quarter'
p2643
sg19
S'45'
p2644
sg21
S'gd4570'
p2645
sg23
S'../views/GTiff/clim.gd4570.bio19.tif'
p2646
sg25
S'climate'
p2647
sg27
S'clim.gd4570.bio19'
p2648
sg29
S'6303'
p2649
sg31
S'Precipitation of Coldest Quarter GD RCP45 2070'
p2650
sg33
g34
sg35
g36
sg37
S'clim.gd4570.bio19.tif'
p2651
sg39
S'clim'
p2652
sg41
g42
sg43
I4326
sg44
S'2070'
p2653
ssS'bio01'
p2654
(dp2655
g8
S'2015-03-18 20:48:21'
p2656
sg10
S'no'
p2657
sg12
S'gd4570.bio01'
p2658
sg14
I274
sg15
S'bio01'
p2659
sg17
S'Annual Mean Temperature'
p2660
sg19
S'45'
p2661
sg21
S'gd4570'
p2662
sg23
S'../views/GTiff/clim.gd4570.bio01.tif'
p2663
sg25
S'climate'
p2664
sg27
S'clim.gd4570.bio01'
p2665
sg29
S'6315'
p2666
sg31
S'Annual Mean Temperature GD RCP45 2070'
p2667
sg33
g34
sg35
g36
sg37
S'clim.gd4570.bio01.tif'
p2668
sg39
S'clim'
p2669
sg41
g42
sg43
I4326
sg44
S'2070'
p2670
ssS'bio06'
p2671
(dp2672
g8
S'2015-03-18 20:48:21'
p2673
sg10
S'yes'
p2674
sg12
S'gd4570.bio06'
p2675
sg14
I298
sg15
S'bio06'
p2676
sg17
S'Min Temperature of Coldest Month'
p2677
sg19
S'45'
p2678
sg21
S'gd4570'
p2679
sg23
S'../views/GTiff/clim.gd4570.bio06.tif'
p2680
sg25
S'climate'
p2681
sg27
S'clim.gd4570.bio06'
p2682
sg29
S'6310'
p2683
sg31
S'Min Temperature of Coldest Month GD RCP45 2070'
p2684
sg33
g34
sg35
g36
sg37
S'clim.gd4570.bio06.tif'
p2685
sg39
S'clim'
p2686
sg41
g42
sg43
I4326
sg44
S'2070'
p2687
ssS'bio15'
p2688
(dp2689
g8
S'2015-03-18 20:48:21'
p2690
sg10
S'no'
p2691
sg12
S'gd4570.bio15'
p2692
sg14
I158
sg15
S'bio15'
p2693
sg17
S'Precipitation Seasonality (Coefficient of Variation)'
p2694
sg19
S'45'
p2695
sg21
S'gd4570'
p2696
sg23
S'../views/GTiff/clim.gd4570.bio15.tif'
p2697
sg25
S'climate'
p2698
sg27
S'clim.gd4570.bio15'
p2699
sg29
S'6307'
p2700
sg31
S'Precipitation Seasonality (Coefficient of Variation) GD RCP45 2070'
p2701
sg33
g34
sg35
g36
sg37
S'clim.gd4570.bio15.tif'
p2702
sg39
S'clim'
p2703
sg41
g42
sg43
I4326
sg44
S'2070'
p2704
ssS'bio13'
p2705
(dp2706
g8
S'2015-03-18 20:48:21'
p2707
sg10
S'yes'
p2708
sg12
S'gd4570.bio13'
p2709
sg14
I283
sg15
S'bio13'
p2710
sg17
S'Precipitation of Wettest Month'
p2711
sg19
S'45'
p2712
sg21
S'gd4570'
p2713
sg23
S'../views/GTiff/clim.gd4570.bio13.tif'
p2714
sg25
S'climate'
p2715
sg27
S'clim.gd4570.bio13'
p2716
sg29
S'6304'
p2717
sg31
S'Precipitation of Wettest Month GD RCP45 2070'
p2718
sg33
g34
sg35
g36
sg37
S'clim.gd4570.bio13.tif'
p2719
sg39
S'clim'
p2720
sg41
g42
sg43
I4326
sg44
S'2070'
p2721
ssS'bio12'
p2722
(dp2723
g8
S'2015-03-18 20:48:21'
p2724
sg10
S'no'
p2725
sg12
S'gd4570.bio12'
p2726
sg14
I334
sg15
S'bio12'
p2727
sg17
S'Annual Precipitation'
p2728
sg19
S'45'
p2729
sg21
S'gd4570'
p2730
sg23
S'../views/GTiff/clim.gd4570.bio12.tif'
p2731
sg25
S'climate'
p2732
sg27
S'clim.gd4570.bio12'
p2733
sg29
S'6308'
p2734
sg31
S'Annual Precipitation GD RCP45 2070'
p2735
sg33
g34
sg35
g36
sg37
S'clim.gd4570.bio12.tif'
p2736
sg39
S'clim'
p2737
sg41
g42
sg43
I4326
sg44
S'2070'
p2738
ssS'bio07'
p2739
(dp2740
g8
S'2015-03-18 20:48:21'
p2741
sg10
S'no'
p2742
sg12
S'gd4570.bio07'
p2743
sg14
I55
sg15
S'bio07'
p2744
sg17
S'Temperature Annual Range (BIO5-BIO6)'
p2745
sg19
S'45'
p2746
sg21
S'gd4570'
p2747
sg23
S'../views/GTiff/clim.gd4570.bio07.tif'
p2748
sg25
S'climate'
p2749
sg27
S'clim.gd4570.bio07'
p2750
sg29
S'6309'
p2751
sg31
S'Temperature Annual Range (BIO5-BIO6) GD RCP45 2070'
p2752
sg33
g34
sg35
g36
sg37
S'clim.gd4570.bio07.tif'
p2753
sg39
S'clim'
p2754
sg41
g42
sg43
I4326
sg44
S'2070'
p2755
ssS'bio11'
p2756
(dp2757
g8
S'2015-03-18 20:48:21'
p2758
sg10
S'yes'
p2759
sg12
S'gd4570.bio11'
p2760
sg14
I48
sg15
S'bio11'
p2761
sg17
S'Mean Temperature of Coldest Quarter'
p2762
sg19
S'45'
p2763
sg21
S'gd4570'
p2764
sg23
S'../views/GTiff/clim.gd4570.bio11.tif'
p2765
sg25
S'climate'
p2766
sg27
S'clim.gd4570.bio11'
p2767
sg29
S'6305'
p2768
sg31
S'Mean Temperature of Coldest Quarter GD RCP45 2070'
p2769
sg33
g34
sg35
g36
sg37
S'clim.gd4570.bio11.tif'
p2770
sg39
S'clim'
p2771
sg41
g42
sg43
I4326
sg44
S'2070'
p2772
ssS'bio05'
p2773
(dp2774
g8
S'2015-03-18 20:48:21'
p2775
sg10
S'yes'
p2776
sg12
S'gd4570.bio05'
p2777
sg14
I125
sg15
S'bio05'
p2778
sg17
S'Max Temperature of Warmest Month'
p2779
sg19
S'45'
p2780
sg21
S'gd4570'
p2781
sg23
S'../views/GTiff/clim.gd4570.bio05.tif'
p2782
sg25
S'climate'
p2783
sg27
S'clim.gd4570.bio05'
p2784
sg29
S'6311'
p2785
sg31
S'Max Temperature of Warmest Month GD RCP45 2070'
p2786
sg33
g34
sg35
g36
sg37
S'clim.gd4570.bio05.tif'
p2787
sg39
S'clim'
p2788
sg41
g42
sg43
I4326
sg44
S'2070'
p2789
ssS'bio04'
p2790
(dp2791
g8
S'2015-03-18 20:48:21'
p2792
sg10
S'yes'
p2793
sg12
S'gd4570.bio04'
p2794
sg14
I56
sg15
S'bio04'
p2795
sg17
S'Temperature Seasonality (standard deviation *100)'
p2796
sg19
S'45'
p2797
sg21
S'gd4570'
p2798
sg23
S'../views/GTiff/clim.gd4570.bio04.tif'
p2799
sg25
S'climate'
p2800
sg27
S'clim.gd4570.bio04'
p2801
sg29
S'6312'
p2802
sg31
S'Temperature Seasonality (standard deviation *100) GD RCP45 2070'
p2803
sg33
g34
sg35
g36
sg37
S'clim.gd4570.bio04.tif'
p2804
sg39
S'clim'
p2805
sg41
g42
sg43
I4326
sg44
S'2070'
p2806
ssS'bio03'
p2807
(dp2808
g8
S'2015-03-18 20:48:21'
p2809
sg10
S'yes'
p2810
sg12
S'gd4570.bio03'
p2811
sg14
I139
sg15
S'bio03'
p2812
sg17
S'Isothermality (BIO2/BIO7) (* 100)'
p2813
sg19
S'45'
p2814
sg21
S'gd4570'
p2815
sg23
S'../views/GTiff/clim.gd4570.bio03.tif'
p2816
sg25
S'climate'
p2817
sg27
S'clim.gd4570.bio03'
p2818
sg29
S'6313'
p2819
sg31
S'Isothermality (BIO2/BIO7) (* 100) GD RCP45 2070'
p2820
sg33
g34
sg35
g36
sg37
S'clim.gd4570.bio03.tif'
p2821
sg39
S'clim'
p2822
sg41
g42
sg43
I4326
sg44
S'2070'
p2823
ssS'bio02'
p2824
(dp2825
g8
S'2015-03-18 20:48:21'
p2826
sg10
S'yes'
p2827
sg12
S'gd4570.bio02'
p2828
sg14
I144
sg15
S'bio02'
p2829
sg17
S'Mean Diurnal Range (Mean of monthly (max temp - min temp))'
p2830
sg19
S'45'
p2831
sg21
S'gd4570'
p2832
sg23
S'../views/GTiff/clim.gd4570.bio02.tif'
p2833
sg25
S'climate'
p2834
sg27
S'clim.gd4570.bio02'
p2835
sg29
S'6314'
p2836
sg31
S'Mean Diurnal Range (Mean of monthly (max temp - min temp)) GD RCP45 2070'
p2837
sg33
g34
sg35
g36
sg37
S'clim.gd4570.bio02.tif'
p2838
sg39
S'clim'
p2839
sg41
g42
sg43
I4326
sg44
S'2070'
p2840
ssS'bio16'
p2841
(dp2842
g8
S'2015-03-18 20:48:21'
p2843
sg10
S'yes'
p2844
sg12
S'gd4570.bio16'
p2845
sg14
I185
sg15
S'bio16'
p2846
sg17
S'Precipitation of Wettest Quarter'
p2847
sg19
S'45'
p2848
sg21
S'gd4570'
p2849
sg23
S'../views/GTiff/clim.gd4570.bio16.tif'
p2850
sg25
S'climate'
p2851
sg27
S'clim.gd4570.bio16'
p2852
sg29
S'6306'
p2853
sg31
S'Precipitation of Wettest Quarter GD RCP45 2070'
p2854
sg33
g34
sg35
g36
sg37
S'clim.gd4570.bio16.tif'
p2855
sg39
S'clim'
p2856
sg41
g42
sg43
I4326
sg44
S'2070'
p2857
ssS'bio17'
p2858
(dp2859
g8
S'2015-03-18 20:48:21'
p2860
sg10
S'yes'
p2861
sg12
S'gd4570.bio17'
p2862
sg14
I8
sg15
S'bio17'
p2863
sg17
S'Precipitation of Driest Quarter'
p2864
sg19
S'45'
p2865
sg21
g2618
sg23
S'../views/GTiff/clim.gd4570.bio17.tif'
p2866
sg25
S'climate'
p2867
sg27
S'clim.gd4570.bio17'
p2868
sg29
S'6316'
p2869
sg31
S'Precipitation of Driest Quarter GD RCP45 2070'
p2870
sg33
g34
sg35
g36
sg37
S'clim.gd4570.bio17.tif'
p2871
sg39
S'clim'
p2872
sg41
g42
sg43
I4326
sg44
S'2070'
p2873
ssS'bio18'
p2874
(dp2875
g8
S'2015-03-18 20:48:21'
p2876
sg10
S'no'
p2877
sg12
S'gd4570.bio18'
p2878
sg14
I260
sg15
S'bio18'
p2879
sg17
S'Precipitation of Warmest Quarter'
p2880
sg19
S'45'
p2881
sg21
S'gd4570'
p2882
sg23
S'../views/GTiff/clim.gd4570.bio18.tif'
p2883
sg25
S'climate'
p2884
sg27
S'clim.gd4570.bio18'
p2885
sg29
S'6317'
p2886
sg31
S'Precipitation of Warmest Quarter GD RCP45 2070'
p2887
sg33
g34
sg35
g36
sg37
S'clim.gd4570.bio18.tif'
p2888
sg39
S'clim'
p2889
sg41
g42
sg43
I4326
sg44
S'2070'
p2890
ssS'bio14'
p2891
(dp2892
g8
S'2015-03-18 20:48:21'
p2893
sg10
S'yes'
p2894
sg12
S'gd4570.bio14'
p2895
sg14
I229
sg15
S'bio14'
p2896
sg17
S'Precipitation of Driest Month'
p2897
sg19
S'45'
p2898
sg21
S'gd4570'
p2899
sg23
S'../views/GTiff/clim.gd4570.bio14.tif'
p2900
sg25
S'climate'
p2901
sg27
S'clim.gd4570.bio14'
p2902
sg29
S'6318'
p2903
sg31
S'Precipitation of Driest Month GD RCP45 2070'
p2904
sg33
g34
sg35
g36
sg37
S'clim.gd4570.bio14.tif'
p2905
sg39
S'clim'
p2906
sg41
g42
sg43
I4326
sg44
S'2070'
p2907
ssS'bio09'
p2908
(dp2909
g8
S'2015-03-18 20:48:21'
p2910
sg10
S'yes'
p2911
sg12
S'gd4570.bio09'
p2912
sg14
I188
sg15
S'bio09'
p2913
sg17
S'Mean Temperature of Driest Quarter'
p2914
sg19
S'45'
p2915
sg21
S'gd4570'
p2916
sg23
S'../views/GTiff/clim.gd4570.bio09.tif'
p2917
sg25
S'climate'
p2918
sg27
S'clim.gd4570.bio09'
p2919
sg29
S'6319'
p2920
sg31
S'Mean Temperature of Driest Quarter GD RCP45 2070'
p2921
sg33
g34
sg35
g36
sg37
S'clim.gd4570.bio09.tif'
p2922
sg39
S'clim'
p2923
sg41
g42
sg43
I4326
sg44
S'2070'
p2924
ssS'bio08'
p2925
(dp2926
g8
S'2015-03-18 20:48:21'
p2927
sg10
S'no'
p2928
sg12
S'gd4570.bio08'
p2929
sg14
I66
sg15
S'bio08'
p2930
sg17
S'Mean Temperature of Wettest Quarter'
p2931
sg19
S'45'
p2932
sg21
S'gd4570'
p2933
sg23
S'../views/GTiff/clim.gd4570.bio08.tif'
p2934
sg25
S'climate'
p2935
sg27
S'clim.gd4570.bio08'
p2936
sg29
S'6320'
p2937
sg31
S'Mean Temperature of Wettest Quarter GD RCP45 2070'
p2938
sg33
g34
sg35
g36
sg37
S'clim.gd4570.bio08.tif'
p2939
sg39
S'clim'
p2940
sg41
g42
sg43
I4326
sg44
S'2070'
p2941
sssS'he4550'
p2942
(dp2943
S'bio07'
p2944
(dp2945
g8
S'2015-03-18 20:48:21'
p2946
sg10
S'no'
p2947
sg12
S'he4550.bio07'
p2948
sg14
I189
sg15
S'bio07'
p2949
sg17
S'Temperature Annual Range (BIO5-BIO6)'
p2950
sg19
S'45'
p2951
sg21
S'he4550'
p2952
sg23
S'../views/GTiff/clim.he4550.bio07.tif'
p2953
sg25
S'climate'
p2954
sg27
S'clim.he4550.bio07'
p2955
sg29
S'6388'
p2956
sg31
S'Temperature Annual Range (BIO5-BIO6) HE RCP45 2050'
p2957
sg33
g34
sg35
g36
sg37
S'clim.he4550.bio07.tif'
p2958
sg39
S'clim'
p2959
sg41
g42
sg43
I4326
sg44
S'2050'
p2960
ssS'bio13'
p2961
(dp2962
g8
S'2015-03-18 20:48:21'
p2963
sg10
S'yes'
p2964
sg12
S'he4550.bio13'
p2965
sg14
I278
sg15
S'bio13'
p2966
sg17
S'Precipitation of Wettest Month'
p2967
sg19
S'45'
p2968
sg21
S'he4550'
p2969
sg23
S'../views/GTiff/clim.he4550.bio13.tif'
p2970
sg25
S'climate'
p2971
sg27
S'clim.he4550.bio13'
p2972
sg29
S'6323'
p2973
sg31
S'Precipitation of Wettest Month HE RCP45 2050'
p2974
sg33
g34
sg35
g36
sg37
S'clim.he4550.bio13.tif'
p2975
sg39
S'clim'
p2976
sg41
g42
sg43
I4326
sg44
S'2050'
p2977
ssS'bio06'
p2978
(dp2979
g8
S'2015-03-18 20:48:21'
p2980
sg10
S'yes'
p2981
sg12
S'he4550.bio06'
p2982
sg14
I266
sg15
S'bio06'
p2983
sg17
S'Min Temperature of Coldest Month'
p2984
sg19
S'45'
p2985
sg21
S'he4550'
p2986
sg23
S'../views/GTiff/clim.he4550.bio06.tif'
p2987
sg25
S'climate'
p2988
sg27
S'clim.he4550.bio06'
p2989
sg29
S'6389'
p2990
sg31
S'Min Temperature of Coldest Month HE RCP45 2050'
p2991
sg33
g34
sg35
g36
sg37
S'clim.he4550.bio06.tif'
p2992
sg39
S'clim'
p2993
sg41
g42
sg43
I4326
sg44
S'2050'
p2994
ssS'bio16'
p2995
(dp2996
g8
S'2015-03-18 20:48:21'
p2997
sg10
S'yes'
p2998
sg12
S'he4550.bio16'
p2999
sg14
I293
sg15
S'bio16'
p3000
sg17
S'Precipitation of Wettest Quarter'
p3001
sg19
S'45'
p3002
sg21
S'he4550'
p3003
sg23
S'../views/GTiff/clim.he4550.bio16.tif'
p3004
sg25
S'climate'
p3005
sg27
S'clim.he4550.bio16'
p3006
sg29
S'6325'
p3007
sg31
S'Precipitation of Wettest Quarter HE RCP45 2050'
p3008
sg33
g34
sg35
g36
sg37
S'clim.he4550.bio16.tif'
p3009
sg39
S'clim'
p3010
sg41
g42
sg43
I4326
sg44
S'2050'
p3011
ssS'bio12'
p3012
(dp3013
g8
S'2015-03-18 20:48:21'
p3014
sg10
S'no'
p3015
sg12
S'he4550.bio12'
p3016
sg14
I279
sg15
S'bio12'
p3017
sg17
S'Annual Precipitation'
p3018
sg19
S'45'
p3019
sg21
S'he4550'
p3020
sg23
S'../views/GTiff/clim.he4550.bio12.tif'
p3021
sg25
S'climate'
p3022
sg27
S'clim.he4550.bio12'
p3023
sg29
S'6390'
p3024
sg31
S'Annual Precipitation HE RCP45 2050'
p3025
sg33
g34
sg35
g36
sg37
S'clim.he4550.bio12.tif'
p3026
sg39
S'clim'
p3027
sg41
g42
sg43
I4326
sg44
S'2050'
p3028
ssS'bio10'
p3029
(dp3030
g8
S'2015-03-18 20:48:21'
p3031
sg10
S'yes'
p3032
sg12
S'he4550.bio10'
p3033
sg14
I77
sg15
S'bio10'
p3034
sg17
S'Mean Temperature of Warmest Quarter'
p3035
sg19
S'45'
p3036
sg21
S'he4550'
p3037
sg23
S'../views/GTiff/clim.he4550.bio10.tif'
p3038
sg25
S'climate'
p3039
sg27
S'clim.he4550.bio10'
p3040
sg29
S'6321'
p3041
sg31
S'Mean Temperature of Warmest Quarter HE RCP45 2050'
p3042
sg33
g34
sg35
g36
sg37
S'clim.he4550.bio10.tif'
p3043
sg39
S'clim'
p3044
sg41
g42
sg43
I4326
sg44
S'2050'
p3045
ssS'bio11'
p3046
(dp3047
g8
S'2015-03-18 20:48:21'
p3048
sg10
S'yes'
p3049
sg12
S'he4550.bio11'
p3050
sg14
I23
sg15
S'bio11'
p3051
sg17
S'Mean Temperature of Coldest Quarter'
p3052
sg19
S'45'
p3053
sg21
S'he4550'
p3054
sg23
S'../views/GTiff/clim.he4550.bio11.tif'
p3055
sg25
S'climate'
p3056
sg27
S'clim.he4550.bio11'
p3057
sg29
S'6324'
p3058
sg31
S'Mean Temperature of Coldest Quarter HE RCP45 2050'
p3059
sg33
g34
sg35
g36
sg37
S'clim.he4550.bio11.tif'
p3060
sg39
S'clim'
p3061
sg41
g42
sg43
I4326
sg44
S'2050'
p3062
ssS'bio05'
p3063
(dp3064
g8
S'2015-03-18 20:48:21'
p3065
sg10
S'yes'
p3066
sg12
S'he4550.bio05'
p3067
sg14
I206
sg15
S'bio05'
p3068
sg17
S'Max Temperature of Warmest Month'
p3069
sg19
S'45'
p3070
sg21
S'he4550'
p3071
sg23
S'../views/GTiff/clim.he4550.bio05.tif'
p3072
sg25
S'climate'
p3073
sg27
S'clim.he4550.bio05'
p3074
sg29
S'6387'
p3075
sg31
S'Max Temperature of Warmest Month HE RCP45 2050'
p3076
sg33
g34
sg35
g36
sg37
S'clim.he4550.bio05.tif'
p3077
sg39
S'clim'
p3078
sg41
g42
sg43
I4326
sg44
S'2050'
p3079
ssS'bio04'
p3080
(dp3081
g8
S'2015-03-18 20:48:21'
p3082
sg10
S'yes'
p3083
sg12
S'he4550.bio04'
p3084
sg14
I9
sg15
S'bio04'
p3085
sg17
S'Temperature Seasonality (standard deviation *100)'
p3086
sg19
S'45'
p3087
sg21
g2942
sg23
S'../views/GTiff/clim.he4550.bio04.tif'
p3088
sg25
S'climate'
p3089
sg27
S'clim.he4550.bio04'
p3090
sg29
S'6375'
p3091
sg31
S'Temperature Seasonality (standard deviation *100) HE RCP45 2050'
p3092
sg33
g34
sg35
g36
sg37
S'clim.he4550.bio04.tif'
p3093
sg39
S'clim'
p3094
sg41
g42
sg43
I4326
sg44
S'2050'
p3095
ssS'bio14'
p3096
(dp3097
g8
S'2015-03-18 20:48:21'
p3098
sg10
S'yes'
p3099
sg12
S'he4550.bio14'
p3100
sg14
I123
sg15
S'bio14'
p3101
sg17
S'Precipitation of Driest Month'
p3102
sg19
S'45'
p3103
sg21
S'he4550'
p3104
sg23
S'../views/GTiff/clim.he4550.bio14.tif'
p3105
sg25
S'climate'
p3106
sg27
S'clim.he4550.bio14'
p3107
sg29
S'6391'
p3108
sg31
S'Precipitation of Driest Month HE RCP45 2050'
p3109
sg33
g34
sg35
g36
sg37
S'clim.he4550.bio14.tif'
p3110
sg39
S'clim'
p3111
sg41
g42
sg43
I4326
sg44
S'2050'
p3112
ssS'bio15'
p3113
(dp3114
g8
S'2015-03-18 20:48:21'
p3115
sg10
S'no'
p3116
sg12
S'he4550.bio15'
p3117
sg14
I238
sg15
S'bio15'
p3118
sg17
S'Precipitation Seasonality (Coefficient of Variation)'
p3119
sg19
S'45'
p3120
sg21
S'he4550'
p3121
sg23
S'../views/GTiff/clim.he4550.bio15.tif'
p3122
sg25
S'climate'
p3123
sg27
S'clim.he4550.bio15'
p3124
sg29
S'6392'
p3125
sg31
S'Precipitation Seasonality (Coefficient of Variation) HE RCP45 2050'
p3126
sg33
g34
sg35
g36
sg37
S'clim.he4550.bio15.tif'
p3127
sg39
S'clim'
p3128
sg41
g42
sg43
I4326
sg44
S'2050'
p3129
ssS'bio01'
p3130
(dp3131
g8
S'2015-03-18 20:48:21'
p3132
sg10
S'no'
p3133
sg12
S'he4550.bio01'
p3134
sg14
I154
sg15
S'bio01'
p3135
sg17
S'Annual Mean Temperature'
p3136
sg19
S'45'
p3137
sg21
S'he4550'
p3138
sg23
S'../views/GTiff/clim.he4550.bio01.tif'
p3139
sg25
S'climate'
p3140
sg27
S'clim.he4550.bio01'
p3141
sg29
S'6378'
p3142
sg31
S'Annual Mean Temperature HE RCP45 2050'
p3143
sg33
g34
sg35
g36
sg37
S'clim.he4550.bio01.tif'
p3144
sg39
S'clim'
p3145
sg41
g42
sg43
I4326
sg44
S'2050'
p3146
ssS'bio17'
p3147
(dp3148
g8
S'2015-03-18 20:48:21'
p3149
sg10
S'yes'
p3150
sg12
S'he4550.bio17'
p3151
sg14
I132
sg15
S'bio17'
p3152
sg17
S'Precipitation of Driest Quarter'
p3153
sg19
S'45'
p3154
sg21
S'he4550'
p3155
sg23
S'../views/GTiff/clim.he4550.bio17.tif'
p3156
sg25
S'climate'
p3157
sg27
S'clim.he4550.bio17'
p3158
sg29
S'6393'
p3159
sg31
S'Precipitation of Driest Quarter HE RCP45 2050'
p3160
sg33
g34
sg35
g36
sg37
S'clim.he4550.bio17.tif'
p3161
sg39
S'clim'
p3162
sg41
g42
sg43
I4326
sg44
S'2050'
p3163
ssS'bio18'
p3164
(dp3165
g8
S'2015-03-18 20:48:21'
p3166
sg10
S'no'
p3167
sg12
S'he4550.bio18'
p3168
sg14
I228
sg15
S'bio18'
p3169
sg17
S'Precipitation of Warmest Quarter'
p3170
sg19
S'45'
p3171
sg21
S'he4550'
p3172
sg23
S'../views/GTiff/clim.he4550.bio18.tif'
p3173
sg25
S'climate'
p3174
sg27
S'clim.he4550.bio18'
p3175
sg29
S'6394'
p3176
sg31
S'Precipitation of Warmest Quarter HE RCP45 2050'
p3177
sg33
g34
sg35
g36
sg37
S'clim.he4550.bio18.tif'
p3178
sg39
S'clim'
p3179
sg41
g42
sg43
I4326
sg44
S'2050'
p3180
ssS'bio19'
p3181
(dp3182
g8
S'2015-03-18 20:48:21'
p3183
sg10
S'yes'
p3184
sg12
S'he4550.bio19'
p3185
sg14
I187
sg15
S'bio19'
p3186
sg17
S'Precipitation of Coldest Quarter'
p3187
sg19
S'45'
p3188
sg21
S'he4550'
p3189
sg23
S'../views/GTiff/clim.he4550.bio19.tif'
p3190
sg25
S'climate'
p3191
sg27
S'clim.he4550.bio19'
p3192
sg29
S'6322'
p3193
sg31
S'Precipitation of Coldest Quarter HE RCP45 2050'
p3194
sg33
g34
sg35
g36
sg37
S'clim.he4550.bio19.tif'
p3195
sg39
S'clim'
p3196
sg41
g42
sg43
I4326
sg44
S'2050'
p3197
ssS'bio02'
p3198
(dp3199
g8
S'2015-03-18 20:48:21'
p3200
sg10
S'yes'
p3201
sg12
S'he4550.bio02'
p3202
sg14
I299
sg15
S'bio02'
p3203
sg17
S'Mean Diurnal Range (Mean of monthly (max temp - min temp))'
p3204
sg19
S'45'
p3205
sg21
S'he4550'
p3206
sg23
S'../views/GTiff/clim.he4550.bio02.tif'
p3207
sg25
S'climate'
p3208
sg27
S'clim.he4550.bio02'
p3209
sg29
S'6377'
p3210
sg31
S'Mean Diurnal Range (Mean of monthly (max temp - min temp)) HE RCP45 2050'
p3211
sg33
g34
sg35
g36
sg37
S'clim.he4550.bio02.tif'
p3212
sg39
S'clim'
p3213
sg41
g42
sg43
I4326
sg44
S'2050'
p3214
ssS'bio03'
p3215
(dp3216
g8
S'2015-03-18 20:48:21'
p3217
sg10
S'yes'
p3218
sg12
S'he4550.bio03'
p3219
sg14
I192
sg15
S'bio03'
p3220
sg17
S'Isothermality (BIO2/BIO7) (* 100)'
p3221
sg19
S'45'
p3222
sg21
S'he4550'
p3223
sg23
S'../views/GTiff/clim.he4550.bio03.tif'
p3224
sg25
S'climate'
p3225
sg27
S'clim.he4550.bio03'
p3226
sg29
S'6376'
p3227
sg31
S'Isothermality (BIO2/BIO7) (* 100) HE RCP45 2050'
p3228
sg33
g34
sg35
g36
sg37
S'clim.he4550.bio03.tif'
p3229
sg39
S'clim'
p3230
sg41
g42
sg43
I4326
sg44
S'2050'
p3231
ssS'bio09'
p3232
(dp3233
g8
S'2015-03-18 20:48:21'
p3234
sg10
S'yes'
p3235
sg12
S'he4550.bio09'
p3236
sg14
I197
sg15
S'bio09'
p3237
sg17
S'Mean Temperature of Driest Quarter'
p3238
sg19
S'45'
p3239
sg21
S'he4550'
p3240
sg23
S'../views/GTiff/clim.he4550.bio09.tif'
p3241
sg25
S'climate'
p3242
sg27
S'clim.he4550.bio09'
p3243
sg29
S'6395'
p3244
sg31
S'Mean Temperature of Driest Quarter HE RCP45 2050'
p3245
sg33
g34
sg35
g36
sg37
S'clim.he4550.bio09.tif'
p3246
sg39
S'clim'
p3247
sg41
g42
sg43
I4326
sg44
S'2050'
p3248
ssS'bio08'
p3249
(dp3250
g8
S'2015-03-18 20:48:21'
p3251
sg10
S'no'
p3252
sg12
S'he4550.bio08'
p3253
sg14
I37
sg15
S'bio08'
p3254
sg17
S'Mean Temperature of Wettest Quarter'
p3255
sg19
S'45'
p3256
sg21
S'he4550'
p3257
sg23
S'../views/GTiff/clim.he4550.bio08.tif'
p3258
sg25
S'climate'
p3259
sg27
S'clim.he4550.bio08'
p3260
sg29
S'6396'
p3261
sg31
S'Mean Temperature of Wettest Quarter HE RCP45 2050'
p3262
sg33
g34
sg35
g36
sg37
S'clim.he4550.bio08.tif'
p3263
sg39
S'clim'
p3264
sg41
g42
sg43
I4326
sg44
S'2050'
p3265
sssS'gs4550'
p3266
(dp3267
S'bio07'
p3268
(dp3269
g8
S'2015-03-18 20:48:21'
p3270
sg10
S'no'
p3271
sg12
S'gs4550.bio07'
p3272
sg14
I162
sg15
S'bio07'
p3273
sg17
S'Temperature Annual Range (BIO5-BIO6)'
p3274
sg19
S'45'
p3275
sg21
S'gs4550'
p3276
sg23
S'../views/GTiff/clim.gs4550.bio07.tif'
p3277
sg25
S'climate'
p3278
sg27
S'clim.gs4550.bio07'
p3279
sg29
S'6397'
p3280
sg31
S'Temperature Annual Range (BIO5-BIO6) GS RCP45 2050'
p3281
sg33
g34
sg35
g36
sg37
S'clim.gs4550.bio07.tif'
p3282
sg39
S'clim'
p3283
sg41
g42
sg43
I4326
sg44
S'2050'
p3284
ssS'bio10'
p3285
(dp3286
g8
S'2015-03-18 20:48:21'
p3287
sg10
S'yes'
p3288
sg12
S'gs4550.bio10'
p3289
sg14
I267
sg15
S'bio10'
p3290
sg17
S'Mean Temperature of Warmest Quarter'
p3291
sg19
S'45'
p3292
sg21
S'gs4550'
p3293
sg23
S'../views/GTiff/clim.gs4550.bio10.tif'
p3294
sg25
S'climate'
p3295
sg27
S'clim.gs4550.bio10'
p3296
sg29
S'6400'
p3297
sg31
S'Mean Temperature of Warmest Quarter GS RCP45 2050'
p3298
sg33
g34
sg35
g36
sg37
S'clim.gs4550.bio10.tif'
p3299
sg39
S'clim'
p3300
sg41
g42
sg43
I4326
sg44
S'2050'
p3301
ssS'bio16'
p3302
(dp3303
g8
S'2015-03-18 20:48:21'
p3304
sg10
S'yes'
p3305
sg12
S'gs4550.bio16'
p3306
sg14
I85
sg15
S'bio16'
p3307
sg17
S'Precipitation of Wettest Quarter'
p3308
sg19
S'45'
p3309
sg21
S'gs4550'
p3310
sg23
S'../views/GTiff/clim.gs4550.bio16.tif'
p3311
sg25
S'climate'
p3312
sg27
S'clim.gs4550.bio16'
p3313
sg29
S'6406'
p3314
sg31
S'Precipitation of Wettest Quarter GS RCP45 2050'
p3315
sg33
g34
sg35
g36
sg37
S'clim.gs4550.bio16.tif'
p3316
sg39
S'clim'
p3317
sg41
g42
sg43
I4326
sg44
S'2050'
p3318
ssS'bio11'
p3319
(dp3320
g8
S'2015-03-18 20:48:21'
p3321
sg10
S'yes'
p3322
sg12
S'gs4550.bio11'
p3323
sg14
I237
sg15
S'bio11'
p3324
sg17
S'Mean Temperature of Coldest Quarter'
p3325
sg19
S'45'
p3326
sg21
S'gs4550'
p3327
sg23
S'../views/GTiff/clim.gs4550.bio11.tif'
p3328
sg25
S'climate'
p3329
sg27
S'clim.gs4550.bio11'
p3330
sg29
S'6398'
p3331
sg31
S'Mean Temperature of Coldest Quarter GS RCP45 2050'
p3332
sg33
g34
sg35
g36
sg37
S'clim.gs4550.bio11.tif'
p3333
sg39
S'clim'
p3334
sg41
g42
sg43
I4326
sg44
S'2050'
p3335
ssS'bio15'
p3336
(dp3337
g8
S'2015-03-18 20:48:21'
p3338
sg10
S'no'
p3339
sg12
S'gs4550.bio15'
p3340
sg14
I97
sg15
S'bio15'
p3341
sg17
S'Precipitation Seasonality (Coefficient of Variation)'
p3342
sg19
S'45'
p3343
sg21
S'gs4550'
p3344
sg23
S'../views/GTiff/clim.gs4550.bio15.tif'
p3345
sg25
S'climate'
p3346
sg27
S'clim.gs4550.bio15'
p3347
sg29
S'6405'
p3348
sg31
S'Precipitation Seasonality (Coefficient of Variation) GS RCP45 2050'
p3349
sg33
g34
sg35
g36
sg37
S'clim.gs4550.bio15.tif'
p3350
sg39
S'clim'
p3351
sg41
g42
sg43
I4326
sg44
S'2050'
p3352
ssS'bio05'
p3353
(dp3354
g8
S'2015-03-18 20:48:21'
p3355
sg10
S'yes'
p3356
sg12
S'gs4550.bio05'
p3357
sg14
I306
sg15
S'bio05'
p3358
sg17
S'Max Temperature of Warmest Month'
p3359
sg19
S'45'
p3360
sg21
S'gs4550'
p3361
sg23
S'../views/GTiff/clim.gs4550.bio05.tif'
p3362
sg25
S'climate'
p3363
sg27
S'clim.gs4550.bio05'
p3364
sg29
S'6399'
p3365
sg31
S'Max Temperature of Warmest Month GS RCP45 2050'
p3366
sg33
g34
sg35
g36
sg37
S'clim.gs4550.bio05.tif'
p3367
sg39
S'clim'
p3368
sg41
g42
sg43
I4326
sg44
S'2050'
p3369
ssS'bio14'
p3370
(dp3371
g8
S'2015-03-18 20:48:21'
p3372
sg10
S'yes'
p3373
sg12
S'gs4550.bio14'
p3374
sg14
I289
sg15
S'bio14'
p3375
sg17
S'Precipitation of Driest Month'
p3376
sg19
S'45'
p3377
sg21
S'gs4550'
p3378
sg23
S'../views/GTiff/clim.gs4550.bio14.tif'
p3379
sg25
S'climate'
p3380
sg27
S'clim.gs4550.bio14'
p3381
sg29
S'6404'
p3382
sg31
S'Precipitation of Driest Month GS RCP45 2050'
p3383
sg33
g34
sg35
g36
sg37
S'clim.gs4550.bio14.tif'
p3384
sg39
S'clim'
p3385
sg41
g42
sg43
I4326
sg44
S'2050'
p3386
ssS'bio13'
p3387
(dp3388
g8
S'2015-03-18 20:48:21'
p3389
sg10
S'yes'
p3390
sg12
S'gs4550.bio13'
p3391
sg14
I160
sg15
S'bio13'
p3392
sg17
S'Precipitation of Wettest Month'
p3393
sg19
S'45'
p3394
sg21
S'gs4550'
p3395
sg23
S'../views/GTiff/clim.gs4550.bio13.tif'
p3396
sg25
S'climate'
p3397
sg27
S'clim.gs4550.bio13'
p3398
sg29
S'6403'
p3399
sg31
S'Precipitation of Wettest Month GS RCP45 2050'
p3400
sg33
g34
sg35
g36
sg37
S'clim.gs4550.bio13.tif'
p3401
sg39
S'clim'
p3402
sg41
g42
sg43
I4326
sg44
S'2050'
p3403
ssS'bio06'
p3404
(dp3405
g8
S'2015-03-18 20:48:21'
p3406
sg10
S'yes'
p3407
sg12
S'gs4550.bio06'
p3408
sg14
I72
sg15
S'bio06'
p3409
sg17
S'Min Temperature of Coldest Month'
p3410
sg19
S'45'
p3411
sg21
S'gs4550'
p3412
sg23
S'../views/GTiff/clim.gs4550.bio06.tif'
p3413
sg25
S'climate'
p3414
sg27
S'clim.gs4550.bio06'
p3415
sg29
S'6401'
p3416
sg31
S'Min Temperature of Coldest Month GS RCP45 2050'
p3417
sg33
g34
sg35
g36
sg37
S'clim.gs4550.bio06.tif'
p3418
sg39
S'clim'
p3419
sg41
g42
sg43
I4326
sg44
S'2050'
p3420
ssS'bio12'
p3421
(dp3422
g8
S'2015-03-18 20:48:21'
p3423
sg10
S'no'
p3424
sg12
S'gs4550.bio12'
p3425
sg14
I296
sg15
S'bio12'
p3426
sg17
S'Annual Precipitation'
p3427
sg19
S'45'
p3428
sg21
S'gs4550'
p3429
sg23
S'../views/GTiff/clim.gs4550.bio12.tif'
p3430
sg25
S'climate'
p3431
sg27
S'clim.gs4550.bio12'
p3432
sg29
S'6402'
p3433
sg31
S'Annual Precipitation GS RCP45 2050'
p3434
sg33
g34
sg35
g36
sg37
S'clim.gs4550.bio12.tif'
p3435
sg39
S'clim'
p3436
sg41
g42
sg43
I4326
sg44
S'2050'
p3437
ssS'bio04'
p3438
(dp3439
g8
S'2015-03-18 20:48:21'
p3440
sg10
S'yes'
p3441
sg12
S'gs4550.bio04'
p3442
sg14
I134
sg15
S'bio04'
p3443
sg17
S'Temperature Seasonality (standard deviation *100)'
p3444
sg19
S'45'
p3445
sg21
S'gs4550'
p3446
sg23
S'../views/GTiff/clim.gs4550.bio04.tif'
p3447
sg25
S'climate'
p3448
sg27
S'clim.gs4550.bio04'
p3449
sg29
S'6379'
p3450
sg31
S'Temperature Seasonality (standard deviation *100) GS RCP45 2050'
p3451
sg33
g34
sg35
g36
sg37
S'clim.gs4550.bio04.tif'
p3452
sg39
S'clim'
p3453
sg41
g42
sg43
I4326
sg44
S'2050'
p3454
ssS'bio03'
p3455
(dp3456
g8
S'2015-03-18 20:48:21'
p3457
sg10
S'yes'
p3458
sg12
S'gs4550.bio03'
p3459
sg14
I223
sg15
S'bio03'
p3460
sg17
S'Isothermality (BIO2/BIO7) (* 100)'
p3461
sg19
S'45'
p3462
sg21
S'gs4550'
p3463
sg23
S'../views/GTiff/clim.gs4550.bio03.tif'
p3464
sg25
S'climate'
p3465
sg27
S'clim.gs4550.bio03'
p3466
sg29
S'6380'
p3467
sg31
S'Isothermality (BIO2/BIO7) (* 100) GS RCP45 2050'
p3468
sg33
g34
sg35
g36
sg37
S'clim.gs4550.bio03.tif'
p3469
sg39
S'clim'
p3470
sg41
g42
sg43
I4326
sg44
S'2050'
p3471
ssS'bio02'
p3472
(dp3473
g8
S'2015-03-18 20:48:21'
p3474
sg10
S'yes'
p3475
sg12
S'gs4550.bio02'
p3476
sg14
I24
sg15
S'bio02'
p3477
sg17
S'Mean Diurnal Range (Mean of monthly (max temp - min temp))'
p3478
sg19
S'45'
p3479
sg21
S'gs4550'
p3480
sg23
S'../views/GTiff/clim.gs4550.bio02.tif'
p3481
sg25
S'climate'
p3482
sg27
S'clim.gs4550.bio02'
p3483
sg29
S'6381'
p3484
sg31
S'Mean Diurnal Range (Mean of monthly (max temp - min temp)) GS RCP45 2050'
p3485
sg33
g34
sg35
g36
sg37
S'clim.gs4550.bio02.tif'
p3486
sg39
S'clim'
p3487
sg41
g42
sg43
I4326
sg44
S'2050'
p3488
ssS'bio01'
p3489
(dp3490
g8
S'2015-03-18 20:48:21'
p3491
sg10
S'no'
p3492
sg12
S'gs4550.bio01'
p3493
sg14
I88
sg15
S'bio01'
p3494
sg17
S'Annual Mean Temperature'
p3495
sg19
S'45'
p3496
sg21
S'gs4550'
p3497
sg23
S'../views/GTiff/clim.gs4550.bio01.tif'
p3498
sg25
S'climate'
p3499
sg27
S'clim.gs4550.bio01'
p3500
sg29
S'6382'
p3501
sg31
S'Annual Mean Temperature GS RCP45 2050'
p3502
sg33
g34
sg35
g36
sg37
S'clim.gs4550.bio01.tif'
p3503
sg39
S'clim'
p3504
sg41
g42
sg43
I4326
sg44
S'2050'
p3505
ssS'bio17'
p3506
(dp3507
g8
S'2015-03-18 20:48:21'
p3508
sg10
S'yes'
p3509
sg12
S'gs4550.bio17'
p3510
sg14
I105
sg15
S'bio17'
p3511
sg17
S'Precipitation of Driest Quarter'
p3512
sg19
S'45'
p3513
sg21
S'gs4550'
p3514
sg23
S'../views/GTiff/clim.gs4550.bio17.tif'
p3515
sg25
S'climate'
p3516
sg27
S'clim.gs4550.bio17'
p3517
sg29
S'6407'
p3518
sg31
S'Precipitation of Driest Quarter GS RCP45 2050'
p3519
sg33
g34
sg35
g36
sg37
S'clim.gs4550.bio17.tif'
p3520
sg39
S'clim'
p3521
sg41
g42
sg43
I4326
sg44
S'2050'
p3522
ssS'bio18'
p3523
(dp3524
g8
S'2015-03-18 20:48:21'
p3525
sg10
S'no'
p3526
sg12
S'gs4550.bio18'
p3527
sg14
I10
sg15
S'bio18'
p3528
sg17
S'Precipitation of Warmest Quarter'
p3529
sg19
S'45'
p3530
sg21
g3266
sg23
S'../views/GTiff/clim.gs4550.bio18.tif'
p3531
sg25
S'climate'
p3532
sg27
S'clim.gs4550.bio18'
p3533
sg29
S'6408'
p3534
sg31
S'Precipitation of Warmest Quarter GS RCP45 2050'
p3535
sg33
g34
sg35
g36
sg37
S'clim.gs4550.bio18.tif'
p3536
sg39
S'clim'
p3537
sg41
g42
sg43
I4326
sg44
S'2050'
p3538
ssS'bio19'
p3539
(dp3540
g8
S'2015-03-18 20:48:21'
p3541
sg10
S'yes'
p3542
sg12
S'gs4550.bio19'
p3543
sg14
I156
sg15
S'bio19'
p3544
sg17
S'Precipitation of Coldest Quarter'
p3545
sg19
S'45'
p3546
sg21
S'gs4550'
p3547
sg23
S'../views/GTiff/clim.gs4550.bio19.tif'
p3548
sg25
S'climate'
p3549
sg27
S'clim.gs4550.bio19'
p3550
sg29
S'6409'
p3551
sg31
S'Precipitation of Coldest Quarter GS RCP45 2050'
p3552
sg33
g34
sg35
g36
sg37
S'clim.gs4550.bio19.tif'
p3553
sg39
S'clim'
p3554
sg41
g42
sg43
I4326
sg44
S'2050'
p3555
ssS'bio09'
p3556
(dp3557
g8
S'2015-03-18 20:48:21'
p3558
sg10
S'yes'
p3559
sg12
S'gs4550.bio09'
p3560
sg14
I269
sg15
S'bio09'
p3561
sg17
S'Mean Temperature of Driest Quarter'
p3562
sg19
S'45'
p3563
sg21
S'gs4550'
p3564
sg23
S'../views/GTiff/clim.gs4550.bio09.tif'
p3565
sg25
S'climate'
p3566
sg27
S'clim.gs4550.bio09'
p3567
sg29
S'6410'
p3568
sg31
S'Mean Temperature of Driest Quarter GS RCP45 2050'
p3569
sg33
g34
sg35
g36
sg37
S'clim.gs4550.bio09.tif'
p3570
sg39
S'clim'
p3571
sg41
g42
sg43
I4326
sg44
S'2050'
p3572
ssS'bio08'
p3573
(dp3574
g8
S'2015-03-18 20:48:21'
p3575
sg10
S'no'
p3576
sg12
S'gs4550.bio08'
p3577
sg14
I35
sg15
S'bio08'
p3578
sg17
S'Mean Temperature of Wettest Quarter'
p3579
sg19
S'45'
p3580
sg21
S'gs4550'
p3581
sg23
S'../views/GTiff/clim.gs4550.bio08.tif'
p3582
sg25
S'climate'
p3583
sg27
S'clim.gs4550.bio08'
p3584
sg29
S'6411'
p3585
sg31
S'Mean Temperature of Wettest Quarter GS RCP45 2050'
p3586
sg33
g34
sg35
g36
sg37
S'clim.gs4550.bio08.tif'
p3587
sg39
S'clim'
p3588
sg41
g42
sg43
I4326
sg44
S'2050'
p3589
sssS'gd4550'
p3590
(dp3591
S'bio07'
p3592
(dp3593
g8
S'2015-03-18 20:48:21'
p3594
sg10
S'no'
p3595
sg12
S'gd4550.bio07'
p3596
sg14
I321
sg15
S'bio07'
p3597
sg17
S'Temperature Annual Range (BIO5-BIO6)'
p3598
sg19
S'45'
p3599
sg21
S'gd4550'
p3600
sg23
S'../views/GTiff/clim.gd4550.bio07.tif'
p3601
sg25
S'climate'
p3602
sg27
S'clim.gd4550.bio07'
p3603
sg29
S'6195'
p3604
sg31
S'Temperature Annual Range (BIO5-BIO6) GD RCP45 2050'
p3605
sg33
g34
sg35
g36
sg37
S'clim.gd4550.bio07.tif'
p3606
sg39
S'clim'
p3607
sg41
g42
sg43
I4326
sg44
S'2050'
p3608
ssS'bio01'
p3609
(dp3610
g8
S'2015-03-18 20:48:21'
p3611
sg10
S'no'
p3612
sg12
S'gd4550.bio01'
p3613
sg14
I204
sg15
S'bio01'
p3614
sg17
S'Annual Mean Temperature'
p3615
sg19
S'45'
p3616
sg21
S'gd4550'
p3617
sg23
S'../views/GTiff/clim.gd4550.bio01.tif'
p3618
sg25
S'climate'
p3619
sg27
S'clim.gd4550.bio01'
p3620
sg29
S'6201'
p3621
sg31
S'Annual Mean Temperature GD RCP45 2050'
p3622
sg33
g34
sg35
g36
sg37
S'clim.gd4550.bio01.tif'
p3623
sg39
S'clim'
p3624
sg41
g42
sg43
I4326
sg44
S'2050'
p3625
ssS'bio11'
p3626
(dp3627
g8
S'2015-03-18 20:48:21'
p3628
sg10
S'yes'
p3629
sg12
S'gd4550.bio11'
p3630
sg14
I127
sg15
S'bio11'
p3631
sg17
S'Mean Temperature of Coldest Quarter'
p3632
sg19
S'45'
p3633
sg21
S'gd4550'
p3634
sg23
S'../views/GTiff/clim.gd4550.bio11.tif'
p3635
sg25
S'climate'
p3636
sg27
S'clim.gd4550.bio11'
p3637
sg29
S'6191'
p3638
sg31
S'Mean Temperature of Coldest Quarter GD RCP45 2050'
p3639
sg33
g34
sg35
g36
sg37
S'clim.gd4550.bio11.tif'
p3640
sg39
S'clim'
p3641
sg41
g42
sg43
I4326
sg44
S'2050'
p3642
ssS'bio15'
p3643
(dp3644
g8
S'2015-03-18 20:48:21'
p3645
sg10
S'no'
p3646
sg12
S'gd4550.bio15'
p3647
sg14
I284
sg15
S'bio15'
p3648
sg17
S'Precipitation Seasonality (Coefficient of Variation)'
p3649
sg19
S'45'
p3650
sg21
S'gd4550'
p3651
sg23
S'../views/GTiff/clim.gd4550.bio15.tif'
p3652
sg25
S'climate'
p3653
sg27
S'clim.gd4550.bio15'
p3654
sg29
S'6193'
p3655
sg31
S'Precipitation Seasonality (Coefficient of Variation) GD RCP45 2050'
p3656
sg33
g34
sg35
g36
sg37
S'clim.gd4550.bio15.tif'
p3657
sg39
S'clim'
p3658
sg41
g42
sg43
I4326
sg44
S'2050'
p3659
ssS'bio12'
p3660
(dp3661
g8
S'2015-03-18 20:48:21'
p3662
sg10
S'no'
p3663
sg12
S'gd4550.bio12'
p3664
sg14
I337
sg15
S'bio12'
p3665
sg17
S'Annual Precipitation'
p3666
sg19
S'45'
p3667
sg21
S'gd4550'
p3668
sg23
S'../views/GTiff/clim.gd4550.bio12.tif'
p3669
sg25
S'climate'
p3670
sg27
S'clim.gd4550.bio12'
p3671
sg29
S'6194'
p3672
sg31
S'Annual Precipitation GD RCP45 2050'
p3673
sg33
g34
sg35
g36
sg37
S'clim.gd4550.bio12.tif'
p3674
sg39
S'clim'
p3675
sg41
g42
sg43
I4326
sg44
S'2050'
p3676
ssS'bio14'
p3677
(dp3678
g8
S'2015-03-18 20:48:21'
p3679
sg10
S'yes'
p3680
sg12
S'gd4550.bio14'
p3681
sg14
I226
sg15
S'bio14'
p3682
sg17
S'Precipitation of Driest Month'
p3683
sg19
S'45'
p3684
sg21
S'gd4550'
p3685
sg23
S'../views/GTiff/clim.gd4550.bio14.tif'
p3686
sg25
S'climate'
p3687
sg27
S'clim.gd4550.bio14'
p3688
sg29
S'6204'
p3689
sg31
S'Precipitation of Driest Month GD RCP45 2050'
p3690
sg33
g34
sg35
g36
sg37
S'clim.gd4550.bio14.tif'
p3691
sg39
S'clim'
p3692
sg41
g42
sg43
I4326
sg44
S'2050'
p3693
ssS'bio10'
p3694
(dp3695
g8
S'2015-03-18 20:48:21'
p3696
sg10
S'yes'
p3697
sg12
S'gd4550.bio10'
p3698
sg14
I131
sg15
S'bio10'
p3699
sg17
S'Mean Temperature of Warmest Quarter'
p3700
sg19
S'45'
p3701
sg21
S'gd4550'
p3702
sg23
S'../views/GTiff/clim.gd4550.bio10.tif'
p3703
sg25
S'climate'
p3704
sg27
S'clim.gd4550.bio10'
p3705
sg29
S'6188'
p3706
sg31
S'Mean Temperature of Warmest Quarter GD RCP45 2050'
p3707
sg33
g34
sg35
g36
sg37
S'clim.gd4550.bio10.tif'
p3708
sg39
S'clim'
p3709
sg41
g42
sg43
I4326
sg44
S'2050'
p3710
ssS'bio06'
p3711
(dp3712
g8
S'2015-03-18 20:48:21'
p3713
sg10
S'yes'
p3714
sg12
S'gd4550.bio06'
p3715
sg14
I43
sg15
S'bio06'
p3716
sg17
S'Min Temperature of Coldest Month'
p3717
sg19
S'45'
p3718
sg21
S'gd4550'
p3719
sg23
S'../views/GTiff/clim.gd4550.bio06.tif'
p3720
sg25
S'climate'
p3721
sg27
S'clim.gd4550.bio06'
p3722
sg29
S'6196'
p3723
sg31
S'Min Temperature of Coldest Month GD RCP45 2050'
p3724
sg33
g34
sg35
g36
sg37
S'clim.gd4550.bio06.tif'
p3725
sg39
S'clim'
p3726
sg41
g42
sg43
I4326
sg44
S'2050'
p3727
ssS'bio05'
p3728
(dp3729
g8
S'2015-03-18 20:48:21'
p3730
sg10
S'yes'
p3731
sg12
S'gd4550.bio05'
p3732
sg14
I120
sg15
S'bio05'
p3733
sg17
S'Max Temperature of Warmest Month'
p3734
sg19
S'45'
p3735
sg21
S'gd4550'
p3736
sg23
S'../views/GTiff/clim.gd4550.bio05.tif'
p3737
sg25
S'climate'
p3738
sg27
S'clim.gd4550.bio05'
p3739
sg29
S'6197'
p3740
sg31
S'Max Temperature of Warmest Month GD RCP45 2050'
p3741
sg33
g34
sg35
g36
sg37
S'clim.gd4550.bio05.tif'
p3742
sg39
S'clim'
p3743
sg41
g42
sg43
I4326
sg44
S'2050'
p3744
ssS'bio13'
p3745
(dp3746
g8
S'2015-03-18 20:48:21'
p3747
sg10
S'yes'
p3748
sg12
S'gd4550.bio13'
p3749
sg14
I150
sg15
S'bio13'
p3750
sg17
S'Precipitation of Wettest Month'
p3751
sg19
S'45'
p3752
sg21
S'gd4550'
p3753
sg23
S'../views/GTiff/clim.gd4550.bio13.tif'
p3754
sg25
S'climate'
p3755
sg27
S'clim.gd4550.bio13'
p3756
sg29
S'6190'
p3757
sg31
S'Precipitation of Wettest Month GD RCP45 2050'
p3758
sg33
g34
sg35
g36
sg37
S'clim.gd4550.bio13.tif'
p3759
sg39
S'clim'
p3760
sg41
g42
sg43
I4326
sg44
S'2050'
p3761
ssS'bio03'
p3762
(dp3763
g8
S'2015-03-18 20:48:21'
p3764
sg10
S'yes'
p3765
sg12
S'gd4550.bio03'
p3766
sg14
I217
sg15
S'bio03'
p3767
sg17
S'Isothermality (BIO2/BIO7) (* 100)'
p3768
sg19
S'45'
p3769
sg21
S'gd4550'
p3770
sg23
S'../views/GTiff/clim.gd4550.bio03.tif'
p3771
sg25
S'climate'
p3772
sg27
S'clim.gd4550.bio03'
p3773
sg29
S'6199'
p3774
sg31
S'Isothermality (BIO2/BIO7) (* 100) GD RCP45 2050'
p3775
sg33
g34
sg35
g36
sg37
S'clim.gd4550.bio03.tif'
p3776
sg39
S'clim'
p3777
sg41
g42
sg43
I4326
sg44
S'2050'
p3778
ssS'bio02'
p3779
(dp3780
g8
S'2015-03-18 20:48:21'
p3781
sg10
S'yes'
p3782
sg12
S'gd4550.bio02'
p3783
sg14
I224
sg15
S'bio02'
p3784
sg17
S'Mean Diurnal Range (Mean of monthly (max temp - min temp))'
p3785
sg19
S'45'
p3786
sg21
S'gd4550'
p3787
sg23
S'../views/GTiff/clim.gd4550.bio02.tif'
p3788
sg25
S'climate'
p3789
sg27
S'clim.gd4550.bio02'
p3790
sg29
S'6200'
p3791
sg31
S'Mean Diurnal Range (Mean of monthly (max temp - min temp)) GD RCP45 2050'
p3792
sg33
g34
sg35
g36
sg37
S'clim.gd4550.bio02.tif'
p3793
sg39
S'clim'
p3794
sg41
g42
sg43
I4326
sg44
S'2050'
p3795
ssS'bio16'
p3796
(dp3797
g8
S'2015-03-18 20:48:21'
p3798
sg10
S'yes'
p3799
sg12
S'gd4550.bio16'
p3800
sg14
I49
sg15
S'bio16'
p3801
sg17
S'Precipitation of Wettest Quarter'
p3802
sg19
S'45'
p3803
sg21
S'gd4550'
p3804
sg23
S'../views/GTiff/clim.gd4550.bio16.tif'
p3805
sg25
S'climate'
p3806
sg27
S'clim.gd4550.bio16'
p3807
sg29
S'6192'
p3808
sg31
S'Precipitation of Wettest Quarter GD RCP45 2050'
p3809
sg33
g34
sg35
g36
sg37
S'clim.gd4550.bio16.tif'
p3810
sg39
S'clim'
p3811
sg41
g42
sg43
I4326
sg44
S'2050'
p3812
ssS'bio17'
p3813
(dp3814
g8
S'2015-03-18 20:48:21'
p3815
sg10
S'yes'
p3816
sg12
S'gd4550.bio17'
p3817
sg14
I41
sg15
S'bio17'
p3818
sg17
S'Precipitation of Driest Quarter'
p3819
sg19
S'45'
p3820
sg21
g3590
sg23
S'../views/GTiff/clim.gd4550.bio17.tif'
p3821
sg25
S'climate'
p3822
sg27
S'clim.gd4550.bio17'
p3823
sg29
S'6202'
p3824
sg31
S'Precipitation of Driest Quarter GD RCP45 2050'
p3825
sg33
g34
sg35
g36
sg37
S'clim.gd4550.bio17.tif'
p3826
sg39
S'clim'
p3827
sg41
g42
sg43
I4326
sg44
S'2050'
p3828
ssS'bio18'
p3829
(dp3830
g8
S'2015-03-18 20:48:21'
p3831
sg10
S'no'
p3832
sg12
S'gd4550.bio18'
p3833
sg14
I208
sg15
S'bio18'
p3834
sg17
S'Precipitation of Warmest Quarter'
p3835
sg19
S'45'
p3836
sg21
S'gd4550'
p3837
sg23
S'../views/GTiff/clim.gd4550.bio18.tif'
p3838
sg25
S'climate'
p3839
sg27
S'clim.gd4550.bio18'
p3840
sg29
S'6203'
p3841
sg31
S'Precipitation of Warmest Quarter GD RCP45 2050'
p3842
sg33
g34
sg35
g36
sg37
S'clim.gd4550.bio18.tif'
p3843
sg39
S'clim'
p3844
sg41
g42
sg43
I4326
sg44
S'2050'
p3845
ssS'bio19'
p3846
(dp3847
g8
S'2015-03-18 20:48:21'
p3848
sg10
S'yes'
p3849
sg12
S'gd4550.bio19'
p3850
sg14
I135
sg15
S'bio19'
p3851
sg17
S'Precipitation of Coldest Quarter'
p3852
sg19
S'45'
p3853
sg21
S'gd4550'
p3854
sg23
S'../views/GTiff/clim.gd4550.bio19.tif'
p3855
sg25
S'climate'
p3856
sg27
S'clim.gd4550.bio19'
p3857
sg29
S'6189'
p3858
sg31
S'Precipitation of Coldest Quarter GD RCP45 2050'
p3859
sg33
g34
sg35
g36
sg37
S'clim.gd4550.bio19.tif'
p3860
sg39
S'clim'
p3861
sg41
g42
sg43
I4326
sg44
S'2050'
p3862
ssS'bio04'
p3863
(dp3864
g8
S'2015-03-18 20:48:21'
p3865
sg10
S'yes'
p3866
sg12
S'gd4550.bio04'
p3867
sg14
I180
sg15
S'bio04'
p3868
sg17
S'Temperature Seasonality (standard deviation *100)'
p3869
sg19
S'45'
p3870
sg21
S'gd4550'
p3871
sg23
S'../views/GTiff/clim.gd4550.bio04.tif'
p3872
sg25
S'climate'
p3873
sg27
S'clim.gd4550.bio04'
p3874
sg29
S'6198'
p3875
sg31
S'Temperature Seasonality (standard deviation *100) GD RCP45 2050'
p3876
sg33
g34
sg35
g36
sg37
S'clim.gd4550.bio04.tif'
p3877
sg39
S'clim'
p3878
sg41
g42
sg43
I4326
sg44
S'2050'
p3879
ssS'bio09'
p3880
(dp3881
g8
S'2015-03-18 20:48:21'
p3882
sg10
S'yes'
p3883
sg12
S'gd4550.bio09'
p3884
sg14
I128
sg15
S'bio09'
p3885
sg17
S'Mean Temperature of Driest Quarter'
p3886
sg19
S'45'
p3887
sg21
S'gd4550'
p3888
sg23
S'../views/GTiff/clim.gd4550.bio09.tif'
p3889
sg25
S'climate'
p3890
sg27
S'clim.gd4550.bio09'
p3891
sg29
S'6205'
p3892
sg31
S'Mean Temperature of Driest Quarter GD RCP45 2050'
p3893
sg33
g34
sg35
g36
sg37
S'clim.gd4550.bio09.tif'
p3894
sg39
S'clim'
p3895
sg41
g42
sg43
I4326
sg44
S'2050'
p3896
ssS'bio08'
p3897
(dp3898
g8
S'2015-03-18 20:48:21'
p3899
sg10
S'no'
p3900
sg12
S'gd4550.bio08'
p3901
sg14
I157
sg15
S'bio08'
p3902
sg17
S'Mean Temperature of Wettest Quarter'
p3903
sg19
S'45'
p3904
sg21
S'gd4550'
p3905
sg23
S'../views/GTiff/clim.gd4550.bio08.tif'
p3906
sg25
S'climate'
p3907
sg27
S'clim.gd4550.bio08'
p3908
sg29
S'6206'
p3909
sg31
S'Mean Temperature of Wettest Quarter GD RCP45 2050'
p3910
sg33
g34
sg35
g36
sg37
S'clim.gd4550.bio08.tif'
p3911
sg39
S'clim'
p3912
sg41
g42
sg43
I4326
sg44
S'2050'
p3913
sssS'current'
p3914
(dp3915
S'bio07'
p3916
(dp3917
g8
S'2015-03-18 20:48:21'
p3918
sg10
S'no'
p3919
sg12
S'current.bio07'
p3920
sg14
I270
sg15
S'bio07'
p3921
sg17
S'Temperature Annual Range (BIO5-BIO6)'
p3922
sg19
S'current'
p3923
sg21
S'current'
p3924
sg23
S'../views/GTiff/clim.current.bio07.tif'
p3925
sg25
S'climate'
p3926
sg27
S'clim.current.bio07'
p3927
sg29
S'6271'
p3928
sg31
S'Temperature Annual Range (BIO5-BIO6) Current Climate 1960-2000'
p3929
sg33
g34
sg35
g36
sg37
S'clim.current.bio07.tif'
p3930
sg39
S'clim'
p3931
sg41
g42
sg43
I4326
sg44
S'current'
p3932
ssS'bio01'
p3933
(dp3934
g8
S'2015-03-18 20:48:21'
p3935
sg10
S'no'
p3936
sg12
S'current.bio01'
p3937
sg14
I218
sg15
S'bio01'
p3938
sg17
S'Annual Mean Temperature'
p3939
sg19
S'current'
p3940
sg21
S'current'
p3941
sg23
S'../views/GTiff/clim.current.bio01.tif'
p3942
sg25
S'climate'
p3943
sg27
S'clim.current.bio01'
p3944
sg29
S'6277'
p3945
sg31
S'Annual Mean Temperature Current Climate 1960-2000'
p3946
sg33
g34
sg35
g36
sg37
S'clim.current.bio01.tif'
p3947
sg39
S'clim'
p3948
sg41
g42
sg43
I4326
sg44
S'current'
p3949
ssS'bio11'
p3950
(dp3951
g8
S'2015-03-18 20:48:21'
p3952
sg10
S'yes'
p3953
sg12
S'current.bio11'
p3954
sg14
I140
sg15
S'bio11'
p3955
sg17
S'Mean Temperature of Coldest Quarter'
p3956
sg19
S'current'
p3957
sg21
S'current'
p3958
sg23
S'../views/GTiff/clim.current.bio11.tif'
p3959
sg25
S'climate'
p3960
sg27
S'clim.current.bio11'
p3961
sg29
S'6267'
p3962
sg31
S'Mean Temperature of Coldest Quarter Current Climate 1960-2000'
p3963
sg33
g34
sg35
g36
sg37
S'clim.current.bio11.tif'
p3964
sg39
S'clim'
p3965
sg41
g42
sg43
I4326
sg44
S'current'
p3966
ssS'bio17'
p3967
(dp3968
g8
S'2015-03-18 20:48:21'
p3969
sg10
S'yes'
p3970
sg12
S'current.bio17'
p3971
sg14
I330
sg15
S'bio17'
p3972
sg17
S'Precipitation of Driest Quarter'
p3973
sg19
S'current'
p3974
sg21
S'current'
p3975
sg23
S'../views/GTiff/clim.current.bio17.tif'
p3976
sg25
S'climate'
p3977
sg27
S'clim.current.bio17'
p3978
sg29
S'6278'
p3979
sg31
S'Precipitation of Driest Quarter Current Climate 1960-2000'
p3980
sg33
g34
sg35
g36
sg37
S'clim.current.bio17.tif'
p3981
sg39
S'clim'
p3982
sg41
g42
sg43
I4326
sg44
S'current'
p3983
ssS'bio15'
p3984
(dp3985
g8
S'2015-03-18 20:48:21'
p3986
sg10
S'no'
p3987
sg12
S'current.bio15'
p3988
sg14
I175
sg15
S'bio15'
p3989
sg17
S'Precipitation Seasonality (Coefficient of Variation)'
p3990
sg19
S'current'
p3991
sg21
S'current'
p3992
sg23
S'../views/GTiff/clim.current.bio15.tif'
p3993
sg25
S'climate'
p3994
sg27
S'clim.current.bio15'
p3995
sg29
S'6269'
p3996
sg31
S'Precipitation Seasonality (Coefficient of Variation) Current Climate 1960-2000'
p3997
sg33
g34
sg35
g36
sg37
S'clim.current.bio15.tif'
p3998
sg39
S'clim'
p3999
sg41
g42
sg43
I4326
sg44
S'current'
p4000
ssS'bio12'
p4001
(dp4002
g8
S'2015-03-18 20:48:21'
p4003
sg10
S'no'
p4004
sg12
S'current.bio12'
p4005
sg14
I327
sg15
S'bio12'
p4006
sg17
S'Annual Precipitation'
p4007
sg19
S'current'
p4008
sg21
S'current'
p4009
sg23
S'../views/GTiff/clim.current.bio12.tif'
p4010
sg25
S'climate'
p4011
sg27
S'clim.current.bio12'
p4012
sg29
S'6270'
p4013
sg31
S'Annual Precipitation Current Climate 1960-2000'
p4014
sg33
g34
sg35
g36
sg37
S'clim.current.bio12.tif'
p4015
sg39
S'clim'
p4016
sg41
g42
sg43
I4326
sg44
S'current'
p4017
ssS'bio10'
p4018
(dp4019
g8
S'2015-03-18 20:48:21'
p4020
sg10
S'yes'
p4021
sg12
S'current.bio10'
p4022
sg14
I248
sg15
S'bio10'
p4023
sg17
S'Mean Temperature of Warmest Quarter'
p4024
sg19
S'current'
p4025
sg21
S'current'
p4026
sg23
S'../views/GTiff/clim.current.bio10.tif'
p4027
sg25
S'climate'
p4028
sg27
S'clim.current.bio10'
p4029
sg29
S'6264'
p4030
sg31
S'Mean Temperature of Warmest Quarter Current Climate 1960-2000'
p4031
sg33
g34
sg35
g36
sg37
S'clim.current.bio10.tif'
p4032
sg39
S'clim'
p4033
sg41
g42
sg43
I4326
sg44
S'current'
p4034
ssS'bio06'
p4035
(dp4036
g8
S'2015-03-18 20:48:21'
p4037
sg10
S'yes'
p4038
sg12
S'current.bio06'
p4039
sg14
I15
sg15
S'bio06'
p4040
sg17
S'Min Temperature of Coldest Month'
p4041
sg19
S'current'
p4042
sg21
g3914
sg23
S'../views/GTiff/clim.current.bio06.tif'
p4043
sg25
S'climate'
p4044
sg27
S'clim.current.bio06'
p4045
sg29
S'6272'
p4046
sg31
S'Min Temperature of Coldest Month Current Climate 1960-2000'
p4047
sg33
g34
sg35
g36
sg37
S'clim.current.bio06.tif'
p4048
sg39
S'clim'
p4049
sg41
g42
sg43
I4326
sg44
S'current'
p4050
ssS'bio05'
p4051
(dp4052
g8
S'2015-03-18 20:48:21'
p4053
sg10
S'yes'
p4054
sg12
S'current.bio05'
p4055
sg14
I138
sg15
S'bio05'
p4056
sg17
S'Max Temperature of Warmest Month'
p4057
sg19
S'current'
p4058
sg21
S'current'
p4059
sg23
S'../views/GTiff/clim.current.bio05.tif'
p4060
sg25
S'climate'
p4061
sg27
S'clim.current.bio05'
p4062
sg29
S'6273'
p4063
sg31
S'Max Temperature of Warmest Month Current Climate 1960-2000'
p4064
sg33
g34
sg35
g36
sg37
S'clim.current.bio05.tif'
p4065
sg39
S'clim'
p4066
sg41
g42
sg43
I4326
sg44
S'current'
p4067
ssS'bio13'
p4068
(dp4069
g8
S'2015-03-18 20:48:21'
p4070
sg10
S'yes'
p4071
sg12
S'current.bio13'
p4072
sg14
I261
sg15
S'bio13'
p4073
sg17
S'Precipitation of Wettest Month'
p4074
sg19
S'current'
p4075
sg21
S'current'
p4076
sg23
S'../views/GTiff/clim.current.bio13.tif'
p4077
sg25
S'climate'
p4078
sg27
S'clim.current.bio13'
p4079
sg29
S'6266'
p4080
sg31
S'Precipitation of Wettest Month Current Climate 1960-2000'
p4081
sg33
g34
sg35
g36
sg37
S'clim.current.bio13.tif'
p4082
sg39
S'clim'
p4083
sg41
g42
sg43
I4326
sg44
S'current'
p4084
ssS'bio03'
p4085
(dp4086
g8
S'2015-03-18 20:48:21'
p4087
sg10
S'yes'
p4088
sg12
S'current.bio03'
p4089
sg14
I60
sg15
S'bio03'
p4090
sg17
S'Isothermality (BIO2/BIO7) (* 100)'
p4091
sg19
S'current'
p4092
sg21
S'current'
p4093
sg23
S'../views/GTiff/clim.current.bio03.tif'
p4094
sg25
S'climate'
p4095
sg27
S'clim.current.bio03'
p4096
sg29
S'6275'
p4097
sg31
S'Isothermality (BIO2/BIO7) (* 100) Current Climate 1960-2000'
p4098
sg33
g34
sg35
g36
sg37
S'clim.current.bio03.tif'
p4099
sg39
S'clim'
p4100
sg41
g42
sg43
I4326
sg44
S'current'
p4101
ssS'bio02'
p4102
(dp4103
g8
S'2015-03-18 20:48:21'
p4104
sg10
S'yes'
p4105
sg12
S'current.bio02'
p4106
sg14
I129
sg15
S'bio02'
p4107
sg17
S'Mean Diurnal Range (Mean of monthly (max temp - min temp))'
p4108
sg19
S'current'
p4109
sg21
S'current'
p4110
sg23
S'../views/GTiff/clim.current.bio02.tif'
p4111
sg25
S'climate'
p4112
sg27
S'clim.current.bio02'
p4113
sg29
S'6276'
p4114
sg31
S'Mean Diurnal Range (Mean of monthly (max temp - min temp)) Current Climate 1960-2000'
p4115
sg33
g34
sg35
g36
sg37
S'clim.current.bio02.tif'
p4116
sg39
S'clim'
p4117
sg41
g42
sg43
I4326
sg44
S'current'
p4118
ssS'bio16'
p4119
(dp4120
g8
S'2015-03-18 20:48:21'
p4121
sg10
S'yes'
p4122
sg12
S'current.bio16'
p4123
sg14
I193
sg15
S'bio16'
p4124
sg17
S'Precipitation of Wettest Quarter'
p4125
sg19
S'current'
p4126
sg21
S'current'
p4127
sg23
S'../views/GTiff/clim.current.bio16.tif'
p4128
sg25
S'climate'
p4129
sg27
S'clim.current.bio16'
p4130
sg29
S'6268'
p4131
sg31
S'Precipitation of Wettest Quarter Current Climate 1960-2000'
p4132
sg33
g34
sg35
g36
sg37
S'clim.current.bio16.tif'
p4133
sg39
S'clim'
p4134
sg41
g42
sg43
I4326
sg44
S'current'
p4135
ssS'bio19'
p4136
(dp4137
g8
S'2015-03-18 20:48:21'
p4138
sg10
S'yes'
p4139
sg12
S'current.bio19'
p4140
sg14
I280
sg15
S'bio19'
p4141
sg17
S'Precipitation of Coldest Quarter'
p4142
sg19
S'current'
p4143
sg21
S'current'
p4144
sg23
S'../views/GTiff/clim.current.bio19.tif'
p4145
sg25
S'climate'
p4146
sg27
S'clim.current.bio19'
p4147
sg29
S'6265'
p4148
sg31
S'Precipitation of Coldest Quarter Current Climate 1960-2000'
p4149
sg33
g34
sg35
g36
sg37
S'clim.current.bio19.tif'
p4150
sg39
S'clim'
p4151
sg41
g42
sg43
I4326
sg44
S'current'
p4152
ssS'bio18'
p4153
(dp4154
g8
S'2015-03-18 20:48:21'
p4155
sg10
S'no'
p4156
sg12
S'current.bio18'
p4157
sg14
I271
sg15
S'bio18'
p4158
sg17
S'Precipitation of Warmest Quarter'
p4159
sg19
S'current'
p4160
sg21
S'current'
p4161
sg23
S'../views/GTiff/clim.current.bio18.tif'
p4162
sg25
S'climate'
p4163
sg27
S'clim.current.bio18'
p4164
sg29
S'6279'
p4165
sg31
S'Precipitation of Warmest Quarter Current Climate 1960-2000'
p4166
sg33
g34
sg35
g36
sg37
S'clim.current.bio18.tif'
p4167
sg39
S'clim'
p4168
sg41
g42
sg43
I4326
sg44
S'current'
p4169
ssS'bio14'
p4170
(dp4171
g8
S'2015-03-18 20:48:21'
p4172
sg10
S'yes'
p4173
sg12
S'current.bio14'
p4174
sg14
I241
sg15
S'bio14'
p4175
sg17
S'Precipitation of Driest Month'
p4176
sg19
S'current'
p4177
sg21
S'current'
p4178
sg23
S'../views/GTiff/clim.current.bio14.tif'
p4179
sg25
S'climate'
p4180
sg27
S'clim.current.bio14'
p4181
sg29
S'6280'
p4182
sg31
S'Precipitation of Driest Month Current Climate 1960-2000'
p4183
sg33
g34
sg35
g36
sg37
S'clim.current.bio14.tif'
p4184
sg39
S'clim'
p4185
sg41
g42
sg43
I4326
sg44
S'current'
p4186
ssS'bio04'
p4187
(dp4188
g8
S'2015-03-18 20:48:21'
p4189
sg10
S'yes'
p4190
sg12
S'current.bio04'
p4191
sg14
I288
sg15
S'bio04'
p4192
sg17
S'Temperature Seasonality (standard deviation *100)'
p4193
sg19
S'current'
p4194
sg21
S'current'
p4195
sg23
S'../views/GTiff/clim.current.bio04.tif'
p4196
sg25
S'climate'
p4197
sg27
S'clim.current.bio04'
p4198
sg29
S'6274'
p4199
sg31
S'Temperature Seasonality (standard deviation *100) Current Climate 1960-2000'
p4200
sg33
g34
sg35
g36
sg37
S'clim.current.bio04.tif'
p4201
sg39
S'clim'
p4202
sg41
g42
sg43
I4326
sg44
S'current'
p4203
ssS'bio09'
p4204
(dp4205
g8
S'2015-03-18 20:48:21'
p4206
sg10
S'yes'
p4207
sg12
S'current.bio09'
p4208
sg14
I195
sg15
S'bio09'
p4209
sg17
S'Mean Temperature of Driest Quarter'
p4210
sg19
S'current'
p4211
sg21
S'current'
p4212
sg23
S'../views/GTiff/clim.current.bio09.tif'
p4213
sg25
S'climate'
p4214
sg27
S'clim.current.bio09'
p4215
sg29
S'6281'
p4216
sg31
S'Mean Temperature of Driest Quarter Current Climate 1960-2000'
p4217
sg33
g34
sg35
g36
sg37
S'clim.current.bio09.tif'
p4218
sg39
S'clim'
p4219
sg41
g42
sg43
I4326
sg44
S'current'
p4220
ssS'bio08'
p4221
(dp4222
g8
S'2015-03-18 20:48:21'
p4223
sg10
S'no'
p4224
sg12
S'current.bio08'
p4225
sg14
I44
sg15
S'bio08'
p4226
sg17
S'Mean Temperature of Wettest Quarter'
p4227
sg19
S'current'
p4228
sg21
S'current'
p4229
sg23
S'../views/GTiff/clim.current.bio08.tif'
p4230
sg25
S'climate'
p4231
sg27
S'clim.current.bio08'
p4232
sg29
S'6282'
p4233
sg31
S'Mean Temperature of Wettest Quarter Current Climate 1960-2000'
p4234
sg33
g34
sg35
g36
sg37
S'clim.current.bio08.tif'
p4235
sg39
S'clim'
p4236
sg41
g42
sg43
I4326
sg44
S'current'
p4237
sssS'he6070'
p4238
(dp4239
S'bio07'
p4240
(dp4241
g8
S'2015-03-18 20:48:21'
p4242
sg10
S'no'
p4243
sg12
S'he6070.bio07'
p4244
sg14
I315
sg15
S'bio07'
p4245
sg17
S'Temperature Annual Range (BIO5-BIO6)'
p4246
sg19
S'60'
p4247
sg21
S'he6070'
p4248
sg23
S'../views/GTiff/clim.he6070.bio07.tif'
p4249
sg25
S'climate'
p4250
sg27
S'clim.he6070.bio07'
p4251
sg29
S'6363'
p4252
sg31
S'Temperature Annual Range (BIO5-BIO6) HE RCP60 2070'
p4253
sg33
g34
sg35
g36
sg37
S'clim.he6070.bio07.tif'
p4254
sg39
S'clim'
p4255
sg41
g42
sg43
I4326
sg44
S'2070'
p4256
ssS'bio19'
p4257
(dp4258
g8
S'2015-03-18 20:48:21'
p4259
sg10
S'yes'
p4260
sg12
S'he6070.bio19'
p4261
sg14
I281
sg15
S'bio19'
p4262
sg17
S'Precipitation of Coldest Quarter'
p4263
sg19
S'60'
p4264
sg21
S'he6070'
p4265
sg23
S'../views/GTiff/clim.he6070.bio19.tif'
p4266
sg25
S'climate'
p4267
sg27
S'clim.he6070.bio19'
p4268
sg29
S'6357'
p4269
sg31
S'Precipitation of Coldest Quarter HE RCP60 2070'
p4270
sg33
g34
sg35
g36
sg37
S'clim.he6070.bio19.tif'
p4271
sg39
S'clim'
p4272
sg41
g42
sg43
I4326
sg44
S'2070'
p4273
ssS'bio16'
p4274
(dp4275
g8
S'2015-03-18 20:48:21'
p4276
sg10
S'yes'
p4277
sg12
S'he6070.bio16'
p4278
sg14
I168
sg15
S'bio16'
p4279
sg17
S'Precipitation of Wettest Quarter'
p4280
sg19
S'60'
p4281
sg21
S'he6070'
p4282
sg23
S'../views/GTiff/clim.he6070.bio16.tif'
p4283
sg25
S'climate'
p4284
sg27
S'clim.he6070.bio16'
p4285
sg29
S'6360'
p4286
sg31
S'Precipitation of Wettest Quarter HE RCP60 2070'
p4287
sg33
g34
sg35
g36
sg37
S'clim.he6070.bio16.tif'
p4288
sg39
S'clim'
p4289
sg41
g42
sg43
I4326
sg44
S'2070'
p4290
ssS'bio06'
p4291
(dp4292
g8
S'2015-03-18 20:48:21'
p4293
sg10
S'yes'
p4294
sg12
S'he6070.bio06'
p4295
sg14
I313
sg15
S'bio06'
p4296
sg17
S'Min Temperature of Coldest Month'
p4297
sg19
S'60'
p4298
sg21
S'he6070'
p4299
sg23
S'../views/GTiff/clim.he6070.bio06.tif'
p4300
sg25
S'climate'
p4301
sg27
S'clim.he6070.bio06'
p4302
sg29
S'6364'
p4303
sg31
S'Min Temperature of Coldest Month HE RCP60 2070'
p4304
sg33
g34
sg35
g36
sg37
S'clim.he6070.bio06.tif'
p4305
sg39
S'clim'
p4306
sg41
g42
sg43
I4326
sg44
S'2070'
p4307
ssS'bio15'
p4308
(dp4309
g8
S'2015-03-18 20:48:21'
p4310
sg10
S'no'
p4311
sg12
S'he6070.bio15'
p4312
sg14
I302
sg15
S'bio15'
p4313
sg17
S'Precipitation Seasonality (Coefficient of Variation)'
p4314
sg19
S'60'
p4315
sg21
S'he6070'
p4316
sg23
S'../views/GTiff/clim.he6070.bio15.tif'
p4317
sg25
S'climate'
p4318
sg27
S'clim.he6070.bio15'
p4319
sg29
S'6361'
p4320
sg31
S'Precipitation Seasonality (Coefficient of Variation) HE RCP60 2070'
p4321
sg33
g34
sg35
g36
sg37
S'clim.he6070.bio15.tif'
p4322
sg39
S'clim'
p4323
sg41
g42
sg43
I4326
sg44
S'2070'
p4324
ssS'bio12'
p4325
(dp4326
g8
S'2015-03-18 20:48:21'
p4327
sg10
S'no'
p4328
sg12
S'he6070.bio12'
p4329
sg14
I309
sg15
S'bio12'
p4330
sg17
S'Annual Precipitation'
p4331
sg19
S'60'
p4332
sg21
S'he6070'
p4333
sg23
S'../views/GTiff/clim.he6070.bio12.tif'
p4334
sg25
S'climate'
p4335
sg27
S'clim.he6070.bio12'
p4336
sg29
S'6362'
p4337
sg31
S'Annual Precipitation HE RCP60 2070'
p4338
sg33
g34
sg35
g36
sg37
S'clim.he6070.bio12.tif'
p4339
sg39
S'clim'
p4340
sg41
g42
sg43
I4326
sg44
S'2070'
p4341
ssS'bio10'
p4342
(dp4343
g8
S'2015-03-18 20:48:21'
p4344
sg10
S'yes'
p4345
sg12
S'he6070.bio10'
p4346
sg14
I51
sg15
S'bio10'
p4347
sg17
S'Mean Temperature of Warmest Quarter'
p4348
sg19
S'60'
p4349
sg21
S'he6070'
p4350
sg23
S'../views/GTiff/clim.he6070.bio10.tif'
p4351
sg25
S'climate'
p4352
sg27
S'clim.he6070.bio10'
p4353
sg29
S'6356'
p4354
sg31
S'Mean Temperature of Warmest Quarter HE RCP60 2070'
p4355
sg33
g34
sg35
g36
sg37
S'clim.he6070.bio10.tif'
p4356
sg39
S'clim'
p4357
sg41
g42
sg43
I4326
sg44
S'2070'
p4358
ssS'bio11'
p4359
(dp4360
g8
S'2015-03-18 20:48:21'
p4361
sg10
S'yes'
p4362
sg12
S'he6070.bio11'
p4363
sg14
I45
sg15
S'bio11'
p4364
sg17
S'Mean Temperature of Coldest Quarter'
p4365
sg19
S'60'
p4366
sg21
S'he6070'
p4367
sg23
S'../views/GTiff/clim.he6070.bio11.tif'
p4368
sg25
S'climate'
p4369
sg27
S'clim.he6070.bio11'
p4370
sg29
S'6359'
p4371
sg31
S'Mean Temperature of Coldest Quarter HE RCP60 2070'
p4372
sg33
g34
sg35
g36
sg37
S'clim.he6070.bio11.tif'
p4373
sg39
S'clim'
p4374
sg41
g42
sg43
I4326
sg44
S'2070'
p4375
ssS'bio05'
p4376
(dp4377
g8
S'2015-03-18 20:48:21'
p4378
sg10
S'yes'
p4379
sg12
S'he6070.bio05'
p4380
sg14
I207
sg15
S'bio05'
p4381
sg17
S'Max Temperature of Warmest Month'
p4382
sg19
S'60'
p4383
sg21
S'he6070'
p4384
sg23
S'../views/GTiff/clim.he6070.bio05.tif'
p4385
sg25
S'climate'
p4386
sg27
S'clim.he6070.bio05'
p4387
sg29
S'6365'
p4388
sg31
S'Max Temperature of Warmest Month HE RCP60 2070'
p4389
sg33
g34
sg35
g36
sg37
S'clim.he6070.bio05.tif'
p4390
sg39
S'clim'
p4391
sg41
g42
sg43
I4326
sg44
S'2070'
p4392
ssS'bio13'
p4393
(dp4394
g8
S'2015-03-18 20:48:21'
p4395
sg10
S'yes'
p4396
sg12
S'he6070.bio13'
p4397
sg14
I68
sg15
S'bio13'
p4398
sg17
S'Precipitation of Wettest Month'
p4399
sg19
S'60'
p4400
sg21
S'he6070'
p4401
sg23
S'../views/GTiff/clim.he6070.bio13.tif'
p4402
sg25
S'climate'
p4403
sg27
S'clim.he6070.bio13'
p4404
sg29
S'6358'
p4405
sg31
S'Precipitation of Wettest Month HE RCP60 2070'
p4406
sg33
g34
sg35
g36
sg37
S'clim.he6070.bio13.tif'
p4407
sg39
S'clim'
p4408
sg41
g42
sg43
I4326
sg44
S'2070'
p4409
ssS'bio14'
p4410
(dp4411
g8
S'2015-03-18 20:48:21'
p4412
sg10
S'yes'
p4413
sg12
S'he6070.bio14'
p4414
sg14
I202
sg15
S'bio14'
p4415
sg17
S'Precipitation of Driest Month'
p4416
sg19
S'60'
p4417
sg21
S'he6070'
p4418
sg23
S'../views/GTiff/clim.he6070.bio14.tif'
p4419
sg25
S'climate'
p4420
sg27
S'clim.he6070.bio14'
p4421
sg29
S'6372'
p4422
sg31
S'Precipitation of Driest Month HE RCP60 2070'
p4423
sg33
g34
sg35
g36
sg37
S'clim.he6070.bio14.tif'
p4424
sg39
S'clim'
p4425
sg41
g42
sg43
I4326
sg44
S'2070'
p4426
ssS'bio02'
p4427
(dp4428
g8
S'2015-03-18 20:48:21'
p4429
sg10
S'yes'
p4430
sg12
S'he6070.bio02'
p4431
sg14
I199
sg15
S'bio02'
p4432
sg17
S'Mean Diurnal Range (Mean of monthly (max temp - min temp))'
p4433
sg19
S'60'
p4434
sg21
S'he6070'
p4435
sg23
S'../views/GTiff/clim.he6070.bio02.tif'
p4436
sg25
S'climate'
p4437
sg27
S'clim.he6070.bio02'
p4438
sg29
S'6368'
p4439
sg31
S'Mean Diurnal Range (Mean of monthly (max temp - min temp)) HE RCP60 2070'
p4440
sg33
g34
sg35
g36
sg37
S'clim.he6070.bio02.tif'
p4441
sg39
S'clim'
p4442
sg41
g42
sg43
I4326
sg44
S'2070'
p4443
ssS'bio01'
p4444
(dp4445
g8
S'2015-03-18 20:48:21'
p4446
sg10
S'no'
p4447
sg12
S'he6070.bio01'
p4448
sg14
I59
sg15
S'bio01'
p4449
sg17
S'Annual Mean Temperature'
p4450
sg19
S'60'
p4451
sg21
S'he6070'
p4452
sg23
S'../views/GTiff/clim.he6070.bio01.tif'
p4453
sg25
S'climate'
p4454
sg27
S'clim.he6070.bio01'
p4455
sg29
S'6369'
p4456
sg31
S'Annual Mean Temperature HE RCP60 2070'
p4457
sg33
g34
sg35
g36
sg37
S'clim.he6070.bio01.tif'
p4458
sg39
S'clim'
p4459
sg41
g42
sg43
I4326
sg44
S'2070'
p4460
ssS'bio17'
p4461
(dp4462
g8
S'2015-03-18 20:48:21'
p4463
sg10
S'yes'
p4464
sg12
S'he6070.bio17'
p4465
sg14
I40
sg15
S'bio17'
p4466
sg17
S'Precipitation of Driest Quarter'
p4467
sg19
S'60'
p4468
sg21
S'he6070'
p4469
sg23
S'../views/GTiff/clim.he6070.bio17.tif'
p4470
sg25
S'climate'
p4471
sg27
S'clim.he6070.bio17'
p4472
sg29
S'6370'
p4473
sg31
S'Precipitation of Driest Quarter HE RCP60 2070'
p4474
sg33
g34
sg35
g36
sg37
S'clim.he6070.bio17.tif'
p4475
sg39
S'clim'
p4476
sg41
g42
sg43
I4326
sg44
S'2070'
p4477
ssS'bio18'
p4478
(dp4479
g8
S'2015-03-18 20:48:21'
p4480
sg10
S'no'
p4481
sg12
S'he6070.bio18'
p4482
sg14
I114
sg15
S'bio18'
p4483
sg17
S'Precipitation of Warmest Quarter'
p4484
sg19
S'60'
p4485
sg21
S'he6070'
p4486
sg23
S'../views/GTiff/clim.he6070.bio18.tif'
p4487
sg25
S'climate'
p4488
sg27
S'clim.he6070.bio18'
p4489
sg29
S'6371'
p4490
sg31
S'Precipitation of Warmest Quarter HE RCP60 2070'
p4491
sg33
g34
sg35
g36
sg37
S'clim.he6070.bio18.tif'
p4492
sg39
S'clim'
p4493
sg41
g42
sg43
I4326
sg44
S'2070'
p4494
ssS'bio03'
p4495
(dp4496
g8
S'2015-03-18 20:48:21'
p4497
sg10
S'yes'
p4498
sg12
S'he6070.bio03'
p4499
sg14
I253
sg15
S'bio03'
p4500
sg17
S'Isothermality (BIO2/BIO7) (* 100)'
p4501
sg19
S'60'
p4502
sg21
S'he6070'
p4503
sg23
S'../views/GTiff/clim.he6070.bio03.tif'
p4504
sg25
S'climate'
p4505
sg27
S'clim.he6070.bio03'
p4506
sg29
S'6367'
p4507
sg31
S'Isothermality (BIO2/BIO7) (* 100) HE RCP60 2070'
p4508
sg33
g34
sg35
g36
sg37
S'clim.he6070.bio03.tif'
p4509
sg39
S'clim'
p4510
sg41
g42
sg43
I4326
sg44
S'2070'
p4511
ssS'bio04'
p4512
(dp4513
g8
S'2015-03-18 20:48:21'
p4514
sg10
S'yes'
p4515
sg12
S'he6070.bio04'
p4516
sg14
I256
sg15
S'bio04'
p4517
sg17
S'Temperature Seasonality (standard deviation *100)'
p4518
sg19
S'60'
p4519
sg21
S'he6070'
p4520
sg23
S'../views/GTiff/clim.he6070.bio04.tif'
p4521
sg25
S'climate'
p4522
sg27
S'clim.he6070.bio04'
p4523
sg29
S'6366'
p4524
sg31
S'Temperature Seasonality (standard deviation *100) HE RCP60 2070'
p4525
sg33
g34
sg35
g36
sg37
S'clim.he6070.bio04.tif'
p4526
sg39
S'clim'
p4527
sg41
g42
sg43
I4326
sg44
S'2070'
p4528
ssS'bio09'
p4529
(dp4530
g8
S'2015-03-18 20:48:21'
p4531
sg10
S'yes'
p4532
sg12
S'he6070.bio09'
p4533
sg14
I1
sg15
S'bio09'
p4534
sg17
S'Mean Temperature of Driest Quarter'
p4535
sg19
S'60'
p4536
sg21
g4238
sg23
S'../views/GTiff/clim.he6070.bio09.tif'
p4537
sg25
S'climate'
p4538
sg27
S'clim.he6070.bio09'
p4539
sg29
S'6373'
p4540
sg31
S'Mean Temperature of Driest Quarter HE RCP60 2070'
p4541
sg33
g34
sg35
g36
sg37
S'clim.he6070.bio09.tif'
p4542
sg39
S'clim'
p4543
sg41
g42
sg43
I4326
sg44
S'2070'
p4544
ssS'bio08'
p4545
(dp4546
g8
S'2015-03-18 20:48:21'
p4547
sg10
S'no'
p4548
sg12
S'he6070.bio08'
p4549
sg14
I89
sg15
S'bio08'
p4550
sg17
S'Mean Temperature of Wettest Quarter'
p4551
sg19
S'60'
p4552
sg21
S'he6070'
p4553
sg23
S'../views/GTiff/clim.he6070.bio08.tif'
p4554
sg25
S'climate'
p4555
sg27
S'clim.he6070.bio08'
p4556
sg29
S'6374'
p4557
sg31
S'Mean Temperature of Wettest Quarter HE RCP60 2070'
p4558
sg33
g34
sg35
g36
sg37
S'clim.he6070.bio08.tif'
p4559
sg39
S'clim'
p4560
sg41
g42
sg43
I4326
sg44
S'2070'
p4561
sssS'he4570'
p4562
(dp4563
S'bio07'
p4564
(dp4565
g8
S'2015-03-18 20:48:21'
p4566
sg10
S'no'
p4567
sg12
S'he4570.bio07'
p4568
sg14
I159
sg15
S'bio07'
p4569
sg17
S'Temperature Annual Range (BIO5-BIO6)'
p4570
sg19
S'45'
p4571
sg21
S'he4570'
p4572
sg23
S'../views/GTiff/clim.he4570.bio07.tif'
p4573
sg25
S'climate'
p4574
sg27
S'clim.he4570.bio07'
p4575
sg29
S'6412'
p4576
sg31
S'Temperature Annual Range (BIO5-BIO6) HE RCP45 2070'
p4577
sg33
g34
sg35
g36
sg37
S'clim.he4570.bio07.tif'
p4578
sg39
S'clim'
p4579
sg41
g42
sg43
I4326
sg44
S'2070'
p4580
ssS'bio13'
p4581
(dp4582
g8
S'2015-03-18 20:48:21'
p4583
sg10
S'yes'
p4584
sg12
S'he4570.bio13'
p4585
sg14
I152
sg15
S'bio13'
p4586
sg17
S'Precipitation of Wettest Month'
p4587
sg19
S'45'
p4588
sg21
S'he4570'
p4589
sg23
S'../views/GTiff/clim.he4570.bio13.tif'
p4590
sg25
S'climate'
p4591
sg27
S'clim.he4570.bio13'
p4592
sg29
S'6418'
p4593
sg31
S'Precipitation of Wettest Month HE RCP45 2070'
p4594
sg33
g34
sg35
g36
sg37
S'clim.he4570.bio13.tif'
p4595
sg39
S'clim'
p4596
sg41
g42
sg43
I4326
sg44
S'2070'
p4597
ssS'bio11'
p4598
(dp4599
g8
S'2015-03-18 20:48:21'
p4600
sg10
S'yes'
p4601
sg12
S'he4570.bio11'
p4602
sg14
I211
sg15
S'bio11'
p4603
sg17
S'Mean Temperature of Coldest Quarter'
p4604
sg19
S'45'
p4605
sg21
S'he4570'
p4606
sg23
S'../views/GTiff/clim.he4570.bio11.tif'
p4607
sg25
S'climate'
p4608
sg27
S'clim.he4570.bio11'
p4609
sg29
S'6416'
p4610
sg31
S'Mean Temperature of Coldest Quarter HE RCP45 2070'
p4611
sg33
g34
sg35
g36
sg37
S'clim.he4570.bio11.tif'
p4612
sg39
S'clim'
p4613
sg41
g42
sg43
I4326
sg44
S'2070'
p4614
ssS'bio05'
p4615
(dp4616
g8
S'2015-03-18 20:48:21'
p4617
sg10
S'yes'
p4618
sg12
S'he4570.bio05'
p4619
sg14
I214
sg15
S'bio05'
p4620
sg17
S'Max Temperature of Warmest Month'
p4621
sg19
S'45'
p4622
sg21
S'he4570'
p4623
sg23
S'../views/GTiff/clim.he4570.bio05.tif'
p4624
sg25
S'climate'
p4625
sg27
S'clim.he4570.bio05'
p4626
sg29
S'6414'
p4627
sg31
S'Max Temperature of Warmest Month HE RCP45 2070'
p4628
sg33
g34
sg35
g36
sg37
S'clim.he4570.bio05.tif'
p4629
sg39
S'clim'
p4630
sg41
g42
sg43
I4326
sg44
S'2070'
p4631
ssS'bio01'
p4632
(dp4633
g8
S'2015-03-18 20:48:21'
p4634
sg10
S'no'
p4635
sg12
S'he4570.bio01'
p4636
sg14
I292
sg15
S'bio01'
p4637
sg17
S'Annual Mean Temperature'
p4638
sg19
S'45'
p4639
sg21
S'he4570'
p4640
sg23
S'../views/GTiff/clim.he4570.bio01.tif'
p4641
sg25
S'climate'
p4642
sg27
S'clim.he4570.bio01'
p4643
sg29
S'6386'
p4644
sg31
S'Annual Mean Temperature HE RCP45 2070'
p4645
sg33
g34
sg35
g36
sg37
S'clim.he4570.bio01.tif'
p4646
sg39
S'clim'
p4647
sg41
g42
sg43
I4326
sg44
S'2070'
p4648
ssS'bio10'
p4649
(dp4650
g8
S'2015-03-18 20:48:21'
p4651
sg10
S'yes'
p4652
sg12
S'he4570.bio10'
p4653
sg14
I18
sg15
S'bio10'
p4654
sg17
S'Mean Temperature of Warmest Quarter'
p4655
sg19
S'45'
p4656
sg21
g4562
sg23
S'../views/GTiff/clim.he4570.bio10.tif'
p4657
sg25
S'climate'
p4658
sg27
S'clim.he4570.bio10'
p4659
sg29
S'6415'
p4660
sg31
S'Mean Temperature of Warmest Quarter HE RCP45 2070'
p4661
sg33
g34
sg35
g36
sg37
S'clim.he4570.bio10.tif'
p4662
sg39
S'clim'
p4663
sg41
g42
sg43
I4326
sg44
S'2070'
p4664
ssS'bio06'
p4665
(dp4666
g8
S'2015-03-18 20:48:21'
p4667
sg10
S'yes'
p4668
sg12
S'he4570.bio06'
p4669
sg14
I130
sg15
S'bio06'
p4670
sg17
S'Min Temperature of Coldest Month'
p4671
sg19
S'45'
p4672
sg21
S'he4570'
p4673
sg23
S'../views/GTiff/clim.he4570.bio06.tif'
p4674
sg25
S'climate'
p4675
sg27
S'clim.he4570.bio06'
p4676
sg29
S'6413'
p4677
sg31
S'Min Temperature of Coldest Month HE RCP45 2070'
p4678
sg33
g34
sg35
g36
sg37
S'clim.he4570.bio06.tif'
p4679
sg39
S'clim'
p4680
sg41
g42
sg43
I4326
sg44
S'2070'
p4681
ssS'bio12'
p4682
(dp4683
g8
S'2015-03-18 20:48:21'
p4684
sg10
S'no'
p4685
sg12
S'he4570.bio12'
p4686
sg14
I34
sg15
S'bio12'
p4687
sg17
S'Annual Precipitation'
p4688
sg19
S'45'
p4689
sg21
S'he4570'
p4690
sg23
S'../views/GTiff/clim.he4570.bio12.tif'
p4691
sg25
S'climate'
p4692
sg27
S'clim.he4570.bio12'
p4693
sg29
S'6417'
p4694
sg31
S'Annual Precipitation HE RCP45 2070'
p4695
sg33
g34
sg35
g36
sg37
S'clim.he4570.bio12.tif'
p4696
sg39
S'clim'
p4697
sg41
g42
sg43
I4326
sg44
S'2070'
p4698
ssS'bio04'
p4699
(dp4700
g8
S'2015-03-18 20:48:21'
p4701
sg10
S'yes'
p4702
sg12
S'he4570.bio04'
p4703
sg14
I54
sg15
S'bio04'
p4704
sg17
S'Temperature Seasonality (standard deviation *100)'
p4705
sg19
S'45'
p4706
sg21
S'he4570'
p4707
sg23
S'../views/GTiff/clim.he4570.bio04.tif'
p4708
sg25
S'climate'
p4709
sg27
S'clim.he4570.bio04'
p4710
sg29
S'6383'
p4711
sg31
S'Temperature Seasonality (standard deviation *100) HE RCP45 2070'
p4712
sg33
g34
sg35
g36
sg37
S'clim.he4570.bio04.tif'
p4713
sg39
S'clim'
p4714
sg41
g42
sg43
I4326
sg44
S'2070'
p4715
ssS'bio14'
p4716
(dp4717
g8
S'2015-03-18 20:48:21'
p4718
sg10
S'yes'
p4719
sg12
S'he4570.bio14'
p4720
sg14
I167
sg15
S'bio14'
p4721
sg17
S'Precipitation of Driest Month'
p4722
sg19
S'45'
p4723
sg21
S'he4570'
p4724
sg23
S'../views/GTiff/clim.he4570.bio14.tif'
p4725
sg25
S'climate'
p4726
sg27
S'clim.he4570.bio14'
p4727
sg29
S'6419'
p4728
sg31
S'Precipitation of Driest Month HE RCP45 2070'
p4729
sg33
g34
sg35
g36
sg37
S'clim.he4570.bio14.tif'
p4730
sg39
S'clim'
p4731
sg41
g42
sg43
I4326
sg44
S'2070'
p4732
ssS'bio02'
p4733
(dp4734
g8
S'2015-03-18 20:48:21'
p4735
sg10
S'yes'
p4736
sg12
S'he4570.bio02'
p4737
sg14
I146
sg15
S'bio02'
p4738
sg17
S'Mean Diurnal Range (Mean of monthly (max temp - min temp))'
p4739
sg19
S'45'
p4740
sg21
S'he4570'
p4741
sg23
S'../views/GTiff/clim.he4570.bio02.tif'
p4742
sg25
S'climate'
p4743
sg27
S'clim.he4570.bio02'
p4744
sg29
S'6385'
p4745
sg31
S'Mean Diurnal Range (Mean of monthly (max temp - min temp)) HE RCP45 2070'
p4746
sg33
g34
sg35
g36
sg37
S'clim.he4570.bio02.tif'
p4747
sg39
S'clim'
p4748
sg41
g42
sg43
I4326
sg44
S'2070'
p4749
ssS'bio16'
p4750
(dp4751
g8
S'2015-03-18 20:48:21'
p4752
sg10
S'yes'
p4753
sg12
S'he4570.bio16'
p4754
sg14
I181
sg15
S'bio16'
p4755
sg17
S'Precipitation of Wettest Quarter'
p4756
sg19
S'45'
p4757
sg21
S'he4570'
p4758
sg23
S'../views/GTiff/clim.he4570.bio16.tif'
p4759
sg25
S'climate'
p4760
sg27
S'clim.he4570.bio16'
p4761
sg29
S'6421'
p4762
sg31
S'Precipitation of Wettest Quarter HE RCP45 2070'
p4763
sg33
g34
sg35
g36
sg37
S'clim.he4570.bio16.tif'
p4764
sg39
S'clim'
p4765
sg41
g42
sg43
I4326
sg44
S'2070'
p4766
ssS'bio17'
p4767
(dp4768
g8
S'2015-03-18 20:48:21'
p4769
sg10
S'yes'
p4770
sg12
S'he4570.bio17'
p4771
sg14
I92
sg15
S'bio17'
p4772
sg17
S'Precipitation of Driest Quarter'
p4773
sg19
S'45'
p4774
sg21
S'he4570'
p4775
sg23
S'../views/GTiff/clim.he4570.bio17.tif'
p4776
sg25
S'climate'
p4777
sg27
S'clim.he4570.bio17'
p4778
sg29
S'6422'
p4779
sg31
S'Precipitation of Driest Quarter HE RCP45 2070'
p4780
sg33
g34
sg35
g36
sg37
S'clim.he4570.bio17.tif'
p4781
sg39
S'clim'
p4782
sg41
g42
sg43
I4326
sg44
S'2070'
p4783
ssS'bio18'
p4784
(dp4785
g8
S'2015-03-18 20:48:21'
p4786
sg10
S'no'
p4787
sg12
S'he4570.bio18'
p4788
sg14
I205
sg15
S'bio18'
p4789
sg17
S'Precipitation of Warmest Quarter'
p4790
sg19
S'45'
p4791
sg21
S'he4570'
p4792
sg23
S'../views/GTiff/clim.he4570.bio18.tif'
p4793
sg25
S'climate'
p4794
sg27
S'clim.he4570.bio18'
p4795
sg29
S'6423'
p4796
sg31
S'Precipitation of Warmest Quarter HE RCP45 2070'
p4797
sg33
g34
sg35
g36
sg37
S'clim.he4570.bio18.tif'
p4798
sg39
S'clim'
p4799
sg41
g42
sg43
I4326
sg44
S'2070'
p4800
ssS'bio19'
p4801
(dp4802
g8
S'2015-03-18 20:48:21'
p4803
sg10
S'yes'
p4804
sg12
S'he4570.bio19'
p4805
sg14
I79
sg15
S'bio19'
p4806
sg17
S'Precipitation of Coldest Quarter'
p4807
sg19
S'45'
p4808
sg21
S'he4570'
p4809
sg23
S'../views/GTiff/clim.he4570.bio19.tif'
p4810
sg25
S'climate'
p4811
sg27
S'clim.he4570.bio19'
p4812
sg29
S'6424'
p4813
sg31
S'Precipitation of Coldest Quarter HE RCP45 2070'
p4814
sg33
g34
sg35
g36
sg37
S'clim.he4570.bio19.tif'
p4815
sg39
S'clim'
p4816
sg41
g42
sg43
I4326
sg44
S'2070'
p4817
ssS'bio08'
p4818
(dp4819
g8
S'2015-03-18 20:48:21'
p4820
sg10
S'no'
p4821
sg12
S'he4570.bio08'
p4822
sg14
I276
sg15
S'bio08'
p4823
sg17
S'Mean Temperature of Wettest Quarter'
p4824
sg19
S'45'
p4825
sg21
S'he4570'
p4826
sg23
S'../views/GTiff/clim.he4570.bio08.tif'
p4827
sg25
S'climate'
p4828
sg27
S'clim.he4570.bio08'
p4829
sg29
S'6426'
p4830
sg31
S'Mean Temperature of Wettest Quarter HE RCP45 2070'
p4831
sg33
g34
sg35
g36
sg37
S'clim.he4570.bio08.tif'
p4832
sg39
S'clim'
p4833
sg41
g42
sg43
I4326
sg44
S'2070'
p4834
ssS'bio03'
p4835
(dp4836
g8
S'2015-03-18 20:48:21'
p4837
sg10
S'yes'
p4838
sg12
S'he4570.bio03'
p4839
sg14
I179
sg15
S'bio03'
p4840
sg17
S'Isothermality (BIO2/BIO7) (* 100)'
p4841
sg19
S'45'
p4842
sg21
S'he4570'
p4843
sg23
S'../views/GTiff/clim.he4570.bio03.tif'
p4844
sg25
S'climate'
p4845
sg27
S'clim.he4570.bio03'
p4846
sg29
S'6384'
p4847
sg31
S'Isothermality (BIO2/BIO7) (* 100) HE RCP45 2070'
p4848
sg33
g34
sg35
g36
sg37
S'clim.he4570.bio03.tif'
p4849
sg39
S'clim'
p4850
sg41
g42
sg43
I4326
sg44
S'2070'
p4851
ssS'bio09'
p4852
(dp4853
g8
S'2015-03-18 20:48:21'
p4854
sg10
S'yes'
p4855
sg12
S'he4570.bio09'
p4856
sg14
I57
sg15
S'bio09'
p4857
sg17
S'Mean Temperature of Driest Quarter'
p4858
sg19
S'45'
p4859
sg21
S'he4570'
p4860
sg23
S'../views/GTiff/clim.he4570.bio09.tif'
p4861
sg25
S'climate'
p4862
sg27
S'clim.he4570.bio09'
p4863
sg29
S'6425'
p4864
sg31
S'Mean Temperature of Driest Quarter HE RCP45 2070'
p4865
sg33
g34
sg35
g36
sg37
S'clim.he4570.bio09.tif'
p4866
sg39
S'clim'
p4867
sg41
g42
sg43
I4326
sg44
S'2070'
p4868
ssS'bio15'
p4869
(dp4870
g8
S'2015-03-18 20:48:21'
p4871
sg10
S'no'
p4872
sg12
S'he4570.bio15'
p4873
sg14
I220
sg15
S'bio15'
p4874
sg17
S'Precipitation Seasonality (Coefficient of Variation)'
p4875
sg19
S'45'
p4876
sg21
S'he4570'
p4877
sg23
S'../views/GTiff/clim.he4570.bio15.tif'
p4878
sg25
S'climate'
p4879
sg27
S'clim.he4570.bio15'
p4880
sg29
S'6420'
p4881
sg31
S'Precipitation Seasonality (Coefficient of Variation) HE RCP45 2070'
p4882
sg33
g34
sg35
g36
sg37
S'clim.he4570.bio15.tif'
p4883
sg39
S'clim'
p4884
sg41
g42
sg43
I4326
sg44
S'2070'
p4885
ssssS'agclim'
p4886
(dp4887
S'he8550'
p4888
(dp4889
S'bio06'
p4890
(dp4891
g8
S'2015-03-18 20:48:21'
p4892
sg10
S'no'
p4893
sg12
S'he8550.bio06'
p4894
sg14
I25
sg15
S'bio06'
p4895
sg17
S'Min Temperature of Coldest Month'
p4896
sg19
S'85'
p4897
sg21
g4888
sg23
S'../views/GTiff/agclim.he8550.bio06.tif'
p4898
sg25
S'agclimate'
p4899
sg27
S'agclim.he8550.bio06'
p4900
sg29
S'6498'
p4901
sg31
S'Min Temperature of Coldest Month'
p4902
sg33
g34
sg35
g36
sg37
S'agclim.he8550.bio06.tif'
p4903
sg39
S'agclim'
p4904
sg41
g42
sg43
I4326
sg44
S'2050'
p4905
ssS'bio12'
p4906
(dp4907
g8
S'2015-03-18 20:48:21'
p4908
sg10
S'no'
p4909
sg12
S'he8550.bio12'
p4910
sg14
I145
sg15
S'bio12'
p4911
sg17
S'Annual Precipitation'
p4912
sg19
S'85'
p4913
sg21
S'he8550'
p4914
sg23
S'../views/GTiff/agclim.he8550.bio12.tif'
p4915
sg25
S'agclimate'
p4916
sg27
S'agclim.he8550.bio12'
p4917
sg29
S'6499'
p4918
sg31
S'Annual Precipitation'
p4919
sg33
g34
sg35
g36
sg37
S'agclim.he8550.bio12.tif'
p4920
sg39
S'agclim'
p4921
sg41
g42
sg43
I4326
sg44
S'2050'
p4922
ssS'gdd5'
p4923
(dp4924
g8
S'2015-03-18 20:48:21'
p4925
sg10
S'no'
p4926
sg12
S'he8550.gdd5'
p4927
sg14
I244
sg15
S'gdd5'
p4928
sg17
S'Growing Degree Days 5C Baseline'
p4929
sg19
S'85'
p4930
sg21
S'he8550'
p4931
sg23
S'../views/GTiff/agclim.he8550.gdd5.tif'
p4932
sg25
S'agclimate'
p4933
sg27
S'agclim.he8550.gdd5'
p4934
sg29
S'6500'
p4935
sg31
S'Growing Degree Days 5C Baseline'
p4936
sg33
g34
sg35
g36
sg37
S'agclim.he8550.gdd5.tif'
p4937
sg39
S'agclim'
p4938
sg41
g42
sg43
I4326
sg44
S'2050'
p4939
ssS'aridity'
p4940
(dp4941
g8
S'2015-03-18 20:48:21'
p4942
sg10
S'no'
p4943
sg12
S'he8550.aridity'
p4944
sg14
I26
sg15
S'aridity'
p4945
sg17
S'CRU Metric of Mean Annual Aridity'
p4946
sg19
S'85'
p4947
sg21
S'he8550'
p4948
sg23
S'../views/GTiff/agclim.he8550.aridity.tif'
p4949
sg25
S'agclimate'
p4950
sg27
S'agclim.he8550.aridity'
p4951
sg29
S'6501'
p4952
sg31
S'CRU Metric of Mean Annual Aridity'
p4953
sg33
g34
sg35
g36
sg37
S'agclim.he8550.aridity.tif'
p4954
sg39
S'agclim'
p4955
sg41
g42
sg43
I4326
sg44
S'2050'
p4956
ssS'petmn'
p4957
(dp4958
g8
S'2015-03-18 20:48:21'
p4959
sg10
S'no'
p4960
sg12
S'he8550.petmn'
p4961
sg14
I340
sg15
S'petmn'
p4962
sg17
S'CRU Mean Annual Evapotranspiration'
p4963
sg19
S'85'
p4964
sg21
S'he8550'
p4965
sg23
S'../views/GTiff/agclim.he8550.petmn.tif'
p4966
sg25
S'agclimate'
p4967
sg27
S'agclim.he8550.petmn'
p4968
sg29
S'6502'
p4969
sg31
S'CRU Mean Annual Evapotranspiration'
p4970
sg33
g34
sg35
g36
sg37
S'agclim.he8550.petmn.tif'
p4971
sg39
S'agclim'
p4972
sg41
g42
sg43
I4326
sg44
S'2050'
p4973
sssS'he2670'
p4974
(dp4975
S'bio06'
p4976
(dp4977
g8
S'2015-03-18 20:48:21'
p4978
sg10
S'no'
p4979
sg12
S'he2670.bio06'
p4980
sg14
I290
sg15
S'bio06'
p4981
sg17
S'Min Temperature of Coldest Month'
p4982
sg19
S'26'
p4983
sg21
S'he2670'
p4984
sg23
S'../views/GTiff/agclim.he2670.bio06.tif'
p4985
sg25
S'agclimate'
p4986
sg27
S'agclim.he2670.bio06'
p4987
sg29
S'6503'
p4988
sg31
S'Min Temperature of Coldest Month'
p4989
sg33
g34
sg35
g36
sg37
S'agclim.he2670.bio06.tif'
p4990
sg39
S'agclim'
p4991
sg41
g42
sg43
I4326
sg44
S'2070'
p4992
ssS'bio12'
p4993
(dp4994
g8
S'2015-03-18 20:48:21'
p4995
sg10
S'no'
p4996
sg12
S'he2670.bio12'
p4997
sg14
I177
sg15
S'bio12'
p4998
sg17
S'Annual Precipitation'
p4999
sg19
S'26'
p5000
sg21
S'he2670'
p5001
sg23
S'../views/GTiff/agclim.he2670.bio12.tif'
p5002
sg25
S'agclimate'
p5003
sg27
S'agclim.he2670.bio12'
p5004
sg29
S'6504'
p5005
sg31
S'Annual Precipitation'
p5006
sg33
g34
sg35
g36
sg37
S'agclim.he2670.bio12.tif'
p5007
sg39
S'agclim'
p5008
sg41
g42
sg43
I4326
sg44
S'2070'
p5009
ssS'gdd5'
p5010
(dp5011
g8
S'2015-03-18 20:48:21'
p5012
sg10
S'no'
p5013
sg12
S'he2670.gdd5'
p5014
sg14
I31
sg15
S'gdd5'
p5015
sg17
S'Growing Degree Days 5C Baseline'
p5016
sg19
S'26'
p5017
sg21
g4974
sg23
S'../views/GTiff/agclim.he2670.gdd5.tif'
p5018
sg25
S'agclimate'
p5019
sg27
S'agclim.he2670.gdd5'
p5020
sg29
S'6505'
p5021
sg31
S'Growing Degree Days 5C Baseline'
p5022
sg33
g34
sg35
g36
sg37
S'agclim.he2670.gdd5.tif'
p5023
sg39
S'agclim'
p5024
sg41
g42
sg43
I4326
sg44
S'2070'
p5025
ssS'aridity'
p5026
(dp5027
g8
S'2015-03-18 20:48:21'
p5028
sg10
S'no'
p5029
sg12
S'he2670.aridity'
p5030
sg14
I119
sg15
S'aridity'
p5031
sg17
S'CRU Metric of Mean Annual Aridity'
p5032
sg19
S'26'
p5033
sg21
S'he2670'
p5034
sg23
S'../views/GTiff/agclim.he2670.aridity.tif'
p5035
sg25
S'agclimate'
p5036
sg27
S'agclim.he2670.aridity'
p5037
sg29
S'6538'
p5038
sg31
S'CRU Metric of Mean Annual Aridity'
p5039
sg33
g34
sg35
g36
sg37
S'agclim.he2670.aridity.tif'
p5040
sg39
S'agclim'
p5041
sg41
g42
sg43
I4326
sg44
S'2070'
p5042
ssS'petmn'
p5043
(dp5044
g8
S'2015-03-18 20:48:21'
p5045
sg10
S'no'
p5046
sg12
S'he2670.petmn'
p5047
sg14
I117
sg15
S'petmn'
p5048
sg17
S'CRU Mean Annual Evapotranspiration'
p5049
sg19
S'26'
p5050
sg21
S'he2670'
p5051
sg23
S'../views/GTiff/agclim.he2670.petmn.tif'
p5052
sg25
S'agclimate'
p5053
sg27
S'agclim.he2670.petmn'
p5054
sg29
S'6506'
p5055
sg31
S'CRU Mean Annual Evapotranspiration'
p5056
sg33
g34
sg35
g36
sg37
S'agclim.he2670.petmn.tif'
p5057
sg39
S'agclim'
p5058
sg41
g42
sg43
I4326
sg44
S'2070'
p5059
sssS'he8570'
p5060
(dp5061
S'bio06'
p5062
(dp5063
g8
S'2015-03-18 20:48:21'
p5064
sg10
S'no'
p5065
sg12
S'he8570.bio06'
p5066
sg14
I83
sg15
S'bio06'
p5067
sg17
S'Min Temperature of Coldest Month'
p5068
sg19
S'85'
p5069
sg21
S'he8570'
p5070
sg23
S'../views/GTiff/agclim.he8570.bio06.tif'
p5071
sg25
S'agclimate'
p5072
sg27
S'agclim.he8570.bio06'
p5073
sg29
S'6507'
p5074
sg31
S'Min Temperature of Coldest Month'
p5075
sg33
g34
sg35
g36
sg37
S'agclim.he8570.bio06.tif'
p5076
sg39
S'agclim'
p5077
sg41
g42
sg43
I4326
sg44
S'2070'
p5078
ssS'bio12'
p5079
(dp5080
g8
S'2015-03-18 20:48:21'
p5081
sg10
S'no'
p5082
sg12
S'he8570.bio12'
p5083
sg14
I291
sg15
S'bio12'
p5084
sg17
S'Annual Precipitation'
p5085
sg19
S'85'
p5086
sg21
S'he8570'
p5087
sg23
S'../views/GTiff/agclim.he8570.bio12.tif'
p5088
sg25
S'agclimate'
p5089
sg27
S'agclim.he8570.bio12'
p5090
sg29
S'6508'
p5091
sg31
S'Annual Precipitation'
p5092
sg33
g34
sg35
g36
sg37
S'agclim.he8570.bio12.tif'
p5093
sg39
S'agclim'
p5094
sg41
g42
sg43
I4326
sg44
S'2070'
p5095
ssS'gdd5'
p5096
(dp5097
g8
S'2015-03-18 20:48:21'
p5098
sg10
S'no'
p5099
sg12
S'he8570.gdd5'
p5100
sg14
I104
sg15
S'gdd5'
p5101
sg17
S'Growing Degree Days 5C Baseline'
p5102
sg19
S'85'
p5103
sg21
S'he8570'
p5104
sg23
S'../views/GTiff/agclim.he8570.gdd5.tif'
p5105
sg25
S'agclimate'
p5106
sg27
S'agclim.he8570.gdd5'
p5107
sg29
S'6539'
p5108
sg31
S'Growing Degree Days 5C Baseline'
p5109
sg33
g34
sg35
g36
sg37
S'agclim.he8570.gdd5.tif'
p5110
sg39
S'agclim'
p5111
sg41
g42
sg43
I4326
sg44
S'2070'
p5112
ssS'aridity'
p5113
(dp5114
g8
S'2015-03-18 20:48:21'
p5115
sg10
S'no'
p5116
sg12
S'he8570.aridity'
p5117
sg14
I5
sg15
S'aridity'
p5118
sg17
S'CRU Metric of Mean Annual Aridity'
p5119
sg19
S'85'
p5120
sg21
g5060
sg23
S'../views/GTiff/agclim.he8570.aridity.tif'
p5121
sg25
S'agclimate'
p5122
sg27
S'agclim.he8570.aridity'
p5123
sg29
S'6509'
p5124
sg31
S'CRU Metric of Mean Annual Aridity'
p5125
sg33
g34
sg35
g36
sg37
S'agclim.he8570.aridity.tif'
p5126
sg39
g4886
sg41
g42
sg43
I4326
sg44
S'2070'
p5127
ssS'petmn'
p5128
(dp5129
g8
S'2015-03-18 20:48:21'
p5130
sg10
S'no'
p5131
sg12
S'he8570.petmn'
p5132
sg14
I295
sg15
S'petmn'
p5133
sg17
S'CRU Mean Annual Evapotranspiration'
p5134
sg19
S'85'
p5135
sg21
S'he8570'
p5136
sg23
S'../views/GTiff/agclim.he8570.petmn.tif'
p5137
sg25
S'agclimate'
p5138
sg27
S'agclim.he8570.petmn'
p5139
sg29
S'6540'
p5140
sg31
S'CRU Mean Annual Evapotranspiration'
p5141
sg33
g34
sg35
g36
sg37
S'agclim.he8570.petmn.tif'
p5142
sg39
S'agclim'
p5143
sg41
g42
sg43
I4326
sg44
S'2070'
p5144
sssS'he2650'
p5145
(dp5146
S'bio06'
p5147
(dp5148
g8
S'2015-03-18 20:48:21'
p5149
sg10
S'no'
p5150
sg12
S'he2650.bio06'
p5151
sg14
I324
sg15
S'bio06'
p5152
sg17
S'Min Temperature of Coldest Month'
p5153
sg19
S'26'
p5154
sg21
S'he2650'
p5155
sg23
S'../views/GTiff/agclim.he2650.bio06.tif'
p5156
sg25
S'agclimate'
p5157
sg27
S'agclim.he2650.bio06'
p5158
sg29
S'6510'
p5159
sg31
S'Min Temperature of Coldest Month'
p5160
sg33
g34
sg35
g36
sg37
S'agclim.he2650.bio06.tif'
p5161
sg39
S'agclim'
p5162
sg41
g42
sg43
I4326
sg44
S'2050'
p5163
ssS'bio12'
p5164
(dp5165
g8
S'2015-03-18 20:48:21'
p5166
sg10
S'no'
p5167
sg12
S'he2650.bio12'
p5168
sg14
I173
sg15
S'bio12'
p5169
sg17
S'Annual Precipitation'
p5170
sg19
S'26'
p5171
sg21
g5145
sg23
S'../views/GTiff/agclim.he2650.bio12.tif'
p5172
sg25
S'agclimate'
p5173
sg27
S'agclim.he2650.bio12'
p5174
sg29
S'6511'
p5175
sg31
S'Annual Precipitation'
p5176
sg33
g34
sg35
g36
sg37
S'agclim.he2650.bio12.tif'
p5177
sg39
S'agclim'
p5178
sg41
g42
sg43
I4326
sg44
S'2050'
p5179
ssS'gdd5'
p5180
(dp5181
g8
S'2015-03-18 20:48:21'
p5182
sg10
S'no'
p5183
sg12
S'he2650.gdd5'
p5184
sg14
I240
sg15
S'gdd5'
p5185
sg17
S'Growing Degree Days 5C Baseline'
p5186
sg19
S'26'
p5187
sg21
S'he2650'
p5188
sg23
S'../views/GTiff/agclim.he2650.gdd5.tif'
p5189
sg25
S'agclimate'
p5190
sg27
S'agclim.he2650.gdd5'
p5191
sg29
S'6512'
p5192
sg31
S'Growing Degree Days 5C Baseline'
p5193
sg33
g34
sg35
g36
sg37
S'agclim.he2650.gdd5.tif'
p5194
sg39
S'agclim'
p5195
sg41
g42
sg43
I4326
sg44
S'2050'
p5196
ssS'aridity'
p5197
(dp5198
g8
S'2015-03-18 20:48:21'
p5199
sg10
S'no'
p5200
sg12
S'he2650.aridity'
p5201
sg14
I257
sg15
S'aridity'
p5202
sg17
S'CRU Metric of Mean Annual Aridity'
p5203
sg19
S'26'
p5204
sg21
S'he2650'
p5205
sg23
S'../views/GTiff/agclim.he2650.aridity.tif'
p5206
sg25
S'agclimate'
p5207
sg27
S'agclim.he2650.aridity'
p5208
sg29
S'6541'
p5209
sg31
S'CRU Metric of Mean Annual Aridity'
p5210
sg33
g34
sg35
g36
sg37
S'agclim.he2650.aridity.tif'
p5211
sg39
S'agclim'
p5212
sg41
g42
sg43
I4326
sg44
S'2050'
p5213
ssS'petmn'
p5214
(dp5215
g8
S'2015-03-18 20:48:21'
p5216
sg10
S'no'
p5217
sg12
S'he2650.petmn'
p5218
sg14
I232
sg15
S'petmn'
p5219
sg17
S'CRU Mean Annual Evapotranspiration'
p5220
sg19
S'26'
p5221
sg21
S'he2650'
p5222
sg23
S'../views/GTiff/agclim.he2650.petmn.tif'
p5223
sg25
S'agclimate'
p5224
sg27
S'agclim.he2650.petmn'
p5225
sg29
S'6542'
p5226
sg31
S'CRU Mean Annual Evapotranspiration'
p5227
sg33
g34
sg35
g36
sg37
S'agclim.he2650.petmn.tif'
p5228
sg39
S'agclim'
p5229
sg41
g42
sg43
I4326
sg44
S'2050'
p5230
sssS'current'
p5231
(dp5232
S'bio06'
p5233
(dp5234
g8
S'2015-03-18 20:48:21'
p5235
sg10
S'no'
p5236
sg12
S'current.bio06'
p5237
sg14
I272
sg15
S'bio06'
p5238
sg17
S'Min Temperature of Coldest Month'
p5239
sg19
S'current'
p5240
sg21
S'current'
p5241
sg23
S'../views/GTiff/agclim.current.bio06.tif'
p5242
sg25
S'agclimate'
p5243
sg27
S'agclim.current.bio06'
p5244
sg29
S'6513'
p5245
sg31
S'Min Temperature of Coldest Month'
p5246
sg33
g34
sg35
g36
sg37
S'agclim.current.bio06.tif'
p5247
sg39
S'agclim'
p5248
sg41
g42
sg43
I4326
sg44
S'current'
p5249
ssS'bio12'
p5250
(dp5251
g8
S'2015-03-18 20:48:21'
p5252
sg10
S'no'
p5253
sg12
S'current.bio12'
p5254
sg14
I29
sg15
S'bio12'
p5255
sg17
S'Annual Precipitation'
p5256
sg19
S'current'
p5257
sg21
g5231
sg23
S'../views/GTiff/agclim.current.bio12.tif'
p5258
sg25
S'agclimate'
p5259
sg27
S'agclim.current.bio12'
p5260
sg29
S'6514'
p5261
sg31
S'Annual Precipitation'
p5262
sg33
g34
sg35
g36
sg37
S'agclim.current.bio12.tif'
p5263
sg39
S'agclim'
p5264
sg41
g42
sg43
I4326
sg44
S'current'
p5265
ssS'gdd5'
p5266
(dp5267
g8
S'2015-03-18 20:48:21'
p5268
sg10
S'no'
p5269
sg12
S'current.gdd5'
p5270
sg14
I247
sg15
S'gdd5'
p5271
sg17
S'Growing Degree Days 5C Baseline'
p5272
sg19
S'current'
p5273
sg21
S'current'
p5274
sg23
S'../views/GTiff/agclim.current.gdd5.tif'
p5275
sg25
S'agclimate'
p5276
sg27
S'agclim.current.gdd5'
p5277
sg29
S'6515'
p5278
sg31
S'Growing Degree Days 5C Baseline'
p5279
sg33
g34
sg35
g36
sg37
S'agclim.current.gdd5.tif'
p5280
sg39
S'agclim'
p5281
sg41
g42
sg43
I4326
sg44
S'current'
p5282
ssS'aridity'
p5283
(dp5284
g8
S'2015-03-18 20:48:21'
p5285
sg10
S'no'
p5286
sg12
S'current.aridity'
p5287
sg14
I312
sg15
S'aridity'
p5288
sg17
S'CRU Metric of Mean Annual Aridity'
p5289
sg19
S'current'
p5290
sg21
S'current'
p5291
sg23
S'../views/GTiff/agclim.current.aridity.tif'
p5292
sg25
S'agclimate'
p5293
sg27
S'agclim.current.aridity'
p5294
sg29
S'6516'
p5295
sg31
S'CRU Metric of Mean Annual Aridity'
p5296
sg33
g34
sg35
g36
sg37
S'agclim.current.aridity.tif'
p5297
sg39
S'agclim'
p5298
sg41
g42
sg43
I4326
sg44
S'current'
p5299
ssS'petmn'
p5300
(dp5301
g8
S'2015-03-18 20:48:21'
p5302
sg10
S'no'
p5303
sg12
S'current.petmn'
p5304
sg14
I264
sg15
S'petmn'
p5305
sg17
S'CRU Mean Annual Evapotranspiration'
p5306
sg19
S'current'
p5307
sg21
S'current'
p5308
sg23
S'../views/GTiff/agclim.current.petmn.tif'
p5309
sg25
S'agclimate'
p5310
sg27
S'agclim.current.petmn'
p5311
sg29
S'6517'
p5312
sg31
S'CRU Mean Annual Evapotranspiration'
p5313
sg33
g34
sg35
g36
sg37
S'agclim.current.petmn.tif'
p5314
sg39
S'agclim'
p5315
sg41
g42
sg43
I4326
sg44
S'current'
p5316
sssS'he6050'
p5317
(dp5318
S'bio06'
p5319
(dp5320
g8
S'2015-03-18 20:48:21'
p5321
sg10
S'no'
p5322
sg12
S'he6050.bio06'
p5323
sg14
I282
sg15
S'bio06'
p5324
sg17
S'Min Temperature of Coldest Month'
p5325
sg19
S'60'
p5326
sg21
S'he6050'
p5327
sg23
S'../views/GTiff/agclim.he6050.bio06.tif'
p5328
sg25
S'agclimate'
p5329
sg27
S'agclim.he6050.bio06'
p5330
sg29
S'6518'
p5331
sg31
S'Min Temperature of Coldest Month'
p5332
sg33
g34
sg35
g36
sg37
S'agclim.he6050.bio06.tif'
p5333
sg39
S'agclim'
p5334
sg41
g42
sg43
I4326
sg44
S'2050'
p5335
ssS'bio12'
p5336
(dp5337
g8
S'2015-03-18 20:48:21'
p5338
sg10
S'no'
p5339
sg12
S'he6050.bio12'
p5340
sg14
I310
sg15
S'bio12'
p5341
sg17
S'Annual Precipitation'
p5342
sg19
S'60'
p5343
sg21
S'he6050'
p5344
sg23
S'../views/GTiff/agclim.he6050.bio12.tif'
p5345
sg25
S'agclimate'
p5346
sg27
S'agclim.he6050.bio12'
p5347
sg29
S'6519'
p5348
sg31
S'Annual Precipitation'
p5349
sg33
g34
sg35
g36
sg37
S'agclim.he6050.bio12.tif'
p5350
sg39
S'agclim'
p5351
sg41
g42
sg43
I4326
sg44
S'2050'
p5352
ssS'gdd5'
p5353
(dp5354
g8
S'2015-03-18 20:48:21'
p5355
sg10
S'no'
p5356
sg12
S'he6050.gdd5'
p5357
sg14
I263
sg15
S'gdd5'
p5358
sg17
S'Growing Degree Days 5C Baseline'
p5359
sg19
S'60'
p5360
sg21
S'he6050'
p5361
sg23
S'../views/GTiff/agclim.he6050.gdd5.tif'
p5362
sg25
S'agclimate'
p5363
sg27
S'agclim.he6050.gdd5'
p5364
sg29
S'6520'
p5365
sg31
S'Growing Degree Days 5C Baseline'
p5366
sg33
g34
sg35
g36
sg37
S'agclim.he6050.gdd5.tif'
p5367
sg39
S'agclim'
p5368
sg41
g42
sg43
I4326
sg44
S'2050'
p5369
ssS'aridity'
p5370
(dp5371
g8
S'2015-03-18 20:48:21'
p5372
sg10
S'no'
p5373
sg12
S'he6050.aridity'
p5374
sg14
I84
sg15
S'aridity'
p5375
sg17
S'CRU Metric of Mean Annual Aridity'
p5376
sg19
S'60'
p5377
sg21
S'he6050'
p5378
sg23
S'../views/GTiff/agclim.he6050.aridity.tif'
p5379
sg25
S'agclimate'
p5380
sg27
S'agclim.he6050.aridity'
p5381
sg29
S'6521'
p5382
sg31
S'CRU Metric of Mean Annual Aridity'
p5383
sg33
g34
sg35
g36
sg37
S'agclim.he6050.aridity.tif'
p5384
sg39
S'agclim'
p5385
sg41
g42
sg43
I4326
sg44
S'2050'
p5386
ssS'petmn'
p5387
(dp5388
g8
S'2015-03-18 20:48:21'
p5389
sg10
S'no'
p5390
sg12
S'he6050.petmn'
p5391
sg14
I42
sg15
S'petmn'
p5392
sg17
S'CRU Mean Annual Evapotranspiration'
p5393
sg19
S'60'
p5394
sg21
g5317
sg23
S'../views/GTiff/agclim.he6050.petmn.tif'
p5395
sg25
S'agclimate'
p5396
sg27
S'agclim.he6050.petmn'
p5397
sg29
S'6522'
p5398
sg31
S'CRU Mean Annual Evapotranspiration'
p5399
sg33
g34
sg35
g36
sg37
S'agclim.he6050.petmn.tif'
p5400
sg39
S'agclim'
p5401
sg41
g42
sg43
I4326
sg44
S'2050'
p5402
sssS'he4550'
p5403
(dp5404
S'bio06'
p5405
(dp5406
g8
S'2015-03-18 20:48:21'
p5407
sg10
S'no'
p5408
sg12
S'he4550.bio06'
p5409
sg14
I258
sg15
S'bio06'
p5410
sg17
S'Min Temperature of Coldest Month'
p5411
sg19
S'45'
p5412
sg21
S'he4550'
p5413
sg23
S'../views/GTiff/agclim.he4550.bio06.tif'
p5414
sg25
S'agclimate'
p5415
sg27
S'agclim.he4550.bio06'
p5416
sg29
S'6528'
p5417
sg31
S'Min Temperature of Coldest Month'
p5418
sg33
g34
sg35
g36
sg37
S'agclim.he4550.bio06.tif'
p5419
sg39
S'agclim'
p5420
sg41
g42
sg43
I4326
sg44
S'2050'
p5421
ssS'bio12'
p5422
(dp5423
g8
S'2015-03-18 20:48:21'
p5424
sg10
S'no'
p5425
sg12
S'he4550.bio12'
p5426
sg14
I170
sg15
S'bio12'
p5427
sg17
S'Annual Precipitation'
p5428
sg19
S'45'
p5429
sg21
S'he4550'
p5430
sg23
S'../views/GTiff/agclim.he4550.bio12.tif'
p5431
sg25
S'agclimate'
p5432
sg27
S'agclim.he4550.bio12'
p5433
sg29
S'6529'
p5434
sg31
S'Annual Precipitation'
p5435
sg33
g34
sg35
g36
sg37
S'agclim.he4550.bio12.tif'
p5436
sg39
S'agclim'
p5437
sg41
g42
sg43
I4326
sg44
S'2050'
p5438
ssS'gdd5'
p5439
(dp5440
g8
S'2015-03-18 20:48:21'
p5441
sg10
S'no'
p5442
sg12
S'he4550.gdd5'
p5443
sg14
I221
sg15
S'gdd5'
p5444
sg17
S'Growing Degree Days 5C Baseline'
p5445
sg19
S'45'
p5446
sg21
S'he4550'
p5447
sg23
S'../views/GTiff/agclim.he4550.gdd5.tif'
p5448
sg25
S'agclimate'
p5449
sg27
S'agclim.he4550.gdd5'
p5450
sg29
S'6530'
p5451
sg31
S'Growing Degree Days 5C Baseline'
p5452
sg33
g34
sg35
g36
sg37
S'agclim.he4550.gdd5.tif'
p5453
sg39
S'agclim'
p5454
sg41
g42
sg43
I4326
sg44
S'2050'
p5455
ssS'aridity'
p5456
(dp5457
g8
S'2015-03-18 20:48:21'
p5458
sg10
S'no'
p5459
sg12
S'he4550.aridity'
p5460
sg14
I103
sg15
S'aridity'
p5461
sg17
S'CRU Metric of Mean Annual Aridity'
p5462
sg19
S'45'
p5463
sg21
S'he4550'
p5464
sg23
S'../views/GTiff/agclim.he4550.aridity.tif'
p5465
sg25
S'agclimate'
p5466
sg27
S'agclim.he4550.aridity'
p5467
sg29
S'6531'
p5468
sg31
S'CRU Metric of Mean Annual Aridity'
p5469
sg33
g34
sg35
g36
sg37
S'agclim.he4550.aridity.tif'
p5470
sg39
S'agclim'
p5471
sg41
g42
sg43
I4326
sg44
S'2050'
p5472
ssS'petmn'
p5473
(dp5474
g8
S'2015-03-18 20:48:21'
p5475
sg10
S'no'
p5476
sg12
S'he4550.petmn'
p5477
sg14
I27
sg15
S'petmn'
p5478
sg17
S'CRU Mean Annual Evapotranspiration'
p5479
sg19
S'45'
p5480
sg21
g5403
sg23
S'../views/GTiff/agclim.he4550.petmn.tif'
p5481
sg25
S'agclimate'
p5482
sg27
S'agclim.he4550.petmn'
p5483
sg29
S'6532'
p5484
sg31
S'CRU Mean Annual Evapotranspiration'
p5485
sg33
g34
sg35
g36
sg37
S'agclim.he4550.petmn.tif'
p5486
sg39
S'agclim'
p5487
sg41
g42
sg43
I4326
sg44
S'2050'
p5488
sssS'he6070'
p5489
(dp5490
S'bio06'
p5491
(dp5492
g8
S'2015-03-18 20:48:21'
p5493
sg10
S'no'
p5494
sg12
S'he6070.bio06'
p5495
sg14
I190
sg15
S'bio06'
p5496
sg17
S'Min Temperature of Coldest Month'
p5497
sg19
S'60'
p5498
sg21
S'he6070'
p5499
sg23
S'../views/GTiff/agclim.he6070.bio06.tif'
p5500
sg25
S'agclimate'
p5501
sg27
S'agclim.he6070.bio06'
p5502
sg29
S'6523'
p5503
sg31
S'Min Temperature of Coldest Month'
p5504
sg33
g34
sg35
g36
sg37
S'agclim.he6070.bio06.tif'
p5505
sg39
S'agclim'
p5506
sg41
g42
sg43
I4326
sg44
S'2070'
p5507
ssS'bio12'
p5508
(dp5509
g8
S'2015-03-18 20:48:21'
p5510
sg10
S'no'
p5511
sg12
S'he6070.bio12'
p5512
sg14
I210
sg15
S'bio12'
p5513
sg17
S'Annual Precipitation'
p5514
sg19
S'60'
p5515
sg21
S'he6070'
p5516
sg23
S'../views/GTiff/agclim.he6070.bio12.tif'
p5517
sg25
S'agclimate'
p5518
sg27
S'agclim.he6070.bio12'
p5519
sg29
S'6524'
p5520
sg31
S'Annual Precipitation'
p5521
sg33
g34
sg35
g36
sg37
S'agclim.he6070.bio12.tif'
p5522
sg39
S'agclim'
p5523
sg41
g42
sg43
I4326
sg44
S'2070'
p5524
ssS'gdd5'
p5525
(dp5526
g8
S'2015-03-18 20:48:21'
p5527
sg10
S'no'
p5528
sg12
S'he6070.gdd5'
p5529
sg14
I81
sg15
S'gdd5'
p5530
sg17
S'Growing Degree Days 5C Baseline'
p5531
sg19
S'60'
p5532
sg21
S'he6070'
p5533
sg23
S'../views/GTiff/agclim.he6070.gdd5.tif'
p5534
sg25
S'agclimate'
p5535
sg27
S'agclim.he6070.gdd5'
p5536
sg29
S'6525'
p5537
sg31
S'Growing Degree Days 5C Baseline'
p5538
sg33
g34
sg35
g36
sg37
S'agclim.he6070.gdd5.tif'
p5539
sg39
S'agclim'
p5540
sg41
g42
sg43
I4326
sg44
S'2070'
p5541
ssS'aridity'
p5542
(dp5543
g8
S'2015-03-18 20:48:21'
p5544
sg10
S'no'
p5545
sg12
S'he6070.aridity'
p5546
sg14
I30
sg15
S'aridity'
p5547
sg17
S'CRU Metric of Mean Annual Aridity'
p5548
sg19
S'60'
p5549
sg21
g5489
sg23
S'../views/GTiff/agclim.he6070.aridity.tif'
p5550
sg25
S'agclimate'
p5551
sg27
S'agclim.he6070.aridity'
p5552
sg29
S'6526'
p5553
sg31
S'CRU Metric of Mean Annual Aridity'
p5554
sg33
g34
sg35
g36
sg37
S'agclim.he6070.aridity.tif'
p5555
sg39
S'agclim'
p5556
sg41
g42
sg43
I4326
sg44
S'2070'
p5557
ssS'petmn'
p5558
(dp5559
g8
S'2015-03-18 20:48:21'
p5560
sg10
S'no'
p5561
sg12
S'he6070.petmn'
p5562
sg14
I136
sg15
S'petmn'
p5563
sg17
S'CRU Mean Annual Evapotranspiration'
p5564
sg19
S'60'
p5565
sg21
S'he6070'
p5566
sg23
S'../views/GTiff/agclim.he6070.petmn.tif'
p5567
sg25
S'agclimate'
p5568
sg27
S'agclim.he6070.petmn'
p5569
sg29
S'6527'
p5570
sg31
S'CRU Mean Annual Evapotranspiration'
p5571
sg33
g34
sg35
g36
sg37
S'agclim.he6070.petmn.tif'
p5572
sg39
S'agclim'
p5573
sg41
g42
sg43
I4326
sg44
S'2070'
p5574
sssS'he4570'
p5575
(dp5576
S'bio06'
p5577
(dp5578
g8
S'2015-03-18 20:48:21'
p5579
sg10
S'no'
p5580
sg12
S'he4570.bio06'
p5581
sg14
I254
sg15
S'bio06'
p5582
sg17
S'Min Temperature of Coldest Month'
p5583
sg19
S'45'
p5584
sg21
S'he4570'
p5585
sg23
S'../views/GTiff/agclim.he4570.bio06.tif'
p5586
sg25
S'agclimate'
p5587
sg27
S'agclim.he4570.bio06'
p5588
sg29
S'6533'
p5589
sg31
S'Min Temperature of Coldest Month'
p5590
sg33
g34
sg35
g36
sg37
S'agclim.he4570.bio06.tif'
p5591
sg39
S'agclim'
p5592
sg41
g42
sg43
I4326
sg44
S'2070'
p5593
ssS'bio12'
p5594
(dp5595
g8
S'2015-03-18 20:48:21'
p5596
sg10
S'no'
p5597
sg12
S'he4570.bio12'
p5598
sg14
I142
sg15
S'bio12'
p5599
sg17
S'Annual Precipitation'
p5600
sg19
S'45'
p5601
sg21
S'he4570'
p5602
sg23
S'../views/GTiff/agclim.he4570.bio12.tif'
p5603
sg25
S'agclimate'
p5604
sg27
S'agclim.he4570.bio12'
p5605
sg29
S'6534'
p5606
sg31
S'Annual Precipitation'
p5607
sg33
g34
sg35
g36
sg37
S'agclim.he4570.bio12.tif'
p5608
sg39
S'agclim'
p5609
sg41
g42
sg43
I4326
sg44
S'2070'
p5610
ssS'gdd5'
p5611
(dp5612
g8
S'2015-03-18 20:48:21'
p5613
sg10
S'no'
p5614
sg12
S'he4570.gdd5'
p5615
sg14
I141
sg15
S'gdd5'
p5616
sg17
S'Growing Degree Days 5C Baseline'
p5617
sg19
S'45'
p5618
sg21
S'he4570'
p5619
sg23
S'../views/GTiff/agclim.he4570.gdd5.tif'
p5620
sg25
S'agclimate'
p5621
sg27
S'agclim.he4570.gdd5'
p5622
sg29
S'6535'
p5623
sg31
S'Growing Degree Days 5C Baseline'
p5624
sg33
g34
sg35
g36
sg37
S'agclim.he4570.gdd5.tif'
p5625
sg39
S'agclim'
p5626
sg41
g42
sg43
I4326
sg44
S'2070'
p5627
ssS'aridity'
p5628
(dp5629
g8
S'2015-03-18 20:48:21'
p5630
sg10
S'no'
p5631
sg12
S'he4570.aridity'
p5632
sg14
I319
sg15
S'aridity'
p5633
sg17
S'CRU Metric of Mean Annual Aridity'
p5634
sg19
S'45'
p5635
sg21
S'he4570'
p5636
sg23
S'../views/GTiff/agclim.he4570.aridity.tif'
p5637
sg25
S'agclimate'
p5638
sg27
S'agclim.he4570.aridity'
p5639
sg29
S'6536'
p5640
sg31
S'CRU Metric of Mean Annual Aridity'
p5641
sg33
g34
sg35
g36
sg37
S'agclim.he4570.aridity.tif'
p5642
sg39
S'agclim'
p5643
sg41
g42
sg43
I4326
sg44
S'2070'
p5644
ssS'petmn'
p5645
(dp5646
g8
S'2015-03-18 20:48:21'
p5647
sg10
S'no'
p5648
sg12
S'he4570.petmn'
p5649
sg14
I6
sg15
S'petmn'
p5650
sg17
S'CRU Mean Annual Evapotranspiration'
p5651
sg19
S'45'
p5652
sg21
g5575
sg23
S'../views/GTiff/agclim.he4570.petmn.tif'
p5653
sg25
S'agclimate'
p5654
sg27
S'agclim.he4570.petmn'
p5655
sg29
S'6537'
p5656
sg31
S'CRU Mean Annual Evapotranspiration'
p5657
sg33
g34
sg35
g36
sg37
S'agclim.he4570.petmn.tif'
p5658
sg39
S'agclim'
p5659
sg41
g42
sg43
I4326
sg44
S'2070'
p5660
ssssS'env'
p5661
(dp5662
S'hwsd'
p5663
(dp5664
S't_gravel'
p5665
(dp5666
g8
S'2015-03-18 20:48:21'
p5667
sg10
S'no'
p5668
sg12
S'hwsd.t_gravel'
p5669
sg14
I33
sg15
S't_gravel'
p5670
sg17
S'HWSD topsoil gravel'
p5671
sg19
S'current'
p5672
sg21
g5663
sg23
S'../views/GTiff/env.hwsd.t_gravel.tif'
p5673
sg25
S'environmental'
p5674
sg27
S'env.hwsd.t_gravel'
p5675
sg29
S'6346'
p5676
sg31
S'Harmonized World Soil Database topsoil gravel (% vol.)'
p5677
sg33
g34
sg35
g36
sg37
S'env.hwsd.t_gravel.tif'
p5678
sg39
g5661
sg41
g42
sg43
I4326
sg44
S'current'
p5679
ssS't_sand'
p5680
(dp5681
g8
S'2015-03-18 20:48:21'
p5682
sg10
S'no'
p5683
sg12
S'hwsd.t_sand'
p5684
sg14
I249
sg15
S't_sand'
p5685
sg17
S'HWSD topsoil sand'
p5686
sg19
S'current'
p5687
sg21
S'hwsd'
p5688
sg23
S'../views/GTiff/env.hwsd.t_sand.tif'
p5689
sg25
S'environmental'
p5690
sg27
S'env.hwsd.t_sand'
p5691
sg29
S'6347'
p5692
sg31
S'Harmonized World Soil Database topsoil sand (% frac.)'
p5693
sg33
g34
sg35
g36
sg37
S'env.hwsd.t_sand.tif'
p5694
sg39
S'env'
p5695
sg41
g42
sg43
I4326
sg44
S'current'
p5696
ssS't_ph'
p5697
(dp5698
g8
S'2015-03-18 20:48:21'
p5699
sg10
S'no'
p5700
sg12
S'hwsd.t_ph'
p5701
sg14
I222
sg15
S't_ph'
p5702
sg17
S'HWSD topsoil pH'
p5703
sg19
S'current'
p5704
sg21
S'hwsd'
p5705
sg23
S'../views/GTiff/env.hwsd.t_ph.tif'
p5706
sg25
S'environmental'
p5707
sg27
S'env.hwsd.t_ph'
p5708
sg29
S'6348'
p5709
sg31
S'Harmonized World Soil Database topsoil pH (log[H+])'
p5710
sg33
g34
sg35
g36
sg37
S'env.hwsd.t_ph.tif'
p5711
sg39
S'env'
p5712
sg41
g42
sg43
I4326
sg44
S'current'
p5713
ssS't_caco3'
p5714
(dp5715
g8
S'2015-03-18 20:48:21'
p5716
sg10
S'yes'
p5717
sg12
S'hwsd.t_caco3'
p5718
sg14
I201
sg15
S't_caco3'
p5719
sg17
S'HWSD topsoil CACO3'
p5720
sg19
S'current'
p5721
sg21
S'hwsd'
p5722
sg23
S'../views/GTiff/env.hwsd.t_caco3.tif'
p5723
sg25
S'environmental'
p5724
sg27
S'env.hwsd.t_caco3'
p5725
sg29
S'6349'
p5726
sg31
S'Harmonized World Soil Database topsoil CACO3 (% weight)'
p5727
sg33
g34
sg35
g36
sg37
S'env.hwsd.t_caco3.tif'
p5728
sg39
S'env'
p5729
sg41
g42
sg43
I4326
sg44
S'current'
p5730
ssS't_ece'
p5731
(dp5732
g8
S'2015-03-18 20:48:21'
p5733
sg10
S'no'
p5734
sg12
S'hwsd.t_ece'
p5735
sg14
I155
sg15
S't_ece'
p5736
sg17
S'HWSD topsoil ECE'
p5737
sg19
S'current'
p5738
sg21
S'hwsd'
p5739
sg23
S'../views/GTiff/env.hwsd.t_ece.tif'
p5740
sg25
S'environmental'
p5741
sg27
S'env.hwsd.t_ece'
p5742
sg29
S'6350'
p5743
sg31
S'Harmonized World Soil Database topsoil ECE (salinity dS/m)'
p5744
sg33
g34
sg35
g36
sg37
S'env.hwsd.t_ece.tif'
p5745
sg39
S'env'
p5746
sg41
g42
sg43
I4326
sg44
S'current'
p5747
ssS't_silt'
p5748
(dp5749
g8
S'2015-03-18 20:48:21'
p5750
sg10
S'no'
p5751
sg12
S'hwsd.t_silt'
p5752
sg14
I194
sg15
S't_silt'
p5753
sg17
S'HWSD topsoil silt'
p5754
sg19
S'current'
p5755
sg21
S'hwsd'
p5756
sg23
S'../views/GTiff/env.hwsd.t_silt.tif'
p5757
sg25
S'environmental'
p5758
sg27
S'env.hwsd.t_silt'
p5759
sg29
S'6351'
p5760
sg31
S'Harmonized World Soil Database topsoil silt (% frac.)'
p5761
sg33
g34
sg35
g36
sg37
S'env.hwsd.t_silt.tif'
p5762
sg39
S'env'
p5763
sg41
g42
sg43
I4326
sg44
S'current'
p5764
ssS't_clay'
p5765
(dp5766
g8
S'2015-03-18 20:48:21'
p5767
sg10
S'no'
p5768
sg12
S'hwsd.t_clay'
p5769
sg14
I213
sg15
S't_clay'
p5770
sg17
S'HWSD topsoil clay'
p5771
sg19
S'current'
p5772
sg21
S'hwsd'
p5773
sg23
S'../views/GTiff/env.hwsd.t_clay.tif'
p5774
sg25
S'environmental'
p5775
sg27
S'env.hwsd.t_clay'
p5776
sg29
S'6352'
p5777
sg31
S'Harmonized World Soil Database topsoil clay (% frac.)'
p5778
sg33
g34
sg35
g36
sg37
S'env.hwsd.t_clay.tif'
p5779
sg39
S'env'
p5780
sg41
g42
sg43
I4326
sg44
S'current'
p5781
ssS't_caso4'
p5782
(dp5783
g8
S'2015-03-18 20:48:21'
p5784
sg10
S'yes'
p5785
sg12
S'hwsd.t_caso4'
p5786
sg14
I265
sg15
S't_caso4'
p5787
sg17
S'HWSD topsoil CASO4'
p5788
sg19
S'current'
p5789
sg21
S'hwsd'
p5790
sg23
S'../views/GTiff/env.hwsd.t_caso4.tif'
p5791
sg25
S'environmental'
p5792
sg27
S'env.hwsd.t_caso4'
p5793
sg29
S'6353'
p5794
sg31
S'Harmonized World Soil Database topsoil CASO4 (% weight)'
p5795
sg33
g34
sg35
g36
sg37
S'env.hwsd.t_caso4.tif'
p5796
sg39
S'env'
p5797
sg41
g42
sg43
I4326
sg44
S'current'
p5798
ssS't_cecsoil'
p5799
(dp5800
g8
S'2015-03-18 20:48:21'
p5801
sg10
S'yes'
p5802
sg12
S'hwsd.t_cecsoil'
p5803
sg14
I178
sg15
S't_cecsoil'
p5804
sg17
S'HWSD topsoil CECsoil'
p5805
sg19
S'current'
p5806
sg21
S'hwsd'
p5807
sg23
S'../views/GTiff/env.hwsd.t_cecsoil.tif'
p5808
sg25
S'environmental'
p5809
sg27
S'env.hwsd.t_cecsoil'
p5810
sg29
S'6354'
p5811
sg31
S'Harmonized World Soil Database topsoil CECsoil (cmol/kg)'
p5812
sg33
g34
sg35
g36
sg37
S'env.hwsd.t_cecsoil.tif'
p5813
sg39
S'env'
p5814
sg41
g42
sg43
I4326
sg44
S'current'
p5815
ssS't_oc'
p5816
(dp5817
g8
S'2015-03-18 20:48:21'
p5818
sg10
S'no'
p5819
sg12
S'hwsd.t_oc'
p5820
sg14
I183
sg15
S't_oc'
p5821
sg17
S'HWSD topsoil oc'
p5822
sg19
S'current'
p5823
sg21
S'hwsd'
p5824
sg23
S'../views/GTiff/env.hwsd.t_oc.tif'
p5825
sg25
S'environmental'
p5826
sg27
S'env.hwsd.t_oc'
p5827
sg29
S'6355'
p5828
sg31
S'Harmonized World Soil Database topsoil organic carbon (% weight)'
p5829
sg33
g34
sg35
g36
sg37
S'env.hwsd.t_oc.tif'
p5830
sg39
S'env'
p5831
sg41
g42
sg43
I4326
sg44
S'current'
p5832
sssS'gmted2010'
p5833
(dp5834
S'elev_mean'
p5835
(dp5836
g8
S'2015-03-18 20:48:21'
p5837
sg10
S'no'
p5838
sg12
S'gmted2010.elev_mean'
p5839
sg14
I323
sg15
S'elev_mean'
p5840
sg17
S'USGS GMTED2010 Mean Elevation'
p5841
sg19
S'current'
p5842
sg21
g5833
sg23
S'../views/GTiff/env.gmted2010.elev_mean.tif'
p5843
sg25
S'environmental'
p5844
sg27
S'env.gmted2010.elev_mean'
p5845
sg29
S'6345'
p5846
sg31
S'USGS GMTED2010 Mean Elevation'
p5847
sg33
g34
sg35
g36
sg37
S'env.gmted2010.elev_mean.tif'
p5848
sg39
S'env'
p5849
sg41
g42
sg43
I4326
sg44
S'current'
p5850
ssssS'spat'
p5851
(dp5852
S'svd'
p5853
(dp5854
S'pc2'
p5855
(dp5856
g8
S'2015-03-18 20:48:21'
p5857
sg10
S'no'
p5858
sg12
S'svd.pc2'
p5859
sg14
I53
sg15
S'pc2'
p5860
sg17
S'PC Axis 2 of Distance Matrix'
p5861
sg19
S'current'
p5862
sg21
g5853
sg23
S'../views/GTiff/spat.svd.pc2.tif'
p5863
sg25
S'spatial'
p5864
sg27
S'spat.svd.pc2'
p5865
sg29
S'6557'
p5866
sg31
S'PC Axis 2 of Distance Matrix spatial'
p5867
sg33
g34
sg35
g36
sg37
S'spat.svd.pc2.tif'
p5868
sg39
g5851
sg41
g42
sg43
I4326
sg44
S'current'
p5869
ssS'pc3'
p5870
(dp5871
g8
S'2015-03-18 20:48:21'
p5872
sg10
S'no'
p5873
sg12
S'svd.pc3'
p5874
sg14
I216
sg15
S'pc3'
p5875
sg17
S'PC Axis 3 of Distance Matrix'
p5876
sg19
S'current'
p5877
sg21
S'svd'
p5878
sg23
S'../views/GTiff/spat.svd.pc3.tif'
p5879
sg25
S'spatial'
p5880
sg27
S'spat.svd.pc3'
p5881
sg29
S'6558'
p5882
sg31
S'PC Axis 3 of Distance Matrix spatial'
p5883
sg33
g34
sg35
g36
sg37
S'spat.svd.pc3.tif'
p5884
sg39
S'spat'
p5885
sg41
g42
sg43
I4326
sg44
S'current'
p5886
ssS'pc1'
p5887
(dp5888
g8
S'2015-03-18 20:48:21'
p5889
sg10
S'no'
p5890
sg12
S'svd.pc1'
p5891
sg14
I297
sg15
S'pc1'
p5892
sg17
S'PC Axis 1 of Distance Matrix'
p5893
sg19
S'current'
p5894
sg21
S'svd'
p5895
sg23
S'../views/GTiff/spat.svd.pc1.tif'
p5896
sg25
S'spatial'
p5897
sg27
S'spat.svd.pc1'
p5898
sg29
S'6559'
p5899
sg31
S'PC Axis 1 of Distance Matrix spatial'
p5900
sg33
g34
sg35
g36
sg37
S'spat.svd.pc1.tif'
p5901
sg39
S'spat'
p5902
sg41
g42
sg43
I4326
sg44
S'current'
p5903
ssss.