(dp1
S'clim'
p2
(dp3
S'he8550'
p4
(dp5
S'bio07'
p6
(dp7
S'created_at'
p8
S'2015-03-13 09:01:24'
p9
sS'envLayerType'
p10
S'he8550.bio07'
p11
sS'Name'
p12
I333
sS'typeCode'
p13
S'bio07'
p14
sS'typeCodeDescription'
p15
S'Temperature Annual Range (BIO5-BIO6)'
p16
sS'RCP'
p17
S'85'
p18
sS'bioclim'
p19
S'he8550'
p20
sS'filePath'
p21
S'../views/GTiff/clim.he8550.bio07.tif'
p22
sS'filterType'
p23
S'climate'
p24
sS'fullname'
p25
S'clim.he8550.bio07'
p26
sS'lyrID'
p27
S'6176'
p28
sS'layerDescription'
p29
S'Temperature Annual Range (BIO5-BIO6) HE RCP85 2050'
p30
sS'dataFormat'
p31
S'GTiff'
p32
sS'units'
p33
S'dd'
p34
sS'title'
p35
S'clim.he8550.bio07.tif'
p36
sS'model'
p37
S'clim'
p38
sS'resolution'
p39
S'30'
p40
sS'epsgCode'
p41
I4326
sS'projectionDate'
p42
S'2050'
p43
ssS'bio16'
p44
(dp45
g8
S'2015-03-13 09:01:24'
p46
sg10
S'he8550.bio16'
p47
sg12
I239
sg13
S'bio16'
p48
sg15
S'Precipitation of Wettest Quarter'
p49
sg17
S'85'
p50
sg19
S'he8550'
p51
sg21
S'../views/GTiff/clim.he8550.bio16.tif'
p52
sg23
S'climate'
p53
sg25
S'clim.he8550.bio16'
p54
sg27
S'6173'
p55
sg29
S'Precipitation of Wettest Quarter HE RCP85 2050'
p56
sg31
g32
sg33
g34
sg35
S'clim.he8550.bio16.tif'
p57
sg37
S'clim'
p58
sg39
g40
sg41
I4326
sg42
S'2050'
p59
ssS'bio02'
p60
(dp61
g8
S'2015-03-13 09:01:24'
p62
sg10
S'he8550.bio02'
p63
sg12
I336
sg13
S'bio02'
p64
sg15
S'Mean Diurnal Range (Mean of monthly (max temp - min temp))'
p65
sg17
S'85'
p66
sg19
S'he8550'
p67
sg21
S'../views/GTiff/clim.he8550.bio02.tif'
p68
sg23
S'climate'
p69
sg25
S'clim.he8550.bio02'
p70
sg27
S'6181'
p71
sg29
S'Mean Diurnal Range (Mean of monthly (max temp - min temp)) HE RCP85 2050'
p72
sg31
g32
sg33
g34
sg35
S'clim.he8550.bio02.tif'
p73
sg37
S'clim'
p74
sg39
g40
sg41
I4326
sg42
S'2050'
p75
ssS'bio11'
p76
(dp77
g8
S'2015-03-13 09:01:24'
p78
sg10
S'he8550.bio11'
p79
sg12
I256
sg13
S'bio11'
p80
sg15
S'Mean Temperature of Coldest Quarter'
p81
sg17
S'85'
p82
sg19
S'he8550'
p83
sg21
S'../views/GTiff/clim.he8550.bio11.tif'
p84
sg23
S'climate'
p85
sg25
S'clim.he8550.bio11'
p86
sg27
S'6172'
p87
sg29
S'Mean Temperature of Coldest Quarter HE RCP85 2050'
p88
sg31
g32
sg33
g34
sg35
S'clim.he8550.bio11.tif'
p89
sg37
S'clim'
p90
sg39
g40
sg41
I4326
sg42
S'2050'
p91
ssS'bio12'
p92
(dp93
g8
S'2015-03-13 09:01:24'
p94
sg10
S'he8550.bio12'
p95
sg12
I188
sg13
S'bio12'
p96
sg15
S'Annual Precipitation'
p97
sg17
S'85'
p98
sg19
S'he8550'
p99
sg21
S'../views/GTiff/clim.he8550.bio12.tif'
p100
sg23
S'climate'
p101
sg25
S'clim.he8550.bio12'
p102
sg27
S'6175'
p103
sg29
S'Annual Precipitation HE RCP85 2050'
p104
sg31
g32
sg33
g34
sg35
S'clim.he8550.bio12.tif'
p105
sg37
S'clim'
p106
sg39
g40
sg41
I4326
sg42
S'2050'
p107
ssS'bio10'
p108
(dp109
g8
S'2015-03-13 09:01:24'
p110
sg10
S'he8550.bio10'
p111
sg12
I56
sg13
S'bio10'
p112
sg15
S'Mean Temperature of Warmest Quarter'
p113
sg17
S'85'
p114
sg19
S'he8550'
p115
sg21
S'../views/GTiff/clim.he8550.bio10.tif'
p116
sg23
S'climate'
p117
sg25
S'clim.he8550.bio10'
p118
sg27
S'6169'
p119
sg29
S'Mean Temperature of Warmest Quarter HE RCP85 2050'
p120
sg31
g32
sg33
g34
sg35
S'clim.he8550.bio10.tif'
p121
sg37
S'clim'
p122
sg39
g40
sg41
I4326
sg42
S'2050'
p123
ssS'bio06'
p124
(dp125
g8
S'2015-03-13 09:01:24'
p126
sg10
S'he8550.bio06'
p127
sg12
I77
sg13
S'bio06'
p128
sg15
S'Min Temperature of Coldest Month'
p129
sg17
S'85'
p130
sg19
S'he8550'
p131
sg21
S'../views/GTiff/clim.he8550.bio06.tif'
p132
sg23
S'climate'
p133
sg25
S'clim.he8550.bio06'
p134
sg27
S'6177'
p135
sg29
S'Min Temperature of Coldest Month HE RCP85 2050'
p136
sg31
g32
sg33
g34
sg35
S'clim.he8550.bio06.tif'
p137
sg37
S'clim'
p138
sg39
g40
sg41
I4326
sg42
S'2050'
p139
ssS'bio05'
p140
(dp141
g8
S'2015-03-13 09:01:24'
p142
sg10
S'he8550.bio05'
p143
sg12
I158
sg13
S'bio05'
p144
sg15
S'Max Temperature of Warmest Month'
p145
sg17
S'85'
p146
sg19
S'he8550'
p147
sg21
S'../views/GTiff/clim.he8550.bio05.tif'
p148
sg23
S'climate'
p149
sg25
S'clim.he8550.bio05'
p150
sg27
S'6178'
p151
sg29
S'Max Temperature of Warmest Month HE RCP85 2050'
p152
sg31
g32
sg33
g34
sg35
S'clim.he8550.bio05.tif'
p153
sg37
S'clim'
p154
sg39
g40
sg41
I4326
sg42
S'2050'
p155
ssS'bio13'
p156
(dp157
g8
S'2015-03-13 09:01:24'
p158
sg10
S'he8550.bio13'
p159
sg12
I280
sg13
S'bio13'
p160
sg15
S'Precipitation of Wettest Month'
p161
sg17
S'85'
p162
sg19
S'he8550'
p163
sg21
S'../views/GTiff/clim.he8550.bio13.tif'
p164
sg23
S'climate'
p165
sg25
S'clim.he8550.bio13'
p166
sg27
S'6171'
p167
sg29
S'Precipitation of Wettest Month HE RCP85 2050'
p168
sg31
g32
sg33
g34
sg35
S'clim.he8550.bio13.tif'
p169
sg37
S'clim'
p170
sg39
g40
sg41
I4326
sg42
S'2050'
p171
ssS'bio14'
p172
(dp173
g8
S'2015-03-13 09:01:24'
p174
sg10
S'he8550.bio14'
p175
sg12
I73
sg13
S'bio14'
p176
sg15
S'Precipitation of Driest Month'
p177
sg17
S'85'
p178
sg19
S'he8550'
p179
sg21
S'../views/GTiff/clim.he8550.bio14.tif'
p180
sg23
S'climate'
p181
sg25
S'clim.he8550.bio14'
p182
sg27
S'6185'
p183
sg29
S'Precipitation of Driest Month HE RCP85 2050'
p184
sg31
g32
sg33
g34
sg35
S'clim.he8550.bio14.tif'
p185
sg37
S'clim'
p186
sg39
g40
sg41
I4326
sg42
S'2050'
p187
ssS'bio15'
p188
(dp189
g8
S'2015-03-13 09:01:24'
p190
sg10
S'he8550.bio15'
p191
sg12
I270
sg13
S'bio15'
p192
sg15
S'Precipitation Seasonality (Coefficient of Variation)'
p193
sg17
S'85'
p194
sg19
S'he8550'
p195
sg21
S'../views/GTiff/clim.he8550.bio15.tif'
p196
sg23
S'climate'
p197
sg25
S'clim.he8550.bio15'
p198
sg27
S'6174'
p199
sg29
S'Precipitation Seasonality (Coefficient of Variation) HE RCP85 2050'
p200
sg31
g32
sg33
g34
sg35
S'clim.he8550.bio15.tif'
p201
sg37
S'clim'
p202
sg39
g40
sg41
I4326
sg42
S'2050'
p203
ssS'bio01'
p204
(dp205
g8
S'2015-03-13 09:01:24'
p206
sg10
S'he8550.bio01'
p207
sg12
I48
sg13
S'bio01'
p208
sg15
S'Annual Mean Temperature'
p209
sg17
S'85'
p210
sg19
S'he8550'
p211
sg21
S'../views/GTiff/clim.he8550.bio01.tif'
p212
sg23
S'climate'
p213
sg25
S'clim.he8550.bio01'
p214
sg27
S'6182'
p215
sg29
S'Annual Mean Temperature HE RCP85 2050'
p216
sg31
g32
sg33
g34
sg35
S'clim.he8550.bio01.tif'
p217
sg37
S'clim'
p218
sg39
g40
sg41
I4326
sg42
S'2050'
p219
ssS'bio17'
p220
(dp221
g8
S'2015-03-13 09:01:24'
p222
sg10
S'he8550.bio17'
p223
sg12
I299
sg13
S'bio17'
p224
sg15
S'Precipitation of Driest Quarter'
p225
sg17
S'85'
p226
sg19
S'he8550'
p227
sg21
S'../views/GTiff/clim.he8550.bio17.tif'
p228
sg23
S'climate'
p229
sg25
S'clim.he8550.bio17'
p230
sg27
S'6183'
p231
sg29
S'Precipitation of Driest Quarter HE RCP85 2050'
p232
sg31
g32
sg33
g34
sg35
S'clim.he8550.bio17.tif'
p233
sg37
S'clim'
p234
sg39
g40
sg41
I4326
sg42
S'2050'
p235
ssS'bio18'
p236
(dp237
g8
S'2015-03-13 09:01:24'
p238
sg10
S'he8550.bio18'
p239
sg12
I1
sg13
S'bio18'
p240
sg15
S'Precipitation of Warmest Quarter'
p241
sg17
S'85'
p242
sg19
g4
sg21
S'../views/GTiff/clim.he8550.bio18.tif'
p243
sg23
S'climate'
p244
sg25
S'clim.he8550.bio18'
p245
sg27
S'6184'
p246
sg29
S'Precipitation of Warmest Quarter HE RCP85 2050'
p247
sg31
g32
sg33
g34
sg35
S'clim.he8550.bio18.tif'
p248
sg37
S'clim'
p249
sg39
g40
sg41
I4326
sg42
S'2050'
p250
ssS'bio19'
p251
(dp252
g8
S'2015-03-13 09:01:24'
p253
sg10
S'he8550.bio19'
p254
sg12
I207
sg13
S'bio19'
p255
sg15
S'Precipitation of Coldest Quarter'
p256
sg17
S'85'
p257
sg19
S'he8550'
p258
sg21
S'../views/GTiff/clim.he8550.bio19.tif'
p259
sg23
S'climate'
p260
sg25
S'clim.he8550.bio19'
p261
sg27
S'6170'
p262
sg29
S'Precipitation of Coldest Quarter HE RCP85 2050'
p263
sg31
g32
sg33
g34
sg35
S'clim.he8550.bio19.tif'
p264
sg37
S'clim'
p265
sg39
g40
sg41
I4326
sg42
S'2050'
p266
ssS'bio04'
p267
(dp268
g8
S'2015-03-13 09:01:24'
p269
sg10
S'he8550.bio04'
p270
sg12
I330
sg13
S'bio04'
p271
sg15
S'Temperature Seasonality (standard deviation *100)'
p272
sg17
S'85'
p273
sg19
S'he8550'
p274
sg21
S'../views/GTiff/clim.he8550.bio04.tif'
p275
sg23
S'climate'
p276
sg25
S'clim.he8550.bio04'
p277
sg27
S'6179'
p278
sg29
S'Temperature Seasonality (standard deviation *100) HE RCP85 2050'
p279
sg31
g32
sg33
g34
sg35
S'clim.he8550.bio04.tif'
p280
sg37
S'clim'
p281
sg39
g40
sg41
I4326
sg42
S'2050'
p282
ssS'bio03'
p283
(dp284
g8
S'2015-03-13 09:01:24'
p285
sg10
S'he8550.bio03'
p286
sg12
I286
sg13
S'bio03'
p287
sg15
S'Isothermality (BIO2/BIO7) (* 100)'
p288
sg17
S'85'
p289
sg19
S'he8550'
p290
sg21
S'../views/GTiff/clim.he8550.bio03.tif'
p291
sg23
S'climate'
p292
sg25
S'clim.he8550.bio03'
p293
sg27
S'6180'
p294
sg29
S'Isothermality (BIO2/BIO7) (* 100) HE RCP85 2050'
p295
sg31
g32
sg33
g34
sg35
S'clim.he8550.bio03.tif'
p296
sg37
S'clim'
p297
sg39
g40
sg41
I4326
sg42
S'2050'
p298
ssS'bio09'
p299
(dp300
g8
S'2015-03-13 09:01:24'
p301
sg10
S'he8550.bio09'
p302
sg12
I103
sg13
S'bio09'
p303
sg15
S'Mean Temperature of Driest Quarter'
p304
sg17
S'85'
p305
sg19
S'he8550'
p306
sg21
S'../views/GTiff/clim.he8550.bio09.tif'
p307
sg23
S'climate'
p308
sg25
S'clim.he8550.bio09'
p309
sg27
S'6186'
p310
sg29
S'Mean Temperature of Driest Quarter HE RCP85 2050'
p311
sg31
g32
sg33
g34
sg35
S'clim.he8550.bio09.tif'
p312
sg37
S'clim'
p313
sg39
g40
sg41
I4326
sg42
S'2050'
p314
ssS'bio08'
p315
(dp316
g8
S'2015-03-13 09:01:24'
p317
sg10
S'he8550.bio08'
p318
sg12
I81
sg13
S'bio08'
p319
sg15
S'Mean Temperature of Wettest Quarter'
p320
sg17
S'85'
p321
sg19
S'he8550'
p322
sg21
S'../views/GTiff/clim.he8550.bio08.tif'
p323
sg23
S'climate'
p324
sg25
S'clim.he8550.bio08'
p325
sg27
S'6187'
p326
sg29
S'Mean Temperature of Wettest Quarter HE RCP85 2050'
p327
sg31
g32
sg33
g34
sg35
S'clim.he8550.bio08.tif'
p328
sg37
S'clim'
p329
sg39
g40
sg41
I4326
sg42
S'2050'
p330
sssS'he2670'
p331
(dp332
S'bio07'
p333
(dp334
g8
S'2015-03-13 09:01:24'
p335
sg10
S'he2670.bio07'
p336
sg12
I133
sg13
S'bio07'
p337
sg15
S'Temperature Annual Range (BIO5-BIO6)'
p338
sg17
S'26'
p339
sg19
S'he2670'
p340
sg21
S'../views/GTiff/clim.he2670.bio07.tif'
p341
sg23
S'climate'
p342
sg25
S'clim.he2670.bio07'
p343
sg27
S'6154'
p344
sg29
S'Temperature Annual Range (BIO5-BIO6) HE RCP26 2070'
p345
sg31
g32
sg33
g34
sg35
S'clim.he2670.bio07.tif'
p346
sg37
S'clim'
p347
sg39
g40
sg41
I4326
sg42
S'2070'
p348
ssS'bio19'
p349
(dp350
g8
S'2015-03-13 09:01:24'
p351
sg10
S'he2670.bio19'
p352
sg12
I134
sg13
S'bio19'
p353
sg15
S'Precipitation of Coldest Quarter'
p354
sg17
S'26'
p355
sg19
S'he2670'
p356
sg21
S'../views/GTiff/clim.he2670.bio19.tif'
p357
sg23
S'climate'
p358
sg25
S'clim.he2670.bio19'
p359
sg27
S'6148'
p360
sg29
S'Precipitation of Coldest Quarter HE RCP26 2070'
p361
sg31
g32
sg33
g34
sg35
S'clim.he2670.bio19.tif'
p362
sg37
S'clim'
p363
sg39
g40
sg41
I4326
sg42
S'2070'
p364
ssS'bio13'
p365
(dp366
g8
S'2015-03-13 09:01:24'
p367
sg10
S'he2670.bio13'
p368
sg12
I184
sg13
S'bio13'
p369
sg15
S'Precipitation of Wettest Month'
p370
sg17
S'26'
p371
sg19
S'he2670'
p372
sg21
S'../views/GTiff/clim.he2670.bio13.tif'
p373
sg23
S'climate'
p374
sg25
S'clim.he2670.bio13'
p375
sg27
S'6149'
p376
sg29
S'Precipitation of Wettest Month HE RCP26 2070'
p377
sg31
g32
sg33
g34
sg35
S'clim.he2670.bio13.tif'
p378
sg37
S'clim'
p379
sg39
g40
sg41
I4326
sg42
S'2070'
p380
ssS'bio11'
p381
(dp382
g8
S'2015-03-13 09:01:24'
p383
sg10
S'he2670.bio11'
p384
sg12
I279
sg13
S'bio11'
p385
sg15
S'Mean Temperature of Coldest Quarter'
p386
sg17
S'26'
p387
sg19
S'he2670'
p388
sg21
S'../views/GTiff/clim.he2670.bio11.tif'
p389
sg23
S'climate'
p390
sg25
S'clim.he2670.bio11'
p391
sg27
S'6150'
p392
sg29
S'Mean Temperature of Coldest Quarter HE RCP26 2070'
p393
sg31
g32
sg33
g34
sg35
S'clim.he2670.bio11.tif'
p394
sg37
S'clim'
p395
sg39
g40
sg41
I4326
sg42
S'2070'
p396
ssS'bio05'
p397
(dp398
g8
S'2015-03-13 09:01:24'
p399
sg10
S'he2670.bio05'
p400
sg12
I264
sg13
S'bio05'
p401
sg15
S'Max Temperature of Warmest Month'
p402
sg17
S'26'
p403
sg19
S'he2670'
p404
sg21
S'../views/GTiff/clim.he2670.bio05.tif'
p405
sg23
S'climate'
p406
sg25
S'clim.he2670.bio05'
p407
sg27
S'6156'
p408
sg29
S'Max Temperature of Warmest Month HE RCP26 2070'
p409
sg31
g32
sg33
g34
sg35
S'clim.he2670.bio05.tif'
p410
sg37
S'clim'
p411
sg39
g40
sg41
I4326
sg42
S'2070'
p412
ssS'bio10'
p413
(dp414
g8
S'2015-03-13 09:01:24'
p415
sg10
S'he2670.bio10'
p416
sg12
I14
sg13
S'bio10'
p417
sg15
S'Mean Temperature of Warmest Quarter'
p418
sg17
S'26'
p419
sg19
S'he2670'
p420
sg21
S'../views/GTiff/clim.he2670.bio10.tif'
p421
sg23
S'climate'
p422
sg25
S'clim.he2670.bio10'
p423
sg27
S'6147'
p424
sg29
S'Mean Temperature of Warmest Quarter HE RCP26 2070'
p425
sg31
g32
sg33
g34
sg35
S'clim.he2670.bio10.tif'
p426
sg37
S'clim'
p427
sg39
g40
sg41
I4326
sg42
S'2070'
p428
ssS'bio06'
p429
(dp430
g8
S'2015-03-13 09:01:24'
p431
sg10
S'he2670.bio06'
p432
sg12
I223
sg13
S'bio06'
p433
sg15
S'Min Temperature of Coldest Month'
p434
sg17
S'26'
p435
sg19
S'he2670'
p436
sg21
S'../views/GTiff/clim.he2670.bio06.tif'
p437
sg23
S'climate'
p438
sg25
S'clim.he2670.bio06'
p439
sg27
S'6155'
p440
sg29
S'Min Temperature of Coldest Month HE RCP26 2070'
p441
sg31
g32
sg33
g34
sg35
S'clim.he2670.bio06.tif'
p442
sg37
S'clim'
p443
sg39
g40
sg41
I4326
sg42
S'2070'
p444
ssS'bio12'
p445
(dp446
g8
S'2015-03-13 09:01:24'
p447
sg10
S'he2670.bio12'
p448
sg12
I0
sg13
S'bio12'
p449
sg15
S'Annual Precipitation'
p450
sg17
S'26'
p451
sg19
g331
sg21
S'../views/GTiff/clim.he2670.bio12.tif'
p452
sg23
S'climate'
p453
sg25
S'clim.he2670.bio12'
p454
sg27
S'6153'
p455
sg29
S'Annual Precipitation HE RCP26 2070'
p456
sg31
g32
sg33
g34
sg35
S'clim.he2670.bio12.tif'
p457
sg37
g2
sg39
g40
sg41
I4326
sg42
S'2070'
p458
ssS'bio04'
p459
(dp460
g8
S'2015-03-13 09:01:24'
p461
sg10
S'he2670.bio04'
p462
sg12
I52
sg13
S'bio04'
p463
sg15
S'Temperature Seasonality (standard deviation *100)'
p464
sg17
S'26'
p465
sg19
S'he2670'
p466
sg21
S'../views/GTiff/clim.he2670.bio04.tif'
p467
sg23
S'climate'
p468
sg25
S'clim.he2670.bio04'
p469
sg27
S'6157'
p470
sg29
S'Temperature Seasonality (standard deviation *100) HE RCP26 2070'
p471
sg31
g32
sg33
g34
sg35
S'clim.he2670.bio04.tif'
p472
sg37
S'clim'
p473
sg39
g40
sg41
I4326
sg42
S'2070'
p474
ssS'bio14'
p475
(dp476
g8
S'2015-03-13 09:01:24'
p477
sg10
S'he2670.bio14'
p478
sg12
I95
sg13
S'bio14'
p479
sg15
S'Precipitation of Driest Month'
p480
sg17
S'26'
p481
sg19
S'he2670'
p482
sg21
S'../views/GTiff/clim.he2670.bio14.tif'
p483
sg23
S'climate'
p484
sg25
S'clim.he2670.bio14'
p485
sg27
S'6163'
p486
sg29
S'Precipitation of Driest Month HE RCP26 2070'
p487
sg31
g32
sg33
g34
sg35
S'clim.he2670.bio14.tif'
p488
sg37
S'clim'
p489
sg39
g40
sg41
I4326
sg42
S'2070'
p490
ssS'bio15'
p491
(dp492
g8
S'2015-03-13 09:01:24'
p493
sg10
S'he2670.bio15'
p494
sg12
I80
sg13
S'bio15'
p495
sg15
S'Precipitation Seasonality (Coefficient of Variation)'
p496
sg17
S'26'
p497
sg19
S'he2670'
p498
sg21
S'../views/GTiff/clim.he2670.bio15.tif'
p499
sg23
S'climate'
p500
sg25
S'clim.he2670.bio15'
p501
sg27
S'6152'
p502
sg29
S'Precipitation Seasonality (Coefficient of Variation) HE RCP26 2070'
p503
sg31
g32
sg33
g34
sg35
S'clim.he2670.bio15.tif'
p504
sg37
S'clim'
p505
sg39
g40
sg41
I4326
sg42
S'2070'
p506
ssS'bio16'
p507
(dp508
g8
S'2015-03-13 09:01:24'
p509
sg10
S'he2670.bio16'
p510
sg12
I172
sg13
S'bio16'
p511
sg15
S'Precipitation of Wettest Quarter'
p512
sg17
S'26'
p513
sg19
S'he2670'
p514
sg21
S'../views/GTiff/clim.he2670.bio16.tif'
p515
sg23
S'climate'
p516
sg25
S'clim.he2670.bio16'
p517
sg27
S'6151'
p518
sg29
S'Precipitation of Wettest Quarter HE RCP26 2070'
p519
sg31
g32
sg33
g34
sg35
S'clim.he2670.bio16.tif'
p520
sg37
S'clim'
p521
sg39
g40
sg41
I4326
sg42
S'2070'
p522
ssS'bio17'
p523
(dp524
g8
S'2015-03-13 09:01:24'
p525
sg10
S'he2670.bio17'
p526
sg12
I122
sg13
S'bio17'
p527
sg15
S'Precipitation of Driest Quarter'
p528
sg17
S'26'
p529
sg19
S'he2670'
p530
sg21
S'../views/GTiff/clim.he2670.bio17.tif'
p531
sg23
S'climate'
p532
sg25
S'clim.he2670.bio17'
p533
sg27
S'6161'
p534
sg29
S'Precipitation of Driest Quarter HE RCP26 2070'
p535
sg31
g32
sg33
g34
sg35
S'clim.he2670.bio17.tif'
p536
sg37
S'clim'
p537
sg39
g40
sg41
I4326
sg42
S'2070'
p538
ssS'bio18'
p539
(dp540
g8
S'2015-03-13 09:01:24'
p541
sg10
S'he2670.bio18'
p542
sg12
I247
sg13
S'bio18'
p543
sg15
S'Precipitation of Warmest Quarter'
p544
sg17
S'26'
p545
sg19
S'he2670'
p546
sg21
S'../views/GTiff/clim.he2670.bio18.tif'
p547
sg23
S'climate'
p548
sg25
S'clim.he2670.bio18'
p549
sg27
S'6162'
p550
sg29
S'Precipitation of Warmest Quarter HE RCP26 2070'
p551
sg31
g32
sg33
g34
sg35
S'clim.he2670.bio18.tif'
p552
sg37
S'clim'
p553
sg39
g40
sg41
I4326
sg42
S'2070'
p554
ssS'bio03'
p555
(dp556
g8
S'2015-03-13 09:01:24'
p557
sg10
S'he2670.bio03'
p558
sg12
I2
sg13
S'bio03'
p559
sg15
S'Isothermality (BIO2/BIO7) (* 100)'
p560
sg17
S'26'
p561
sg19
S'he2670'
p562
sg21
S'../views/GTiff/clim.he2670.bio03.tif'
p563
sg23
S'climate'
p564
sg25
S'clim.he2670.bio03'
p565
sg27
S'6158'
p566
sg29
S'Isothermality (BIO2/BIO7) (* 100) HE RCP26 2070'
p567
sg31
g32
sg33
g34
sg35
S'clim.he2670.bio03.tif'
p568
sg37
S'clim'
p569
sg39
g40
sg41
I4326
sg42
S'2070'
p570
ssS'bio08'
p571
(dp572
g8
S'2015-03-13 09:01:24'
p573
sg10
S'he2670.bio08'
p574
sg12
I178
sg13
S'bio08'
p575
sg15
S'Mean Temperature of Wettest Quarter'
p576
sg17
S'26'
p577
sg19
S'he2670'
p578
sg21
S'../views/GTiff/clim.he2670.bio08.tif'
p579
sg23
S'climate'
p580
sg25
S'clim.he2670.bio08'
p581
sg27
S'6165'
p582
sg29
S'Mean Temperature of Wettest Quarter HE RCP26 2070'
p583
sg31
g32
sg33
g34
sg35
S'clim.he2670.bio08.tif'
p584
sg37
S'clim'
p585
sg39
g40
sg41
I4326
sg42
S'2070'
p586
ssS'bio01'
p587
(dp588
g8
S'2015-03-13 09:01:24'
p589
sg10
S'he2670.bio01'
p590
sg12
I293
sg13
S'bio01'
p591
sg15
S'Annual Mean Temperature'
p592
sg17
S'26'
p593
sg19
S'he2670'
p594
sg21
S'../views/GTiff/clim.he2670.bio01.tif'
p595
sg23
S'climate'
p596
sg25
S'clim.he2670.bio01'
p597
sg27
S'6160'
p598
sg29
S'Annual Mean Temperature HE RCP26 2070'
p599
sg31
g32
sg33
g34
sg35
S'clim.he2670.bio01.tif'
p600
sg37
S'clim'
p601
sg39
g40
sg41
I4326
sg42
S'2070'
p602
ssS'bio09'
p603
(dp604
g8
S'2015-03-13 09:01:24'
p605
sg10
S'he2670.bio09'
p606
sg12
I327
sg13
S'bio09'
p607
sg15
S'Mean Temperature of Driest Quarter'
p608
sg17
S'26'
p609
sg19
S'he2670'
p610
sg21
S'../views/GTiff/clim.he2670.bio09.tif'
p611
sg23
S'climate'
p612
sg25
S'clim.he2670.bio09'
p613
sg27
S'6164'
p614
sg29
S'Mean Temperature of Driest Quarter HE RCP26 2070'
p615
sg31
g32
sg33
g34
sg35
S'clim.he2670.bio09.tif'
p616
sg37
S'clim'
p617
sg39
g40
sg41
I4326
sg42
S'2070'
p618
ssS'bio02'
p619
(dp620
g8
S'2015-03-13 09:01:24'
p621
sg10
S'he2670.bio02'
p622
sg12
I121
sg13
S'bio02'
p623
sg15
S'Mean Diurnal Range (Mean of monthly (max temp - min temp))'
p624
sg17
S'26'
p625
sg19
S'he2670'
p626
sg21
S'../views/GTiff/clim.he2670.bio02.tif'
p627
sg23
S'climate'
p628
sg25
S'clim.he2670.bio02'
p629
sg27
S'6159'
p630
sg29
S'Mean Diurnal Range (Mean of monthly (max temp - min temp)) HE RCP26 2070'
p631
sg31
g32
sg33
g34
sg35
S'clim.he2670.bio02.tif'
p632
sg37
S'clim'
p633
sg39
g40
sg41
I4326
sg42
S'2070'
p634
sssS'gs4570'
p635
(dp636
S'bio07'
p637
(dp638
g8
S'2015-03-13 09:01:24'
p639
sg10
S'gs4570.bio07'
p640
sg12
I274
sg13
S'bio07'
p641
sg15
S'Temperature Annual Range (BIO5-BIO6)'
p642
sg17
S'45'
p643
sg19
S'gs4570'
p644
sg21
S'../views/GTiff/clim.gs4570.bio07.tif'
p645
sg23
S'climate'
p646
sg25
S'clim.gs4570.bio07'
p647
sg27
S'6135'
p648
sg29
S'Temperature Annual Range (BIO5-BIO6) GS RCP45 2070'
p649
sg31
g32
sg33
g34
sg35
S'clim.gs4570.bio07.tif'
p650
sg37
S'clim'
p651
sg39
g40
sg41
I4326
sg42
S'2070'
p652
ssS'bio13'
p653
(dp654
g8
S'2015-03-13 09:01:24'
p655
sg10
S'gs4570.bio13'
p656
sg12
I218
sg13
S'bio13'
p657
sg15
S'Precipitation of Wettest Month'
p658
sg17
S'45'
p659
sg19
S'gs4570'
p660
sg21
S'../views/GTiff/clim.gs4570.bio13.tif'
p661
sg23
S'climate'
p662
sg25
S'clim.gs4570.bio13'
p663
sg27
S'6130'
p664
sg29
S'Precipitation of Wettest Month GS RCP45 2070'
p665
sg31
g32
sg33
g34
sg35
S'clim.gs4570.bio13.tif'
p666
sg37
S'clim'
p667
sg39
g40
sg41
I4326
sg42
S'2070'
p668
ssS'bio06'
p669
(dp670
g8
S'2015-03-13 09:01:24'
p671
sg10
S'gs4570.bio06'
p672
sg12
I230
sg13
S'bio06'
p673
sg15
S'Min Temperature of Coldest Month'
p674
sg17
S'45'
p675
sg19
S'gs4570'
p676
sg21
S'../views/GTiff/clim.gs4570.bio06.tif'
p677
sg23
S'climate'
p678
sg25
S'clim.gs4570.bio06'
p679
sg27
S'6136'
p680
sg29
S'Min Temperature of Coldest Month GS RCP45 2070'
p681
sg31
g32
sg33
g34
sg35
S'clim.gs4570.bio06.tif'
p682
sg37
S'clim'
p683
sg39
g40
sg41
I4326
sg42
S'2070'
p684
ssS'bio03'
p685
(dp686
g8
S'2015-03-13 09:01:24'
p687
sg10
S'gs4570.bio03'
p688
sg12
I324
sg13
S'bio03'
p689
sg15
S'Isothermality (BIO2/BIO7) (* 100)'
p690
sg17
S'45'
p691
sg19
S'gs4570'
p692
sg21
S'../views/GTiff/clim.gs4570.bio03.tif'
p693
sg23
S'climate'
p694
sg25
S'clim.gs4570.bio03'
p695
sg27
S'6139'
p696
sg29
S'Isothermality (BIO2/BIO7) (* 100) GS RCP45 2070'
p697
sg31
g32
sg33
g34
sg35
S'clim.gs4570.bio03.tif'
p698
sg37
S'clim'
p699
sg39
g40
sg41
I4326
sg42
S'2070'
p700
ssS'bio05'
p701
(dp702
g8
S'2015-03-13 09:01:24'
p703
sg10
S'gs4570.bio05'
p704
sg12
I272
sg13
S'bio05'
p705
sg15
S'Max Temperature of Warmest Month'
p706
sg17
S'45'
p707
sg19
S'gs4570'
p708
sg21
S'../views/GTiff/clim.gs4570.bio05.tif'
p709
sg23
S'climate'
p710
sg25
S'clim.gs4570.bio05'
p711
sg27
S'6137'
p712
sg29
S'Max Temperature of Warmest Month GS RCP45 2070'
p713
sg31
g32
sg33
g34
sg35
S'clim.gs4570.bio05.tif'
p714
sg37
S'clim'
p715
sg39
g40
sg41
I4326
sg42
S'2070'
p716
ssS'bio10'
p717
(dp718
g8
S'2015-03-13 09:01:24'
p719
sg10
S'gs4570.bio10'
p720
sg12
I24
sg13
S'bio10'
p721
sg15
S'Mean Temperature of Warmest Quarter'
p722
sg17
S'45'
p723
sg19
S'gs4570'
p724
sg21
S'../views/GTiff/clim.gs4570.bio10.tif'
p725
sg23
S'climate'
p726
sg25
S'clim.gs4570.bio10'
p727
sg27
S'6128'
p728
sg29
S'Mean Temperature of Warmest Quarter GS RCP45 2070'
p729
sg31
g32
sg33
g34
sg35
S'clim.gs4570.bio10.tif'
p730
sg37
S'clim'
p731
sg39
g40
sg41
I4326
sg42
S'2070'
p732
ssS'bio11'
p733
(dp734
g8
S'2015-03-13 09:01:24'
p735
sg10
S'gs4570.bio11'
p736
sg12
I211
sg13
S'bio11'
p737
sg15
S'Mean Temperature of Coldest Quarter'
p738
sg17
S'45'
p739
sg19
S'gs4570'
p740
sg21
S'../views/GTiff/clim.gs4570.bio11.tif'
p741
sg23
S'climate'
p742
sg25
S'clim.gs4570.bio11'
p743
sg27
S'6131'
p744
sg29
S'Mean Temperature of Coldest Quarter GS RCP45 2070'
p745
sg31
g32
sg33
g34
sg35
S'clim.gs4570.bio11.tif'
p746
sg37
S'clim'
p747
sg39
g40
sg41
I4326
sg42
S'2070'
p748
ssS'bio12'
p749
(dp750
g8
S'2015-03-13 09:01:24'
p751
sg10
S'gs4570.bio12'
p752
sg12
I162
sg13
S'bio12'
p753
sg15
S'Annual Precipitation'
p754
sg17
S'45'
p755
sg19
S'gs4570'
p756
sg21
S'../views/GTiff/clim.gs4570.bio12.tif'
p757
sg23
S'climate'
p758
sg25
S'clim.gs4570.bio12'
p759
sg27
S'6134'
p760
sg29
S'Annual Precipitation GS RCP45 2070'
p761
sg31
g32
sg33
g34
sg35
S'clim.gs4570.bio12.tif'
p762
sg37
S'clim'
p763
sg39
g40
sg41
I4326
sg42
S'2070'
p764
ssS'bio04'
p765
(dp766
g8
S'2015-03-13 09:01:24'
p767
sg10
S'gs4570.bio04'
p768
sg12
I205
sg13
S'bio04'
p769
sg15
S'Temperature Seasonality (standard deviation *100)'
p770
sg17
S'45'
p771
sg19
S'gs4570'
p772
sg21
S'../views/GTiff/clim.gs4570.bio04.tif'
p773
sg23
S'climate'
p774
sg25
S'clim.gs4570.bio04'
p775
sg27
S'6138'
p776
sg29
S'Temperature Seasonality (standard deviation *100) GS RCP45 2070'
p777
sg31
g32
sg33
g34
sg35
S'clim.gs4570.bio04.tif'
p778
sg37
S'clim'
p779
sg39
g40
sg41
I4326
sg42
S'2070'
p780
ssS'bio14'
p781
(dp782
g8
S'2015-03-13 09:01:24'
p783
sg10
S'gs4570.bio14'
p784
sg12
I37
sg13
S'bio14'
p785
sg15
S'Precipitation of Driest Month'
p786
sg17
S'45'
p787
sg19
S'gs4570'
p788
sg21
S'../views/GTiff/clim.gs4570.bio14.tif'
p789
sg23
S'climate'
p790
sg25
S'clim.gs4570.bio14'
p791
sg27
S'6144'
p792
sg29
S'Precipitation of Driest Month GS RCP45 2070'
p793
sg31
g32
sg33
g34
sg35
S'clim.gs4570.bio14.tif'
p794
sg37
S'clim'
p795
sg39
g40
sg41
I4326
sg42
S'2070'
p796
ssS'bio02'
p797
(dp798
g8
S'2015-03-13 09:01:24'
p799
sg10
S'gs4570.bio02'
p800
sg12
I57
sg13
S'bio02'
p801
sg15
S'Mean Diurnal Range (Mean of monthly (max temp - min temp))'
p802
sg17
S'45'
p803
sg19
S'gs4570'
p804
sg21
S'../views/GTiff/clim.gs4570.bio02.tif'
p805
sg23
S'climate'
p806
sg25
S'clim.gs4570.bio02'
p807
sg27
S'6140'
p808
sg29
S'Mean Diurnal Range (Mean of monthly (max temp - min temp)) GS RCP45 2070'
p809
sg31
g32
sg33
g34
sg35
S'clim.gs4570.bio02.tif'
p810
sg37
S'clim'
p811
sg39
g40
sg41
I4326
sg42
S'2070'
p812
ssS'bio16'
p813
(dp814
g8
S'2015-03-13 09:01:24'
p815
sg10
S'gs4570.bio16'
p816
sg12
I16
sg13
S'bio16'
p817
sg15
S'Precipitation of Wettest Quarter'
p818
sg17
S'45'
p819
sg19
g635
sg21
S'../views/GTiff/clim.gs4570.bio16.tif'
p820
sg23
S'climate'
p821
sg25
S'clim.gs4570.bio16'
p822
sg27
S'6132'
p823
sg29
S'Precipitation of Wettest Quarter GS RCP45 2070'
p824
sg31
g32
sg33
g34
sg35
S'clim.gs4570.bio16.tif'
p825
sg37
S'clim'
p826
sg39
g40
sg41
I4326
sg42
S'2070'
p827
ssS'bio17'
p828
(dp829
g8
S'2015-03-13 09:01:24'
p830
sg10
S'gs4570.bio17'
p831
sg12
I173
sg13
S'bio17'
p832
sg15
S'Precipitation of Driest Quarter'
p833
sg17
S'45'
p834
sg19
S'gs4570'
p835
sg21
S'../views/GTiff/clim.gs4570.bio17.tif'
p836
sg23
S'climate'
p837
sg25
S'clim.gs4570.bio17'
p838
sg27
S'6142'
p839
sg29
S'Precipitation of Driest Quarter GS RCP45 2070'
p840
sg31
g32
sg33
g34
sg35
S'clim.gs4570.bio17.tif'
p841
sg37
S'clim'
p842
sg39
g40
sg41
I4326
sg42
S'2070'
p843
ssS'bio18'
p844
(dp845
g8
S'2015-03-13 09:01:24'
p846
sg10
S'gs4570.bio18'
p847
sg12
I55
sg13
S'bio18'
p848
sg15
S'Precipitation of Warmest Quarter'
p849
sg17
S'45'
p850
sg19
S'gs4570'
p851
sg21
S'../views/GTiff/clim.gs4570.bio18.tif'
p852
sg23
S'climate'
p853
sg25
S'clim.gs4570.bio18'
p854
sg27
S'6143'
p855
sg29
S'Precipitation of Warmest Quarter GS RCP45 2070'
p856
sg31
g32
sg33
g34
sg35
S'clim.gs4570.bio18.tif'
p857
sg37
S'clim'
p858
sg39
g40
sg41
I4326
sg42
S'2070'
p859
ssS'bio19'
p860
(dp861
g8
S'2015-03-13 09:01:24'
p862
sg10
S'gs4570.bio19'
p863
sg12
I35
sg13
S'bio19'
p864
sg15
S'Precipitation of Coldest Quarter'
p865
sg17
S'45'
p866
sg19
S'gs4570'
p867
sg21
S'../views/GTiff/clim.gs4570.bio19.tif'
p868
sg23
S'climate'
p869
sg25
S'clim.gs4570.bio19'
p870
sg27
S'6129'
p871
sg29
S'Precipitation of Coldest Quarter GS RCP45 2070'
p872
sg31
g32
sg33
g34
sg35
S'clim.gs4570.bio19.tif'
p873
sg37
S'clim'
p874
sg39
g40
sg41
I4326
sg42
S'2070'
p875
ssS'bio08'
p876
(dp877
g8
S'2015-03-13 09:01:24'
p878
sg10
S'gs4570.bio08'
p879
sg12
I145
sg13
S'bio08'
p880
sg15
S'Mean Temperature of Wettest Quarter'
p881
sg17
S'45'
p882
sg19
S'gs4570'
p883
sg21
S'../views/GTiff/clim.gs4570.bio08.tif'
p884
sg23
S'climate'
p885
sg25
S'clim.gs4570.bio08'
p886
sg27
S'6146'
p887
sg29
S'Mean Temperature of Wettest Quarter GS RCP45 2070'
p888
sg31
g32
sg33
g34
sg35
S'clim.gs4570.bio08.tif'
p889
sg37
S'clim'
p890
sg39
g40
sg41
I4326
sg42
S'2070'
p891
ssS'bio01'
p892
(dp893
g8
S'2015-03-13 09:01:24'
p894
sg10
S'gs4570.bio01'
p895
sg12
I319
sg13
S'bio01'
p896
sg15
S'Annual Mean Temperature'
p897
sg17
S'45'
p898
sg19
S'gs4570'
p899
sg21
S'../views/GTiff/clim.gs4570.bio01.tif'
p900
sg23
S'climate'
p901
sg25
S'clim.gs4570.bio01'
p902
sg27
S'6141'
p903
sg29
S'Annual Mean Temperature GS RCP45 2070'
p904
sg31
g32
sg33
g34
sg35
S'clim.gs4570.bio01.tif'
p905
sg37
S'clim'
p906
sg39
g40
sg41
I4326
sg42
S'2070'
p907
ssS'bio09'
p908
(dp909
g8
S'2015-03-13 09:01:24'
p910
sg10
S'gs4570.bio09'
p911
sg12
I138
sg13
S'bio09'
p912
sg15
S'Mean Temperature of Driest Quarter'
p913
sg17
S'45'
p914
sg19
S'gs4570'
p915
sg21
S'../views/GTiff/clim.gs4570.bio09.tif'
p916
sg23
S'climate'
p917
sg25
S'clim.gs4570.bio09'
p918
sg27
S'6145'
p919
sg29
S'Mean Temperature of Driest Quarter GS RCP45 2070'
p920
sg31
g32
sg33
g34
sg35
S'clim.gs4570.bio09.tif'
p921
sg37
S'clim'
p922
sg39
g40
sg41
I4326
sg42
S'2070'
p923
ssS'bio15'
p924
(dp925
g8
S'2015-03-13 09:01:24'
p926
sg10
S'gs4570.bio15'
p927
sg12
I86
sg13
S'bio15'
p928
sg15
S'Precipitation Seasonality (Coefficient of Variation)'
p929
sg17
S'45'
p930
sg19
S'gs4570'
p931
sg21
S'../views/GTiff/clim.gs4570.bio15.tif'
p932
sg23
S'climate'
p933
sg25
S'clim.gs4570.bio15'
p934
sg27
S'6133'
p935
sg29
S'Precipitation Seasonality (Coefficient of Variation) GS RCP45 2070'
p936
sg31
g32
sg33
g34
sg35
S'clim.gs4570.bio15.tif'
p937
sg37
S'clim'
p938
sg39
g40
sg41
I4326
sg42
S'2070'
p939
sssS'gd4550'
p940
(dp941
S'bio07'
p942
(dp943
g8
S'2015-03-13 09:01:24'
p944
sg10
S'gd4550.bio07'
p945
sg12
I221
sg13
S'bio07'
p946
sg15
S'Temperature Annual Range (BIO5-BIO6)'
p947
sg17
S'45'
p948
sg19
S'gd4550'
p949
sg21
S'../views/GTiff/clim.gd4550.bio07.tif'
p950
sg23
S'climate'
p951
sg25
S'clim.gd4550.bio07'
p952
sg27
S'6195'
p953
sg29
S'Temperature Annual Range (BIO5-BIO6) GD RCP45 2050'
p954
sg31
g32
sg33
g34
sg35
S'clim.gd4550.bio07.tif'
p955
sg37
S'clim'
p956
sg39
g40
sg41
I4326
sg42
S'2050'
p957
ssS'bio01'
p958
(dp959
g8
S'2015-03-13 09:01:24'
p960
sg10
S'gd4550.bio01'
p961
sg12
I323
sg13
S'bio01'
p962
sg15
S'Annual Mean Temperature'
p963
sg17
S'45'
p964
sg19
S'gd4550'
p965
sg21
S'../views/GTiff/clim.gd4550.bio01.tif'
p966
sg23
S'climate'
p967
sg25
S'clim.gd4550.bio01'
p968
sg27
S'6201'
p969
sg29
S'Annual Mean Temperature GD RCP45 2050'
p970
sg31
g32
sg33
g34
sg35
S'clim.gd4550.bio01.tif'
p971
sg37
S'clim'
p972
sg39
g40
sg41
I4326
sg42
S'2050'
p973
ssS'bio11'
p974
(dp975
g8
S'2015-03-13 09:01:24'
p976
sg10
S'gd4550.bio11'
p977
sg12
I107
sg13
S'bio11'
p978
sg15
S'Mean Temperature of Coldest Quarter'
p979
sg17
S'45'
p980
sg19
S'gd4550'
p981
sg21
S'../views/GTiff/clim.gd4550.bio11.tif'
p982
sg23
S'climate'
p983
sg25
S'clim.gd4550.bio11'
p984
sg27
S'6191'
p985
sg29
S'Mean Temperature of Coldest Quarter GD RCP45 2050'
p986
sg31
g32
sg33
g34
sg35
S'clim.gd4550.bio11.tif'
p987
sg37
S'clim'
p988
sg39
g40
sg41
I4326
sg42
S'2050'
p989
ssS'bio09'
p990
(dp991
g8
S'2015-03-13 09:01:24'
p992
sg10
S'gd4550.bio09'
p993
sg12
I318
sg13
S'bio09'
p994
sg15
S'Mean Temperature of Driest Quarter'
p995
sg17
S'45'
p996
sg19
S'gd4550'
p997
sg21
S'../views/GTiff/clim.gd4550.bio09.tif'
p998
sg23
S'climate'
p999
sg25
S'clim.gd4550.bio09'
p1000
sg27
S'6205'
p1001
sg29
S'Mean Temperature of Driest Quarter GD RCP45 2050'
p1002
sg31
g32
sg33
g34
sg35
S'clim.gd4550.bio09.tif'
p1003
sg37
S'clim'
p1004
sg39
g40
sg41
I4326
sg42
S'2050'
p1005
ssS'bio15'
p1006
(dp1007
g8
S'2015-03-13 09:01:24'
p1008
sg10
S'gd4550.bio15'
p1009
sg12
I202
sg13
S'bio15'
p1010
sg15
S'Precipitation Seasonality (Coefficient of Variation)'
p1011
sg17
S'45'
p1012
sg19
S'gd4550'
p1013
sg21
S'../views/GTiff/clim.gd4550.bio15.tif'
p1014
sg23
S'climate'
p1015
sg25
S'clim.gd4550.bio15'
p1016
sg27
S'6193'
p1017
sg29
S'Precipitation Seasonality (Coefficient of Variation) GD RCP45 2050'
p1018
sg31
g32
sg33
g34
sg35
S'clim.gd4550.bio15.tif'
p1019
sg37
S'clim'
p1020
sg39
g40
sg41
I4326
sg42
S'2050'
p1021
ssS'bio05'
p1022
(dp1023
g8
S'2015-03-13 09:01:24'
p1024
sg10
S'gd4550.bio05'
p1025
sg12
I224
sg13
S'bio05'
p1026
sg15
S'Max Temperature of Warmest Month'
p1027
sg17
S'45'
p1028
sg19
S'gd4550'
p1029
sg21
S'../views/GTiff/clim.gd4550.bio05.tif'
p1030
sg23
S'climate'
p1031
sg25
S'clim.gd4550.bio05'
p1032
sg27
S'6197'
p1033
sg29
S'Max Temperature of Warmest Month GD RCP45 2050'
p1034
sg31
g32
sg33
g34
sg35
S'clim.gd4550.bio05.tif'
p1035
sg37
S'clim'
p1036
sg39
g40
sg41
I4326
sg42
S'2050'
p1037
ssS'bio14'
p1038
(dp1039
g8
S'2015-03-13 09:01:24'
p1040
sg10
S'gd4550.bio14'
p1041
sg12
I310
sg13
S'bio14'
p1042
sg15
S'Precipitation of Driest Month'
p1043
sg17
S'45'
p1044
sg19
S'gd4550'
p1045
sg21
S'../views/GTiff/clim.gd4550.bio14.tif'
p1046
sg23
S'climate'
p1047
sg25
S'clim.gd4550.bio14'
p1048
sg27
S'6204'
p1049
sg29
S'Precipitation of Driest Month GD RCP45 2050'
p1050
sg31
g32
sg33
g34
sg35
S'clim.gd4550.bio14.tif'
p1051
sg37
S'clim'
p1052
sg39
g40
sg41
I4326
sg42
S'2050'
p1053
ssS'bio10'
p1054
(dp1055
g8
S'2015-03-13 09:01:24'
p1056
sg10
S'gd4550.bio10'
p1057
sg12
I143
sg13
S'bio10'
p1058
sg15
S'Mean Temperature of Warmest Quarter'
p1059
sg17
S'45'
p1060
sg19
S'gd4550'
p1061
sg21
S'../views/GTiff/clim.gd4550.bio10.tif'
p1062
sg23
S'climate'
p1063
sg25
S'clim.gd4550.bio10'
p1064
sg27
S'6188'
p1065
sg29
S'Mean Temperature of Warmest Quarter GD RCP45 2050'
p1066
sg31
g32
sg33
g34
sg35
S'clim.gd4550.bio10.tif'
p1067
sg37
S'clim'
p1068
sg39
g40
sg41
I4326
sg42
S'2050'
p1069
ssS'bio06'
p1070
(dp1071
g8
S'2015-03-13 09:01:24'
p1072
sg10
S'gd4550.bio06'
p1073
sg12
I45
sg13
S'bio06'
p1074
sg15
S'Min Temperature of Coldest Month'
p1075
sg17
S'45'
p1076
sg19
S'gd4550'
p1077
sg21
S'../views/GTiff/clim.gd4550.bio06.tif'
p1078
sg23
S'climate'
p1079
sg25
S'clim.gd4550.bio06'
p1080
sg27
S'6196'
p1081
sg29
S'Min Temperature of Coldest Month GD RCP45 2050'
p1082
sg31
g32
sg33
g34
sg35
S'clim.gd4550.bio06.tif'
p1083
sg37
S'clim'
p1084
sg39
g40
sg41
I4326
sg42
S'2050'
p1085
ssS'bio12'
p1086
(dp1087
g8
S'2015-03-13 09:01:24'
p1088
sg10
S'gd4550.bio12'
p1089
sg12
I62
sg13
S'bio12'
p1090
sg15
S'Annual Precipitation'
p1091
sg17
S'45'
p1092
sg19
S'gd4550'
p1093
sg21
S'../views/GTiff/clim.gd4550.bio12.tif'
p1094
sg23
S'climate'
p1095
sg25
S'clim.gd4550.bio12'
p1096
sg27
S'6194'
p1097
sg29
S'Annual Precipitation GD RCP45 2050'
p1098
sg31
g32
sg33
g34
sg35
S'clim.gd4550.bio12.tif'
p1099
sg37
S'clim'
p1100
sg39
g40
sg41
I4326
sg42
S'2050'
p1101
ssS'bio13'
p1102
(dp1103
g8
S'2015-03-13 09:01:24'
p1104
sg10
S'gd4550.bio13'
p1105
sg12
I32
sg13
S'bio13'
p1106
sg15
S'Precipitation of Wettest Month'
p1107
sg17
S'45'
p1108
sg19
g940
sg21
S'../views/GTiff/clim.gd4550.bio13.tif'
p1109
sg23
S'climate'
p1110
sg25
S'clim.gd4550.bio13'
p1111
sg27
S'6190'
p1112
sg29
S'Precipitation of Wettest Month GD RCP45 2050'
p1113
sg31
g32
sg33
g34
sg35
S'clim.gd4550.bio13.tif'
p1114
sg37
S'clim'
p1115
sg39
g40
sg41
I4326
sg42
S'2050'
p1116
ssS'bio03'
p1117
(dp1118
g8
S'2015-03-13 09:01:24'
p1119
sg10
S'gd4550.bio03'
p1120
sg12
I220
sg13
S'bio03'
p1121
sg15
S'Isothermality (BIO2/BIO7) (* 100)'
p1122
sg17
S'45'
p1123
sg19
S'gd4550'
p1124
sg21
S'../views/GTiff/clim.gd4550.bio03.tif'
p1125
sg23
S'climate'
p1126
sg25
S'clim.gd4550.bio03'
p1127
sg27
S'6199'
p1128
sg29
S'Isothermality (BIO2/BIO7) (* 100) GD RCP45 2050'
p1129
sg31
g32
sg33
g34
sg35
S'clim.gd4550.bio03.tif'
p1130
sg37
S'clim'
p1131
sg39
g40
sg41
I4326
sg42
S'2050'
p1132
ssS'bio02'
p1133
(dp1134
g8
S'2015-03-13 09:01:24'
p1135
sg10
S'gd4550.bio02'
p1136
sg12
I187
sg13
S'bio02'
p1137
sg15
S'Mean Diurnal Range (Mean of monthly (max temp - min temp))'
p1138
sg17
S'45'
p1139
sg19
S'gd4550'
p1140
sg21
S'../views/GTiff/clim.gd4550.bio02.tif'
p1141
sg23
S'climate'
p1142
sg25
S'clim.gd4550.bio02'
p1143
sg27
S'6200'
p1144
sg29
S'Mean Diurnal Range (Mean of monthly (max temp - min temp)) GD RCP45 2050'
p1145
sg31
g32
sg33
g34
sg35
S'clim.gd4550.bio02.tif'
p1146
sg37
S'clim'
p1147
sg39
g40
sg41
I4326
sg42
S'2050'
p1148
ssS'bio16'
p1149
(dp1150
g8
S'2015-03-13 09:01:24'
p1151
sg10
S'gd4550.bio16'
p1152
sg12
I36
sg13
S'bio16'
p1153
sg15
S'Precipitation of Wettest Quarter'
p1154
sg17
S'45'
p1155
sg19
S'gd4550'
p1156
sg21
S'../views/GTiff/clim.gd4550.bio16.tif'
p1157
sg23
S'climate'
p1158
sg25
S'clim.gd4550.bio16'
p1159
sg27
S'6192'
p1160
sg29
S'Precipitation of Wettest Quarter GD RCP45 2050'
p1161
sg31
g32
sg33
g34
sg35
S'clim.gd4550.bio16.tif'
p1162
sg37
S'clim'
p1163
sg39
g40
sg41
I4326
sg42
S'2050'
p1164
ssS'bio17'
p1165
(dp1166
g8
S'2015-03-13 09:01:24'
p1167
sg10
S'gd4550.bio17'
p1168
sg12
I127
sg13
S'bio17'
p1169
sg15
S'Precipitation of Driest Quarter'
p1170
sg17
S'45'
p1171
sg19
S'gd4550'
p1172
sg21
S'../views/GTiff/clim.gd4550.bio17.tif'
p1173
sg23
S'climate'
p1174
sg25
S'clim.gd4550.bio17'
p1175
sg27
S'6202'
p1176
sg29
S'Precipitation of Driest Quarter GD RCP45 2050'
p1177
sg31
g32
sg33
g34
sg35
S'clim.gd4550.bio17.tif'
p1178
sg37
S'clim'
p1179
sg39
g40
sg41
I4326
sg42
S'2050'
p1180
ssS'bio18'
p1181
(dp1182
g8
S'2015-03-13 09:01:24'
p1183
sg10
S'gd4550.bio18'
p1184
sg12
I260
sg13
S'bio18'
p1185
sg15
S'Precipitation of Warmest Quarter'
p1186
sg17
S'45'
p1187
sg19
S'gd4550'
p1188
sg21
S'../views/GTiff/clim.gd4550.bio18.tif'
p1189
sg23
S'climate'
p1190
sg25
S'clim.gd4550.bio18'
p1191
sg27
S'6203'
p1192
sg29
S'Precipitation of Warmest Quarter GD RCP45 2050'
p1193
sg31
g32
sg33
g34
sg35
S'clim.gd4550.bio18.tif'
p1194
sg37
S'clim'
p1195
sg39
g40
sg41
I4326
sg42
S'2050'
p1196
ssS'bio19'
p1197
(dp1198
g8
S'2015-03-13 09:01:24'
p1199
sg10
S'gd4550.bio19'
p1200
sg12
I110
sg13
S'bio19'
p1201
sg15
S'Precipitation of Coldest Quarter'
p1202
sg17
S'45'
p1203
sg19
S'gd4550'
p1204
sg21
S'../views/GTiff/clim.gd4550.bio19.tif'
p1205
sg23
S'climate'
p1206
sg25
S'clim.gd4550.bio19'
p1207
sg27
S'6189'
p1208
sg29
S'Precipitation of Coldest Quarter GD RCP45 2050'
p1209
sg31
g32
sg33
g34
sg35
S'clim.gd4550.bio19.tif'
p1210
sg37
S'clim'
p1211
sg39
g40
sg41
I4326
sg42
S'2050'
p1212
ssS'bio04'
p1213
(dp1214
g8
S'2015-03-13 09:01:24'
p1215
sg10
S'gd4550.bio04'
p1216
sg12
I277
sg13
S'bio04'
p1217
sg15
S'Temperature Seasonality (standard deviation *100)'
p1218
sg17
S'45'
p1219
sg19
S'gd4550'
p1220
sg21
S'../views/GTiff/clim.gd4550.bio04.tif'
p1221
sg23
S'climate'
p1222
sg25
S'clim.gd4550.bio04'
p1223
sg27
S'6198'
p1224
sg29
S'Temperature Seasonality (standard deviation *100) GD RCP45 2050'
p1225
sg31
g32
sg33
g34
sg35
S'clim.gd4550.bio04.tif'
p1226
sg37
S'clim'
p1227
sg39
g40
sg41
I4326
sg42
S'2050'
p1228
ssS'bio08'
p1229
(dp1230
g8
S'2015-03-13 09:01:24'
p1231
sg10
S'gd4550.bio08'
p1232
sg12
I197
sg13
S'bio08'
p1233
sg15
S'Mean Temperature of Wettest Quarter'
p1234
sg17
S'45'
p1235
sg19
S'gd4550'
p1236
sg21
S'../views/GTiff/clim.gd4550.bio08.tif'
p1237
sg23
S'climate'
p1238
sg25
S'clim.gd4550.bio08'
p1239
sg27
S'6206'
p1240
sg29
S'Mean Temperature of Wettest Quarter GD RCP45 2050'
p1241
sg31
g32
sg33
g34
sg35
S'clim.gd4550.bio08.tif'
p1242
sg37
S'clim'
p1243
sg39
g40
sg41
I4326
sg42
S'2050'
p1244
sssS'he8570'
p1245
(dp1246
S'bio10'
p1247
(dp1248
g8
S'2015-03-13 09:01:24'
p1249
sg10
S'he8570.bio10'
p1250
sg12
I206
sg13
S'bio10'
p1251
sg15
S'Mean Temperature of Warmest Quarter'
p1252
sg17
S'85'
p1253
sg19
S'he8570'
p1254
sg21
S'../views/GTiff/clim.he8570.bio10.tif'
p1255
sg23
S'climate'
p1256
sg25
S'clim.he8570.bio10'
p1257
sg27
S'6207'
p1258
sg29
S'Mean Temperature of Warmest Quarter HE RCP85 2070'
p1259
sg31
g32
sg33
g34
sg35
S'clim.he8570.bio10.tif'
p1260
sg37
S'clim'
p1261
sg39
g40
sg41
I4326
sg42
S'2070'
p1262
ssS'bio01'
p1263
(dp1264
g8
S'2015-03-13 09:01:24'
p1265
sg10
S'he8570.bio01'
p1266
sg12
I40
sg13
S'bio01'
p1267
sg15
S'Annual Mean Temperature'
p1268
sg17
S'85'
p1269
sg19
g1245
sg21
S'../views/GTiff/clim.he8570.bio01.tif'
p1270
sg23
S'climate'
p1271
sg25
S'clim.he8570.bio01'
p1272
sg27
S'6220'
p1273
sg29
S'Annual Mean Temperature HE RCP85 2070'
p1274
sg31
g32
sg33
g34
sg35
S'clim.he8570.bio01.tif'
p1275
sg37
S'clim'
p1276
sg39
g40
sg41
I4326
sg42
S'2070'
p1277
ssS'bio06'
p1278
(dp1279
g8
S'2015-03-13 09:01:24'
p1280
sg10
S'he8570.bio06'
p1281
sg12
I337
sg13
S'bio06'
p1282
sg15
S'Min Temperature of Coldest Month'
p1283
sg17
S'85'
p1284
sg19
S'he8570'
p1285
sg21
S'../views/GTiff/clim.he8570.bio06.tif'
p1286
sg23
S'climate'
p1287
sg25
S'clim.he8570.bio06'
p1288
sg27
S'6215'
p1289
sg29
S'Min Temperature of Coldest Month HE RCP85 2070'
p1290
sg31
g32
sg33
g34
sg35
S'clim.he8570.bio06.tif'
p1291
sg37
S'clim'
p1292
sg39
g40
sg41
I4326
sg42
S'2070'
p1293
ssS'bio13'
p1294
(dp1295
g8
S'2015-03-13 09:01:24'
p1296
sg10
S'he8570.bio13'
p1297
sg12
I252
sg13
S'bio13'
p1298
sg15
S'Precipitation of Wettest Month'
p1299
sg17
S'85'
p1300
sg19
S'he8570'
p1301
sg21
S'../views/GTiff/clim.he8570.bio13.tif'
p1302
sg23
S'climate'
p1303
sg25
S'clim.he8570.bio13'
p1304
sg27
S'6209'
p1305
sg29
S'Precipitation of Wettest Month HE RCP85 2070'
p1306
sg31
g32
sg33
g34
sg35
S'clim.he8570.bio13.tif'
p1307
sg37
S'clim'
p1308
sg39
g40
sg41
I4326
sg42
S'2070'
p1309
ssS'bio12'
p1310
(dp1311
g8
S'2015-03-13 09:01:24'
p1312
sg10
S'he8570.bio12'
p1313
sg12
I265
sg13
S'bio12'
p1314
sg15
S'Annual Precipitation'
p1315
sg17
S'85'
p1316
sg19
S'he8570'
p1317
sg21
S'../views/GTiff/clim.he8570.bio12.tif'
p1318
sg23
S'climate'
p1319
sg25
S'clim.he8570.bio12'
p1320
sg27
S'6213'
p1321
sg29
S'Annual Precipitation HE RCP85 2070'
p1322
sg31
g32
sg33
g34
sg35
S'clim.he8570.bio12.tif'
p1323
sg37
S'clim'
p1324
sg39
g40
sg41
I4326
sg42
S'2070'
p1325
ssS'bio07'
p1326
(dp1327
g8
S'2015-03-13 09:01:24'
p1328
sg10
S'he8570.bio07'
p1329
sg12
I141
sg13
S'bio07'
p1330
sg15
S'Temperature Annual Range (BIO5-BIO6)'
p1331
sg17
S'85'
p1332
sg19
S'he8570'
p1333
sg21
S'../views/GTiff/clim.he8570.bio07.tif'
p1334
sg23
S'climate'
p1335
sg25
S'clim.he8570.bio07'
p1336
sg27
S'6214'
p1337
sg29
S'Temperature Annual Range (BIO5-BIO6) HE RCP85 2070'
p1338
sg31
g32
sg33
g34
sg35
S'clim.he8570.bio07.tif'
p1339
sg37
S'clim'
p1340
sg39
g40
sg41
I4326
sg42
S'2070'
p1341
ssS'bio11'
p1342
(dp1343
g8
S'2015-03-13 09:01:24'
p1344
sg10
S'he8570.bio11'
p1345
sg12
I244
sg13
S'bio11'
p1346
sg15
S'Mean Temperature of Coldest Quarter'
p1347
sg17
S'85'
p1348
sg19
S'he8570'
p1349
sg21
S'../views/GTiff/clim.he8570.bio11.tif'
p1350
sg23
S'climate'
p1351
sg25
S'clim.he8570.bio11'
p1352
sg27
S'6210'
p1353
sg29
S'Mean Temperature of Coldest Quarter HE RCP85 2070'
p1354
sg31
g32
sg33
g34
sg35
S'clim.he8570.bio11.tif'
p1355
sg37
S'clim'
p1356
sg39
g40
sg41
I4326
sg42
S'2070'
p1357
ssS'bio05'
p1358
(dp1359
g8
S'2015-03-13 09:01:24'
p1360
sg10
S'he8570.bio05'
p1361
sg12
I185
sg13
S'bio05'
p1362
sg15
S'Max Temperature of Warmest Month'
p1363
sg17
S'85'
p1364
sg19
S'he8570'
p1365
sg21
S'../views/GTiff/clim.he8570.bio05.tif'
p1366
sg23
S'climate'
p1367
sg25
S'clim.he8570.bio05'
p1368
sg27
S'6216'
p1369
sg29
S'Max Temperature of Warmest Month HE RCP85 2070'
p1370
sg31
g32
sg33
g34
sg35
S'clim.he8570.bio05.tif'
p1371
sg37
S'clim'
p1372
sg39
g40
sg41
I4326
sg42
S'2070'
p1373
ssS'bio04'
p1374
(dp1375
g8
S'2015-03-13 09:01:24'
p1376
sg10
S'he8570.bio04'
p1377
sg12
I192
sg13
S'bio04'
p1378
sg15
S'Temperature Seasonality (standard deviation *100)'
p1379
sg17
S'85'
p1380
sg19
S'he8570'
p1381
sg21
S'../views/GTiff/clim.he8570.bio04.tif'
p1382
sg23
S'climate'
p1383
sg25
S'clim.he8570.bio04'
p1384
sg27
S'6217'
p1385
sg29
S'Temperature Seasonality (standard deviation *100) HE RCP85 2070'
p1386
sg31
g32
sg33
g34
sg35
S'clim.he8570.bio04.tif'
p1387
sg37
S'clim'
p1388
sg39
g40
sg41
I4326
sg42
S'2070'
p1389
ssS'bio14'
p1390
(dp1391
g8
S'2015-03-13 09:01:24'
p1392
sg10
S'he8570.bio14'
p1393
sg12
I84
sg13
S'bio14'
p1394
sg15
S'Precipitation of Driest Month'
p1395
sg17
S'85'
p1396
sg19
S'he8570'
p1397
sg21
S'../views/GTiff/clim.he8570.bio14.tif'
p1398
sg23
S'climate'
p1399
sg25
S'clim.he8570.bio14'
p1400
sg27
S'6223'
p1401
sg29
S'Precipitation of Driest Month HE RCP85 2070'
p1402
sg31
g32
sg33
g34
sg35
S'clim.he8570.bio14.tif'
p1403
sg37
S'clim'
p1404
sg39
g40
sg41
I4326
sg42
S'2070'
p1405
ssS'bio15'
p1406
(dp1407
g8
S'2015-03-13 09:01:24'
p1408
sg10
S'he8570.bio15'
p1409
sg12
I255
sg13
S'bio15'
p1410
sg15
S'Precipitation Seasonality (Coefficient of Variation)'
p1411
sg17
S'85'
p1412
sg19
S'he8570'
p1413
sg21
S'../views/GTiff/clim.he8570.bio15.tif'
p1414
sg23
S'climate'
p1415
sg25
S'clim.he8570.bio15'
p1416
sg27
S'6212'
p1417
sg29
S'Precipitation Seasonality (Coefficient of Variation) HE RCP85 2070'
p1418
sg31
g32
sg33
g34
sg35
S'clim.he8570.bio15.tif'
p1419
sg37
S'clim'
p1420
sg39
g40
sg41
I4326
sg42
S'2070'
p1421
ssS'bio16'
p1422
(dp1423
g8
S'2015-03-13 09:01:24'
p1424
sg10
S'he8570.bio16'
p1425
sg12
I180
sg13
S'bio16'
p1426
sg15
S'Precipitation of Wettest Quarter'
p1427
sg17
S'85'
p1428
sg19
S'he8570'
p1429
sg21
S'../views/GTiff/clim.he8570.bio16.tif'
p1430
sg23
S'climate'
p1431
sg25
S'clim.he8570.bio16'
p1432
sg27
S'6211'
p1433
sg29
S'Precipitation of Wettest Quarter HE RCP85 2070'
p1434
sg31
g32
sg33
g34
sg35
S'clim.he8570.bio16.tif'
p1435
sg37
S'clim'
p1436
sg39
g40
sg41
I4326
sg42
S'2070'
p1437
ssS'bio17'
p1438
(dp1439
g8
S'2015-03-13 09:01:24'
p1440
sg10
S'he8570.bio17'
p1441
sg12
I288
sg13
S'bio17'
p1442
sg15
S'Precipitation of Driest Quarter'
p1443
sg17
S'85'
p1444
sg19
S'he8570'
p1445
sg21
S'../views/GTiff/clim.he8570.bio17.tif'
p1446
sg23
S'climate'
p1447
sg25
S'clim.he8570.bio17'
p1448
sg27
S'6221'
p1449
sg29
S'Precipitation of Driest Quarter HE RCP85 2070'
p1450
sg31
g32
sg33
g34
sg35
S'clim.he8570.bio17.tif'
p1451
sg37
S'clim'
p1452
sg39
g40
sg41
I4326
sg42
S'2070'
p1453
ssS'bio18'
p1454
(dp1455
g8
S'2015-03-13 09:01:24'
p1456
sg10
S'he8570.bio18'
p1457
sg12
I68
sg13
S'bio18'
p1458
sg15
S'Precipitation of Warmest Quarter'
p1459
sg17
S'85'
p1460
sg19
S'he8570'
p1461
sg21
S'../views/GTiff/clim.he8570.bio18.tif'
p1462
sg23
S'climate'
p1463
sg25
S'clim.he8570.bio18'
p1464
sg27
S'6222'
p1465
sg29
S'Precipitation of Warmest Quarter HE RCP85 2070'
p1466
sg31
g32
sg33
g34
sg35
S'clim.he8570.bio18.tif'
p1467
sg37
S'clim'
p1468
sg39
g40
sg41
I4326
sg42
S'2070'
p1469
ssS'bio19'
p1470
(dp1471
g8
S'2015-03-13 09:01:24'
p1472
sg10
S'he8570.bio19'
p1473
sg12
I189
sg13
S'bio19'
p1474
sg15
S'Precipitation of Coldest Quarter'
p1475
sg17
S'85'
p1476
sg19
S'he8570'
p1477
sg21
S'../views/GTiff/clim.he8570.bio19.tif'
p1478
sg23
S'climate'
p1479
sg25
S'clim.he8570.bio19'
p1480
sg27
S'6208'
p1481
sg29
S'Precipitation of Coldest Quarter HE RCP85 2070'
p1482
sg31
g32
sg33
g34
sg35
S'clim.he8570.bio19.tif'
p1483
sg37
S'clim'
p1484
sg39
g40
sg41
I4326
sg42
S'2070'
p1485
ssS'bio02'
p1486
(dp1487
g8
S'2015-03-13 09:01:24'
p1488
sg10
S'he8570.bio02'
p1489
sg12
I334
sg13
S'bio02'
p1490
sg15
S'Mean Diurnal Range (Mean of monthly (max temp - min temp))'
p1491
sg17
S'85'
p1492
sg19
S'he8570'
p1493
sg21
S'../views/GTiff/clim.he8570.bio02.tif'
p1494
sg23
S'climate'
p1495
sg25
S'clim.he8570.bio02'
p1496
sg27
S'6219'
p1497
sg29
S'Mean Diurnal Range (Mean of monthly (max temp - min temp)) HE RCP85 2070'
p1498
sg31
g32
sg33
g34
sg35
S'clim.he8570.bio02.tif'
p1499
sg37
S'clim'
p1500
sg39
g40
sg41
I4326
sg42
S'2070'
p1501
ssS'bio03'
p1502
(dp1503
g8
S'2015-03-13 09:01:24'
p1504
sg10
S'he8570.bio03'
p1505
sg12
I198
sg13
S'bio03'
p1506
sg15
S'Isothermality (BIO2/BIO7) (* 100)'
p1507
sg17
S'85'
p1508
sg19
S'he8570'
p1509
sg21
S'../views/GTiff/clim.he8570.bio03.tif'
p1510
sg23
S'climate'
p1511
sg25
S'clim.he8570.bio03'
p1512
sg27
S'6218'
p1513
sg29
S'Isothermality (BIO2/BIO7) (* 100) HE RCP85 2070'
p1514
sg31
g32
sg33
g34
sg35
S'clim.he8570.bio03.tif'
p1515
sg37
S'clim'
p1516
sg39
g40
sg41
I4326
sg42
S'2070'
p1517
ssS'bio09'
p1518
(dp1519
g8
S'2015-03-13 09:01:24'
p1520
sg10
S'he8570.bio09'
p1521
sg12
I269
sg13
S'bio09'
p1522
sg15
S'Mean Temperature of Driest Quarter'
p1523
sg17
S'85'
p1524
sg19
S'he8570'
p1525
sg21
S'../views/GTiff/clim.he8570.bio09.tif'
p1526
sg23
S'climate'
p1527
sg25
S'clim.he8570.bio09'
p1528
sg27
S'6224'
p1529
sg29
S'Mean Temperature of Driest Quarter HE RCP85 2070'
p1530
sg31
g32
sg33
g34
sg35
S'clim.he8570.bio09.tif'
p1531
sg37
S'clim'
p1532
sg39
g40
sg41
I4326
sg42
S'2070'
p1533
ssS'bio08'
p1534
(dp1535
g8
S'2015-03-13 09:01:24'
p1536
sg10
S'he8570.bio08'
p1537
sg12
I329
sg13
S'bio08'
p1538
sg15
S'Mean Temperature of Wettest Quarter'
p1539
sg17
S'85'
p1540
sg19
S'he8570'
p1541
sg21
S'../views/GTiff/clim.he8570.bio08.tif'
p1542
sg23
S'climate'
p1543
sg25
S'clim.he8570.bio08'
p1544
sg27
S'6225'
p1545
sg29
S'Mean Temperature of Wettest Quarter HE RCP85 2070'
p1546
sg31
g32
sg33
g34
sg35
S'clim.he8570.bio08.tif'
p1547
sg37
S'clim'
p1548
sg39
g40
sg41
I4326
sg42
S'2070'
p1549
sssS'he2650'
p1550
(dp1551
S'bio07'
p1552
(dp1553
g8
S'2015-03-13 09:01:24'
p1554
sg10
S'he2650.bio07'
p1555
sg12
I320
sg13
S'bio07'
p1556
sg15
S'Temperature Annual Range (BIO5-BIO6)'
p1557
sg17
S'26'
p1558
sg19
S'he2650'
p1559
sg21
S'../views/GTiff/clim.he2650.bio07.tif'
p1560
sg23
S'climate'
p1561
sg25
S'clim.he2650.bio07'
p1562
sg27
S'6233'
p1563
sg29
S'Temperature Annual Range (BIO5-BIO6) HE RCP26 2050'
p1564
sg31
g32
sg33
g34
sg35
S'clim.he2650.bio07.tif'
p1565
sg37
S'clim'
p1566
sg39
g40
sg41
I4326
sg42
S'2050'
p1567
ssS'bio16'
p1568
(dp1569
g8
S'2015-03-13 09:01:24'
p1570
sg10
S'he2650.bio16'
p1571
sg12
I182
sg13
S'bio16'
p1572
sg15
S'Precipitation of Wettest Quarter'
p1573
sg17
S'26'
p1574
sg19
S'he2650'
p1575
sg21
S'../views/GTiff/clim.he2650.bio16.tif'
p1576
sg23
S'climate'
p1577
sg25
S'clim.he2650.bio16'
p1578
sg27
S'6230'
p1579
sg29
S'Precipitation of Wettest Quarter HE RCP26 2050'
p1580
sg31
g32
sg33
g34
sg35
S'clim.he2650.bio16.tif'
p1581
sg37
S'clim'
p1582
sg39
g40
sg41
I4326
sg42
S'2050'
p1583
ssS'bio02'
p1584
(dp1585
g8
S'2015-03-13 09:01:24'
p1586
sg10
S'he2650.bio02'
p1587
sg12
I309
sg13
S'bio02'
p1588
sg15
S'Mean Diurnal Range (Mean of monthly (max temp - min temp))'
p1589
sg17
S'26'
p1590
sg19
S'he2650'
p1591
sg21
S'../views/GTiff/clim.he2650.bio02.tif'
p1592
sg23
S'climate'
p1593
sg25
S'clim.he2650.bio02'
p1594
sg27
S'6238'
p1595
sg29
S'Mean Diurnal Range (Mean of monthly (max temp - min temp)) HE RCP26 2050'
p1596
sg31
g32
sg33
g34
sg35
S'clim.he2650.bio02.tif'
p1597
sg37
S'clim'
p1598
sg39
g40
sg41
I4326
sg42
S'2050'
p1599
ssS'bio11'
p1600
(dp1601
g8
S'2015-03-13 09:01:24'
p1602
sg10
S'he2650.bio11'
p1603
sg12
I102
sg13
S'bio11'
p1604
sg15
S'Mean Temperature of Coldest Quarter'
p1605
sg17
S'26'
p1606
sg19
S'he2650'
p1607
sg21
S'../views/GTiff/clim.he2650.bio11.tif'
p1608
sg23
S'climate'
p1609
sg25
S'clim.he2650.bio11'
p1610
sg27
S'6229'
p1611
sg29
S'Mean Temperature of Coldest Quarter HE RCP26 2050'
p1612
sg31
g32
sg33
g34
sg35
S'clim.he2650.bio11.tif'
p1613
sg37
S'clim'
p1614
sg39
g40
sg41
I4326
sg42
S'2050'
p1615
ssS'bio12'
p1616
(dp1617
g8
S'2015-03-13 09:01:24'
p1618
sg10
S'he2650.bio12'
p1619
sg12
I281
sg13
S'bio12'
p1620
sg15
S'Annual Precipitation'
p1621
sg17
S'26'
p1622
sg19
S'he2650'
p1623
sg21
S'../views/GTiff/clim.he2650.bio12.tif'
p1624
sg23
S'climate'
p1625
sg25
S'clim.he2650.bio12'
p1626
sg27
S'6232'
p1627
sg29
S'Annual Precipitation HE RCP26 2050'
p1628
sg31
g32
sg33
g34
sg35
S'clim.he2650.bio12.tif'
p1629
sg37
S'clim'
p1630
sg39
g40
sg41
I4326
sg42
S'2050'
p1631
ssS'bio10'
p1632
(dp1633
g8
S'2015-03-13 09:01:24'
p1634
sg10
S'he2650.bio10'
p1635
sg12
I212
sg13
S'bio10'
p1636
sg15
S'Mean Temperature of Warmest Quarter'
p1637
sg17
S'26'
p1638
sg19
S'he2650'
p1639
sg21
S'../views/GTiff/clim.he2650.bio10.tif'
p1640
sg23
S'climate'
p1641
sg25
S'clim.he2650.bio10'
p1642
sg27
S'6226'
p1643
sg29
S'Mean Temperature of Warmest Quarter HE RCP26 2050'
p1644
sg31
g32
sg33
g34
sg35
S'clim.he2650.bio10.tif'
p1645
sg37
S'clim'
p1646
sg39
g40
sg41
I4326
sg42
S'2050'
p1647
ssS'bio06'
p1648
(dp1649
g8
S'2015-03-13 09:01:24'
p1650
sg10
S'he2650.bio06'
p1651
sg12
I41
sg13
S'bio06'
p1652
sg15
S'Min Temperature of Coldest Month'
p1653
sg17
S'26'
p1654
sg19
g1550
sg21
S'../views/GTiff/clim.he2650.bio06.tif'
p1655
sg23
S'climate'
p1656
sg25
S'clim.he2650.bio06'
p1657
sg27
S'6234'
p1658
sg29
S'Min Temperature of Coldest Month HE RCP26 2050'
p1659
sg31
g32
sg33
g34
sg35
S'clim.he2650.bio06.tif'
p1660
sg37
S'clim'
p1661
sg39
g40
sg41
I4326
sg42
S'2050'
p1662
ssS'bio05'
p1663
(dp1664
g8
S'2015-03-13 09:01:24'
p1665
sg10
S'he2650.bio05'
p1666
sg12
I213
sg13
S'bio05'
p1667
sg15
S'Max Temperature of Warmest Month'
p1668
sg17
S'26'
p1669
sg19
S'he2650'
p1670
sg21
S'../views/GTiff/clim.he2650.bio05.tif'
p1671
sg23
S'climate'
p1672
sg25
S'clim.he2650.bio05'
p1673
sg27
S'6235'
p1674
sg29
S'Max Temperature of Warmest Month HE RCP26 2050'
p1675
sg31
g32
sg33
g34
sg35
S'clim.he2650.bio05.tif'
p1676
sg37
S'clim'
p1677
sg39
g40
sg41
I4326
sg42
S'2050'
p1678
ssS'bio13'
p1679
(dp1680
g8
S'2015-03-13 09:01:24'
p1681
sg10
S'he2650.bio13'
p1682
sg12
I88
sg13
S'bio13'
p1683
sg15
S'Precipitation of Wettest Month'
p1684
sg17
S'26'
p1685
sg19
S'he2650'
p1686
sg21
S'../views/GTiff/clim.he2650.bio13.tif'
p1687
sg23
S'climate'
p1688
sg25
S'clim.he2650.bio13'
p1689
sg27
S'6228'
p1690
sg29
S'Precipitation of Wettest Month HE RCP26 2050'
p1691
sg31
g32
sg33
g34
sg35
S'clim.he2650.bio13.tif'
p1692
sg37
S'clim'
p1693
sg39
g40
sg41
I4326
sg42
S'2050'
p1694
ssS'bio14'
p1695
(dp1696
g8
S'2015-03-13 09:01:24'
p1697
sg10
S'he2650.bio14'
p1698
sg12
I93
sg13
S'bio14'
p1699
sg15
S'Precipitation of Driest Month'
p1700
sg17
S'26'
p1701
sg19
S'he2650'
p1702
sg21
S'../views/GTiff/clim.he2650.bio14.tif'
p1703
sg23
S'climate'
p1704
sg25
S'clim.he2650.bio14'
p1705
sg27
S'6242'
p1706
sg29
S'Precipitation of Driest Month HE RCP26 2050'
p1707
sg31
g32
sg33
g34
sg35
S'clim.he2650.bio14.tif'
p1708
sg37
S'clim'
p1709
sg39
g40
sg41
I4326
sg42
S'2050'
p1710
ssS'bio15'
p1711
(dp1712
g8
S'2015-03-13 09:01:24'
p1713
sg10
S'he2650.bio15'
p1714
sg12
I160
sg13
S'bio15'
p1715
sg15
S'Precipitation Seasonality (Coefficient of Variation)'
p1716
sg17
S'26'
p1717
sg19
S'he2650'
p1718
sg21
S'../views/GTiff/clim.he2650.bio15.tif'
p1719
sg23
S'climate'
p1720
sg25
S'clim.he2650.bio15'
p1721
sg27
S'6231'
p1722
sg29
S'Precipitation Seasonality (Coefficient of Variation) HE RCP26 2050'
p1723
sg31
g32
sg33
g34
sg35
S'clim.he2650.bio15.tif'
p1724
sg37
S'clim'
p1725
sg39
g40
sg41
I4326
sg42
S'2050'
p1726
ssS'bio01'
p1727
(dp1728
g8
S'2015-03-13 09:01:24'
p1729
sg10
S'he2650.bio01'
p1730
sg12
I116
sg13
S'bio01'
p1731
sg15
S'Annual Mean Temperature'
p1732
sg17
S'26'
p1733
sg19
S'he2650'
p1734
sg21
S'../views/GTiff/clim.he2650.bio01.tif'
p1735
sg23
S'climate'
p1736
sg25
S'clim.he2650.bio01'
p1737
sg27
S'6239'
p1738
sg29
S'Annual Mean Temperature HE RCP26 2050'
p1739
sg31
g32
sg33
g34
sg35
S'clim.he2650.bio01.tif'
p1740
sg37
S'clim'
p1741
sg39
g40
sg41
I4326
sg42
S'2050'
p1742
ssS'bio17'
p1743
(dp1744
g8
S'2015-03-13 09:01:24'
p1745
sg10
S'he2650.bio17'
p1746
sg12
I296
sg13
S'bio17'
p1747
sg15
S'Precipitation of Driest Quarter'
p1748
sg17
S'26'
p1749
sg19
S'he2650'
p1750
sg21
S'../views/GTiff/clim.he2650.bio17.tif'
p1751
sg23
S'climate'
p1752
sg25
S'clim.he2650.bio17'
p1753
sg27
S'6240'
p1754
sg29
S'Precipitation of Driest Quarter HE RCP26 2050'
p1755
sg31
g32
sg33
g34
sg35
S'clim.he2650.bio17.tif'
p1756
sg37
S'clim'
p1757
sg39
g40
sg41
I4326
sg42
S'2050'
p1758
ssS'bio18'
p1759
(dp1760
g8
S'2015-03-13 09:01:24'
p1761
sg10
S'he2650.bio18'
p1762
sg12
I228
sg13
S'bio18'
p1763
sg15
S'Precipitation of Warmest Quarter'
p1764
sg17
S'26'
p1765
sg19
S'he2650'
p1766
sg21
S'../views/GTiff/clim.he2650.bio18.tif'
p1767
sg23
S'climate'
p1768
sg25
S'clim.he2650.bio18'
p1769
sg27
S'6241'
p1770
sg29
S'Precipitation of Warmest Quarter HE RCP26 2050'
p1771
sg31
g32
sg33
g34
sg35
S'clim.he2650.bio18.tif'
p1772
sg37
S'clim'
p1773
sg39
g40
sg41
I4326
sg42
S'2050'
p1774
ssS'bio19'
p1775
(dp1776
g8
S'2015-03-13 09:01:24'
p1777
sg10
S'he2650.bio19'
p1778
sg12
I168
sg13
S'bio19'
p1779
sg15
S'Precipitation of Coldest Quarter'
p1780
sg17
S'26'
p1781
sg19
S'he2650'
p1782
sg21
S'../views/GTiff/clim.he2650.bio19.tif'
p1783
sg23
S'climate'
p1784
sg25
S'clim.he2650.bio19'
p1785
sg27
S'6227'
p1786
sg29
S'Precipitation of Coldest Quarter HE RCP26 2050'
p1787
sg31
g32
sg33
g34
sg35
S'clim.he2650.bio19.tif'
p1788
sg37
S'clim'
p1789
sg39
g40
sg41
I4326
sg42
S'2050'
p1790
ssS'bio04'
p1791
(dp1792
g8
S'2015-03-13 09:01:24'
p1793
sg10
S'he2650.bio04'
p1794
sg12
I303
sg13
S'bio04'
p1795
sg15
S'Temperature Seasonality (standard deviation *100)'
p1796
sg17
S'26'
p1797
sg19
S'he2650'
p1798
sg21
S'../views/GTiff/clim.he2650.bio04.tif'
p1799
sg23
S'climate'
p1800
sg25
S'clim.he2650.bio04'
p1801
sg27
S'6236'
p1802
sg29
S'Temperature Seasonality (standard deviation *100) HE RCP26 2050'
p1803
sg31
g32
sg33
g34
sg35
S'clim.he2650.bio04.tif'
p1804
sg37
S'clim'
p1805
sg39
g40
sg41
I4326
sg42
S'2050'
p1806
ssS'bio03'
p1807
(dp1808
g8
S'2015-03-13 09:01:24'
p1809
sg10
S'he2650.bio03'
p1810
sg12
I248
sg13
S'bio03'
p1811
sg15
S'Isothermality (BIO2/BIO7) (* 100)'
p1812
sg17
S'26'
p1813
sg19
S'he2650'
p1814
sg21
S'../views/GTiff/clim.he2650.bio03.tif'
p1815
sg23
S'climate'
p1816
sg25
S'clim.he2650.bio03'
p1817
sg27
S'6237'
p1818
sg29
S'Isothermality (BIO2/BIO7) (* 100) HE RCP26 2050'
p1819
sg31
g32
sg33
g34
sg35
S'clim.he2650.bio03.tif'
p1820
sg37
S'clim'
p1821
sg39
g40
sg41
I4326
sg42
S'2050'
p1822
ssS'bio09'
p1823
(dp1824
g8
S'2015-03-13 09:01:24'
p1825
sg10
S'he2650.bio09'
p1826
sg12
I71
sg13
S'bio09'
p1827
sg15
S'Mean Temperature of Driest Quarter'
p1828
sg17
S'26'
p1829
sg19
S'he2650'
p1830
sg21
S'../views/GTiff/clim.he2650.bio09.tif'
p1831
sg23
S'climate'
p1832
sg25
S'clim.he2650.bio09'
p1833
sg27
S'6243'
p1834
sg29
S'Mean Temperature of Driest Quarter HE RCP26 2050'
p1835
sg31
g32
sg33
g34
sg35
S'clim.he2650.bio09.tif'
p1836
sg37
S'clim'
p1837
sg39
g40
sg41
I4326
sg42
S'2050'
p1838
ssS'bio08'
p1839
(dp1840
g8
S'2015-03-13 09:01:24'
p1841
sg10
S'he2650.bio08'
p1842
sg12
I235
sg13
S'bio08'
p1843
sg15
S'Mean Temperature of Wettest Quarter'
p1844
sg17
S'26'
p1845
sg19
S'he2650'
p1846
sg21
S'../views/GTiff/clim.he2650.bio08.tif'
p1847
sg23
S'climate'
p1848
sg25
S'clim.he2650.bio08'
p1849
sg27
S'6244'
p1850
sg29
S'Mean Temperature of Wettest Quarter HE RCP26 2050'
p1851
sg31
g32
sg33
g34
sg35
S'clim.he2650.bio08.tif'
p1852
sg37
S'clim'
p1853
sg39
g40
sg41
I4326
sg42
S'2050'
p1854
sssS'ac4570'
p1855
(dp1856
S'bio07'
p1857
(dp1858
g8
S'2015-03-13 09:01:24'
p1859
sg10
S'ac4570.bio07'
p1860
sg12
I148
sg13
S'bio07'
p1861
sg15
S'Temperature Annual Range (BIO5-BIO6)'
p1862
sg17
S'45'
p1863
sg19
S'ac4570'
p1864
sg21
S'../views/GTiff/clim.ac4570.bio07.tif'
p1865
sg23
S'climate'
p1866
sg25
S'clim.ac4570.bio07'
p1867
sg27
S'6290'
p1868
sg29
S'Temperature Annual Range (BIO5-BIO6) AC RCP45 2070'
p1869
sg31
g32
sg33
g34
sg35
S'clim.ac4570.bio07.tif'
p1870
sg37
S'clim'
p1871
sg39
g40
sg41
I4326
sg42
S'2070'
p1872
ssS'bio01'
p1873
(dp1874
g8
S'2015-03-13 09:01:24'
p1875
sg10
S'ac4570.bio01'
p1876
sg12
I156
sg13
S'bio01'
p1877
sg15
S'Annual Mean Temperature'
p1878
sg17
S'45'
p1879
sg19
S'ac4570'
p1880
sg21
S'../views/GTiff/clim.ac4570.bio01.tif'
p1881
sg23
S'climate'
p1882
sg25
S'clim.ac4570.bio01'
p1883
sg27
S'6296'
p1884
sg29
S'Annual Mean Temperature AC RCP45 2070'
p1885
sg31
g32
sg33
g34
sg35
S'clim.ac4570.bio01.tif'
p1886
sg37
S'clim'
p1887
sg39
g40
sg41
I4326
sg42
S'2070'
p1888
ssS'bio06'
p1889
(dp1890
g8
S'2015-03-13 09:01:24'
p1891
sg10
S'ac4570.bio06'
p1892
sg12
I163
sg13
S'bio06'
p1893
sg15
S'Min Temperature of Coldest Month'
p1894
sg17
S'45'
p1895
sg19
S'ac4570'
p1896
sg21
S'../views/GTiff/clim.ac4570.bio06.tif'
p1897
sg23
S'climate'
p1898
sg25
S'clim.ac4570.bio06'
p1899
sg27
S'6291'
p1900
sg29
S'Min Temperature of Coldest Month AC RCP45 2070'
p1901
sg31
g32
sg33
g34
sg35
S'clim.ac4570.bio06.tif'
p1902
sg37
S'clim'
p1903
sg39
g40
sg41
I4326
sg42
S'2070'
p1904
ssS'bio09'
p1905
(dp1906
g8
S'2015-03-13 09:01:24'
p1907
sg10
S'ac4570.bio09'
p1908
sg12
I175
sg13
S'bio09'
p1909
sg15
S'Mean Temperature of Driest Quarter'
p1910
sg17
S'45'
p1911
sg19
S'ac4570'
p1912
sg21
S'../views/GTiff/clim.ac4570.bio09.tif'
p1913
sg23
S'climate'
p1914
sg25
S'clim.ac4570.bio09'
p1915
sg27
S'6300'
p1916
sg29
S'Mean Temperature of Driest Quarter AC RCP45 2070'
p1917
sg31
g32
sg33
g34
sg35
S'clim.ac4570.bio09.tif'
p1918
sg37
S'clim'
p1919
sg39
g40
sg41
I4326
sg42
S'2070'
p1920
ssS'bio12'
p1921
(dp1922
g8
S'2015-03-13 09:01:24'
p1923
sg10
S'ac4570.bio12'
p1924
sg12
I210
sg13
S'bio12'
p1925
sg15
S'Annual Precipitation'
p1926
sg17
S'45'
p1927
sg19
S'ac4570'
p1928
sg21
S'../views/GTiff/clim.ac4570.bio12.tif'
p1929
sg23
S'climate'
p1930
sg25
S'clim.ac4570.bio12'
p1931
sg27
S'6289'
p1932
sg29
S'Annual Precipitation AC RCP45 2070'
p1933
sg31
g32
sg33
g34
sg35
S'clim.ac4570.bio12.tif'
p1934
sg37
S'clim'
p1935
sg39
g40
sg41
I4326
sg42
S'2070'
p1936
ssS'bio10'
p1937
(dp1938
g8
S'2015-03-13 09:01:24'
p1939
sg10
S'ac4570.bio10'
p1940
sg12
I42
sg13
S'bio10'
p1941
sg15
S'Mean Temperature of Warmest Quarter'
p1942
sg17
S'45'
p1943
sg19
S'ac4570'
p1944
sg21
S'../views/GTiff/clim.ac4570.bio10.tif'
p1945
sg23
S'climate'
p1946
sg25
S'clim.ac4570.bio10'
p1947
sg27
S'6283'
p1948
sg29
S'Mean Temperature of Warmest Quarter AC RCP45 2070'
p1949
sg31
g32
sg33
g34
sg35
S'clim.ac4570.bio10.tif'
p1950
sg37
S'clim'
p1951
sg39
g40
sg41
I4326
sg42
S'2070'
p1952
ssS'bio11'
p1953
(dp1954
g8
S'2015-03-13 09:01:24'
p1955
sg10
S'ac4570.bio11'
p1956
sg12
I63
sg13
S'bio11'
p1957
sg15
S'Mean Temperature of Coldest Quarter'
p1958
sg17
S'45'
p1959
sg19
S'ac4570'
p1960
sg21
S'../views/GTiff/clim.ac4570.bio11.tif'
p1961
sg23
S'climate'
p1962
sg25
S'clim.ac4570.bio11'
p1963
sg27
S'6286'
p1964
sg29
S'Mean Temperature of Coldest Quarter AC RCP45 2070'
p1965
sg31
g32
sg33
g34
sg35
S'clim.ac4570.bio11.tif'
p1966
sg37
S'clim'
p1967
sg39
g40
sg41
I4326
sg42
S'2070'
p1968
ssS'bio05'
p1969
(dp1970
g8
S'2015-03-13 09:01:24'
p1971
sg10
S'ac4570.bio05'
p1972
sg12
I89
sg13
S'bio05'
p1973
sg15
S'Max Temperature of Warmest Month'
p1974
sg17
S'45'
p1975
sg19
S'ac4570'
p1976
sg21
S'../views/GTiff/clim.ac4570.bio05.tif'
p1977
sg23
S'climate'
p1978
sg25
S'clim.ac4570.bio05'
p1979
sg27
S'6292'
p1980
sg29
S'Max Temperature of Warmest Month AC RCP45 2070'
p1981
sg31
g32
sg33
g34
sg35
S'clim.ac4570.bio05.tif'
p1982
sg37
S'clim'
p1983
sg39
g40
sg41
I4326
sg42
S'2070'
p1984
ssS'bio13'
p1985
(dp1986
g8
S'2015-03-13 09:01:24'
p1987
sg10
S'ac4570.bio13'
p1988
sg12
I91
sg13
S'bio13'
p1989
sg15
S'Precipitation of Wettest Month'
p1990
sg17
S'45'
p1991
sg19
S'ac4570'
p1992
sg21
S'../views/GTiff/clim.ac4570.bio13.tif'
p1993
sg23
S'climate'
p1994
sg25
S'clim.ac4570.bio13'
p1995
sg27
S'6285'
p1996
sg29
S'Precipitation of Wettest Month AC RCP45 2070'
p1997
sg31
g32
sg33
g34
sg35
S'clim.ac4570.bio13.tif'
p1998
sg37
S'clim'
p1999
sg39
g40
sg41
I4326
sg42
S'2070'
p2000
ssS'bio14'
p2001
(dp2002
g8
S'2015-03-13 09:01:24'
p2003
sg10
S'ac4570.bio14'
p2004
sg12
I144
sg13
S'bio14'
p2005
sg15
S'Precipitation of Driest Month'
p2006
sg17
S'45'
p2007
sg19
S'ac4570'
p2008
sg21
S'../views/GTiff/clim.ac4570.bio14.tif'
p2009
sg23
S'climate'
p2010
sg25
S'clim.ac4570.bio14'
p2011
sg27
S'6299'
p2012
sg29
S'Precipitation of Driest Month AC RCP45 2070'
p2013
sg31
g32
sg33
g34
sg35
S'clim.ac4570.bio14.tif'
p2014
sg37
S'clim'
p2015
sg39
g40
sg41
I4326
sg42
S'2070'
p2016
ssS'bio15'
p2017
(dp2018
g8
S'2015-03-13 09:01:24'
p2019
sg10
S'ac4570.bio15'
p2020
sg12
I112
sg13
S'bio15'
p2021
sg15
S'Precipitation Seasonality (Coefficient of Variation)'
p2022
sg17
S'45'
p2023
sg19
S'ac4570'
p2024
sg21
S'../views/GTiff/clim.ac4570.bio15.tif'
p2025
sg23
S'climate'
p2026
sg25
S'clim.ac4570.bio15'
p2027
sg27
S'6288'
p2028
sg29
S'Precipitation Seasonality (Coefficient of Variation) AC RCP45 2070'
p2029
sg31
g32
sg33
g34
sg35
S'clim.ac4570.bio15.tif'
p2030
sg37
S'clim'
p2031
sg39
g40
sg41
I4326
sg42
S'2070'
p2032
ssS'bio16'
p2033
(dp2034
g8
S'2015-03-13 09:01:24'
p2035
sg10
S'ac4570.bio16'
p2036
sg12
I47
sg13
S'bio16'
p2037
sg15
S'Precipitation of Wettest Quarter'
p2038
sg17
S'45'
p2039
sg19
S'ac4570'
p2040
sg21
S'../views/GTiff/clim.ac4570.bio16.tif'
p2041
sg23
S'climate'
p2042
sg25
S'clim.ac4570.bio16'
p2043
sg27
S'6287'
p2044
sg29
S'Precipitation of Wettest Quarter AC RCP45 2070'
p2045
sg31
g32
sg33
g34
sg35
S'clim.ac4570.bio16.tif'
p2046
sg37
S'clim'
p2047
sg39
g40
sg41
I4326
sg42
S'2070'
p2048
ssS'bio17'
p2049
(dp2050
g8
S'2015-03-13 09:01:24'
p2051
sg10
S'ac4570.bio17'
p2052
sg12
I241
sg13
S'bio17'
p2053
sg15
S'Precipitation of Driest Quarter'
p2054
sg17
S'45'
p2055
sg19
S'ac4570'
p2056
sg21
S'../views/GTiff/clim.ac4570.bio17.tif'
p2057
sg23
S'climate'
p2058
sg25
S'clim.ac4570.bio17'
p2059
sg27
S'6297'
p2060
sg29
S'Precipitation of Driest Quarter AC RCP45 2070'
p2061
sg31
g32
sg33
g34
sg35
S'clim.ac4570.bio17.tif'
p2062
sg37
S'clim'
p2063
sg39
g40
sg41
I4326
sg42
S'2070'
p2064
ssS'bio18'
p2065
(dp2066
g8
S'2015-03-13 09:01:24'
p2067
sg10
S'ac4570.bio18'
p2068
sg12
I179
sg13
S'bio18'
p2069
sg15
S'Precipitation of Warmest Quarter'
p2070
sg17
S'45'
p2071
sg19
S'ac4570'
p2072
sg21
S'../views/GTiff/clim.ac4570.bio18.tif'
p2073
sg23
S'climate'
p2074
sg25
S'clim.ac4570.bio18'
p2075
sg27
S'6298'
p2076
sg29
S'Precipitation of Warmest Quarter AC RCP45 2070'
p2077
sg31
g32
sg33
g34
sg35
S'clim.ac4570.bio18.tif'
p2078
sg37
S'clim'
p2079
sg39
g40
sg41
I4326
sg42
S'2070'
p2080
ssS'bio19'
p2081
(dp2082
g8
S'2015-03-13 09:01:24'
p2083
sg10
S'ac4570.bio19'
p2084
sg12
I27
sg13
S'bio19'
p2085
sg15
S'Precipitation of Coldest Quarter'
p2086
sg17
S'45'
p2087
sg19
g1855
sg21
S'../views/GTiff/clim.ac4570.bio19.tif'
p2088
sg23
S'climate'
p2089
sg25
S'clim.ac4570.bio19'
p2090
sg27
S'6284'
p2091
sg29
S'Precipitation of Coldest Quarter AC RCP45 2070'
p2092
sg31
g32
sg33
g34
sg35
S'clim.ac4570.bio19.tif'
p2093
sg37
S'clim'
p2094
sg39
g40
sg41
I4326
sg42
S'2070'
p2095
ssS'bio02'
p2096
(dp2097
g8
S'2015-03-13 09:01:24'
p2098
sg10
S'ac4570.bio02'
p2099
sg12
I325
sg13
S'bio02'
p2100
sg15
S'Mean Diurnal Range (Mean of monthly (max temp - min temp))'
p2101
sg17
S'45'
p2102
sg19
S'ac4570'
p2103
sg21
S'../views/GTiff/clim.ac4570.bio02.tif'
p2104
sg23
S'climate'
p2105
sg25
S'clim.ac4570.bio02'
p2106
sg27
S'6295'
p2107
sg29
S'Mean Diurnal Range (Mean of monthly (max temp - min temp)) AC RCP45 2070'
p2108
sg31
g32
sg33
g34
sg35
S'clim.ac4570.bio02.tif'
p2109
sg37
S'clim'
p2110
sg39
g40
sg41
I4326
sg42
S'2070'
p2111
ssS'bio03'
p2112
(dp2113
g8
S'2015-03-13 09:01:24'
p2114
sg10
S'ac4570.bio03'
p2115
sg12
I305
sg13
S'bio03'
p2116
sg15
S'Isothermality (BIO2/BIO7) (* 100)'
p2117
sg17
S'45'
p2118
sg19
S'ac4570'
p2119
sg21
S'../views/GTiff/clim.ac4570.bio03.tif'
p2120
sg23
S'climate'
p2121
sg25
S'clim.ac4570.bio03'
p2122
sg27
S'6294'
p2123
sg29
S'Isothermality (BIO2/BIO7) (* 100) AC RCP45 2070'
p2124
sg31
g32
sg33
g34
sg35
S'clim.ac4570.bio03.tif'
p2125
sg37
S'clim'
p2126
sg39
g40
sg41
I4326
sg42
S'2070'
p2127
ssS'bio04'
p2128
(dp2129
g8
S'2015-03-13 09:01:24'
p2130
sg10
S'ac4570.bio04'
p2131
sg12
I165
sg13
S'bio04'
p2132
sg15
S'Temperature Seasonality (standard deviation *100)'
p2133
sg17
S'45'
p2134
sg19
S'ac4570'
p2135
sg21
S'../views/GTiff/clim.ac4570.bio04.tif'
p2136
sg23
S'climate'
p2137
sg25
S'clim.ac4570.bio04'
p2138
sg27
S'6293'
p2139
sg29
S'Temperature Seasonality (standard deviation *100) AC RCP45 2070'
p2140
sg31
g32
sg33
g34
sg35
S'clim.ac4570.bio04.tif'
p2141
sg37
S'clim'
p2142
sg39
g40
sg41
I4326
sg42
S'2070'
p2143
ssS'bio08'
p2144
(dp2145
g8
S'2015-03-13 09:01:24'
p2146
sg10
S'ac4570.bio08'
p2147
sg12
I31
sg13
S'bio08'
p2148
sg15
S'Mean Temperature of Wettest Quarter'
p2149
sg17
S'45'
p2150
sg19
S'ac4570'
p2151
sg21
S'../views/GTiff/clim.ac4570.bio08.tif'
p2152
sg23
S'climate'
p2153
sg25
S'clim.ac4570.bio08'
p2154
sg27
S'6301'
p2155
sg29
S'Mean Temperature of Wettest Quarter AC RCP45 2070'
p2156
sg31
g32
sg33
g34
sg35
S'clim.ac4570.bio08.tif'
p2157
sg37
S'clim'
p2158
sg39
g40
sg41
I4326
sg42
S'2070'
p2159
sssS'current'
p2160
(dp2161
S'bio10'
p2162
(dp2163
g8
S'2015-03-13 09:01:24'
p2164
sg10
S'current.bio10'
p2165
sg12
I109
sg13
S'bio10'
p2166
sg15
S'Mean Temperature of Warmest Quarter'
p2167
sg17
S'current'
p2168
sg19
S'current'
p2169
sg21
S'../views/GTiff/clim.current.bio10.tif'
p2170
sg23
S'climate'
p2171
sg25
S'clim.current.bio10'
p2172
sg27
S'6264'
p2173
sg29
S'Mean Temperature of Warmest Quarter Current Climate 1960-2000'
p2174
sg31
g32
sg33
g34
sg35
S'clim.current.bio10.tif'
p2175
sg37
S'clim'
p2176
sg39
g40
sg41
I4326
sg42
S'current'
p2177
ssS'bio16'
p2178
(dp2179
g8
S'2015-03-13 09:01:24'
p2180
sg10
S'current.bio16'
p2181
sg12
I237
sg13
S'bio16'
p2182
sg15
S'Precipitation of Wettest Quarter'
p2183
sg17
S'current'
p2184
sg19
S'current'
p2185
sg21
S'../views/GTiff/clim.current.bio16.tif'
p2186
sg23
S'climate'
p2187
sg25
S'clim.current.bio16'
p2188
sg27
S'6268'
p2189
sg29
S'Precipitation of Wettest Quarter Current Climate 1960-2000'
p2190
sg31
g32
sg33
g34
sg35
S'clim.current.bio16.tif'
p2191
sg37
S'clim'
p2192
sg39
g40
sg41
I4326
sg42
S'current'
p2193
ssS'bio11'
p2194
(dp2195
g8
S'2015-03-13 09:01:24'
p2196
sg10
S'current.bio11'
p2197
sg12
I339
sg13
S'bio11'
p2198
sg15
S'Mean Temperature of Coldest Quarter'
p2199
sg17
S'current'
p2200
sg19
S'current'
p2201
sg21
S'../views/GTiff/clim.current.bio11.tif'
p2202
sg23
S'climate'
p2203
sg25
S'clim.current.bio11'
p2204
sg27
S'6267'
p2205
sg29
S'Mean Temperature of Coldest Quarter Current Climate 1960-2000'
p2206
sg31
g32
sg33
g34
sg35
S'clim.current.bio11.tif'
p2207
sg37
S'clim'
p2208
sg39
g40
sg41
I4326
sg42
S'current'
p2209
ssS'bio15'
p2210
(dp2211
g8
S'2015-03-13 09:01:24'
p2212
sg10
S'current.bio15'
p2213
sg12
I341
sg13
S'bio15'
p2214
sg15
S'Precipitation Seasonality (Coefficient of Variation)'
p2215
sg17
S'current'
p2216
sg19
S'current'
p2217
sg21
S'../views/GTiff/clim.current.bio15.tif'
p2218
sg23
S'climate'
p2219
sg25
S'clim.current.bio15'
p2220
sg27
S'6269'
p2221
sg29
S'Precipitation Seasonality (Coefficient of Variation) Current Climate 1960-2000'
p2222
sg31
g32
sg33
g34
sg35
S'clim.current.bio15.tif'
p2223
sg37
S'clim'
p2224
sg39
g40
sg41
I4326
sg42
S'current'
p2225
ssS'bio12'
p2226
(dp2227
g8
S'2015-03-13 09:01:24'
p2228
sg10
S'current.bio12'
p2229
sg12
I326
sg13
S'bio12'
p2230
sg15
S'Annual Precipitation'
p2231
sg17
S'current'
p2232
sg19
S'current'
p2233
sg21
S'../views/GTiff/clim.current.bio12.tif'
p2234
sg23
S'climate'
p2235
sg25
S'clim.current.bio12'
p2236
sg27
S'6270'
p2237
sg29
S'Annual Precipitation Current Climate 1960-2000'
p2238
sg31
g32
sg33
g34
sg35
S'clim.current.bio12.tif'
p2239
sg37
S'clim'
p2240
sg39
g40
sg41
I4326
sg42
S'current'
p2241
ssS'bio07'
p2242
(dp2243
g8
S'2015-03-13 09:01:24'
p2244
sg10
S'current.bio07'
p2245
sg12
I43
sg13
S'bio07'
p2246
sg15
S'Temperature Annual Range (BIO5-BIO6)'
p2247
sg17
S'current'
p2248
sg19
S'current'
p2249
sg21
S'../views/GTiff/clim.current.bio07.tif'
p2250
sg23
S'climate'
p2251
sg25
S'clim.current.bio07'
p2252
sg27
S'6271'
p2253
sg29
S'Temperature Annual Range (BIO5-BIO6) Current Climate 1960-2000'
p2254
sg31
g32
sg33
g34
sg35
S'clim.current.bio07.tif'
p2255
sg37
S'clim'
p2256
sg39
g40
sg41
I4326
sg42
S'current'
p2257
ssS'bio06'
p2258
(dp2259
g8
S'2015-03-13 09:01:24'
p2260
sg10
S'current.bio06'
p2261
sg12
I28
sg13
S'bio06'
p2262
sg15
S'Min Temperature of Coldest Month'
p2263
sg17
S'current'
p2264
sg19
S'current'
p2265
sg21
S'../views/GTiff/clim.current.bio06.tif'
p2266
sg23
S'climate'
p2267
sg25
S'clim.current.bio06'
p2268
sg27
S'6272'
p2269
sg29
S'Min Temperature of Coldest Month Current Climate 1960-2000'
p2270
sg31
g32
sg33
g34
sg35
S'clim.current.bio06.tif'
p2271
sg37
S'clim'
p2272
sg39
g40
sg41
I4326
sg42
S'current'
p2273
ssS'bio05'
p2274
(dp2275
g8
S'2015-03-13 09:01:24'
p2276
sg10
S'current.bio05'
p2277
sg12
I119
sg13
S'bio05'
p2278
sg15
S'Max Temperature of Warmest Month'
p2279
sg17
S'current'
p2280
sg19
S'current'
p2281
sg21
S'../views/GTiff/clim.current.bio05.tif'
p2282
sg23
S'climate'
p2283
sg25
S'clim.current.bio05'
p2284
sg27
S'6273'
p2285
sg29
S'Max Temperature of Warmest Month Current Climate 1960-2000'
p2286
sg31
g32
sg33
g34
sg35
S'clim.current.bio05.tif'
p2287
sg37
S'clim'
p2288
sg39
g40
sg41
I4326
sg42
S'current'
p2289
ssS'bio13'
p2290
(dp2291
g8
S'2015-03-13 09:01:24'
p2292
sg10
S'current.bio13'
p2293
sg12
I38
sg13
S'bio13'
p2294
sg15
S'Precipitation of Wettest Month'
p2295
sg17
S'current'
p2296
sg19
S'current'
p2297
sg21
S'../views/GTiff/clim.current.bio13.tif'
p2298
sg23
S'climate'
p2299
sg25
S'clim.current.bio13'
p2300
sg27
S'6266'
p2301
sg29
S'Precipitation of Wettest Month Current Climate 1960-2000'
p2302
sg31
g32
sg33
g34
sg35
S'clim.current.bio13.tif'
p2303
sg37
S'clim'
p2304
sg39
g40
sg41
I4326
sg42
S'current'
p2305
ssS'bio14'
p2306
(dp2307
g8
S'2015-03-13 09:01:24'
p2308
sg10
S'current.bio14'
p2309
sg12
I8
sg13
S'bio14'
p2310
sg15
S'Precipitation of Driest Month'
p2311
sg17
S'current'
p2312
sg19
S'current'
p2313
sg21
S'../views/GTiff/clim.current.bio14.tif'
p2314
sg23
S'climate'
p2315
sg25
S'clim.current.bio14'
p2316
sg27
S'6280'
p2317
sg29
S'Precipitation of Driest Month Current Climate 1960-2000'
p2318
sg31
g32
sg33
g34
sg35
S'clim.current.bio14.tif'
p2319
sg37
S'clim'
p2320
sg39
g40
sg41
I4326
sg42
S'current'
p2321
ssS'bio02'
p2322
(dp2323
g8
S'2015-03-13 09:01:24'
p2324
sg10
S'current.bio02'
p2325
sg12
I267
sg13
S'bio02'
p2326
sg15
S'Mean Diurnal Range (Mean of monthly (max temp - min temp))'
p2327
sg17
S'current'
p2328
sg19
S'current'
p2329
sg21
S'../views/GTiff/clim.current.bio02.tif'
p2330
sg23
S'climate'
p2331
sg25
S'clim.current.bio02'
p2332
sg27
S'6276'
p2333
sg29
S'Mean Diurnal Range (Mean of monthly (max temp - min temp)) Current Climate 1960-2000'
p2334
sg31
g32
sg33
g34
sg35
S'clim.current.bio02.tif'
p2335
sg37
S'clim'
p2336
sg39
g40
sg41
I4326
sg42
S'current'
p2337
ssS'bio01'
p2338
(dp2339
g8
S'2015-03-13 09:01:24'
p2340
sg10
S'current.bio01'
p2341
sg12
I4
sg13
S'bio01'
p2342
sg15
S'Annual Mean Temperature'
p2343
sg17
S'current'
p2344
sg19
g2160
sg21
S'../views/GTiff/clim.current.bio01.tif'
p2345
sg23
S'climate'
p2346
sg25
S'clim.current.bio01'
p2347
sg27
S'6277'
p2348
sg29
S'Annual Mean Temperature Current Climate 1960-2000'
p2349
sg31
g32
sg33
g34
sg35
S'clim.current.bio01.tif'
p2350
sg37
S'clim'
p2351
sg39
g40
sg41
I4326
sg42
S'current'
p2352
ssS'bio17'
p2353
(dp2354
g8
S'2015-03-13 09:01:24'
p2355
sg10
S'current.bio17'
p2356
sg12
I18
sg13
S'bio17'
p2357
sg15
S'Precipitation of Driest Quarter'
p2358
sg17
S'current'
p2359
sg19
S'current'
p2360
sg21
S'../views/GTiff/clim.current.bio17.tif'
p2361
sg23
S'climate'
p2362
sg25
S'clim.current.bio17'
p2363
sg27
S'6278'
p2364
sg29
S'Precipitation of Driest Quarter Current Climate 1960-2000'
p2365
sg31
g32
sg33
g34
sg35
S'clim.current.bio17.tif'
p2366
sg37
S'clim'
p2367
sg39
g40
sg41
I4326
sg42
S'current'
p2368
ssS'bio18'
p2369
(dp2370
g8
S'2015-03-13 09:01:24'
p2371
sg10
S'current.bio18'
p2372
sg12
I126
sg13
S'bio18'
p2373
sg15
S'Precipitation of Warmest Quarter'
p2374
sg17
S'current'
p2375
sg19
S'current'
p2376
sg21
S'../views/GTiff/clim.current.bio18.tif'
p2377
sg23
S'climate'
p2378
sg25
S'clim.current.bio18'
p2379
sg27
S'6279'
p2380
sg29
S'Precipitation of Warmest Quarter Current Climate 1960-2000'
p2381
sg31
g32
sg33
g34
sg35
S'clim.current.bio18.tif'
p2382
sg37
S'clim'
p2383
sg39
g40
sg41
I4326
sg42
S'current'
p2384
ssS'bio19'
p2385
(dp2386
g8
S'2015-03-13 09:01:24'
p2387
sg10
S'current.bio19'
p2388
sg12
I67
sg13
S'bio19'
p2389
sg15
S'Precipitation of Coldest Quarter'
p2390
sg17
S'current'
p2391
sg19
S'current'
p2392
sg21
S'../views/GTiff/clim.current.bio19.tif'
p2393
sg23
S'climate'
p2394
sg25
S'clim.current.bio19'
p2395
sg27
S'6265'
p2396
sg29
S'Precipitation of Coldest Quarter Current Climate 1960-2000'
p2397
sg31
g32
sg33
g34
sg35
S'clim.current.bio19.tif'
p2398
sg37
S'clim'
p2399
sg39
g40
sg41
I4326
sg42
S'current'
p2400
ssS'bio04'
p2401
(dp2402
g8
S'2015-03-13 09:01:24'
p2403
sg10
S'current.bio04'
p2404
sg12
I152
sg13
S'bio04'
p2405
sg15
S'Temperature Seasonality (standard deviation *100)'
p2406
sg17
S'current'
p2407
sg19
S'current'
p2408
sg21
S'../views/GTiff/clim.current.bio04.tif'
p2409
sg23
S'climate'
p2410
sg25
S'clim.current.bio04'
p2411
sg27
S'6274'
p2412
sg29
S'Temperature Seasonality (standard deviation *100) Current Climate 1960-2000'
p2413
sg31
g32
sg33
g34
sg35
S'clim.current.bio04.tif'
p2414
sg37
S'clim'
p2415
sg39
g40
sg41
I4326
sg42
S'current'
p2416
ssS'bio03'
p2417
(dp2418
g8
S'2015-03-13 09:01:24'
p2419
sg10
S'current.bio03'
p2420
sg12
I94
sg13
S'bio03'
p2421
sg15
S'Isothermality (BIO2/BIO7) (* 100)'
p2422
sg17
S'current'
p2423
sg19
S'current'
p2424
sg21
S'../views/GTiff/clim.current.bio03.tif'
p2425
sg23
S'climate'
p2426
sg25
S'clim.current.bio03'
p2427
sg27
S'6275'
p2428
sg29
S'Isothermality (BIO2/BIO7) (* 100) Current Climate 1960-2000'
p2429
sg31
g32
sg33
g34
sg35
S'clim.current.bio03.tif'
p2430
sg37
S'clim'
p2431
sg39
g40
sg41
I4326
sg42
S'current'
p2432
ssS'bio09'
p2433
(dp2434
g8
S'2015-03-13 09:01:24'
p2435
sg10
S'current.bio09'
p2436
sg12
I7
sg13
S'bio09'
p2437
sg15
S'Mean Temperature of Driest Quarter'
p2438
sg17
S'current'
p2439
sg19
S'current'
p2440
sg21
S'../views/GTiff/clim.current.bio09.tif'
p2441
sg23
S'climate'
p2442
sg25
S'clim.current.bio09'
p2443
sg27
S'6281'
p2444
sg29
S'Mean Temperature of Driest Quarter Current Climate 1960-2000'
p2445
sg31
g32
sg33
g34
sg35
S'clim.current.bio09.tif'
p2446
sg37
S'clim'
p2447
sg39
g40
sg41
I4326
sg42
S'current'
p2448
ssS'bio08'
p2449
(dp2450
g8
S'2015-03-13 09:01:24'
p2451
sg10
S'current.bio08'
p2452
sg12
I136
sg13
S'bio08'
p2453
sg15
S'Mean Temperature of Wettest Quarter'
p2454
sg17
S'current'
p2455
sg19
S'current'
p2456
sg21
S'../views/GTiff/clim.current.bio08.tif'
p2457
sg23
S'climate'
p2458
sg25
S'clim.current.bio08'
p2459
sg27
S'6282'
p2460
sg29
S'Mean Temperature of Wettest Quarter Current Climate 1960-2000'
p2461
sg31
g32
sg33
g34
sg35
S'clim.current.bio08.tif'
p2462
sg37
S'clim'
p2463
sg39
g40
sg41
I4326
sg42
S'current'
p2464
sssS'he6050'
p2465
(dp2466
S'bio10'
p2467
(dp2468
g8
S'2015-03-13 09:01:24'
p2469
sg10
S'he6050.bio10'
p2470
sg12
I234
sg13
S'bio10'
p2471
sg15
S'Mean Temperature of Warmest Quarter'
p2472
sg17
S'60'
p2473
sg19
S'he6050'
p2474
sg21
S'../views/GTiff/clim.he6050.bio10.tif'
p2475
sg23
S'climate'
p2476
sg25
S'clim.he6050.bio10'
p2477
sg27
S'6245'
p2478
sg29
S'Mean Temperature of Warmest Quarter HE RCP60 2050'
p2479
sg31
g32
sg33
g34
sg35
S'clim.he6050.bio10.tif'
p2480
sg37
S'clim'
p2481
sg39
g40
sg41
I4326
sg42
S'2050'
p2482
ssS'bio13'
p2483
(dp2484
g8
S'2015-03-13 09:01:24'
p2485
sg10
S'he6050.bio13'
p2486
sg12
I142
sg13
S'bio13'
p2487
sg15
S'Precipitation of Wettest Month'
p2488
sg17
S'60'
p2489
sg19
S'he6050'
p2490
sg21
S'../views/GTiff/clim.he6050.bio13.tif'
p2491
sg23
S'climate'
p2492
sg25
S'clim.he6050.bio13'
p2493
sg27
S'6247'
p2494
sg29
S'Precipitation of Wettest Month HE RCP60 2050'
p2495
sg31
g32
sg33
g34
sg35
S'clim.he6050.bio13.tif'
p2496
sg37
S'clim'
p2497
sg39
g40
sg41
I4326
sg42
S'2050'
p2498
ssS'bio06'
p2499
(dp2500
g8
S'2015-03-13 09:01:24'
p2501
sg10
S'he6050.bio06'
p2502
sg12
I314
sg13
S'bio06'
p2503
sg15
S'Min Temperature of Coldest Month'
p2504
sg17
S'60'
p2505
sg19
S'he6050'
p2506
sg21
S'../views/GTiff/clim.he6050.bio06.tif'
p2507
sg23
S'climate'
p2508
sg25
S'clim.he6050.bio06'
p2509
sg27
S'6253'
p2510
sg29
S'Min Temperature of Coldest Month HE RCP60 2050'
p2511
sg31
g32
sg33
g34
sg35
S'clim.he6050.bio06.tif'
p2512
sg37
S'clim'
p2513
sg39
g40
sg41
I4326
sg42
S'2050'
p2514
ssS'bio16'
p2515
(dp2516
g8
S'2015-03-13 09:01:24'
p2517
sg10
S'he6050.bio16'
p2518
sg12
I196
sg13
S'bio16'
p2519
sg15
S'Precipitation of Wettest Quarter'
p2520
sg17
S'60'
p2521
sg19
S'he6050'
p2522
sg21
S'../views/GTiff/clim.he6050.bio16.tif'
p2523
sg23
S'climate'
p2524
sg25
S'clim.he6050.bio16'
p2525
sg27
S'6249'
p2526
sg29
S'Precipitation of Wettest Quarter HE RCP60 2050'
p2527
sg31
g32
sg33
g34
sg35
S'clim.he6050.bio16.tif'
p2528
sg37
S'clim'
p2529
sg39
g40
sg41
I4326
sg42
S'2050'
p2530
ssS'bio12'
p2531
(dp2532
g8
S'2015-03-13 09:01:24'
p2533
sg10
S'he6050.bio12'
p2534
sg12
I271
sg13
S'bio12'
p2535
sg15
S'Annual Precipitation'
p2536
sg17
S'60'
p2537
sg19
S'he6050'
p2538
sg21
S'../views/GTiff/clim.he6050.bio12.tif'
p2539
sg23
S'climate'
p2540
sg25
S'clim.he6050.bio12'
p2541
sg27
S'6251'
p2542
sg29
S'Annual Precipitation HE RCP60 2050'
p2543
sg31
g32
sg33
g34
sg35
S'clim.he6050.bio12.tif'
p2544
sg37
S'clim'
p2545
sg39
g40
sg41
I4326
sg42
S'2050'
p2546
ssS'bio07'
p2547
(dp2548
g8
S'2015-03-13 09:01:24'
p2549
sg10
S'he6050.bio07'
p2550
sg12
I33
sg13
S'bio07'
p2551
sg15
S'Temperature Annual Range (BIO5-BIO6)'
p2552
sg17
S'60'
p2553
sg19
S'he6050'
p2554
sg21
S'../views/GTiff/clim.he6050.bio07.tif'
p2555
sg23
S'climate'
p2556
sg25
S'clim.he6050.bio07'
p2557
sg27
S'6252'
p2558
sg29
S'Temperature Annual Range (BIO5-BIO6) HE RCP60 2050'
p2559
sg31
g32
sg33
g34
sg35
S'clim.he6050.bio07.tif'
p2560
sg37
S'clim'
p2561
sg39
g40
sg41
I4326
sg42
S'2050'
p2562
ssS'bio11'
p2563
(dp2564
g8
S'2015-03-13 09:01:24'
p2565
sg10
S'he6050.bio11'
p2566
sg12
I150
sg13
S'bio11'
p2567
sg15
S'Mean Temperature of Coldest Quarter'
p2568
sg17
S'60'
p2569
sg19
S'he6050'
p2570
sg21
S'../views/GTiff/clim.he6050.bio11.tif'
p2571
sg23
S'climate'
p2572
sg25
S'clim.he6050.bio11'
p2573
sg27
S'6248'
p2574
sg29
S'Mean Temperature of Coldest Quarter HE RCP60 2050'
p2575
sg31
g32
sg33
g34
sg35
S'clim.he6050.bio11.tif'
p2576
sg37
S'clim'
p2577
sg39
g40
sg41
I4326
sg42
S'2050'
p2578
ssS'bio05'
p2579
(dp2580
g8
S'2015-03-13 09:01:24'
p2581
sg10
S'he6050.bio05'
p2582
sg12
I90
sg13
S'bio05'
p2583
sg15
S'Max Temperature of Warmest Month'
p2584
sg17
S'60'
p2585
sg19
S'he6050'
p2586
sg21
S'../views/GTiff/clim.he6050.bio05.tif'
p2587
sg23
S'climate'
p2588
sg25
S'clim.he6050.bio05'
p2589
sg27
S'6254'
p2590
sg29
S'Max Temperature of Warmest Month HE RCP60 2050'
p2591
sg31
g32
sg33
g34
sg35
S'clim.he6050.bio05.tif'
p2592
sg37
S'clim'
p2593
sg39
g40
sg41
I4326
sg42
S'2050'
p2594
ssS'bio04'
p2595
(dp2596
g8
S'2015-03-13 09:01:24'
p2597
sg10
S'he6050.bio04'
p2598
sg12
I128
sg13
S'bio04'
p2599
sg15
S'Temperature Seasonality (standard deviation *100)'
p2600
sg17
S'60'
p2601
sg19
S'he6050'
p2602
sg21
S'../views/GTiff/clim.he6050.bio04.tif'
p2603
sg23
S'climate'
p2604
sg25
S'clim.he6050.bio04'
p2605
sg27
S'6255'
p2606
sg29
S'Temperature Seasonality (standard deviation *100) HE RCP60 2050'
p2607
sg31
g32
sg33
g34
sg35
S'clim.he6050.bio04.tif'
p2608
sg37
S'clim'
p2609
sg39
g40
sg41
I4326
sg42
S'2050'
p2610
ssS'bio14'
p2611
(dp2612
g8
S'2015-03-13 09:01:24'
p2613
sg10
S'he6050.bio14'
p2614
sg12
I231
sg13
S'bio14'
p2615
sg15
S'Precipitation of Driest Month'
p2616
sg17
S'60'
p2617
sg19
S'he6050'
p2618
sg21
S'../views/GTiff/clim.he6050.bio14.tif'
p2619
sg23
S'climate'
p2620
sg25
S'clim.he6050.bio14'
p2621
sg27
S'6261'
p2622
sg29
S'Precipitation of Driest Month HE RCP60 2050'
p2623
sg31
g32
sg33
g34
sg35
S'clim.he6050.bio14.tif'
p2624
sg37
S'clim'
p2625
sg39
g40
sg41
I4326
sg42
S'2050'
p2626
ssS'bio15'
p2627
(dp2628
g8
S'2015-03-13 09:01:24'
p2629
sg10
S'he6050.bio15'
p2630
sg12
I49
sg13
S'bio15'
p2631
sg15
S'Precipitation Seasonality (Coefficient of Variation)'
p2632
sg17
S'60'
p2633
sg19
S'he6050'
p2634
sg21
S'../views/GTiff/clim.he6050.bio15.tif'
p2635
sg23
S'climate'
p2636
sg25
S'clim.he6050.bio15'
p2637
sg27
S'6250'
p2638
sg29
S'Precipitation Seasonality (Coefficient of Variation) HE RCP60 2050'
p2639
sg31
g32
sg33
g34
sg35
S'clim.he6050.bio15.tif'
p2640
sg37
S'clim'
p2641
sg39
g40
sg41
I4326
sg42
S'2050'
p2642
ssS'bio01'
p2643
(dp2644
g8
S'2015-03-13 09:01:24'
p2645
sg10
S'he6050.bio01'
p2646
sg12
I17
sg13
S'bio01'
p2647
sg15
S'Annual Mean Temperature'
p2648
sg17
S'60'
p2649
sg19
S'he6050'
p2650
sg21
S'../views/GTiff/clim.he6050.bio01.tif'
p2651
sg23
S'climate'
p2652
sg25
S'clim.he6050.bio01'
p2653
sg27
S'6258'
p2654
sg29
S'Annual Mean Temperature HE RCP60 2050'
p2655
sg31
g32
sg33
g34
sg35
S'clim.he6050.bio01.tif'
p2656
sg37
S'clim'
p2657
sg39
g40
sg41
I4326
sg42
S'2050'
p2658
ssS'bio17'
p2659
(dp2660
g8
S'2015-03-13 09:01:24'
p2661
sg10
S'he6050.bio17'
p2662
sg12
I13
sg13
S'bio17'
p2663
sg15
S'Precipitation of Driest Quarter'
p2664
sg17
S'60'
p2665
sg19
g2465
sg21
S'../views/GTiff/clim.he6050.bio17.tif'
p2666
sg23
S'climate'
p2667
sg25
S'clim.he6050.bio17'
p2668
sg27
S'6259'
p2669
sg29
S'Precipitation of Driest Quarter HE RCP60 2050'
p2670
sg31
g32
sg33
g34
sg35
S'clim.he6050.bio17.tif'
p2671
sg37
S'clim'
p2672
sg39
g40
sg41
I4326
sg42
S'2050'
p2673
ssS'bio18'
p2674
(dp2675
g8
S'2015-03-13 09:01:24'
p2676
sg10
S'he6050.bio18'
p2677
sg12
I232
sg13
S'bio18'
p2678
sg15
S'Precipitation of Warmest Quarter'
p2679
sg17
S'60'
p2680
sg19
S'he6050'
p2681
sg21
S'../views/GTiff/clim.he6050.bio18.tif'
p2682
sg23
S'climate'
p2683
sg25
S'clim.he6050.bio18'
p2684
sg27
S'6260'
p2685
sg29
S'Precipitation of Warmest Quarter HE RCP60 2050'
p2686
sg31
g32
sg33
g34
sg35
S'clim.he6050.bio18.tif'
p2687
sg37
S'clim'
p2688
sg39
g40
sg41
I4326
sg42
S'2050'
p2689
ssS'bio19'
p2690
(dp2691
g8
S'2015-03-13 09:01:24'
p2692
sg10
S'he6050.bio19'
p2693
sg12
I44
sg13
S'bio19'
p2694
sg15
S'Precipitation of Coldest Quarter'
p2695
sg17
S'60'
p2696
sg19
S'he6050'
p2697
sg21
S'../views/GTiff/clim.he6050.bio19.tif'
p2698
sg23
S'climate'
p2699
sg25
S'clim.he6050.bio19'
p2700
sg27
S'6246'
p2701
sg29
S'Precipitation of Coldest Quarter HE RCP60 2050'
p2702
sg31
g32
sg33
g34
sg35
S'clim.he6050.bio19.tif'
p2703
sg37
S'clim'
p2704
sg39
g40
sg41
I4326
sg42
S'2050'
p2705
ssS'bio02'
p2706
(dp2707
g8
S'2015-03-13 09:01:24'
p2708
sg10
S'he6050.bio02'
p2709
sg12
I171
sg13
S'bio02'
p2710
sg15
S'Mean Diurnal Range (Mean of monthly (max temp - min temp))'
p2711
sg17
S'60'
p2712
sg19
S'he6050'
p2713
sg21
S'../views/GTiff/clim.he6050.bio02.tif'
p2714
sg23
S'climate'
p2715
sg25
S'clim.he6050.bio02'
p2716
sg27
S'6257'
p2717
sg29
S'Mean Diurnal Range (Mean of monthly (max temp - min temp)) HE RCP60 2050'
p2718
sg31
g32
sg33
g34
sg35
S'clim.he6050.bio02.tif'
p2719
sg37
S'clim'
p2720
sg39
g40
sg41
I4326
sg42
S'2050'
p2721
ssS'bio03'
p2722
(dp2723
g8
S'2015-03-13 09:01:24'
p2724
sg10
S'he6050.bio03'
p2725
sg12
I246
sg13
S'bio03'
p2726
sg15
S'Isothermality (BIO2/BIO7) (* 100)'
p2727
sg17
S'60'
p2728
sg19
S'he6050'
p2729
sg21
S'../views/GTiff/clim.he6050.bio03.tif'
p2730
sg23
S'climate'
p2731
sg25
S'clim.he6050.bio03'
p2732
sg27
S'6256'
p2733
sg29
S'Isothermality (BIO2/BIO7) (* 100) HE RCP60 2050'
p2734
sg31
g32
sg33
g34
sg35
S'clim.he6050.bio03.tif'
p2735
sg37
S'clim'
p2736
sg39
g40
sg41
I4326
sg42
S'2050'
p2737
ssS'bio09'
p2738
(dp2739
g8
S'2015-03-13 09:01:24'
p2740
sg10
S'he6050.bio09'
p2741
sg12
I283
sg13
S'bio09'
p2742
sg15
S'Mean Temperature of Driest Quarter'
p2743
sg17
S'60'
p2744
sg19
S'he6050'
p2745
sg21
S'../views/GTiff/clim.he6050.bio09.tif'
p2746
sg23
S'climate'
p2747
sg25
S'clim.he6050.bio09'
p2748
sg27
S'6262'
p2749
sg29
S'Mean Temperature of Driest Quarter HE RCP60 2050'
p2750
sg31
g32
sg33
g34
sg35
S'clim.he6050.bio09.tif'
p2751
sg37
S'clim'
p2752
sg39
g40
sg41
I4326
sg42
S'2050'
p2753
ssS'bio08'
p2754
(dp2755
g8
S'2015-03-13 09:01:24'
p2756
sg10
S'he6050.bio08'
p2757
sg12
I53
sg13
S'bio08'
p2758
sg15
S'Mean Temperature of Wettest Quarter'
p2759
sg17
S'60'
p2760
sg19
S'he6050'
p2761
sg21
S'../views/GTiff/clim.he6050.bio08.tif'
p2762
sg23
S'climate'
p2763
sg25
S'clim.he6050.bio08'
p2764
sg27
S'6263'
p2765
sg29
S'Mean Temperature of Wettest Quarter HE RCP60 2050'
p2766
sg31
g32
sg33
g34
sg35
S'clim.he6050.bio08.tif'
p2767
sg37
S'clim'
p2768
sg39
g40
sg41
I4326
sg42
S'2050'
p2769
sssS'gd4570'
p2770
(dp2771
S'bio05'
p2772
(dp2773
g8
S'2015-03-13 09:01:24'
p2774
sg10
S'gd4570.bio05'
p2775
sg12
I258
sg13
S'bio05'
p2776
sg15
S'Max Temperature of Warmest Month'
p2777
sg17
S'45'
p2778
sg19
S'gd4570'
p2779
sg21
S'../views/GTiff/clim.gd4570.bio05.tif'
p2780
sg23
S'climate'
p2781
sg25
S'clim.gd4570.bio05'
p2782
sg27
S'6311'
p2783
sg29
S'Max Temperature of Warmest Month GD RCP45 2070'
p2784
sg31
g32
sg33
g34
sg35
S'clim.gd4570.bio05.tif'
p2785
sg37
S'clim'
p2786
sg39
g40
sg41
I4326
sg42
S'2070'
p2787
ssS'bio07'
p2788
(dp2789
g8
S'2015-03-13 09:01:24'
p2790
sg10
S'gd4570.bio07'
p2791
sg12
I298
sg13
S'bio07'
p2792
sg15
S'Temperature Annual Range (BIO5-BIO6)'
p2793
sg17
S'45'
p2794
sg19
S'gd4570'
p2795
sg21
S'../views/GTiff/clim.gd4570.bio07.tif'
p2796
sg23
S'climate'
p2797
sg25
S'clim.gd4570.bio07'
p2798
sg27
S'6309'
p2799
sg29
S'Temperature Annual Range (BIO5-BIO6) GD RCP45 2070'
p2800
sg31
g32
sg33
g34
sg35
S'clim.gd4570.bio07.tif'
p2801
sg37
S'clim'
p2802
sg39
g40
sg41
I4326
sg42
S'2070'
p2803
ssS'bio01'
p2804
(dp2805
g8
S'2015-03-13 09:01:24'
p2806
sg10
S'gd4570.bio01'
p2807
sg12
I225
sg13
S'bio01'
p2808
sg15
S'Annual Mean Temperature'
p2809
sg17
S'45'
p2810
sg19
S'gd4570'
p2811
sg21
S'../views/GTiff/clim.gd4570.bio01.tif'
p2812
sg23
S'climate'
p2813
sg25
S'clim.gd4570.bio01'
p2814
sg27
S'6315'
p2815
sg29
S'Annual Mean Temperature GD RCP45 2070'
p2816
sg31
g32
sg33
g34
sg35
S'clim.gd4570.bio01.tif'
p2817
sg37
S'clim'
p2818
sg39
g40
sg41
I4326
sg42
S'2070'
p2819
ssS'bio06'
p2820
(dp2821
g8
S'2015-03-13 09:01:24'
p2822
sg10
S'gd4570.bio06'
p2823
sg12
I100
sg13
S'bio06'
p2824
sg15
S'Min Temperature of Coldest Month'
p2825
sg17
S'45'
p2826
sg19
S'gd4570'
p2827
sg21
S'../views/GTiff/clim.gd4570.bio06.tif'
p2828
sg23
S'climate'
p2829
sg25
S'clim.gd4570.bio06'
p2830
sg27
S'6310'
p2831
sg29
S'Min Temperature of Coldest Month GD RCP45 2070'
p2832
sg31
g32
sg33
g34
sg35
S'clim.gd4570.bio06.tif'
p2833
sg37
S'clim'
p2834
sg39
g40
sg41
I4326
sg42
S'2070'
p2835
ssS'bio13'
p2836
(dp2837
g8
S'2015-03-13 09:01:24'
p2838
sg10
S'gd4570.bio13'
p2839
sg12
I254
sg13
S'bio13'
p2840
sg15
S'Precipitation of Wettest Month'
p2841
sg17
S'45'
p2842
sg19
S'gd4570'
p2843
sg21
S'../views/GTiff/clim.gd4570.bio13.tif'
p2844
sg23
S'climate'
p2845
sg25
S'clim.gd4570.bio13'
p2846
sg27
S'6304'
p2847
sg29
S'Precipitation of Wettest Month GD RCP45 2070'
p2848
sg31
g32
sg33
g34
sg35
S'clim.gd4570.bio13.tif'
p2849
sg37
S'clim'
p2850
sg39
g40
sg41
I4326
sg42
S'2070'
p2851
ssS'bio14'
p2852
(dp2853
g8
S'2015-03-13 09:01:24'
p2854
sg10
S'gd4570.bio14'
p2855
sg12
I183
sg13
S'bio14'
p2856
sg15
S'Precipitation of Driest Month'
p2857
sg17
S'45'
p2858
sg19
S'gd4570'
p2859
sg21
S'../views/GTiff/clim.gd4570.bio14.tif'
p2860
sg23
S'climate'
p2861
sg25
S'clim.gd4570.bio14'
p2862
sg27
S'6318'
p2863
sg29
S'Precipitation of Driest Month GD RCP45 2070'
p2864
sg31
g32
sg33
g34
sg35
S'clim.gd4570.bio14.tif'
p2865
sg37
S'clim'
p2866
sg39
g40
sg41
I4326
sg42
S'2070'
p2867
ssS'bio10'
p2868
(dp2869
g8
S'2015-03-13 09:01:24'
p2870
sg10
S'gd4570.bio10'
p2871
sg12
I70
sg13
S'bio10'
p2872
sg15
S'Mean Temperature of Warmest Quarter'
p2873
sg17
S'45'
p2874
sg19
S'gd4570'
p2875
sg21
S'../views/GTiff/clim.gd4570.bio10.tif'
p2876
sg23
S'climate'
p2877
sg25
S'clim.gd4570.bio10'
p2878
sg27
S'6302'
p2879
sg29
S'Mean Temperature of Warmest Quarter GD RCP45 2070'
p2880
sg31
g32
sg33
g34
sg35
S'clim.gd4570.bio10.tif'
p2881
sg37
S'clim'
p2882
sg39
g40
sg41
I4326
sg42
S'2070'
p2883
ssS'bio11'
p2884
(dp2885
g8
S'2015-03-13 09:01:24'
p2886
sg10
S'gd4570.bio11'
p2887
sg12
I11
sg13
S'bio11'
p2888
sg15
S'Mean Temperature of Coldest Quarter'
p2889
sg17
S'45'
p2890
sg19
g2770
sg21
S'../views/GTiff/clim.gd4570.bio11.tif'
p2891
sg23
S'climate'
p2892
sg25
S'clim.gd4570.bio11'
p2893
sg27
S'6305'
p2894
sg29
S'Mean Temperature of Coldest Quarter GD RCP45 2070'
p2895
sg31
g32
sg33
g34
sg35
S'clim.gd4570.bio11.tif'
p2896
sg37
S'clim'
p2897
sg39
g40
sg41
I4326
sg42
S'2070'
p2898
ssS'bio12'
p2899
(dp2900
g8
S'2015-03-13 09:01:24'
p2901
sg10
S'gd4570.bio12'
p2902
sg12
I58
sg13
S'bio12'
p2903
sg15
S'Annual Precipitation'
p2904
sg17
S'45'
p2905
sg19
S'gd4570'
p2906
sg21
S'../views/GTiff/clim.gd4570.bio12.tif'
p2907
sg23
S'climate'
p2908
sg25
S'clim.gd4570.bio12'
p2909
sg27
S'6308'
p2910
sg29
S'Annual Precipitation GD RCP45 2070'
p2911
sg31
g32
sg33
g34
sg35
S'clim.gd4570.bio12.tif'
p2912
sg37
S'clim'
p2913
sg39
g40
sg41
I4326
sg42
S'2070'
p2914
ssS'bio04'
p2915
(dp2916
g8
S'2015-03-13 09:01:24'
p2917
sg10
S'gd4570.bio04'
p2918
sg12
I39
sg13
S'bio04'
p2919
sg15
S'Temperature Seasonality (standard deviation *100)'
p2920
sg17
S'45'
p2921
sg19
S'gd4570'
p2922
sg21
S'../views/GTiff/clim.gd4570.bio04.tif'
p2923
sg23
S'climate'
p2924
sg25
S'clim.gd4570.bio04'
p2925
sg27
S'6312'
p2926
sg29
S'Temperature Seasonality (standard deviation *100) GD RCP45 2070'
p2927
sg31
g32
sg33
g34
sg35
S'clim.gd4570.bio04.tif'
p2928
sg37
S'clim'
p2929
sg39
g40
sg41
I4326
sg42
S'2070'
p2930
ssS'bio03'
p2931
(dp2932
g8
S'2015-03-13 09:01:24'
p2933
sg10
S'gd4570.bio03'
p2934
sg12
I20
sg13
S'bio03'
p2935
sg15
S'Isothermality (BIO2/BIO7) (* 100)'
p2936
sg17
S'45'
p2937
sg19
S'gd4570'
p2938
sg21
S'../views/GTiff/clim.gd4570.bio03.tif'
p2939
sg23
S'climate'
p2940
sg25
S'clim.gd4570.bio03'
p2941
sg27
S'6313'
p2942
sg29
S'Isothermality (BIO2/BIO7) (* 100) GD RCP45 2070'
p2943
sg31
g32
sg33
g34
sg35
S'clim.gd4570.bio03.tif'
p2944
sg37
S'clim'
p2945
sg39
g40
sg41
I4326
sg42
S'2070'
p2946
ssS'bio15'
p2947
(dp2948
g8
S'2015-03-13 09:01:24'
p2949
sg10
S'gd4570.bio15'
p2950
sg12
I108
sg13
S'bio15'
p2951
sg15
S'Precipitation Seasonality (Coefficient of Variation)'
p2952
sg17
S'45'
p2953
sg19
S'gd4570'
p2954
sg21
S'../views/GTiff/clim.gd4570.bio15.tif'
p2955
sg23
S'climate'
p2956
sg25
S'clim.gd4570.bio15'
p2957
sg27
S'6307'
p2958
sg29
S'Precipitation Seasonality (Coefficient of Variation) GD RCP45 2070'
p2959
sg31
g32
sg33
g34
sg35
S'clim.gd4570.bio15.tif'
p2960
sg37
S'clim'
p2961
sg39
g40
sg41
I4326
sg42
S'2070'
p2962
ssS'bio16'
p2963
(dp2964
g8
S'2015-03-13 09:01:24'
p2965
sg10
S'gd4570.bio16'
p2966
sg12
I97
sg13
S'bio16'
p2967
sg15
S'Precipitation of Wettest Quarter'
p2968
sg17
S'45'
p2969
sg19
S'gd4570'
p2970
sg21
S'../views/GTiff/clim.gd4570.bio16.tif'
p2971
sg23
S'climate'
p2972
sg25
S'clim.gd4570.bio16'
p2973
sg27
S'6306'
p2974
sg29
S'Precipitation of Wettest Quarter GD RCP45 2070'
p2975
sg31
g32
sg33
g34
sg35
S'clim.gd4570.bio16.tif'
p2976
sg37
S'clim'
p2977
sg39
g40
sg41
I4326
sg42
S'2070'
p2978
ssS'bio17'
p2979
(dp2980
g8
S'2015-03-13 09:01:24'
p2981
sg10
S'gd4570.bio17'
p2982
sg12
I216
sg13
S'bio17'
p2983
sg15
S'Precipitation of Driest Quarter'
p2984
sg17
S'45'
p2985
sg19
S'gd4570'
p2986
sg21
S'../views/GTiff/clim.gd4570.bio17.tif'
p2987
sg23
S'climate'
p2988
sg25
S'clim.gd4570.bio17'
p2989
sg27
S'6316'
p2990
sg29
S'Precipitation of Driest Quarter GD RCP45 2070'
p2991
sg31
g32
sg33
g34
sg35
S'clim.gd4570.bio17.tif'
p2992
sg37
S'clim'
p2993
sg39
g40
sg41
I4326
sg42
S'2070'
p2994
ssS'bio18'
p2995
(dp2996
g8
S'2015-03-13 09:01:24'
p2997
sg10
S'gd4570.bio18'
p2998
sg12
I79
sg13
S'bio18'
p2999
sg15
S'Precipitation of Warmest Quarter'
p3000
sg17
S'45'
p3001
sg19
S'gd4570'
p3002
sg21
S'../views/GTiff/clim.gd4570.bio18.tif'
p3003
sg23
S'climate'
p3004
sg25
S'clim.gd4570.bio18'
p3005
sg27
S'6317'
p3006
sg29
S'Precipitation of Warmest Quarter GD RCP45 2070'
p3007
sg31
g32
sg33
g34
sg35
S'clim.gd4570.bio18.tif'
p3008
sg37
S'clim'
p3009
sg39
g40
sg41
I4326
sg42
S'2070'
p3010
ssS'bio19'
p3011
(dp3012
g8
S'2015-03-13 09:01:24'
p3013
sg10
S'gd4570.bio19'
p3014
sg12
I74
sg13
S'bio19'
p3015
sg15
S'Precipitation of Coldest Quarter'
p3016
sg17
S'45'
p3017
sg19
S'gd4570'
p3018
sg21
S'../views/GTiff/clim.gd4570.bio19.tif'
p3019
sg23
S'climate'
p3020
sg25
S'clim.gd4570.bio19'
p3021
sg27
S'6303'
p3022
sg29
S'Precipitation of Coldest Quarter GD RCP45 2070'
p3023
sg31
g32
sg33
g34
sg35
S'clim.gd4570.bio19.tif'
p3024
sg37
S'clim'
p3025
sg39
g40
sg41
I4326
sg42
S'2070'
p3026
ssS'bio02'
p3027
(dp3028
g8
S'2015-03-13 09:01:24'
p3029
sg10
S'gd4570.bio02'
p3030
sg12
I268
sg13
S'bio02'
p3031
sg15
S'Mean Diurnal Range (Mean of monthly (max temp - min temp))'
p3032
sg17
S'45'
p3033
sg19
S'gd4570'
p3034
sg21
S'../views/GTiff/clim.gd4570.bio02.tif'
p3035
sg23
S'climate'
p3036
sg25
S'clim.gd4570.bio02'
p3037
sg27
S'6314'
p3038
sg29
S'Mean Diurnal Range (Mean of monthly (max temp - min temp)) GD RCP45 2070'
p3039
sg31
g32
sg33
g34
sg35
S'clim.gd4570.bio02.tif'
p3040
sg37
S'clim'
p3041
sg39
g40
sg41
I4326
sg42
S'2070'
p3042
ssS'bio09'
p3043
(dp3044
g8
S'2015-03-13 09:01:24'
p3045
sg10
S'gd4570.bio09'
p3046
sg12
I291
sg13
S'bio09'
p3047
sg15
S'Mean Temperature of Driest Quarter'
p3048
sg17
S'45'
p3049
sg19
S'gd4570'
p3050
sg21
S'../views/GTiff/clim.gd4570.bio09.tif'
p3051
sg23
S'climate'
p3052
sg25
S'clim.gd4570.bio09'
p3053
sg27
S'6319'
p3054
sg29
S'Mean Temperature of Driest Quarter GD RCP45 2070'
p3055
sg31
g32
sg33
g34
sg35
S'clim.gd4570.bio09.tif'
p3056
sg37
S'clim'
p3057
sg39
g40
sg41
I4326
sg42
S'2070'
p3058
ssS'bio08'
p3059
(dp3060
g8
S'2015-03-13 09:01:24'
p3061
sg10
S'gd4570.bio08'
p3062
sg12
I147
sg13
S'bio08'
p3063
sg15
S'Mean Temperature of Wettest Quarter'
p3064
sg17
S'45'
p3065
sg19
S'gd4570'
p3066
sg21
S'../views/GTiff/clim.gd4570.bio08.tif'
p3067
sg23
S'climate'
p3068
sg25
S'clim.gd4570.bio08'
p3069
sg27
S'6320'
p3070
sg29
S'Mean Temperature of Wettest Quarter GD RCP45 2070'
p3071
sg31
g32
sg33
g34
sg35
S'clim.gd4570.bio08.tif'
p3072
sg37
S'clim'
p3073
sg39
g40
sg41
I4326
sg42
S'2070'
p3074
sssS'he4550'
p3075
(dp3076
S'bio07'
p3077
(dp3078
g8
S'2015-03-13 09:01:24'
p3079
sg10
S'he4550.bio07'
p3080
sg12
I135
sg13
S'bio07'
p3081
sg15
S'Temperature Annual Range (BIO5-BIO6)'
p3082
sg17
S'45'
p3083
sg19
S'he4550'
p3084
sg21
S'../views/GTiff/clim.he4550.bio07.tif'
p3085
sg23
S'climate'
p3086
sg25
S'clim.he4550.bio07'
p3087
sg27
S'6388'
p3088
sg29
S'Temperature Annual Range (BIO5-BIO6) HE RCP45 2050'
p3089
sg31
g32
sg33
g34
sg35
S'clim.he4550.bio07.tif'
p3090
sg37
S'clim'
p3091
sg39
g40
sg41
I4326
sg42
S'2050'
p3092
ssS'bio13'
p3093
(dp3094
g8
S'2015-03-13 09:01:24'
p3095
sg10
S'he4550.bio13'
p3096
sg12
I249
sg13
S'bio13'
p3097
sg15
S'Precipitation of Wettest Month'
p3098
sg17
S'45'
p3099
sg19
S'he4550'
p3100
sg21
S'../views/GTiff/clim.he4550.bio13.tif'
p3101
sg23
S'climate'
p3102
sg25
S'clim.he4550.bio13'
p3103
sg27
S'6323'
p3104
sg29
S'Precipitation of Wettest Month HE RCP45 2050'
p3105
sg31
g32
sg33
g34
sg35
S'clim.he4550.bio13.tif'
p3106
sg37
S'clim'
p3107
sg39
g40
sg41
I4326
sg42
S'2050'
p3108
ssS'bio11'
p3109
(dp3110
g8
S'2015-03-13 09:01:24'
p3111
sg10
S'he4550.bio11'
p3112
sg12
I155
sg13
S'bio11'
p3113
sg15
S'Mean Temperature of Coldest Quarter'
p3114
sg17
S'45'
p3115
sg19
S'he4550'
p3116
sg21
S'../views/GTiff/clim.he4550.bio11.tif'
p3117
sg23
S'climate'
p3118
sg25
S'clim.he4550.bio11'
p3119
sg27
S'6324'
p3120
sg29
S'Mean Temperature of Coldest Quarter HE RCP45 2050'
p3121
sg31
g32
sg33
g34
sg35
S'clim.he4550.bio11.tif'
p3122
sg37
S'clim'
p3123
sg39
g40
sg41
I4326
sg42
S'2050'
p3124
ssS'bio03'
p3125
(dp3126
g8
S'2015-03-13 09:01:24'
p3127
sg10
S'he4550.bio03'
p3128
sg12
I332
sg13
S'bio03'
p3129
sg15
S'Isothermality (BIO2/BIO7) (* 100)'
p3130
sg17
S'45'
p3131
sg19
S'he4550'
p3132
sg21
S'../views/GTiff/clim.he4550.bio03.tif'
p3133
sg23
S'climate'
p3134
sg25
S'clim.he4550.bio03'
p3135
sg27
S'6376'
p3136
sg29
S'Isothermality (BIO2/BIO7) (* 100) HE RCP45 2050'
p3137
sg31
g32
sg33
g34
sg35
S'clim.he4550.bio03.tif'
p3138
sg37
S'clim'
p3139
sg39
g40
sg41
I4326
sg42
S'2050'
p3140
ssS'bio05'
p3141
(dp3142
g8
S'2015-03-13 09:01:24'
p3143
sg10
S'he4550.bio05'
p3144
sg12
I275
sg13
S'bio05'
p3145
sg15
S'Max Temperature of Warmest Month'
p3146
sg17
S'45'
p3147
sg19
S'he4550'
p3148
sg21
S'../views/GTiff/clim.he4550.bio05.tif'
p3149
sg23
S'climate'
p3150
sg25
S'clim.he4550.bio05'
p3151
sg27
S'6387'
p3152
sg29
S'Max Temperature of Warmest Month HE RCP45 2050'
p3153
sg31
g32
sg33
g34
sg35
S'clim.he4550.bio05.tif'
p3154
sg37
S'clim'
p3155
sg39
g40
sg41
I4326
sg42
S'2050'
p3156
ssS'bio10'
p3157
(dp3158
g8
S'2015-03-13 09:01:24'
p3159
sg10
S'he4550.bio10'
p3160
sg12
I12
sg13
S'bio10'
p3161
sg15
S'Mean Temperature of Warmest Quarter'
p3162
sg17
S'45'
p3163
sg19
S'he4550'
p3164
sg21
S'../views/GTiff/clim.he4550.bio10.tif'
p3165
sg23
S'climate'
p3166
sg25
S'clim.he4550.bio10'
p3167
sg27
S'6321'
p3168
sg29
S'Mean Temperature of Warmest Quarter HE RCP45 2050'
p3169
sg31
g32
sg33
g34
sg35
S'clim.he4550.bio10.tif'
p3170
sg37
S'clim'
p3171
sg39
g40
sg41
I4326
sg42
S'2050'
p3172
ssS'bio06'
p3173
(dp3174
g8
S'2015-03-13 09:01:24'
p3175
sg10
S'he4550.bio06'
p3176
sg12
I72
sg13
S'bio06'
p3177
sg15
S'Min Temperature of Coldest Month'
p3178
sg17
S'45'
p3179
sg19
S'he4550'
p3180
sg21
S'../views/GTiff/clim.he4550.bio06.tif'
p3181
sg23
S'climate'
p3182
sg25
S'clim.he4550.bio06'
p3183
sg27
S'6389'
p3184
sg29
S'Min Temperature of Coldest Month HE RCP45 2050'
p3185
sg31
g32
sg33
g34
sg35
S'clim.he4550.bio06.tif'
p3186
sg37
S'clim'
p3187
sg39
g40
sg41
I4326
sg42
S'2050'
p3188
ssS'bio12'
p3189
(dp3190
g8
S'2015-03-13 09:01:24'
p3191
sg10
S'he4550.bio12'
p3192
sg12
I194
sg13
S'bio12'
p3193
sg15
S'Annual Precipitation'
p3194
sg17
S'45'
p3195
sg19
S'he4550'
p3196
sg21
S'../views/GTiff/clim.he4550.bio12.tif'
p3197
sg23
S'climate'
p3198
sg25
S'clim.he4550.bio12'
p3199
sg27
S'6390'
p3200
sg29
S'Annual Precipitation HE RCP45 2050'
p3201
sg31
g32
sg33
g34
sg35
S'clim.he4550.bio12.tif'
p3202
sg37
S'clim'
p3203
sg39
g40
sg41
I4326
sg42
S'2050'
p3204
ssS'bio04'
p3205
(dp3206
g8
S'2015-03-13 09:01:24'
p3207
sg10
S'he4550.bio04'
p3208
sg12
I154
sg13
S'bio04'
p3209
sg15
S'Temperature Seasonality (standard deviation *100)'
p3210
sg17
S'45'
p3211
sg19
S'he4550'
p3212
sg21
S'../views/GTiff/clim.he4550.bio04.tif'
p3213
sg23
S'climate'
p3214
sg25
S'clim.he4550.bio04'
p3215
sg27
S'6375'
p3216
sg29
S'Temperature Seasonality (standard deviation *100) HE RCP45 2050'
p3217
sg31
g32
sg33
g34
sg35
S'clim.he4550.bio04.tif'
p3218
sg37
S'clim'
p3219
sg39
g40
sg41
I4326
sg42
S'2050'
p3220
ssS'bio14'
p3221
(dp3222
g8
S'2015-03-13 09:01:24'
p3223
sg10
S'he4550.bio14'
p3224
sg12
I124
sg13
S'bio14'
p3225
sg15
S'Precipitation of Driest Month'
p3226
sg17
S'45'
p3227
sg19
S'he4550'
p3228
sg21
S'../views/GTiff/clim.he4550.bio14.tif'
p3229
sg23
S'climate'
p3230
sg25
S'clim.he4550.bio14'
p3231
sg27
S'6391'
p3232
sg29
S'Precipitation of Driest Month HE RCP45 2050'
p3233
sg31
g32
sg33
g34
sg35
S'clim.he4550.bio14.tif'
p3234
sg37
S'clim'
p3235
sg39
g40
sg41
I4326
sg42
S'2050'
p3236
ssS'bio15'
p3237
(dp3238
g8
S'2015-03-13 09:01:24'
p3239
sg10
S'he4550.bio15'
p3240
sg12
I92
sg13
S'bio15'
p3241
sg15
S'Precipitation Seasonality (Coefficient of Variation)'
p3242
sg17
S'45'
p3243
sg19
S'he4550'
p3244
sg21
S'../views/GTiff/clim.he4550.bio15.tif'
p3245
sg23
S'climate'
p3246
sg25
S'clim.he4550.bio15'
p3247
sg27
S'6392'
p3248
sg29
S'Precipitation Seasonality (Coefficient of Variation) HE RCP45 2050'
p3249
sg31
g32
sg33
g34
sg35
S'clim.he4550.bio15.tif'
p3250
sg37
S'clim'
p3251
sg39
g40
sg41
I4326
sg42
S'2050'
p3252
ssS'bio16'
p3253
(dp3254
g8
S'2015-03-13 09:01:24'
p3255
sg10
S'he4550.bio16'
p3256
sg12
I161
sg13
S'bio16'
p3257
sg15
S'Precipitation of Wettest Quarter'
p3258
sg17
S'45'
p3259
sg19
S'he4550'
p3260
sg21
S'../views/GTiff/clim.he4550.bio16.tif'
p3261
sg23
S'climate'
p3262
sg25
S'clim.he4550.bio16'
p3263
sg27
S'6325'
p3264
sg29
S'Precipitation of Wettest Quarter HE RCP45 2050'
p3265
sg31
g32
sg33
g34
sg35
S'clim.he4550.bio16.tif'
p3266
sg37
S'clim'
p3267
sg39
g40
sg41
I4326
sg42
S'2050'
p3268
ssS'bio17'
p3269
(dp3270
g8
S'2015-03-13 09:01:24'
p3271
sg10
S'he4550.bio17'
p3272
sg12
I159
sg13
S'bio17'
p3273
sg15
S'Precipitation of Driest Quarter'
p3274
sg17
S'45'
p3275
sg19
S'he4550'
p3276
sg21
S'../views/GTiff/clim.he4550.bio17.tif'
p3277
sg23
S'climate'
p3278
sg25
S'clim.he4550.bio17'
p3279
sg27
S'6393'
p3280
sg29
S'Precipitation of Driest Quarter HE RCP45 2050'
p3281
sg31
g32
sg33
g34
sg35
S'clim.he4550.bio17.tif'
p3282
sg37
S'clim'
p3283
sg39
g40
sg41
I4326
sg42
S'2050'
p3284
ssS'bio18'
p3285
(dp3286
g8
S'2015-03-13 09:01:24'
p3287
sg10
S'he4550.bio18'
p3288
sg12
I10
sg13
S'bio18'
p3289
sg15
S'Precipitation of Warmest Quarter'
p3290
sg17
S'45'
p3291
sg19
S'he4550'
p3292
sg21
S'../views/GTiff/clim.he4550.bio18.tif'
p3293
sg23
S'climate'
p3294
sg25
S'clim.he4550.bio18'
p3295
sg27
S'6394'
p3296
sg29
S'Precipitation of Warmest Quarter HE RCP45 2050'
p3297
sg31
g32
sg33
g34
sg35
S'clim.he4550.bio18.tif'
p3298
sg37
S'clim'
p3299
sg39
g40
sg41
I4326
sg42
S'2050'
p3300
ssS'bio19'
p3301
(dp3302
g8
S'2015-03-13 09:01:24'
p3303
sg10
S'he4550.bio19'
p3304
sg12
I105
sg13
S'bio19'
p3305
sg15
S'Precipitation of Coldest Quarter'
p3306
sg17
S'45'
p3307
sg19
S'he4550'
p3308
sg21
S'../views/GTiff/clim.he4550.bio19.tif'
p3309
sg23
S'climate'
p3310
sg25
S'clim.he4550.bio19'
p3311
sg27
S'6322'
p3312
sg29
S'Precipitation of Coldest Quarter HE RCP45 2050'
p3313
sg31
g32
sg33
g34
sg35
S'clim.he4550.bio19.tif'
p3314
sg37
S'clim'
p3315
sg39
g40
sg41
I4326
sg42
S'2050'
p3316
ssS'bio02'
p3317
(dp3318
g8
S'2015-03-13 09:01:24'
p3319
sg10
S'he4550.bio02'
p3320
sg12
I195
sg13
S'bio02'
p3321
sg15
S'Mean Diurnal Range (Mean of monthly (max temp - min temp))'
p3322
sg17
S'45'
p3323
sg19
S'he4550'
p3324
sg21
S'../views/GTiff/clim.he4550.bio02.tif'
p3325
sg23
S'climate'
p3326
sg25
S'clim.he4550.bio02'
p3327
sg27
S'6377'
p3328
sg29
S'Mean Diurnal Range (Mean of monthly (max temp - min temp)) HE RCP45 2050'
p3329
sg31
g32
sg33
g34
sg35
S'clim.he4550.bio02.tif'
p3330
sg37
S'clim'
p3331
sg39
g40
sg41
I4326
sg42
S'2050'
p3332
ssS'bio01'
p3333
(dp3334
g8
S'2015-03-13 09:01:24'
p3335
sg10
S'he4550.bio01'
p3336
sg12
I306
sg13
S'bio01'
p3337
sg15
S'Annual Mean Temperature'
p3338
sg17
S'45'
p3339
sg19
S'he4550'
p3340
sg21
S'../views/GTiff/clim.he4550.bio01.tif'
p3341
sg23
S'climate'
p3342
sg25
S'clim.he4550.bio01'
p3343
sg27
S'6378'
p3344
sg29
S'Annual Mean Temperature HE RCP45 2050'
p3345
sg31
g32
sg33
g34
sg35
S'clim.he4550.bio01.tif'
p3346
sg37
S'clim'
p3347
sg39
g40
sg41
I4326
sg42
S'2050'
p3348
ssS'bio09'
p3349
(dp3350
g8
S'2015-03-13 09:01:24'
p3351
sg10
S'he4550.bio09'
p3352
sg12
I307
sg13
S'bio09'
p3353
sg15
S'Mean Temperature of Driest Quarter'
p3354
sg17
S'45'
p3355
sg19
S'he4550'
p3356
sg21
S'../views/GTiff/clim.he4550.bio09.tif'
p3357
sg23
S'climate'
p3358
sg25
S'clim.he4550.bio09'
p3359
sg27
S'6395'
p3360
sg29
S'Mean Temperature of Driest Quarter HE RCP45 2050'
p3361
sg31
g32
sg33
g34
sg35
S'clim.he4550.bio09.tif'
p3362
sg37
S'clim'
p3363
sg39
g40
sg41
I4326
sg42
S'2050'
p3364
ssS'bio08'
p3365
(dp3366
g8
S'2015-03-13 09:01:24'
p3367
sg10
S'he4550.bio08'
p3368
sg12
I5
sg13
S'bio08'
p3369
sg15
S'Mean Temperature of Wettest Quarter'
p3370
sg17
S'45'
p3371
sg19
g3075
sg21
S'../views/GTiff/clim.he4550.bio08.tif'
p3372
sg23
S'climate'
p3373
sg25
S'clim.he4550.bio08'
p3374
sg27
S'6396'
p3375
sg29
S'Mean Temperature of Wettest Quarter HE RCP45 2050'
p3376
sg31
g32
sg33
g34
sg35
S'clim.he4550.bio08.tif'
p3377
sg37
S'clim'
p3378
sg39
g40
sg41
I4326
sg42
S'2050'
p3379
sssS'gs4550'
p3380
(dp3381
S'bio07'
p3382
(dp3383
g8
S'2015-03-13 09:01:24'
p3384
sg10
S'gs4550.bio07'
p3385
sg12
I222
sg13
S'bio07'
p3386
sg15
S'Temperature Annual Range (BIO5-BIO6)'
p3387
sg17
S'45'
p3388
sg19
S'gs4550'
p3389
sg21
S'../views/GTiff/clim.gs4550.bio07.tif'
p3390
sg23
S'climate'
p3391
sg25
S'clim.gs4550.bio07'
p3392
sg27
S'6397'
p3393
sg29
S'Temperature Annual Range (BIO5-BIO6) GS RCP45 2050'
p3394
sg31
g32
sg33
g34
sg35
S'clim.gs4550.bio07.tif'
p3395
sg37
S'clim'
p3396
sg39
g40
sg41
I4326
sg42
S'2050'
p3397
ssS'bio01'
p3398
(dp3399
g8
S'2015-03-13 09:01:24'
p3400
sg10
S'gs4550.bio01'
p3401
sg12
I170
sg13
S'bio01'
p3402
sg15
S'Annual Mean Temperature'
p3403
sg17
S'45'
p3404
sg19
S'gs4550'
p3405
sg21
S'../views/GTiff/clim.gs4550.bio01.tif'
p3406
sg23
S'climate'
p3407
sg25
S'clim.gs4550.bio01'
p3408
sg27
S'6382'
p3409
sg29
S'Annual Mean Temperature GS RCP45 2050'
p3410
sg31
g32
sg33
g34
sg35
S'clim.gs4550.bio01.tif'
p3411
sg37
S'clim'
p3412
sg39
g40
sg41
I4326
sg42
S'2050'
p3413
ssS'bio11'
p3414
(dp3415
g8
S'2015-03-13 09:01:24'
p3416
sg10
S'gs4550.bio11'
p3417
sg12
I343
sg13
S'bio11'
p3418
sg15
S'Mean Temperature of Coldest Quarter'
p3419
sg17
S'45'
p3420
sg19
S'gs4550'
p3421
sg21
S'../views/GTiff/clim.gs4550.bio11.tif'
p3422
sg23
S'climate'
p3423
sg25
S'clim.gs4550.bio11'
p3424
sg27
S'6398'
p3425
sg29
S'Mean Temperature of Coldest Quarter GS RCP45 2050'
p3426
sg31
g32
sg33
g34
sg35
S'clim.gs4550.bio11.tif'
p3427
sg37
S'clim'
p3428
sg39
g40
sg41
I4326
sg42
S'2050'
p3429
ssS'bio05'
p3430
(dp3431
g8
S'2015-03-13 09:01:24'
p3432
sg10
S'gs4550.bio05'
p3433
sg12
I290
sg13
S'bio05'
p3434
sg15
S'Max Temperature of Warmest Month'
p3435
sg17
S'45'
p3436
sg19
S'gs4550'
p3437
sg21
S'../views/GTiff/clim.gs4550.bio05.tif'
p3438
sg23
S'climate'
p3439
sg25
S'clim.gs4550.bio05'
p3440
sg27
S'6399'
p3441
sg29
S'Max Temperature of Warmest Month GS RCP45 2050'
p3442
sg31
g32
sg33
g34
sg35
S'clim.gs4550.bio05.tif'
p3443
sg37
S'clim'
p3444
sg39
g40
sg41
I4326
sg42
S'2050'
p3445
ssS'bio10'
p3446
(dp3447
g8
S'2015-03-13 09:01:24'
p3448
sg10
S'gs4550.bio10'
p3449
sg12
I215
sg13
S'bio10'
p3450
sg15
S'Mean Temperature of Warmest Quarter'
p3451
sg17
S'45'
p3452
sg19
S'gs4550'
p3453
sg21
S'../views/GTiff/clim.gs4550.bio10.tif'
p3454
sg23
S'climate'
p3455
sg25
S'clim.gs4550.bio10'
p3456
sg27
S'6400'
p3457
sg29
S'Mean Temperature of Warmest Quarter GS RCP45 2050'
p3458
sg31
g32
sg33
g34
sg35
S'clim.gs4550.bio10.tif'
p3459
sg37
S'clim'
p3460
sg39
g40
sg41
I4326
sg42
S'2050'
p3461
ssS'bio06'
p3462
(dp3463
g8
S'2015-03-13 09:01:24'
p3464
sg10
S'gs4550.bio06'
p3465
sg12
I177
sg13
S'bio06'
p3466
sg15
S'Min Temperature of Coldest Month'
p3467
sg17
S'45'
p3468
sg19
S'gs4550'
p3469
sg21
S'../views/GTiff/clim.gs4550.bio06.tif'
p3470
sg23
S'climate'
p3471
sg25
S'clim.gs4550.bio06'
p3472
sg27
S'6401'
p3473
sg29
S'Min Temperature of Coldest Month GS RCP45 2050'
p3474
sg31
g32
sg33
g34
sg35
S'clim.gs4550.bio06.tif'
p3475
sg37
S'clim'
p3476
sg39
g40
sg41
I4326
sg42
S'2050'
p3477
ssS'bio12'
p3478
(dp3479
g8
S'2015-03-13 09:01:24'
p3480
sg10
S'gs4550.bio12'
p3481
sg12
I87
sg13
S'bio12'
p3482
sg15
S'Annual Precipitation'
p3483
sg17
S'45'
p3484
sg19
S'gs4550'
p3485
sg21
S'../views/GTiff/clim.gs4550.bio12.tif'
p3486
sg23
S'climate'
p3487
sg25
S'clim.gs4550.bio12'
p3488
sg27
S'6402'
p3489
sg29
S'Annual Precipitation GS RCP45 2050'
p3490
sg31
g32
sg33
g34
sg35
S'clim.gs4550.bio12.tif'
p3491
sg37
S'clim'
p3492
sg39
g40
sg41
I4326
sg42
S'2050'
p3493
ssS'bio13'
p3494
(dp3495
g8
S'2015-03-13 09:01:24'
p3496
sg10
S'gs4550.bio13'
p3497
sg12
I99
sg13
S'bio13'
p3498
sg15
S'Precipitation of Wettest Month'
p3499
sg17
S'45'
p3500
sg19
S'gs4550'
p3501
sg21
S'../views/GTiff/clim.gs4550.bio13.tif'
p3502
sg23
S'climate'
p3503
sg25
S'clim.gs4550.bio13'
p3504
sg27
S'6403'
p3505
sg29
S'Precipitation of Wettest Month GS RCP45 2050'
p3506
sg31
g32
sg33
g34
sg35
S'clim.gs4550.bio13.tif'
p3507
sg37
S'clim'
p3508
sg39
g40
sg41
I4326
sg42
S'2050'
p3509
ssS'bio14'
p3510
(dp3511
g8
S'2015-03-13 09:01:24'
p3512
sg10
S'gs4550.bio14'
p3513
sg12
I101
sg13
S'bio14'
p3514
sg15
S'Precipitation of Driest Month'
p3515
sg17
S'45'
p3516
sg19
S'gs4550'
p3517
sg21
S'../views/GTiff/clim.gs4550.bio14.tif'
p3518
sg23
S'climate'
p3519
sg25
S'clim.gs4550.bio14'
p3520
sg27
S'6404'
p3521
sg29
S'Precipitation of Driest Month GS RCP45 2050'
p3522
sg31
g32
sg33
g34
sg35
S'clim.gs4550.bio14.tif'
p3523
sg37
S'clim'
p3524
sg39
g40
sg41
I4326
sg42
S'2050'
p3525
ssS'bio15'
p3526
(dp3527
g8
S'2015-03-13 09:01:24'
p3528
sg10
S'gs4550.bio15'
p3529
sg12
I29
sg13
S'bio15'
p3530
sg15
S'Precipitation Seasonality (Coefficient of Variation)'
p3531
sg17
S'45'
p3532
sg19
g3380
sg21
S'../views/GTiff/clim.gs4550.bio15.tif'
p3533
sg23
S'climate'
p3534
sg25
S'clim.gs4550.bio15'
p3535
sg27
S'6405'
p3536
sg29
S'Precipitation Seasonality (Coefficient of Variation) GS RCP45 2050'
p3537
sg31
g32
sg33
g34
sg35
S'clim.gs4550.bio15.tif'
p3538
sg37
S'clim'
p3539
sg39
g40
sg41
I4326
sg42
S'2050'
p3540
ssS'bio16'
p3541
(dp3542
g8
S'2015-03-13 09:01:24'
p3543
sg10
S'gs4550.bio16'
p3544
sg12
I120
sg13
S'bio16'
p3545
sg15
S'Precipitation of Wettest Quarter'
p3546
sg17
S'45'
p3547
sg19
S'gs4550'
p3548
sg21
S'../views/GTiff/clim.gs4550.bio16.tif'
p3549
sg23
S'climate'
p3550
sg25
S'clim.gs4550.bio16'
p3551
sg27
S'6406'
p3552
sg29
S'Precipitation of Wettest Quarter GS RCP45 2050'
p3553
sg31
g32
sg33
g34
sg35
S'clim.gs4550.bio16.tif'
p3554
sg37
S'clim'
p3555
sg39
g40
sg41
I4326
sg42
S'2050'
p3556
ssS'bio17'
p3557
(dp3558
g8
S'2015-03-13 09:01:24'
p3559
sg10
S'gs4550.bio17'
p3560
sg12
I69
sg13
S'bio17'
p3561
sg15
S'Precipitation of Driest Quarter'
p3562
sg17
S'45'
p3563
sg19
S'gs4550'
p3564
sg21
S'../views/GTiff/clim.gs4550.bio17.tif'
p3565
sg23
S'climate'
p3566
sg25
S'clim.gs4550.bio17'
p3567
sg27
S'6407'
p3568
sg29
S'Precipitation of Driest Quarter GS RCP45 2050'
p3569
sg31
g32
sg33
g34
sg35
S'clim.gs4550.bio17.tif'
p3570
sg37
S'clim'
p3571
sg39
g40
sg41
I4326
sg42
S'2050'
p3572
ssS'bio18'
p3573
(dp3574
g8
S'2015-03-13 09:01:24'
p3575
sg10
S'gs4550.bio18'
p3576
sg12
I259
sg13
S'bio18'
p3577
sg15
S'Precipitation of Warmest Quarter'
p3578
sg17
S'45'
p3579
sg19
S'gs4550'
p3580
sg21
S'../views/GTiff/clim.gs4550.bio18.tif'
p3581
sg23
S'climate'
p3582
sg25
S'clim.gs4550.bio18'
p3583
sg27
S'6408'
p3584
sg29
S'Precipitation of Warmest Quarter GS RCP45 2050'
p3585
sg31
g32
sg33
g34
sg35
S'clim.gs4550.bio18.tif'
p3586
sg37
S'clim'
p3587
sg39
g40
sg41
I4326
sg42
S'2050'
p3588
ssS'bio19'
p3589
(dp3590
g8
S'2015-03-13 09:01:24'
p3591
sg10
S'gs4550.bio19'
p3592
sg12
I30
sg13
S'bio19'
p3593
sg15
S'Precipitation of Coldest Quarter'
p3594
sg17
S'45'
p3595
sg19
S'gs4550'
p3596
sg21
S'../views/GTiff/clim.gs4550.bio19.tif'
p3597
sg23
S'climate'
p3598
sg25
S'clim.gs4550.bio19'
p3599
sg27
S'6409'
p3600
sg29
S'Precipitation of Coldest Quarter GS RCP45 2050'
p3601
sg31
g32
sg33
g34
sg35
S'clim.gs4550.bio19.tif'
p3602
sg37
S'clim'
p3603
sg39
g40
sg41
I4326
sg42
S'2050'
p3604
ssS'bio04'
p3605
(dp3606
g8
S'2015-03-13 09:01:24'
p3607
sg10
S'gs4550.bio04'
p3608
sg12
I284
sg13
S'bio04'
p3609
sg15
S'Temperature Seasonality (standard deviation *100)'
p3610
sg17
S'45'
p3611
sg19
S'gs4550'
p3612
sg21
S'../views/GTiff/clim.gs4550.bio04.tif'
p3613
sg23
S'climate'
p3614
sg25
S'clim.gs4550.bio04'
p3615
sg27
S'6379'
p3616
sg29
S'Temperature Seasonality (standard deviation *100) GS RCP45 2050'
p3617
sg31
g32
sg33
g34
sg35
S'clim.gs4550.bio04.tif'
p3618
sg37
S'clim'
p3619
sg39
g40
sg41
I4326
sg42
S'2050'
p3620
ssS'bio08'
p3621
(dp3622
g8
S'2015-03-13 09:01:24'
p3623
sg10
S'gs4550.bio08'
p3624
sg12
I295
sg13
S'bio08'
p3625
sg15
S'Mean Temperature of Wettest Quarter'
p3626
sg17
S'45'
p3627
sg19
S'gs4550'
p3628
sg21
S'../views/GTiff/clim.gs4550.bio08.tif'
p3629
sg23
S'climate'
p3630
sg25
S'clim.gs4550.bio08'
p3631
sg27
S'6411'
p3632
sg29
S'Mean Temperature of Wettest Quarter GS RCP45 2050'
p3633
sg31
g32
sg33
g34
sg35
S'clim.gs4550.bio08.tif'
p3634
sg37
S'clim'
p3635
sg39
g40
sg41
I4326
sg42
S'2050'
p3636
ssS'bio03'
p3637
(dp3638
g8
S'2015-03-13 09:01:24'
p3639
sg10
S'gs4550.bio03'
p3640
sg12
I174
sg13
S'bio03'
p3641
sg15
S'Isothermality (BIO2/BIO7) (* 100)'
p3642
sg17
S'45'
p3643
sg19
S'gs4550'
p3644
sg21
S'../views/GTiff/clim.gs4550.bio03.tif'
p3645
sg23
S'climate'
p3646
sg25
S'clim.gs4550.bio03'
p3647
sg27
S'6380'
p3648
sg29
S'Isothermality (BIO2/BIO7) (* 100) GS RCP45 2050'
p3649
sg31
g32
sg33
g34
sg35
S'clim.gs4550.bio03.tif'
p3650
sg37
S'clim'
p3651
sg39
g40
sg41
I4326
sg42
S'2050'
p3652
ssS'bio09'
p3653
(dp3654
g8
S'2015-03-13 09:01:24'
p3655
sg10
S'gs4550.bio09'
p3656
sg12
I76
sg13
S'bio09'
p3657
sg15
S'Mean Temperature of Driest Quarter'
p3658
sg17
S'45'
p3659
sg19
S'gs4550'
p3660
sg21
S'../views/GTiff/clim.gs4550.bio09.tif'
p3661
sg23
S'climate'
p3662
sg25
S'clim.gs4550.bio09'
p3663
sg27
S'6410'
p3664
sg29
S'Mean Temperature of Driest Quarter GS RCP45 2050'
p3665
sg31
g32
sg33
g34
sg35
S'clim.gs4550.bio09.tif'
p3666
sg37
S'clim'
p3667
sg39
g40
sg41
I4326
sg42
S'2050'
p3668
ssS'bio02'
p3669
(dp3670
g8
S'2015-03-13 09:01:24'
p3671
sg10
S'gs4550.bio02'
p3672
sg12
I114
sg13
S'bio02'
p3673
sg15
S'Mean Diurnal Range (Mean of monthly (max temp - min temp))'
p3674
sg17
S'45'
p3675
sg19
S'gs4550'
p3676
sg21
S'../views/GTiff/clim.gs4550.bio02.tif'
p3677
sg23
S'climate'
p3678
sg25
S'clim.gs4550.bio02'
p3679
sg27
S'6381'
p3680
sg29
S'Mean Diurnal Range (Mean of monthly (max temp - min temp)) GS RCP45 2050'
p3681
sg31
g32
sg33
g34
sg35
S'clim.gs4550.bio02.tif'
p3682
sg37
S'clim'
p3683
sg39
g40
sg41
I4326
sg42
S'2050'
p3684
sssS'he6070'
p3685
(dp3686
S'bio07'
p3687
(dp3688
g8
S'2015-03-13 09:01:24'
p3689
sg10
S'he6070.bio07'
p3690
sg12
I201
sg13
S'bio07'
p3691
sg15
S'Temperature Annual Range (BIO5-BIO6)'
p3692
sg17
S'60'
p3693
sg19
S'he6070'
p3694
sg21
S'../views/GTiff/clim.he6070.bio07.tif'
p3695
sg23
S'climate'
p3696
sg25
S'clim.he6070.bio07'
p3697
sg27
S'6363'
p3698
sg29
S'Temperature Annual Range (BIO5-BIO6) HE RCP60 2070'
p3699
sg31
g32
sg33
g34
sg35
S'clim.he6070.bio07.tif'
p3700
sg37
S'clim'
p3701
sg39
g40
sg41
I4326
sg42
S'2070'
p3702
ssS'bio19'
p3703
(dp3704
g8
S'2015-03-13 09:01:24'
p3705
sg10
S'he6070.bio19'
p3706
sg12
I209
sg13
S'bio19'
p3707
sg15
S'Precipitation of Coldest Quarter'
p3708
sg17
S'60'
p3709
sg19
S'he6070'
p3710
sg21
S'../views/GTiff/clim.he6070.bio19.tif'
p3711
sg23
S'climate'
p3712
sg25
S'clim.he6070.bio19'
p3713
sg27
S'6357'
p3714
sg29
S'Precipitation of Coldest Quarter HE RCP60 2070'
p3715
sg31
g32
sg33
g34
sg35
S'clim.he6070.bio19.tif'
p3716
sg37
S'clim'
p3717
sg39
g40
sg41
I4326
sg42
S'2070'
p3718
ssS'bio01'
p3719
(dp3720
g8
S'2015-03-13 09:01:24'
p3721
sg10
S'he6070.bio01'
p3722
sg12
I315
sg13
S'bio01'
p3723
sg15
S'Annual Mean Temperature'
p3724
sg17
S'60'
p3725
sg19
S'he6070'
p3726
sg21
S'../views/GTiff/clim.he6070.bio01.tif'
p3727
sg23
S'climate'
p3728
sg25
S'clim.he6070.bio01'
p3729
sg27
S'6369'
p3730
sg29
S'Annual Mean Temperature HE RCP60 2070'
p3731
sg31
g32
sg33
g34
sg35
S'clim.he6070.bio01.tif'
p3732
sg37
S'clim'
p3733
sg39
g40
sg41
I4326
sg42
S'2070'
p3734
ssS'bio11'
p3735
(dp3736
g8
S'2015-03-13 09:01:24'
p3737
sg10
S'he6070.bio11'
p3738
sg12
I262
sg13
S'bio11'
p3739
sg15
S'Mean Temperature of Coldest Quarter'
p3740
sg17
S'60'
p3741
sg19
S'he6070'
p3742
sg21
S'../views/GTiff/clim.he6070.bio11.tif'
p3743
sg23
S'climate'
p3744
sg25
S'clim.he6070.bio11'
p3745
sg27
S'6359'
p3746
sg29
S'Mean Temperature of Coldest Quarter HE RCP60 2070'
p3747
sg31
g32
sg33
g34
sg35
S'clim.he6070.bio11.tif'
p3748
sg37
S'clim'
p3749
sg39
g40
sg41
I4326
sg42
S'2070'
p3750
ssS'bio09'
p3751
(dp3752
g8
S'2015-03-13 09:01:24'
p3753
sg10
S'he6070.bio09'
p3754
sg12
I338
sg13
S'bio09'
p3755
sg15
S'Mean Temperature of Driest Quarter'
p3756
sg17
S'60'
p3757
sg19
S'he6070'
p3758
sg21
S'../views/GTiff/clim.he6070.bio09.tif'
p3759
sg23
S'climate'
p3760
sg25
S'clim.he6070.bio09'
p3761
sg27
S'6373'
p3762
sg29
S'Mean Temperature of Driest Quarter HE RCP60 2070'
p3763
sg31
g32
sg33
g34
sg35
S'clim.he6070.bio09.tif'
p3764
sg37
S'clim'
p3765
sg39
g40
sg41
I4326
sg42
S'2070'
p3766
ssS'bio15'
p3767
(dp3768
g8
S'2015-03-13 09:01:24'
p3769
sg10
S'he6070.bio15'
p3770
sg12
I263
sg13
S'bio15'
p3771
sg15
S'Precipitation Seasonality (Coefficient of Variation)'
p3772
sg17
S'60'
p3773
sg19
S'he6070'
p3774
sg21
S'../views/GTiff/clim.he6070.bio15.tif'
p3775
sg23
S'climate'
p3776
sg25
S'clim.he6070.bio15'
p3777
sg27
S'6361'
p3778
sg29
S'Precipitation Seasonality (Coefficient of Variation) HE RCP60 2070'
p3779
sg31
g32
sg33
g34
sg35
S'clim.he6070.bio15.tif'
p3780
sg37
S'clim'
p3781
sg39
g40
sg41
I4326
sg42
S'2070'
p3782
ssS'bio05'
p3783
(dp3784
g8
S'2015-03-13 09:01:24'
p3785
sg10
S'he6070.bio05'
p3786
sg12
I123
sg13
S'bio05'
p3787
sg15
S'Max Temperature of Warmest Month'
p3788
sg17
S'60'
p3789
sg19
S'he6070'
p3790
sg21
S'../views/GTiff/clim.he6070.bio05.tif'
p3791
sg23
S'climate'
p3792
sg25
S'clim.he6070.bio05'
p3793
sg27
S'6365'
p3794
sg29
S'Max Temperature of Warmest Month HE RCP60 2070'
p3795
sg31
g32
sg33
g34
sg35
S'clim.he6070.bio05.tif'
p3796
sg37
S'clim'
p3797
sg39
g40
sg41
I4326
sg42
S'2070'
p3798
ssS'bio10'
p3799
(dp3800
g8
S'2015-03-13 09:01:24'
p3801
sg10
S'he6070.bio10'
p3802
sg12
I65
sg13
S'bio10'
p3803
sg15
S'Mean Temperature of Warmest Quarter'
p3804
sg17
S'60'
p3805
sg19
S'he6070'
p3806
sg21
S'../views/GTiff/clim.he6070.bio10.tif'
p3807
sg23
S'climate'
p3808
sg25
S'clim.he6070.bio10'
p3809
sg27
S'6356'
p3810
sg29
S'Mean Temperature of Warmest Quarter HE RCP60 2070'
p3811
sg31
g32
sg33
g34
sg35
S'clim.he6070.bio10.tif'
p3812
sg37
S'clim'
p3813
sg39
g40
sg41
I4326
sg42
S'2070'
p3814
ssS'bio06'
p3815
(dp3816
g8
S'2015-03-13 09:01:24'
p3817
sg10
S'he6070.bio06'
p3818
sg12
I193
sg13
S'bio06'
p3819
sg15
S'Min Temperature of Coldest Month'
p3820
sg17
S'60'
p3821
sg19
S'he6070'
p3822
sg21
S'../views/GTiff/clim.he6070.bio06.tif'
p3823
sg23
S'climate'
p3824
sg25
S'clim.he6070.bio06'
p3825
sg27
S'6364'
p3826
sg29
S'Min Temperature of Coldest Month HE RCP60 2070'
p3827
sg31
g32
sg33
g34
sg35
S'clim.he6070.bio06.tif'
p3828
sg37
S'clim'
p3829
sg39
g40
sg41
I4326
sg42
S'2070'
p3830
ssS'bio12'
p3831
(dp3832
g8
S'2015-03-13 09:01:24'
p3833
sg10
S'he6070.bio12'
p3834
sg12
I66
sg13
S'bio12'
p3835
sg15
S'Annual Precipitation'
p3836
sg17
S'60'
p3837
sg19
S'he6070'
p3838
sg21
S'../views/GTiff/clim.he6070.bio12.tif'
p3839
sg23
S'climate'
p3840
sg25
S'clim.he6070.bio12'
p3841
sg27
S'6362'
p3842
sg29
S'Annual Precipitation HE RCP60 2070'
p3843
sg31
g32
sg33
g34
sg35
S'clim.he6070.bio12.tif'
p3844
sg37
S'clim'
p3845
sg39
g40
sg41
I4326
sg42
S'2070'
p3846
ssS'bio13'
p3847
(dp3848
g8
S'2015-03-13 09:01:24'
p3849
sg10
S'he6070.bio13'
p3850
sg12
I219
sg13
S'bio13'
p3851
sg15
S'Precipitation of Wettest Month'
p3852
sg17
S'60'
p3853
sg19
S'he6070'
p3854
sg21
S'../views/GTiff/clim.he6070.bio13.tif'
p3855
sg23
S'climate'
p3856
sg25
S'clim.he6070.bio13'
p3857
sg27
S'6358'
p3858
sg29
S'Precipitation of Wettest Month HE RCP60 2070'
p3859
sg31
g32
sg33
g34
sg35
S'clim.he6070.bio13.tif'
p3860
sg37
S'clim'
p3861
sg39
g40
sg41
I4326
sg42
S'2070'
p3862
ssS'bio14'
p3863
(dp3864
g8
S'2015-03-13 09:01:24'
p3865
sg10
S'he6070.bio14'
p3866
sg12
I98
sg13
S'bio14'
p3867
sg15
S'Precipitation of Driest Month'
p3868
sg17
S'60'
p3869
sg19
S'he6070'
p3870
sg21
S'../views/GTiff/clim.he6070.bio14.tif'
p3871
sg23
S'climate'
p3872
sg25
S'clim.he6070.bio14'
p3873
sg27
S'6372'
p3874
sg29
S'Precipitation of Driest Month HE RCP60 2070'
p3875
sg31
g32
sg33
g34
sg35
S'clim.he6070.bio14.tif'
p3876
sg37
S'clim'
p3877
sg39
g40
sg41
I4326
sg42
S'2070'
p3878
ssS'bio02'
p3879
(dp3880
g8
S'2015-03-13 09:01:24'
p3881
sg10
S'he6070.bio02'
p3882
sg12
I140
sg13
S'bio02'
p3883
sg15
S'Mean Diurnal Range (Mean of monthly (max temp - min temp))'
p3884
sg17
S'60'
p3885
sg19
S'he6070'
p3886
sg21
S'../views/GTiff/clim.he6070.bio02.tif'
p3887
sg23
S'climate'
p3888
sg25
S'clim.he6070.bio02'
p3889
sg27
S'6368'
p3890
sg29
S'Mean Diurnal Range (Mean of monthly (max temp - min temp)) HE RCP60 2070'
p3891
sg31
g32
sg33
g34
sg35
S'clim.he6070.bio02.tif'
p3892
sg37
S'clim'
p3893
sg39
g40
sg41
I4326
sg42
S'2070'
p3894
ssS'bio16'
p3895
(dp3896
g8
S'2015-03-13 09:01:24'
p3897
sg10
S'he6070.bio16'
p3898
sg12
I21
sg13
S'bio16'
p3899
sg15
S'Precipitation of Wettest Quarter'
p3900
sg17
S'60'
p3901
sg19
g3685
sg21
S'../views/GTiff/clim.he6070.bio16.tif'
p3902
sg23
S'climate'
p3903
sg25
S'clim.he6070.bio16'
p3904
sg27
S'6360'
p3905
sg29
S'Precipitation of Wettest Quarter HE RCP60 2070'
p3906
sg31
g32
sg33
g34
sg35
S'clim.he6070.bio16.tif'
p3907
sg37
S'clim'
p3908
sg39
g40
sg41
I4326
sg42
S'2070'
p3909
ssS'bio17'
p3910
(dp3911
g8
S'2015-03-13 09:01:24'
p3912
sg10
S'he6070.bio17'
p3913
sg12
I64
sg13
S'bio17'
p3914
sg15
S'Precipitation of Driest Quarter'
p3915
sg17
S'60'
p3916
sg19
S'he6070'
p3917
sg21
S'../views/GTiff/clim.he6070.bio17.tif'
p3918
sg23
S'climate'
p3919
sg25
S'clim.he6070.bio17'
p3920
sg27
S'6370'
p3921
sg29
S'Precipitation of Driest Quarter HE RCP60 2070'
p3922
sg31
g32
sg33
g34
sg35
S'clim.he6070.bio17.tif'
p3923
sg37
S'clim'
p3924
sg39
g40
sg41
I4326
sg42
S'2070'
p3925
ssS'bio18'
p3926
(dp3927
g8
S'2015-03-13 09:01:24'
p3928
sg10
S'he6070.bio18'
p3929
sg12
I96
sg13
S'bio18'
p3930
sg15
S'Precipitation of Warmest Quarter'
p3931
sg17
S'60'
p3932
sg19
S'he6070'
p3933
sg21
S'../views/GTiff/clim.he6070.bio18.tif'
p3934
sg23
S'climate'
p3935
sg25
S'clim.he6070.bio18'
p3936
sg27
S'6371'
p3937
sg29
S'Precipitation of Warmest Quarter HE RCP60 2070'
p3938
sg31
g32
sg33
g34
sg35
S'clim.he6070.bio18.tif'
p3939
sg37
S'clim'
p3940
sg39
g40
sg41
I4326
sg42
S'2070'
p3941
ssS'bio03'
p3942
(dp3943
g8
S'2015-03-13 09:01:24'
p3944
sg10
S'he6070.bio03'
p3945
sg12
I186
sg13
S'bio03'
p3946
sg15
S'Isothermality (BIO2/BIO7) (* 100)'
p3947
sg17
S'60'
p3948
sg19
S'he6070'
p3949
sg21
S'../views/GTiff/clim.he6070.bio03.tif'
p3950
sg23
S'climate'
p3951
sg25
S'clim.he6070.bio03'
p3952
sg27
S'6367'
p3953
sg29
S'Isothermality (BIO2/BIO7) (* 100) HE RCP60 2070'
p3954
sg31
g32
sg33
g34
sg35
S'clim.he6070.bio03.tif'
p3955
sg37
S'clim'
p3956
sg39
g40
sg41
I4326
sg42
S'2070'
p3957
ssS'bio04'
p3958
(dp3959
g8
S'2015-03-13 09:01:24'
p3960
sg10
S'he6070.bio04'
p3961
sg12
I251
sg13
S'bio04'
p3962
sg15
S'Temperature Seasonality (standard deviation *100)'
p3963
sg17
S'60'
p3964
sg19
S'he6070'
p3965
sg21
S'../views/GTiff/clim.he6070.bio04.tif'
p3966
sg23
S'climate'
p3967
sg25
S'clim.he6070.bio04'
p3968
sg27
S'6366'
p3969
sg29
S'Temperature Seasonality (standard deviation *100) HE RCP60 2070'
p3970
sg31
g32
sg33
g34
sg35
S'clim.he6070.bio04.tif'
p3971
sg37
S'clim'
p3972
sg39
g40
sg41
I4326
sg42
S'2070'
p3973
ssS'bio08'
p3974
(dp3975
g8
S'2015-03-13 09:01:24'
p3976
sg10
S'he6070.bio08'
p3977
sg12
I50
sg13
S'bio08'
p3978
sg15
S'Mean Temperature of Wettest Quarter'
p3979
sg17
S'60'
p3980
sg19
S'he6070'
p3981
sg21
S'../views/GTiff/clim.he6070.bio08.tif'
p3982
sg23
S'climate'
p3983
sg25
S'clim.he6070.bio08'
p3984
sg27
S'6374'
p3985
sg29
S'Mean Temperature of Wettest Quarter HE RCP60 2070'
p3986
sg31
g32
sg33
g34
sg35
S'clim.he6070.bio08.tif'
p3987
sg37
S'clim'
p3988
sg39
g40
sg41
I4326
sg42
S'2070'
p3989
sssS'ac4550'
p3990
(dp3991
S'bio07'
p3992
(dp3993
g8
S'2015-03-13 09:01:24'
p3994
sg10
S'ac4550.bio07'
p3995
sg12
I316
sg13
S'bio07'
p3996
sg15
S'Temperature Annual Range (BIO5-BIO6)'
p3997
sg17
S'45'
p3998
sg19
S'ac4550'
p3999
sg21
S'../views/GTiff/clim.ac4550.bio07.tif'
p4000
sg23
S'climate'
p4001
sg25
S'clim.ac4550.bio07'
p4002
sg27
S'6333'
p4003
sg29
S'Temperature Annual Range (BIO5-BIO6) AC RCP45 2050'
p4004
sg31
g32
sg33
g34
sg35
S'clim.ac4550.bio07.tif'
p4005
sg37
S'clim'
p4006
sg39
g40
sg41
I4326
sg42
S'2050'
p4007
ssS'bio13'
p4008
(dp4009
g8
S'2015-03-13 09:01:24'
p4010
sg10
S'ac4550.bio13'
p4011
sg12
I317
sg13
S'bio13'
p4012
sg15
S'Precipitation of Wettest Month'
p4013
sg17
S'45'
p4014
sg19
S'ac4550'
p4015
sg21
S'../views/GTiff/clim.ac4550.bio13.tif'
p4016
sg23
S'climate'
p4017
sg25
S'clim.ac4550.bio13'
p4018
sg27
S'6328'
p4019
sg29
S'Precipitation of Wettest Month AC RCP45 2050'
p4020
sg31
g32
sg33
g34
sg35
S'clim.ac4550.bio13.tif'
p4021
sg37
S'clim'
p4022
sg39
g40
sg41
I4326
sg42
S'2050'
p4023
ssS'bio16'
p4024
(dp4025
g8
S'2015-03-13 09:01:24'
p4026
sg10
S'ac4550.bio16'
p4027
sg12
I301
sg13
S'bio16'
p4028
sg15
S'Precipitation of Wettest Quarter'
p4029
sg17
S'45'
p4030
sg19
S'ac4550'
p4031
sg21
S'../views/GTiff/clim.ac4550.bio16.tif'
p4032
sg23
S'climate'
p4033
sg25
S'clim.ac4550.bio16'
p4034
sg27
S'6330'
p4035
sg29
S'Precipitation of Wettest Quarter AC RCP45 2050'
p4036
sg31
g32
sg33
g34
sg35
S'clim.ac4550.bio16.tif'
p4037
sg37
S'clim'
p4038
sg39
g40
sg41
I4326
sg42
S'2050'
p4039
ssS'bio11'
p4040
(dp4041
g8
S'2015-03-13 09:01:24'
p4042
sg10
S'ac4550.bio11'
p4043
sg12
I250
sg13
S'bio11'
p4044
sg15
S'Mean Temperature of Coldest Quarter'
p4045
sg17
S'45'
p4046
sg19
S'ac4550'
p4047
sg21
S'../views/GTiff/clim.ac4550.bio11.tif'
p4048
sg23
S'climate'
p4049
sg25
S'clim.ac4550.bio11'
p4050
sg27
S'6329'
p4051
sg29
S'Mean Temperature of Coldest Quarter AC RCP45 2050'
p4052
sg31
g32
sg33
g34
sg35
S'clim.ac4550.bio11.tif'
p4053
sg37
S'clim'
p4054
sg39
g40
sg41
I4326
sg42
S'2050'
p4055
ssS'bio15'
p4056
(dp4057
g8
S'2015-03-13 09:01:24'
p4058
sg10
S'ac4550.bio15'
p4059
sg12
I313
sg13
S'bio15'
p4060
sg15
S'Precipitation Seasonality (Coefficient of Variation)'
p4061
sg17
S'45'
p4062
sg19
S'ac4550'
p4063
sg21
S'../views/GTiff/clim.ac4550.bio15.tif'
p4064
sg23
S'climate'
p4065
sg25
S'clim.ac4550.bio15'
p4066
sg27
S'6331'
p4067
sg29
S'Precipitation Seasonality (Coefficient of Variation) AC RCP45 2050'
p4068
sg31
g32
sg33
g34
sg35
S'clim.ac4550.bio15.tif'
p4069
sg37
S'clim'
p4070
sg39
g40
sg41
I4326
sg42
S'2050'
p4071
ssS'bio12'
p4072
(dp4073
g8
S'2015-03-13 09:01:24'
p4074
sg10
S'ac4550.bio12'
p4075
sg12
I104
sg13
S'bio12'
p4076
sg15
S'Annual Precipitation'
p4077
sg17
S'45'
p4078
sg19
S'ac4550'
p4079
sg21
S'../views/GTiff/clim.ac4550.bio12.tif'
p4080
sg23
S'climate'
p4081
sg25
S'clim.ac4550.bio12'
p4082
sg27
S'6332'
p4083
sg29
S'Annual Precipitation AC RCP45 2050'
p4084
sg31
g32
sg33
g34
sg35
S'clim.ac4550.bio12.tif'
p4085
sg37
S'clim'
p4086
sg39
g40
sg41
I4326
sg42
S'2050'
p4087
ssS'bio10'
p4088
(dp4089
g8
S'2015-03-13 09:01:24'
p4090
sg10
S'ac4550.bio10'
p4091
sg12
I257
sg13
S'bio10'
p4092
sg15
S'Mean Temperature of Warmest Quarter'
p4093
sg17
S'45'
p4094
sg19
S'ac4550'
p4095
sg21
S'../views/GTiff/clim.ac4550.bio10.tif'
p4096
sg23
S'climate'
p4097
sg25
S'clim.ac4550.bio10'
p4098
sg27
S'6326'
p4099
sg29
S'Mean Temperature of Warmest Quarter AC RCP45 2050'
p4100
sg31
g32
sg33
g34
sg35
S'clim.ac4550.bio10.tif'
p4101
sg37
S'clim'
p4102
sg39
g40
sg41
I4326
sg42
S'2050'
p4103
ssS'bio06'
p4104
(dp4105
g8
S'2015-03-13 09:01:24'
p4106
sg10
S'ac4550.bio06'
p4107
sg12
I75
sg13
S'bio06'
p4108
sg15
S'Min Temperature of Coldest Month'
p4109
sg17
S'45'
p4110
sg19
g3990
sg21
S'../views/GTiff/clim.ac4550.bio06.tif'
p4111
sg23
S'climate'
p4112
sg25
S'clim.ac4550.bio06'
p4113
sg27
S'6334'
p4114
sg29
S'Min Temperature of Coldest Month AC RCP45 2050'
p4115
sg31
g32
sg33
g34
sg35
S'clim.ac4550.bio06.tif'
p4116
sg37
S'clim'
p4117
sg39
g40
sg41
I4326
sg42
S'2050'
p4118
ssS'bio05'
p4119
(dp4120
g8
S'2015-03-13 09:01:24'
p4121
sg10
S'ac4550.bio05'
p4122
sg12
I85
sg13
S'bio05'
p4123
sg15
S'Max Temperature of Warmest Month'
p4124
sg17
S'45'
p4125
sg19
S'ac4550'
p4126
sg21
S'../views/GTiff/clim.ac4550.bio05.tif'
p4127
sg23
S'climate'
p4128
sg25
S'clim.ac4550.bio05'
p4129
sg27
S'6335'
p4130
sg29
S'Max Temperature of Warmest Month AC RCP45 2050'
p4131
sg31
g32
sg33
g34
sg35
S'clim.ac4550.bio05.tif'
p4132
sg37
S'clim'
p4133
sg39
g40
sg41
I4326
sg42
S'2050'
p4134
ssS'bio04'
p4135
(dp4136
g8
S'2015-03-13 09:01:24'
p4137
sg10
S'ac4550.bio04'
p4138
sg12
I115
sg13
S'bio04'
p4139
sg15
S'Temperature Seasonality (standard deviation *100)'
p4140
sg17
S'45'
p4141
sg19
S'ac4550'
p4142
sg21
S'../views/GTiff/clim.ac4550.bio04.tif'
p4143
sg23
S'climate'
p4144
sg25
S'clim.ac4550.bio04'
p4145
sg27
S'6336'
p4146
sg29
S'Temperature Seasonality (standard deviation *100) AC RCP45 2050'
p4147
sg31
g32
sg33
g34
sg35
S'clim.ac4550.bio04.tif'
p4148
sg37
S'clim'
p4149
sg39
g40
sg41
I4326
sg42
S'2050'
p4150
ssS'bio14'
p4151
(dp4152
g8
S'2015-03-13 09:01:24'
p4153
sg10
S'ac4550.bio14'
p4154
sg12
I190
sg13
S'bio14'
p4155
sg15
S'Precipitation of Driest Month'
p4156
sg17
S'45'
p4157
sg19
S'ac4550'
p4158
sg21
S'../views/GTiff/clim.ac4550.bio14.tif'
p4159
sg23
S'climate'
p4160
sg25
S'clim.ac4550.bio14'
p4161
sg27
S'6342'
p4162
sg29
S'Precipitation of Driest Month AC RCP45 2050'
p4163
sg31
g32
sg33
g34
sg35
S'clim.ac4550.bio14.tif'
p4164
sg37
S'clim'
p4165
sg39
g40
sg41
I4326
sg42
S'2050'
p4166
ssS'bio02'
p4167
(dp4168
g8
S'2015-03-13 09:01:24'
p4169
sg10
S'ac4550.bio02'
p4170
sg12
I153
sg13
S'bio02'
p4171
sg15
S'Mean Diurnal Range (Mean of monthly (max temp - min temp))'
p4172
sg17
S'45'
p4173
sg19
S'ac4550'
p4174
sg21
S'../views/GTiff/clim.ac4550.bio02.tif'
p4175
sg23
S'climate'
p4176
sg25
S'clim.ac4550.bio02'
p4177
sg27
S'6338'
p4178
sg29
S'Mean Diurnal Range (Mean of monthly (max temp - min temp)) AC RCP45 2050'
p4179
sg31
g32
sg33
g34
sg35
S'clim.ac4550.bio02.tif'
p4180
sg37
S'clim'
p4181
sg39
g40
sg41
I4326
sg42
S'2050'
p4182
ssS'bio01'
p4183
(dp4184
g8
S'2015-03-13 09:01:24'
p4185
sg10
S'ac4550.bio01'
p4186
sg12
I164
sg13
S'bio01'
p4187
sg15
S'Annual Mean Temperature'
p4188
sg17
S'45'
p4189
sg19
S'ac4550'
p4190
sg21
S'../views/GTiff/clim.ac4550.bio01.tif'
p4191
sg23
S'climate'
p4192
sg25
S'clim.ac4550.bio01'
p4193
sg27
S'6339'
p4194
sg29
S'Annual Mean Temperature AC RCP45 2050'
p4195
sg31
g32
sg33
g34
sg35
S'clim.ac4550.bio01.tif'
p4196
sg37
S'clim'
p4197
sg39
g40
sg41
I4326
sg42
S'2050'
p4198
ssS'bio17'
p4199
(dp4200
g8
S'2015-03-13 09:01:24'
p4201
sg10
S'ac4550.bio17'
p4202
sg12
I342
sg13
S'bio17'
p4203
sg15
S'Precipitation of Driest Quarter'
p4204
sg17
S'45'
p4205
sg19
S'ac4550'
p4206
sg21
S'../views/GTiff/clim.ac4550.bio17.tif'
p4207
sg23
S'climate'
p4208
sg25
S'clim.ac4550.bio17'
p4209
sg27
S'6340'
p4210
sg29
S'Precipitation of Driest Quarter AC RCP45 2050'
p4211
sg31
g32
sg33
g34
sg35
S'clim.ac4550.bio17.tif'
p4212
sg37
S'clim'
p4213
sg39
g40
sg41
I4326
sg42
S'2050'
p4214
ssS'bio18'
p4215
(dp4216
g8
S'2015-03-13 09:01:24'
p4217
sg10
S'ac4550.bio18'
p4218
sg12
I273
sg13
S'bio18'
p4219
sg15
S'Precipitation of Warmest Quarter'
p4220
sg17
S'45'
p4221
sg19
S'ac4550'
p4222
sg21
S'../views/GTiff/clim.ac4550.bio18.tif'
p4223
sg23
S'climate'
p4224
sg25
S'clim.ac4550.bio18'
p4225
sg27
S'6341'
p4226
sg29
S'Precipitation of Warmest Quarter AC RCP45 2050'
p4227
sg31
g32
sg33
g34
sg35
S'clim.ac4550.bio18.tif'
p4228
sg37
S'clim'
p4229
sg39
g40
sg41
I4326
sg42
S'2050'
p4230
ssS'bio19'
p4231
(dp4232
g8
S'2015-03-13 09:01:24'
p4233
sg10
S'ac4550.bio19'
p4234
sg12
I167
sg13
S'bio19'
p4235
sg15
S'Precipitation of Coldest Quarter'
p4236
sg17
S'45'
p4237
sg19
S'ac4550'
p4238
sg21
S'../views/GTiff/clim.ac4550.bio19.tif'
p4239
sg23
S'climate'
p4240
sg25
S'clim.ac4550.bio19'
p4241
sg27
S'6327'
p4242
sg29
S'Precipitation of Coldest Quarter AC RCP45 2050'
p4243
sg31
g32
sg33
g34
sg35
S'clim.ac4550.bio19.tif'
p4244
sg37
S'clim'
p4245
sg39
g40
sg41
I4326
sg42
S'2050'
p4246
ssS'bio03'
p4247
(dp4248
g8
S'2015-03-13 09:01:24'
p4249
sg10
S'ac4550.bio03'
p4250
sg12
I292
sg13
S'bio03'
p4251
sg15
S'Isothermality (BIO2/BIO7) (* 100)'
p4252
sg17
S'45'
p4253
sg19
S'ac4550'
p4254
sg21
S'../views/GTiff/clim.ac4550.bio03.tif'
p4255
sg23
S'climate'
p4256
sg25
S'clim.ac4550.bio03'
p4257
sg27
S'6337'
p4258
sg29
S'Isothermality (BIO2/BIO7) (* 100) AC RCP45 2050'
p4259
sg31
g32
sg33
g34
sg35
S'clim.ac4550.bio03.tif'
p4260
sg37
S'clim'
p4261
sg39
g40
sg41
I4326
sg42
S'2050'
p4262
ssS'bio09'
p4263
(dp4264
g8
S'2015-03-13 09:01:24'
p4265
sg10
S'ac4550.bio09'
p4266
sg12
I132
sg13
S'bio09'
p4267
sg15
S'Mean Temperature of Driest Quarter'
p4268
sg17
S'45'
p4269
sg19
S'ac4550'
p4270
sg21
S'../views/GTiff/clim.ac4550.bio09.tif'
p4271
sg23
S'climate'
p4272
sg25
S'clim.ac4550.bio09'
p4273
sg27
S'6343'
p4274
sg29
S'Mean Temperature of Driest Quarter AC RCP45 2050'
p4275
sg31
g32
sg33
g34
sg35
S'clim.ac4550.bio09.tif'
p4276
sg37
S'clim'
p4277
sg39
g40
sg41
I4326
sg42
S'2050'
p4278
ssS'bio08'
p4279
(dp4280
g8
S'2015-03-13 09:01:24'
p4281
sg10
S'ac4550.bio08'
p4282
sg12
I130
sg13
S'bio08'
p4283
sg15
S'Mean Temperature of Wettest Quarter'
p4284
sg17
S'45'
p4285
sg19
S'ac4550'
p4286
sg21
S'../views/GTiff/clim.ac4550.bio08.tif'
p4287
sg23
S'climate'
p4288
sg25
S'clim.ac4550.bio08'
p4289
sg27
S'6344'
p4290
sg29
S'Mean Temperature of Wettest Quarter AC RCP45 2050'
p4291
sg31
g32
sg33
g34
sg35
S'clim.ac4550.bio08.tif'
p4292
sg37
S'clim'
p4293
sg39
g40
sg41
I4326
sg42
S'2050'
p4294
sssS'he4570'
p4295
(dp4296
S'bio05'
p4297
(dp4298
g8
S'2015-03-13 09:01:24'
p4299
sg10
S'he4570.bio05'
p4300
sg12
I308
sg13
S'bio05'
p4301
sg15
S'Max Temperature of Warmest Month'
p4302
sg17
S'45'
p4303
sg19
S'he4570'
p4304
sg21
S'../views/GTiff/clim.he4570.bio05.tif'
p4305
sg23
S'climate'
p4306
sg25
S'clim.he4570.bio05'
p4307
sg27
S'6414'
p4308
sg29
S'Max Temperature of Warmest Month HE RCP45 2070'
p4309
sg31
g32
sg33
g34
sg35
S'clim.he4570.bio05.tif'
p4310
sg37
S'clim'
p4311
sg39
g40
sg41
I4326
sg42
S'2070'
p4312
ssS'bio07'
p4313
(dp4314
g8
S'2015-03-13 09:01:24'
p4315
sg10
S'he4570.bio07'
p4316
sg12
I131
sg13
S'bio07'
p4317
sg15
S'Temperature Annual Range (BIO5-BIO6)'
p4318
sg17
S'45'
p4319
sg19
S'he4570'
p4320
sg21
S'../views/GTiff/clim.he4570.bio07.tif'
p4321
sg23
S'climate'
p4322
sg25
S'clim.he4570.bio07'
p4323
sg27
S'6412'
p4324
sg29
S'Temperature Annual Range (BIO5-BIO6) HE RCP45 2070'
p4325
sg31
g32
sg33
g34
sg35
S'clim.he4570.bio07.tif'
p4326
sg37
S'clim'
p4327
sg39
g40
sg41
I4326
sg42
S'2070'
p4328
ssS'bio19'
p4329
(dp4330
g8
S'2015-03-13 09:01:24'
p4331
sg10
S'he4570.bio19'
p4332
sg12
I304
sg13
S'bio19'
p4333
sg15
S'Precipitation of Coldest Quarter'
p4334
sg17
S'45'
p4335
sg19
S'he4570'
p4336
sg21
S'../views/GTiff/clim.he4570.bio19.tif'
p4337
sg23
S'climate'
p4338
sg25
S'clim.he4570.bio19'
p4339
sg27
S'6424'
p4340
sg29
S'Precipitation of Coldest Quarter HE RCP45 2070'
p4341
sg31
g32
sg33
g34
sg35
S'clim.he4570.bio19.tif'
p4342
sg37
S'clim'
p4343
sg39
g40
sg41
I4326
sg42
S'2070'
p4344
ssS'bio16'
p4345
(dp4346
g8
S'2015-03-13 09:01:24'
p4347
sg10
S'he4570.bio16'
p4348
sg12
I217
sg13
S'bio16'
p4349
sg15
S'Precipitation of Wettest Quarter'
p4350
sg17
S'45'
p4351
sg19
S'he4570'
p4352
sg21
S'../views/GTiff/clim.he4570.bio16.tif'
p4353
sg23
S'climate'
p4354
sg25
S'clim.he4570.bio16'
p4355
sg27
S'6421'
p4356
sg29
S'Precipitation of Wettest Quarter HE RCP45 2070'
p4357
sg31
g32
sg33
g34
sg35
S'clim.he4570.bio16.tif'
p4358
sg37
S'clim'
p4359
sg39
g40
sg41
I4326
sg42
S'2070'
p4360
ssS'bio06'
p4361
(dp4362
g8
S'2015-03-13 09:01:24'
p4363
sg10
S'he4570.bio06'
p4364
sg12
I266
sg13
S'bio06'
p4365
sg15
S'Min Temperature of Coldest Month'
p4366
sg17
S'45'
p4367
sg19
S'he4570'
p4368
sg21
S'../views/GTiff/clim.he4570.bio06.tif'
p4369
sg23
S'climate'
p4370
sg25
S'clim.he4570.bio06'
p4371
sg27
S'6413'
p4372
sg29
S'Min Temperature of Coldest Month HE RCP45 2070'
p4373
sg31
g32
sg33
g34
sg35
S'clim.he4570.bio06.tif'
p4374
sg37
S'clim'
p4375
sg39
g40
sg41
I4326
sg42
S'2070'
p4376
ssS'bio13'
p4377
(dp4378
g8
S'2015-03-13 09:01:24'
p4379
sg10
S'he4570.bio13'
p4380
sg12
I297
sg13
S'bio13'
p4381
sg15
S'Precipitation of Wettest Month'
p4382
sg17
S'45'
p4383
sg19
S'he4570'
p4384
sg21
S'../views/GTiff/clim.he4570.bio13.tif'
p4385
sg23
S'climate'
p4386
sg25
S'clim.he4570.bio13'
p4387
sg27
S'6418'
p4388
sg29
S'Precipitation of Wettest Month HE RCP45 2070'
p4389
sg31
g32
sg33
g34
sg35
S'clim.he4570.bio13.tif'
p4390
sg37
S'clim'
p4391
sg39
g40
sg41
I4326
sg42
S'2070'
p4392
ssS'bio10'
p4393
(dp4394
g8
S'2015-03-13 09:01:24'
p4395
sg10
S'he4570.bio10'
p4396
sg12
I61
sg13
S'bio10'
p4397
sg15
S'Mean Temperature of Warmest Quarter'
p4398
sg17
S'45'
p4399
sg19
S'he4570'
p4400
sg21
S'../views/GTiff/clim.he4570.bio10.tif'
p4401
sg23
S'climate'
p4402
sg25
S'clim.he4570.bio10'
p4403
sg27
S'6415'
p4404
sg29
S'Mean Temperature of Warmest Quarter HE RCP45 2070'
p4405
sg31
g32
sg33
g34
sg35
S'clim.he4570.bio10.tif'
p4406
sg37
S'clim'
p4407
sg39
g40
sg41
I4326
sg42
S'2070'
p4408
ssS'bio11'
p4409
(dp4410
g8
S'2015-03-13 09:01:24'
p4411
sg10
S'he4570.bio11'
p4412
sg12
I233
sg13
S'bio11'
p4413
sg15
S'Mean Temperature of Coldest Quarter'
p4414
sg17
S'45'
p4415
sg19
S'he4570'
p4416
sg21
S'../views/GTiff/clim.he4570.bio11.tif'
p4417
sg23
S'climate'
p4418
sg25
S'clim.he4570.bio11'
p4419
sg27
S'6416'
p4420
sg29
S'Mean Temperature of Coldest Quarter HE RCP45 2070'
p4421
sg31
g32
sg33
g34
sg35
S'clim.he4570.bio11.tif'
p4422
sg37
S'clim'
p4423
sg39
g40
sg41
I4326
sg42
S'2070'
p4424
ssS'bio12'
p4425
(dp4426
g8
S'2015-03-13 09:01:24'
p4427
sg10
S'he4570.bio12'
p4428
sg12
I169
sg13
S'bio12'
p4429
sg15
S'Annual Precipitation'
p4430
sg17
S'45'
p4431
sg19
S'he4570'
p4432
sg21
S'../views/GTiff/clim.he4570.bio12.tif'
p4433
sg23
S'climate'
p4434
sg25
S'clim.he4570.bio12'
p4435
sg27
S'6417'
p4436
sg29
S'Annual Precipitation HE RCP45 2070'
p4437
sg31
g32
sg33
g34
sg35
S'clim.he4570.bio12.tif'
p4438
sg37
S'clim'
p4439
sg39
g40
sg41
I4326
sg42
S'2070'
p4440
ssS'bio04'
p4441
(dp4442
g8
S'2015-03-13 09:01:24'
p4443
sg10
S'he4570.bio04'
p4444
sg12
I199
sg13
S'bio04'
p4445
sg15
S'Temperature Seasonality (standard deviation *100)'
p4446
sg17
S'45'
p4447
sg19
S'he4570'
p4448
sg21
S'../views/GTiff/clim.he4570.bio04.tif'
p4449
sg23
S'climate'
p4450
sg25
S'clim.he4570.bio04'
p4451
sg27
S'6383'
p4452
sg29
S'Temperature Seasonality (standard deviation *100) HE RCP45 2070'
p4453
sg31
g32
sg33
g34
sg35
S'clim.he4570.bio04.tif'
p4454
sg37
S'clim'
p4455
sg39
g40
sg41
I4326
sg42
S'2070'
p4456
ssS'bio03'
p4457
(dp4458
g8
S'2015-03-13 09:01:24'
p4459
sg10
S'he4570.bio03'
p4460
sg12
I111
sg13
S'bio03'
p4461
sg15
S'Isothermality (BIO2/BIO7) (* 100)'
p4462
sg17
S'45'
p4463
sg19
S'he4570'
p4464
sg21
S'../views/GTiff/clim.he4570.bio03.tif'
p4465
sg23
S'climate'
p4466
sg25
S'clim.he4570.bio03'
p4467
sg27
S'6384'
p4468
sg29
S'Isothermality (BIO2/BIO7) (* 100) HE RCP45 2070'
p4469
sg31
g32
sg33
g34
sg35
S'clim.he4570.bio03.tif'
p4470
sg37
S'clim'
p4471
sg39
g40
sg41
I4326
sg42
S'2070'
p4472
ssS'bio02'
p4473
(dp4474
g8
S'2015-03-13 09:01:24'
p4475
sg10
S'he4570.bio02'
p4476
sg12
I46
sg13
S'bio02'
p4477
sg15
S'Mean Diurnal Range (Mean of monthly (max temp - min temp))'
p4478
sg17
S'45'
p4479
sg19
S'he4570'
p4480
sg21
S'../views/GTiff/clim.he4570.bio02.tif'
p4481
sg23
S'climate'
p4482
sg25
S'clim.he4570.bio02'
p4483
sg27
S'6385'
p4484
sg29
S'Mean Diurnal Range (Mean of monthly (max temp - min temp)) HE RCP45 2070'
p4485
sg31
g32
sg33
g34
sg35
S'clim.he4570.bio02.tif'
p4486
sg37
S'clim'
p4487
sg39
g40
sg41
I4326
sg42
S'2070'
p4488
ssS'bio01'
p4489
(dp4490
g8
S'2015-03-13 09:01:24'
p4491
sg10
S'he4570.bio01'
p4492
sg12
I51
sg13
S'bio01'
p4493
sg15
S'Annual Mean Temperature'
p4494
sg17
S'45'
p4495
sg19
S'he4570'
p4496
sg21
S'../views/GTiff/clim.he4570.bio01.tif'
p4497
sg23
S'climate'
p4498
sg25
S'clim.he4570.bio01'
p4499
sg27
S'6386'
p4500
sg29
S'Annual Mean Temperature HE RCP45 2070'
p4501
sg31
g32
sg33
g34
sg35
S'clim.he4570.bio01.tif'
p4502
sg37
S'clim'
p4503
sg39
g40
sg41
I4326
sg42
S'2070'
p4504
ssS'bio17'
p4505
(dp4506
g8
S'2015-03-13 09:01:24'
p4507
sg10
S'he4570.bio17'
p4508
sg12
I227
sg13
S'bio17'
p4509
sg15
S'Precipitation of Driest Quarter'
p4510
sg17
S'45'
p4511
sg19
S'he4570'
p4512
sg21
S'../views/GTiff/clim.he4570.bio17.tif'
p4513
sg23
S'climate'
p4514
sg25
S'clim.he4570.bio17'
p4515
sg27
S'6422'
p4516
sg29
S'Precipitation of Driest Quarter HE RCP45 2070'
p4517
sg31
g32
sg33
g34
sg35
S'clim.he4570.bio17.tif'
p4518
sg37
S'clim'
p4519
sg39
g40
sg41
I4326
sg42
S'2070'
p4520
ssS'bio18'
p4521
(dp4522
g8
S'2015-03-13 09:01:24'
p4523
sg10
S'he4570.bio18'
p4524
sg12
I34
sg13
S'bio18'
p4525
sg15
S'Precipitation of Warmest Quarter'
p4526
sg17
S'45'
p4527
sg19
g4295
sg21
S'../views/GTiff/clim.he4570.bio18.tif'
p4528
sg23
S'climate'
p4529
sg25
S'clim.he4570.bio18'
p4530
sg27
S'6423'
p4531
sg29
S'Precipitation of Warmest Quarter HE RCP45 2070'
p4532
sg31
g32
sg33
g34
sg35
S'clim.he4570.bio18.tif'
p4533
sg37
S'clim'
p4534
sg39
g40
sg41
I4326
sg42
S'2070'
p4535
ssS'bio14'
p4536
(dp4537
g8
S'2015-03-13 09:01:24'
p4538
sg10
S'he4570.bio14'
p4539
sg12
I137
sg13
S'bio14'
p4540
sg15
S'Precipitation of Driest Month'
p4541
sg17
S'45'
p4542
sg19
S'he4570'
p4543
sg21
S'../views/GTiff/clim.he4570.bio14.tif'
p4544
sg23
S'climate'
p4545
sg25
S'clim.he4570.bio14'
p4546
sg27
S'6419'
p4547
sg29
S'Precipitation of Driest Month HE RCP45 2070'
p4548
sg31
g32
sg33
g34
sg35
S'clim.he4570.bio14.tif'
p4549
sg37
S'clim'
p4550
sg39
g40
sg41
I4326
sg42
S'2070'
p4551
ssS'bio08'
p4552
(dp4553
g8
S'2015-03-13 09:01:24'
p4554
sg10
S'he4570.bio08'
p4555
sg12
I242
sg13
S'bio08'
p4556
sg15
S'Mean Temperature of Wettest Quarter'
p4557
sg17
S'45'
p4558
sg19
S'he4570'
p4559
sg21
S'../views/GTiff/clim.he4570.bio08.tif'
p4560
sg23
S'climate'
p4561
sg25
S'clim.he4570.bio08'
p4562
sg27
S'6426'
p4563
sg29
S'Mean Temperature of Wettest Quarter HE RCP45 2070'
p4564
sg31
g32
sg33
g34
sg35
S'clim.he4570.bio08.tif'
p4565
sg37
S'clim'
p4566
sg39
g40
sg41
I4326
sg42
S'2070'
p4567
ssS'bio09'
p4568
(dp4569
g8
S'2015-03-13 09:01:24'
p4570
sg10
S'he4570.bio09'
p4571
sg12
I243
sg13
S'bio09'
p4572
sg15
S'Mean Temperature of Driest Quarter'
p4573
sg17
S'45'
p4574
sg19
S'he4570'
p4575
sg21
S'../views/GTiff/clim.he4570.bio09.tif'
p4576
sg23
S'climate'
p4577
sg25
S'clim.he4570.bio09'
p4578
sg27
S'6425'
p4579
sg29
S'Mean Temperature of Driest Quarter HE RCP45 2070'
p4580
sg31
g32
sg33
g34
sg35
S'clim.he4570.bio09.tif'
p4581
sg37
S'clim'
p4582
sg39
g40
sg41
I4326
sg42
S'2070'
p4583
ssS'bio15'
p4584
(dp4585
g8
S'2015-03-13 09:01:24'
p4586
sg10
S'he4570.bio15'
p4587
sg12
I229
sg13
S'bio15'
p4588
sg15
S'Precipitation Seasonality (Coefficient of Variation)'
p4589
sg17
S'45'
p4590
sg19
S'he4570'
p4591
sg21
S'../views/GTiff/clim.he4570.bio15.tif'
p4592
sg23
S'climate'
p4593
sg25
S'clim.he4570.bio15'
p4594
sg27
S'6420'
p4595
sg29
S'Precipitation Seasonality (Coefficient of Variation) HE RCP45 2070'
p4596
sg31
g32
sg33
g34
sg35
S'clim.he4570.bio15.tif'
p4597
sg37
S'clim'
p4598
sg39
g40
sg41
I4326
sg42
S'2070'
p4599
ssssS'agclim'
p4600
(dp4601
S'he8550'
p4602
(dp4603
S'bio06'
p4604
(dp4605
g8
S'2015-03-13 09:01:24'
p4606
sg10
S'he8550.bio06'
p4607
sg12
I78
sg13
S'bio06'
p4608
sg15
S'Min Temperature of Coldest Month'
p4609
sg17
S'85'
p4610
sg19
S'he8550'
p4611
sg21
S'../views/GTiff/agclim.he8550.bio06.tif'
p4612
sg23
S'agclimate'
p4613
sg25
S'agclim.he8550.bio06'
p4614
sg27
S'6498'
p4615
sg29
S'Min Temperature of Coldest Month'
p4616
sg31
g32
sg33
g34
sg35
S'agclim.he8550.bio06.tif'
p4617
sg37
S'agclim'
p4618
sg39
g40
sg41
I4326
sg42
S'2050'
p4619
ssS'bio12'
p4620
(dp4621
g8
S'2015-03-13 09:01:24'
p4622
sg10
S'he8550.bio12'
p4623
sg12
I321
sg13
S'bio12'
p4624
sg15
S'Annual Precipitation'
p4625
sg17
S'85'
p4626
sg19
S'he8550'
p4627
sg21
S'../views/GTiff/agclim.he8550.bio12.tif'
p4628
sg23
S'agclimate'
p4629
sg25
S'agclim.he8550.bio12'
p4630
sg27
S'6499'
p4631
sg29
S'Annual Precipitation'
p4632
sg31
g32
sg33
g34
sg35
S'agclim.he8550.bio12.tif'
p4633
sg37
S'agclim'
p4634
sg39
g40
sg41
I4326
sg42
S'2050'
p4635
ssS'gdd5'
p4636
(dp4637
g8
S'2015-03-13 09:01:24'
p4638
sg10
S'he8550.gdd5'
p4639
sg12
I19
sg13
S'gdd5'
p4640
sg15
S'Growing Degree Days 5C Baseline'
p4641
sg17
S'85'
p4642
sg19
g4602
sg21
S'../views/GTiff/agclim.he8550.gdd5.tif'
p4643
sg23
S'agclimate'
p4644
sg25
S'agclim.he8550.gdd5'
p4645
sg27
S'6500'
p4646
sg29
S'Growing Degree Days 5C Baseline'
p4647
sg31
g32
sg33
g34
sg35
S'agclim.he8550.gdd5.tif'
p4648
sg37
S'agclim'
p4649
sg39
g40
sg41
I4326
sg42
S'2050'
p4650
ssS'aridity'
p4651
(dp4652
g8
S'2015-03-13 09:01:24'
p4653
sg10
S'he8550.aridity'
p4654
sg12
I106
sg13
S'aridity'
p4655
sg15
S'CRU Metric of Mean Annual Aridity'
p4656
sg17
S'85'
p4657
sg19
S'he8550'
p4658
sg21
S'../views/GTiff/agclim.he8550.aridity.tif'
p4659
sg23
S'agclimate'
p4660
sg25
S'agclim.he8550.aridity'
p4661
sg27
S'6501'
p4662
sg29
S'CRU Metric of Mean Annual Aridity'
p4663
sg31
g32
sg33
g34
sg35
S'agclim.he8550.aridity.tif'
p4664
sg37
S'agclim'
p4665
sg39
g40
sg41
I4326
sg42
S'2050'
p4666
ssS'petmn'
p4667
(dp4668
g8
S'2015-03-13 09:01:24'
p4669
sg10
S'he8550.petmn'
p4670
sg12
I118
sg13
S'petmn'
p4671
sg15
S'CRU Mean Annual Evapotranspiration'
p4672
sg17
S'85'
p4673
sg19
S'he8550'
p4674
sg21
S'../views/GTiff/agclim.he8550.petmn.tif'
p4675
sg23
S'agclimate'
p4676
sg25
S'agclim.he8550.petmn'
p4677
sg27
S'6502'
p4678
sg29
S'CRU Mean Annual Evapotranspiration'
p4679
sg31
g32
sg33
g34
sg35
S'agclim.he8550.petmn.tif'
p4680
sg37
S'agclim'
p4681
sg39
g40
sg41
I4326
sg42
S'2050'
p4682
sssS'he2670'
p4683
(dp4684
S'bio06'
p4685
(dp4686
g8
S'2015-03-13 09:01:24'
p4687
sg10
S'he2670.bio06'
p4688
sg12
I149
sg13
S'bio06'
p4689
sg15
S'Min Temperature of Coldest Month'
p4690
sg17
S'26'
p4691
sg19
S'he2670'
p4692
sg21
S'../views/GTiff/agclim.he2670.bio06.tif'
p4693
sg23
S'agclimate'
p4694
sg25
S'agclim.he2670.bio06'
p4695
sg27
S'6503'
p4696
sg29
S'Min Temperature of Coldest Month'
p4697
sg31
g32
sg33
g34
sg35
S'agclim.he2670.bio06.tif'
p4698
sg37
S'agclim'
p4699
sg39
g40
sg41
I4326
sg42
S'2070'
p4700
ssS'bio12'
p4701
(dp4702
g8
S'2015-03-13 09:01:24'
p4703
sg10
S'he2670.bio12'
p4704
sg12
I287
sg13
S'bio12'
p4705
sg15
S'Annual Precipitation'
p4706
sg17
S'26'
p4707
sg19
S'he2670'
p4708
sg21
S'../views/GTiff/agclim.he2670.bio12.tif'
p4709
sg23
S'agclimate'
p4710
sg25
S'agclim.he2670.bio12'
p4711
sg27
S'6504'
p4712
sg29
S'Annual Precipitation'
p4713
sg31
g32
sg33
g34
sg35
S'agclim.he2670.bio12.tif'
p4714
sg37
S'agclim'
p4715
sg39
g40
sg41
I4326
sg42
S'2070'
p4716
ssS'gdd5'
p4717
(dp4718
g8
S'2015-03-13 09:01:24'
p4719
sg10
S'he2670.gdd5'
p4720
sg12
I60
sg13
S'gdd5'
p4721
sg15
S'Growing Degree Days 5C Baseline'
p4722
sg17
S'26'
p4723
sg19
g4683
sg21
S'../views/GTiff/agclim.he2670.gdd5.tif'
p4724
sg23
S'agclimate'
p4725
sg25
S'agclim.he2670.gdd5'
p4726
sg27
S'6505'
p4727
sg29
S'Growing Degree Days 5C Baseline'
p4728
sg31
g32
sg33
g34
sg35
S'agclim.he2670.gdd5.tif'
p4729
sg37
S'agclim'
p4730
sg39
g40
sg41
I4326
sg42
S'2070'
p4731
ssS'aridity'
p4732
(dp4733
g8
S'2015-03-13 09:01:24'
p4734
sg10
S'he2670.aridity'
p4735
sg12
I282
sg13
S'aridity'
p4736
sg15
S'CRU Metric of Mean Annual Aridity'
p4737
sg17
S'26'
p4738
sg19
S'he2670'
p4739
sg21
S'../views/GTiff/agclim.he2670.aridity.tif'
p4740
sg23
S'agclimate'
p4741
sg25
S'agclim.he2670.aridity'
p4742
sg27
S'6538'
p4743
sg29
S'CRU Metric of Mean Annual Aridity'
p4744
sg31
g32
sg33
g34
sg35
S'agclim.he2670.aridity.tif'
p4745
sg37
S'agclim'
p4746
sg39
g40
sg41
I4326
sg42
S'2070'
p4747
ssS'petmn'
p4748
(dp4749
g8
S'2015-03-13 09:01:24'
p4750
sg10
S'he2670.petmn'
p4751
sg12
I200
sg13
S'petmn'
p4752
sg15
S'CRU Mean Annual Evapotranspiration'
p4753
sg17
S'26'
p4754
sg19
S'he2670'
p4755
sg21
S'../views/GTiff/agclim.he2670.petmn.tif'
p4756
sg23
S'agclimate'
p4757
sg25
S'agclim.he2670.petmn'
p4758
sg27
S'6506'
p4759
sg29
S'CRU Mean Annual Evapotranspiration'
p4760
sg31
g32
sg33
g34
sg35
S'agclim.he2670.petmn.tif'
p4761
sg37
S'agclim'
p4762
sg39
g40
sg41
I4326
sg42
S'2070'
p4763
sssS'he8570'
p4764
(dp4765
S'bio06'
p4766
(dp4767
g8
S'2015-03-13 09:01:24'
p4768
sg10
S'he8570.bio06'
p4769
sg12
I3
sg13
S'bio06'
p4770
sg15
S'Min Temperature of Coldest Month'
p4771
sg17
S'85'
p4772
sg19
g4764
sg21
S'../views/GTiff/agclim.he8570.bio06.tif'
p4773
sg23
S'agclimate'
p4774
sg25
S'agclim.he8570.bio06'
p4775
sg27
S'6507'
p4776
sg29
S'Min Temperature of Coldest Month'
p4777
sg31
g32
sg33
g34
sg35
S'agclim.he8570.bio06.tif'
p4778
sg37
g4600
sg39
g40
sg41
I4326
sg42
S'2070'
p4779
ssS'bio12'
p4780
(dp4781
g8
S'2015-03-13 09:01:24'
p4782
sg10
S'he8570.bio12'
p4783
sg12
I240
sg13
S'bio12'
p4784
sg15
S'Annual Precipitation'
p4785
sg17
S'85'
p4786
sg19
S'he8570'
p4787
sg21
S'../views/GTiff/agclim.he8570.bio12.tif'
p4788
sg23
S'agclimate'
p4789
sg25
S'agclim.he8570.bio12'
p4790
sg27
S'6508'
p4791
sg29
S'Annual Precipitation'
p4792
sg31
g32
sg33
g34
sg35
S'agclim.he8570.bio12.tif'
p4793
sg37
S'agclim'
p4794
sg39
g40
sg41
I4326
sg42
S'2070'
p4795
ssS'gdd5'
p4796
(dp4797
g8
S'2015-03-13 09:01:24'
p4798
sg10
S'he8570.gdd5'
p4799
sg12
I191
sg13
S'gdd5'
p4800
sg15
S'Growing Degree Days 5C Baseline'
p4801
sg17
S'85'
p4802
sg19
S'he8570'
p4803
sg21
S'../views/GTiff/agclim.he8570.gdd5.tif'
p4804
sg23
S'agclimate'
p4805
sg25
S'agclim.he8570.gdd5'
p4806
sg27
S'6539'
p4807
sg29
S'Growing Degree Days 5C Baseline'
p4808
sg31
g32
sg33
g34
sg35
S'agclim.he8570.gdd5.tif'
p4809
sg37
S'agclim'
p4810
sg39
g40
sg41
I4326
sg42
S'2070'
p4811
ssS'aridity'
p4812
(dp4813
g8
S'2015-03-13 09:01:24'
p4814
sg10
S'he8570.aridity'
p4815
sg12
I117
sg13
S'aridity'
p4816
sg15
S'CRU Metric of Mean Annual Aridity'
p4817
sg17
S'85'
p4818
sg19
S'he8570'
p4819
sg21
S'../views/GTiff/agclim.he8570.aridity.tif'
p4820
sg23
S'agclimate'
p4821
sg25
S'agclim.he8570.aridity'
p4822
sg27
S'6509'
p4823
sg29
S'CRU Metric of Mean Annual Aridity'
p4824
sg31
g32
sg33
g34
sg35
S'agclim.he8570.aridity.tif'
p4825
sg37
S'agclim'
p4826
sg39
g40
sg41
I4326
sg42
S'2070'
p4827
ssS'petmn'
p4828
(dp4829
g8
S'2015-03-13 09:01:24'
p4830
sg10
S'he8570.petmn'
p4831
sg12
I181
sg13
S'petmn'
p4832
sg15
S'CRU Mean Annual Evapotranspiration'
p4833
sg17
S'85'
p4834
sg19
S'he8570'
p4835
sg21
S'../views/GTiff/agclim.he8570.petmn.tif'
p4836
sg23
S'agclimate'
p4837
sg25
S'agclim.he8570.petmn'
p4838
sg27
S'6540'
p4839
sg29
S'CRU Mean Annual Evapotranspiration'
p4840
sg31
g32
sg33
g34
sg35
S'agclim.he8570.petmn.tif'
p4841
sg37
S'agclim'
p4842
sg39
g40
sg41
I4326
sg42
S'2070'
p4843
sssS'he2650'
p4844
(dp4845
S'bio06'
p4846
(dp4847
g8
S'2015-03-13 09:01:24'
p4848
sg10
S'he2650.bio06'
p4849
sg12
I208
sg13
S'bio06'
p4850
sg15
S'Min Temperature of Coldest Month'
p4851
sg17
S'26'
p4852
sg19
S'he2650'
p4853
sg21
S'../views/GTiff/agclim.he2650.bio06.tif'
p4854
sg23
S'agclimate'
p4855
sg25
S'agclim.he2650.bio06'
p4856
sg27
S'6510'
p4857
sg29
S'Min Temperature of Coldest Month'
p4858
sg31
g32
sg33
g34
sg35
S'agclim.he2650.bio06.tif'
p4859
sg37
S'agclim'
p4860
sg39
g40
sg41
I4326
sg42
S'2050'
p4861
ssS'bio12'
p4862
(dp4863
g8
S'2015-03-13 09:01:24'
p4864
sg10
S'he2650.bio12'
p4865
sg12
I340
sg13
S'bio12'
p4866
sg15
S'Annual Precipitation'
p4867
sg17
S'26'
p4868
sg19
S'he2650'
p4869
sg21
S'../views/GTiff/agclim.he2650.bio12.tif'
p4870
sg23
S'agclimate'
p4871
sg25
S'agclim.he2650.bio12'
p4872
sg27
S'6511'
p4873
sg29
S'Annual Precipitation'
p4874
sg31
g32
sg33
g34
sg35
S'agclim.he2650.bio12.tif'
p4875
sg37
S'agclim'
p4876
sg39
g40
sg41
I4326
sg42
S'2050'
p4877
ssS'gdd5'
p4878
(dp4879
g8
S'2015-03-13 09:01:24'
p4880
sg10
S'he2650.gdd5'
p4881
sg12
I157
sg13
S'gdd5'
p4882
sg15
S'Growing Degree Days 5C Baseline'
p4883
sg17
S'26'
p4884
sg19
S'he2650'
p4885
sg21
S'../views/GTiff/agclim.he2650.gdd5.tif'
p4886
sg23
S'agclimate'
p4887
sg25
S'agclim.he2650.gdd5'
p4888
sg27
S'6512'
p4889
sg29
S'Growing Degree Days 5C Baseline'
p4890
sg31
g32
sg33
g34
sg35
S'agclim.he2650.gdd5.tif'
p4891
sg37
S'agclim'
p4892
sg39
g40
sg41
I4326
sg42
S'2050'
p4893
ssS'aridity'
p4894
(dp4895
g8
S'2015-03-13 09:01:24'
p4896
sg10
S'he2650.aridity'
p4897
sg12
I253
sg13
S'aridity'
p4898
sg15
S'CRU Metric of Mean Annual Aridity'
p4899
sg17
S'26'
p4900
sg19
S'he2650'
p4901
sg21
S'../views/GTiff/agclim.he2650.aridity.tif'
p4902
sg23
S'agclimate'
p4903
sg25
S'agclim.he2650.aridity'
p4904
sg27
S'6541'
p4905
sg29
S'CRU Metric of Mean Annual Aridity'
p4906
sg31
g32
sg33
g34
sg35
S'agclim.he2650.aridity.tif'
p4907
sg37
S'agclim'
p4908
sg39
g40
sg41
I4326
sg42
S'2050'
p4909
ssS'petmn'
p4910
(dp4911
g8
S'2015-03-13 09:01:24'
p4912
sg10
S'he2650.petmn'
p4913
sg12
I9
sg13
S'petmn'
p4914
sg15
S'CRU Mean Annual Evapotranspiration'
p4915
sg17
S'26'
p4916
sg19
g4844
sg21
S'../views/GTiff/agclim.he2650.petmn.tif'
p4917
sg23
S'agclimate'
p4918
sg25
S'agclim.he2650.petmn'
p4919
sg27
S'6542'
p4920
sg29
S'CRU Mean Annual Evapotranspiration'
p4921
sg31
g32
sg33
g34
sg35
S'agclim.he2650.petmn.tif'
p4922
sg37
S'agclim'
p4923
sg39
g40
sg41
I4326
sg42
S'2050'
p4924
sssS'current'
p4925
(dp4926
S'bio06'
p4927
(dp4928
g8
S'2015-03-13 09:01:24'
p4929
sg10
S'current.bio06'
p4930
sg12
I125
sg13
S'bio06'
p4931
sg15
S'Min Temperature of Coldest Month'
p4932
sg17
S'current'
p4933
sg19
g4925
sg21
S'../views/GTiff/agclim.current.bio06.tif'
p4934
sg23
S'agclimate'
p4935
sg25
S'agclim.current.bio06'
p4936
sg27
S'6513'
p4937
sg29
S'Min Temperature of Coldest Month'
p4938
sg31
g32
sg33
g34
sg35
S'agclim.current.bio06.tif'
p4939
sg37
S'agclim'
p4940
sg39
g40
sg41
I4326
sg42
S'current'
p4941
ssS'bio12'
p4942
(dp4943
g8
S'2015-03-13 09:01:24'
p4944
sg10
S'current.bio12'
p4945
sg12
I238
sg13
S'bio12'
p4946
sg15
S'Annual Precipitation'
p4947
sg17
S'current'
p4948
sg19
S'current'
p4949
sg21
S'../views/GTiff/agclim.current.bio12.tif'
p4950
sg23
S'agclimate'
p4951
sg25
S'agclim.current.bio12'
p4952
sg27
S'6514'
p4953
sg29
S'Annual Precipitation'
p4954
sg31
g32
sg33
g34
sg35
S'agclim.current.bio12.tif'
p4955
sg37
S'agclim'
p4956
sg39
g40
sg41
I4326
sg42
S'current'
p4957
ssS'gdd5'
p4958
(dp4959
g8
S'2015-03-13 09:01:24'
p4960
sg10
S'current.gdd5'
p4961
sg12
I166
sg13
S'gdd5'
p4962
sg15
S'Growing Degree Days 5C Baseline'
p4963
sg17
S'current'
p4964
sg19
S'current'
p4965
sg21
S'../views/GTiff/agclim.current.gdd5.tif'
p4966
sg23
S'agclimate'
p4967
sg25
S'agclim.current.gdd5'
p4968
sg27
S'6515'
p4969
sg29
S'Growing Degree Days 5C Baseline'
p4970
sg31
g32
sg33
g34
sg35
S'agclim.current.gdd5.tif'
p4971
sg37
S'agclim'
p4972
sg39
g40
sg41
I4326
sg42
S'current'
p4973
ssS'aridity'
p4974
(dp4975
g8
S'2015-03-13 09:01:24'
p4976
sg10
S'current.aridity'
p4977
sg12
I261
sg13
S'aridity'
p4978
sg15
S'CRU Metric of Mean Annual Aridity'
p4979
sg17
S'current'
p4980
sg19
S'current'
p4981
sg21
S'../views/GTiff/agclim.current.aridity.tif'
p4982
sg23
S'agclimate'
p4983
sg25
S'agclim.current.aridity'
p4984
sg27
S'6516'
p4985
sg29
S'CRU Metric of Mean Annual Aridity'
p4986
sg31
g32
sg33
g34
sg35
S'agclim.current.aridity.tif'
p4987
sg37
S'agclim'
p4988
sg39
g40
sg41
I4326
sg42
S'current'
p4989
ssS'petmn'
p4990
(dp4991
g8
S'2015-03-13 09:01:24'
p4992
sg10
S'current.petmn'
p4993
sg12
I312
sg13
S'petmn'
p4994
sg15
S'CRU Mean Annual Evapotranspiration'
p4995
sg17
S'current'
p4996
sg19
S'current'
p4997
sg21
S'../views/GTiff/agclim.current.petmn.tif'
p4998
sg23
S'agclimate'
p4999
sg25
S'agclim.current.petmn'
p5000
sg27
S'6517'
p5001
sg29
S'CRU Mean Annual Evapotranspiration'
p5002
sg31
g32
sg33
g34
sg35
S'agclim.current.petmn.tif'
p5003
sg37
S'agclim'
p5004
sg39
g40
sg41
I4326
sg42
S'current'
p5005
sssS'he6050'
p5006
(dp5007
S'bio06'
p5008
(dp5009
g8
S'2015-03-13 09:01:24'
p5010
sg10
S'he6050.bio06'
p5011
sg12
I82
sg13
S'bio06'
p5012
sg15
S'Min Temperature of Coldest Month'
p5013
sg17
S'60'
p5014
sg19
g5006
sg21
S'../views/GTiff/agclim.he6050.bio06.tif'
p5015
sg23
S'agclimate'
p5016
sg25
S'agclim.he6050.bio06'
p5017
sg27
S'6518'
p5018
sg29
S'Min Temperature of Coldest Month'
p5019
sg31
g32
sg33
g34
sg35
S'agclim.he6050.bio06.tif'
p5020
sg37
S'agclim'
p5021
sg39
g40
sg41
I4326
sg42
S'2050'
p5022
ssS'bio12'
p5023
(dp5024
g8
S'2015-03-13 09:01:24'
p5025
sg10
S'he6050.bio12'
p5026
sg12
I311
sg13
S'bio12'
p5027
sg15
S'Annual Precipitation'
p5028
sg17
S'60'
p5029
sg19
S'he6050'
p5030
sg21
S'../views/GTiff/agclim.he6050.bio12.tif'
p5031
sg23
S'agclimate'
p5032
sg25
S'agclim.he6050.bio12'
p5033
sg27
S'6519'
p5034
sg29
S'Annual Precipitation'
p5035
sg31
g32
sg33
g34
sg35
S'agclim.he6050.bio12.tif'
p5036
sg37
S'agclim'
p5037
sg39
g40
sg41
I4326
sg42
S'2050'
p5038
ssS'gdd5'
p5039
(dp5040
g8
S'2015-03-13 09:01:24'
p5041
sg10
S'he6050.gdd5'
p5042
sg12
I113
sg13
S'gdd5'
p5043
sg15
S'Growing Degree Days 5C Baseline'
p5044
sg17
S'60'
p5045
sg19
S'he6050'
p5046
sg21
S'../views/GTiff/agclim.he6050.gdd5.tif'
p5047
sg23
S'agclimate'
p5048
sg25
S'agclim.he6050.gdd5'
p5049
sg27
S'6520'
p5050
sg29
S'Growing Degree Days 5C Baseline'
p5051
sg31
g32
sg33
g34
sg35
S'agclim.he6050.gdd5.tif'
p5052
sg37
S'agclim'
p5053
sg39
g40
sg41
I4326
sg42
S'2050'
p5054
ssS'aridity'
p5055
(dp5056
g8
S'2015-03-13 09:01:24'
p5057
sg10
S'he6050.aridity'
p5058
sg12
I151
sg13
S'aridity'
p5059
sg15
S'CRU Metric of Mean Annual Aridity'
p5060
sg17
S'60'
p5061
sg19
S'he6050'
p5062
sg21
S'../views/GTiff/agclim.he6050.aridity.tif'
p5063
sg23
S'agclimate'
p5064
sg25
S'agclim.he6050.aridity'
p5065
sg27
S'6521'
p5066
sg29
S'CRU Metric of Mean Annual Aridity'
p5067
sg31
g32
sg33
g34
sg35
S'agclim.he6050.aridity.tif'
p5068
sg37
S'agclim'
p5069
sg39
g40
sg41
I4326
sg42
S'2050'
p5070
ssS'petmn'
p5071
(dp5072
g8
S'2015-03-13 09:01:24'
p5073
sg10
S'he6050.petmn'
p5074
sg12
I236
sg13
S'petmn'
p5075
sg15
S'CRU Mean Annual Evapotranspiration'
p5076
sg17
S'60'
p5077
sg19
S'he6050'
p5078
sg21
S'../views/GTiff/agclim.he6050.petmn.tif'
p5079
sg23
S'agclimate'
p5080
sg25
S'agclim.he6050.petmn'
p5081
sg27
S'6522'
p5082
sg29
S'CRU Mean Annual Evapotranspiration'
p5083
sg31
g32
sg33
g34
sg35
S'agclim.he6050.petmn.tif'
p5084
sg37
S'agclim'
p5085
sg39
g40
sg41
I4326
sg42
S'2050'
p5086
sssS'he4550'
p5087
(dp5088
S'bio06'
p5089
(dp5090
g8
S'2015-03-13 09:01:24'
p5091
sg10
S'he4550.bio06'
p5092
sg12
I285
sg13
S'bio06'
p5093
sg15
S'Min Temperature of Coldest Month'
p5094
sg17
S'45'
p5095
sg19
S'he4550'
p5096
sg21
S'../views/GTiff/agclim.he4550.bio06.tif'
p5097
sg23
S'agclimate'
p5098
sg25
S'agclim.he4550.bio06'
p5099
sg27
S'6528'
p5100
sg29
S'Min Temperature of Coldest Month'
p5101
sg31
g32
sg33
g34
sg35
S'agclim.he4550.bio06.tif'
p5102
sg37
S'agclim'
p5103
sg39
g40
sg41
I4326
sg42
S'2050'
p5104
ssS'bio12'
p5105
(dp5106
g8
S'2015-03-13 09:01:24'
p5107
sg10
S'he4550.bio12'
p5108
sg12
I226
sg13
S'bio12'
p5109
sg15
S'Annual Precipitation'
p5110
sg17
S'45'
p5111
sg19
S'he4550'
p5112
sg21
S'../views/GTiff/agclim.he4550.bio12.tif'
p5113
sg23
S'agclimate'
p5114
sg25
S'agclim.he4550.bio12'
p5115
sg27
S'6529'
p5116
sg29
S'Annual Precipitation'
p5117
sg31
g32
sg33
g34
sg35
S'agclim.he4550.bio12.tif'
p5118
sg37
S'agclim'
p5119
sg39
g40
sg41
I4326
sg42
S'2050'
p5120
ssS'gdd5'
p5121
(dp5122
g8
S'2015-03-13 09:01:24'
p5123
sg10
S'he4550.gdd5'
p5124
sg12
I276
sg13
S'gdd5'
p5125
sg15
S'Growing Degree Days 5C Baseline'
p5126
sg17
S'45'
p5127
sg19
S'he4550'
p5128
sg21
S'../views/GTiff/agclim.he4550.gdd5.tif'
p5129
sg23
S'agclimate'
p5130
sg25
S'agclim.he4550.gdd5'
p5131
sg27
S'6530'
p5132
sg29
S'Growing Degree Days 5C Baseline'
p5133
sg31
g32
sg33
g34
sg35
S'agclim.he4550.gdd5.tif'
p5134
sg37
S'agclim'
p5135
sg39
g40
sg41
I4326
sg42
S'2050'
p5136
ssS'aridity'
p5137
(dp5138
g8
S'2015-03-13 09:01:24'
p5139
sg10
S'he4550.aridity'
p5140
sg12
I322
sg13
S'aridity'
p5141
sg15
S'CRU Metric of Mean Annual Aridity'
p5142
sg17
S'45'
p5143
sg19
S'he4550'
p5144
sg21
S'../views/GTiff/agclim.he4550.aridity.tif'
p5145
sg23
S'agclimate'
p5146
sg25
S'agclim.he4550.aridity'
p5147
sg27
S'6531'
p5148
sg29
S'CRU Metric of Mean Annual Aridity'
p5149
sg31
g32
sg33
g34
sg35
S'agclim.he4550.aridity.tif'
p5150
sg37
S'agclim'
p5151
sg39
g40
sg41
I4326
sg42
S'2050'
p5152
ssS'petmn'
p5153
(dp5154
g8
S'2015-03-13 09:01:24'
p5155
sg10
S'he4550.petmn'
p5156
sg12
I204
sg13
S'petmn'
p5157
sg15
S'CRU Mean Annual Evapotranspiration'
p5158
sg17
S'45'
p5159
sg19
g5087
sg21
S'../views/GTiff/agclim.he4550.petmn.tif'
p5160
sg23
S'agclimate'
p5161
sg25
S'agclim.he4550.petmn'
p5162
sg27
S'6532'
p5163
sg29
S'CRU Mean Annual Evapotranspiration'
p5164
sg31
g32
sg33
g34
sg35
S'agclim.he4550.petmn.tif'
p5165
sg37
S'agclim'
p5166
sg39
g40
sg41
I4326
sg42
S'2050'
p5167
sssS'he6070'
p5168
(dp5169
S'bio06'
p5170
(dp5171
g8
S'2015-03-13 09:01:24'
p5172
sg10
S'he6070.bio06'
p5173
sg12
I278
sg13
S'bio06'
p5174
sg15
S'Min Temperature of Coldest Month'
p5175
sg17
S'60'
p5176
sg19
S'he6070'
p5177
sg21
S'../views/GTiff/agclim.he6070.bio06.tif'
p5178
sg23
S'agclimate'
p5179
sg25
S'agclim.he6070.bio06'
p5180
sg27
S'6523'
p5181
sg29
S'Min Temperature of Coldest Month'
p5182
sg31
g32
sg33
g34
sg35
S'agclim.he6070.bio06.tif'
p5183
sg37
S'agclim'
p5184
sg39
g40
sg41
I4326
sg42
S'2070'
p5185
ssS'bio12'
p5186
(dp5187
g8
S'2015-03-13 09:01:24'
p5188
sg10
S'he6070.bio12'
p5189
sg12
I300
sg13
S'bio12'
p5190
sg15
S'Annual Precipitation'
p5191
sg17
S'60'
p5192
sg19
S'he6070'
p5193
sg21
S'../views/GTiff/agclim.he6070.bio12.tif'
p5194
sg23
S'agclimate'
p5195
sg25
S'agclim.he6070.bio12'
p5196
sg27
S'6524'
p5197
sg29
S'Annual Precipitation'
p5198
sg31
g32
sg33
g34
sg35
S'agclim.he6070.bio12.tif'
p5199
sg37
S'agclim'
p5200
sg39
g40
sg41
I4326
sg42
S'2070'
p5201
ssS'gdd5'
p5202
(dp5203
g8
S'2015-03-13 09:01:24'
p5204
sg10
S'he6070.gdd5'
p5205
sg12
I15
sg13
S'gdd5'
p5206
sg15
S'Growing Degree Days 5C Baseline'
p5207
sg17
S'60'
p5208
sg19
g5168
sg21
S'../views/GTiff/agclim.he6070.gdd5.tif'
p5209
sg23
S'agclimate'
p5210
sg25
S'agclim.he6070.gdd5'
p5211
sg27
S'6525'
p5212
sg29
S'Growing Degree Days 5C Baseline'
p5213
sg31
g32
sg33
g34
sg35
S'agclim.he6070.gdd5.tif'
p5214
sg37
S'agclim'
p5215
sg39
g40
sg41
I4326
sg42
S'2070'
p5216
ssS'aridity'
p5217
(dp5218
g8
S'2015-03-13 09:01:24'
p5219
sg10
S'he6070.aridity'
p5220
sg12
I59
sg13
S'aridity'
p5221
sg15
S'CRU Metric of Mean Annual Aridity'
p5222
sg17
S'60'
p5223
sg19
S'he6070'
p5224
sg21
S'../views/GTiff/agclim.he6070.aridity.tif'
p5225
sg23
S'agclimate'
p5226
sg25
S'agclim.he6070.aridity'
p5227
sg27
S'6526'
p5228
sg29
S'CRU Metric of Mean Annual Aridity'
p5229
sg31
g32
sg33
g34
sg35
S'agclim.he6070.aridity.tif'
p5230
sg37
S'agclim'
p5231
sg39
g40
sg41
I4326
sg42
S'2070'
p5232
ssS'petmn'
p5233
(dp5234
g8
S'2015-03-13 09:01:24'
p5235
sg10
S'he6070.petmn'
p5236
sg12
I129
sg13
S'petmn'
p5237
sg15
S'CRU Mean Annual Evapotranspiration'
p5238
sg17
S'60'
p5239
sg19
S'he6070'
p5240
sg21
S'../views/GTiff/agclim.he6070.petmn.tif'
p5241
sg23
S'agclimate'
p5242
sg25
S'agclim.he6070.petmn'
p5243
sg27
S'6527'
p5244
sg29
S'CRU Mean Annual Evapotranspiration'
p5245
sg31
g32
sg33
g34
sg35
S'agclim.he6070.petmn.tif'
p5246
sg37
S'agclim'
p5247
sg39
g40
sg41
I4326
sg42
S'2070'
p5248
sssS'he4570'
p5249
(dp5250
S'bio06'
p5251
(dp5252
g8
S'2015-03-13 09:01:24'
p5253
sg10
S'he4570.bio06'
p5254
sg12
I328
sg13
S'bio06'
p5255
sg15
S'Min Temperature of Coldest Month'
p5256
sg17
S'45'
p5257
sg19
S'he4570'
p5258
sg21
S'../views/GTiff/agclim.he4570.bio06.tif'
p5259
sg23
S'agclimate'
p5260
sg25
S'agclim.he4570.bio06'
p5261
sg27
S'6533'
p5262
sg29
S'Min Temperature of Coldest Month'
p5263
sg31
g32
sg33
g34
sg35
S'agclim.he4570.bio06.tif'
p5264
sg37
S'agclim'
p5265
sg39
g40
sg41
I4326
sg42
S'2070'
p5266
ssS'bio12'
p5267
(dp5268
g8
S'2015-03-13 09:01:24'
p5269
sg10
S'he4570.bio12'
p5270
sg12
I6
sg13
S'bio12'
p5271
sg15
S'Annual Precipitation'
p5272
sg17
S'45'
p5273
sg19
g5249
sg21
S'../views/GTiff/agclim.he4570.bio12.tif'
p5274
sg23
S'agclimate'
p5275
sg25
S'agclim.he4570.bio12'
p5276
sg27
S'6534'
p5277
sg29
S'Annual Precipitation'
p5278
sg31
g32
sg33
g34
sg35
S'agclim.he4570.bio12.tif'
p5279
sg37
S'agclim'
p5280
sg39
g40
sg41
I4326
sg42
S'2070'
p5281
ssS'gdd5'
p5282
(dp5283
g8
S'2015-03-13 09:01:24'
p5284
sg10
S'he4570.gdd5'
p5285
sg12
I245
sg13
S'gdd5'
p5286
sg15
S'Growing Degree Days 5C Baseline'
p5287
sg17
S'45'
p5288
sg19
S'he4570'
p5289
sg21
S'../views/GTiff/agclim.he4570.gdd5.tif'
p5290
sg23
S'agclimate'
p5291
sg25
S'agclim.he4570.gdd5'
p5292
sg27
S'6535'
p5293
sg29
S'Growing Degree Days 5C Baseline'
p5294
sg31
g32
sg33
g34
sg35
S'agclim.he4570.gdd5.tif'
p5295
sg37
S'agclim'
p5296
sg39
g40
sg41
I4326
sg42
S'2070'
p5297
ssS'aridity'
p5298
(dp5299
g8
S'2015-03-13 09:01:24'
p5300
sg10
S'he4570.aridity'
p5301
sg12
I331
sg13
S'aridity'
p5302
sg15
S'CRU Metric of Mean Annual Aridity'
p5303
sg17
S'45'
p5304
sg19
S'he4570'
p5305
sg21
S'../views/GTiff/agclim.he4570.aridity.tif'
p5306
sg23
S'agclimate'
p5307
sg25
S'agclim.he4570.aridity'
p5308
sg27
S'6536'
p5309
sg29
S'CRU Metric of Mean Annual Aridity'
p5310
sg31
g32
sg33
g34
sg35
S'agclim.he4570.aridity.tif'
p5311
sg37
S'agclim'
p5312
sg39
g40
sg41
I4326
sg42
S'2070'
p5313
ssS'petmn'
p5314
(dp5315
g8
S'2015-03-13 09:01:24'
p5316
sg10
S'he4570.petmn'
p5317
sg12
I23
sg13
S'petmn'
p5318
sg15
S'CRU Mean Annual Evapotranspiration'
p5319
sg17
S'45'
p5320
sg19
S'he4570'
p5321
sg21
S'../views/GTiff/agclim.he4570.petmn.tif'
p5322
sg23
S'agclimate'
p5323
sg25
S'agclim.he4570.petmn'
p5324
sg27
S'6537'
p5325
sg29
S'CRU Mean Annual Evapotranspiration'
p5326
sg31
g32
sg33
g34
sg35
S'agclim.he4570.petmn.tif'
p5327
sg37
S'agclim'
p5328
sg39
g40
sg41
I4326
sg42
S'2070'
p5329
ssssS'env'
p5330
(dp5331
S'hwsd'
p5332
(dp5333
S't_gravel'
p5334
(dp5335
g8
S'2015-03-13 09:01:24'
p5336
sg10
S'hwsd.t_gravel'
p5337
sg12
I22
sg13
S't_gravel'
p5338
sg15
S'HWSD topsoil gravel'
p5339
sg17
S'current'
p5340
sg19
g5332
sg21
S'../views/GTiff/env.hwsd.t_gravel.tif'
p5341
sg23
S'environmental'
p5342
sg25
S'env.hwsd.t_gravel'
p5343
sg27
S'6346'
p5344
sg29
S'Harmonized World Soil Database topsoil gravel (% vol.)'
p5345
sg31
g32
sg33
g34
sg35
S'env.hwsd.t_gravel.tif'
p5346
sg37
g5330
sg39
g40
sg41
I4326
sg42
S'current'
p5347
ssS't_sand'
p5348
(dp5349
g8
S'2015-03-13 09:01:24'
p5350
sg10
S'hwsd.t_sand'
p5351
sg12
I302
sg13
S't_sand'
p5352
sg15
S'HWSD topsoil sand'
p5353
sg17
S'current'
p5354
sg19
S'hwsd'
p5355
sg21
S'../views/GTiff/env.hwsd.t_sand.tif'
p5356
sg23
S'environmental'
p5357
sg25
S'env.hwsd.t_sand'
p5358
sg27
S'6347'
p5359
sg29
S'Harmonized World Soil Database topsoil sand (% frac.)'
p5360
sg31
g32
sg33
g34
sg35
S'env.hwsd.t_sand.tif'
p5361
sg37
S'env'
p5362
sg39
g40
sg41
I4326
sg42
S'current'
p5363
ssS't_ph'
p5364
(dp5365
g8
S'2015-03-13 09:01:24'
p5366
sg10
S'hwsd.t_ph'
p5367
sg12
I26
sg13
S't_ph'
p5368
sg15
S'HWSD topsoil pH'
p5369
sg17
S'current'
p5370
sg19
S'hwsd'
p5371
sg21
S'../views/GTiff/env.hwsd.t_ph.tif'
p5372
sg23
S'environmental'
p5373
sg25
S'env.hwsd.t_ph'
p5374
sg27
S'6348'
p5375
sg29
S'Harmonized World Soil Database topsoil pH (log[H+])'
p5376
sg31
g32
sg33
g34
sg35
S'env.hwsd.t_ph.tif'
p5377
sg37
S'env'
p5378
sg39
g40
sg41
I4326
sg42
S'current'
p5379
ssS't_caco3'
p5380
(dp5381
g8
S'2015-03-13 09:01:24'
p5382
sg10
S'hwsd.t_caco3'
p5383
sg12
I214
sg13
S't_caco3'
p5384
sg15
S'HWSD topsoil CACO3'
p5385
sg17
S'current'
p5386
sg19
S'hwsd'
p5387
sg21
S'../views/GTiff/env.hwsd.t_caco3.tif'
p5388
sg23
S'environmental'
p5389
sg25
S'env.hwsd.t_caco3'
p5390
sg27
S'6349'
p5391
sg29
S'Harmonized World Soil Database topsoil CACO3 (% weight)'
p5392
sg31
g32
sg33
g34
sg35
S'env.hwsd.t_caco3.tif'
p5393
sg37
S'env'
p5394
sg39
g40
sg41
I4326
sg42
S'current'
p5395
ssS't_oc'
p5396
(dp5397
g8
S'2015-03-13 09:01:24'
p5398
sg10
S'hwsd.t_oc'
p5399
sg12
I25
sg13
S't_oc'
p5400
sg15
S'HWSD topsoil oc'
p5401
sg17
S'current'
p5402
sg19
S'hwsd'
p5403
sg21
S'../views/GTiff/env.hwsd.t_oc.tif'
p5404
sg23
S'environmental'
p5405
sg25
S'env.hwsd.t_oc'
p5406
sg27
S'6355'
p5407
sg29
S'Harmonized World Soil Database topsoil organic carbon (% weight)'
p5408
sg31
g32
sg33
g34
sg35
S'env.hwsd.t_oc.tif'
p5409
sg37
S'env'
p5410
sg39
g40
sg41
I4326
sg42
S'current'
p5411
ssS't_silt'
p5412
(dp5413
g8
S'2015-03-13 09:01:24'
p5414
sg10
S'hwsd.t_silt'
p5415
sg12
I289
sg13
S't_silt'
p5416
sg15
S'HWSD topsoil silt'
p5417
sg17
S'current'
p5418
sg19
S'hwsd'
p5419
sg21
S'../views/GTiff/env.hwsd.t_silt.tif'
p5420
sg23
S'environmental'
p5421
sg25
S'env.hwsd.t_silt'
p5422
sg27
S'6351'
p5423
sg29
S'Harmonized World Soil Database topsoil silt (% frac.)'
p5424
sg31
g32
sg33
g34
sg35
S'env.hwsd.t_silt.tif'
p5425
sg37
S'env'
p5426
sg39
g40
sg41
I4326
sg42
S'current'
p5427
ssS't_clay'
p5428
(dp5429
g8
S'2015-03-13 09:01:24'
p5430
sg10
S'hwsd.t_clay'
p5431
sg12
I54
sg13
S't_clay'
p5432
sg15
S'HWSD topsoil clay'
p5433
sg17
S'current'
p5434
sg19
S'hwsd'
p5435
sg21
S'../views/GTiff/env.hwsd.t_clay.tif'
p5436
sg23
S'environmental'
p5437
sg25
S'env.hwsd.t_clay'
p5438
sg27
S'6352'
p5439
sg29
S'Harmonized World Soil Database topsoil clay (% frac.)'
p5440
sg31
g32
sg33
g34
sg35
S'env.hwsd.t_clay.tif'
p5441
sg37
S'env'
p5442
sg39
g40
sg41
I4326
sg42
S'current'
p5443
ssS't_caso4'
p5444
(dp5445
g8
S'2015-03-13 09:01:24'
p5446
sg10
S'hwsd.t_caso4'
p5447
sg12
I176
sg13
S't_caso4'
p5448
sg15
S'HWSD topsoil CASO4'
p5449
sg17
S'current'
p5450
sg19
S'hwsd'
p5451
sg21
S'../views/GTiff/env.hwsd.t_caso4.tif'
p5452
sg23
S'environmental'
p5453
sg25
S'env.hwsd.t_caso4'
p5454
sg27
S'6353'
p5455
sg29
S'Harmonized World Soil Database topsoil CASO4 (% weight)'
p5456
sg31
g32
sg33
g34
sg35
S'env.hwsd.t_caso4.tif'
p5457
sg37
S'env'
p5458
sg39
g40
sg41
I4326
sg42
S'current'
p5459
ssS't_cecsoil'
p5460
(dp5461
g8
S'2015-03-13 09:01:24'
p5462
sg10
S'hwsd.t_cecsoil'
p5463
sg12
I203
sg13
S't_cecsoil'
p5464
sg15
S'HWSD topsoil CECsoil'
p5465
sg17
S'current'
p5466
sg19
S'hwsd'
p5467
sg21
S'../views/GTiff/env.hwsd.t_cecsoil.tif'
p5468
sg23
S'environmental'
p5469
sg25
S'env.hwsd.t_cecsoil'
p5470
sg27
S'6354'
p5471
sg29
S'Harmonized World Soil Database topsoil CECsoil (cmol/kg)'
p5472
sg31
g32
sg33
g34
sg35
S'env.hwsd.t_cecsoil.tif'
p5473
sg37
S'env'
p5474
sg39
g40
sg41
I4326
sg42
S'current'
p5475
ssS't_ece'
p5476
(dp5477
g8
S'2015-03-13 09:01:24'
p5478
sg10
S'hwsd.t_ece'
p5479
sg12
I294
sg13
S't_ece'
p5480
sg15
S'HWSD topsoil ECE'
p5481
sg17
S'current'
p5482
sg19
S'hwsd'
p5483
sg21
S'../views/GTiff/env.hwsd.t_ece.tif'
p5484
sg23
S'environmental'
p5485
sg25
S'env.hwsd.t_ece'
p5486
sg27
S'6350'
p5487
sg29
S'Harmonized World Soil Database topsoil ECE (salinity dS/m)'
p5488
sg31
g32
sg33
g34
sg35
S'env.hwsd.t_ece.tif'
p5489
sg37
S'env'
p5490
sg39
g40
sg41
I4326
sg42
S'current'
p5491
sssS'gmted2010'
p5492
(dp5493
S'elev_mean'
p5494
(dp5495
g8
S'2015-03-13 09:01:24'
p5496
sg10
S'gmted2010.elev_mean'
p5497
sg12
I335
sg13
S'elev_mean'
p5498
sg15
S'USGS GMTED2010 Mean Elevation'
p5499
sg17
S'current'
p5500
sg19
g5492
sg21
S'../views/GTiff/env.gmted2010.elev_mean.tif'
p5501
sg23
S'environmental'
p5502
sg25
S'env.gmted2010.elev_mean'
p5503
sg27
S'6345'
p5504
sg29
S'USGS GMTED2010 Mean Elevation'
p5505
sg31
g32
sg33
g34
sg35
S'env.gmted2010.elev_mean.tif'
p5506
sg37
S'env'
p5507
sg39
g40
sg41
I4326
sg42
S'current'
p5508
ssssS'spat'
p5509
(dp5510
S'dist'
p5511
(dp5512
S'pc2'
p5513
(dp5514
g8
S'2015-03-13 09:01:24'
p5515
sg10
S'dist.pc2'
p5516
sg12
I83
sg13
S'pc2'
p5517
sg15
S'PC Axis 2 of Distance Matrix'
p5518
sg17
S'current'
p5519
sg19
g5511
sg21
S'../views/GTiff/spat.dist.pc2.tif'
p5520
sg23
S'spatial'
p5521
sg25
S'spat.dist.pc2'
p5522
sg27
S'6166'
p5523
sg29
S'PC Axis 2 of Distance Matrix spatial'
p5524
sg31
g32
sg33
g34
sg35
S'spat.dist.pc2.tif'
p5525
sg37
g5509
sg39
g40
sg41
I4326
sg42
S'current'
p5526
ssS'pc3'
p5527
(dp5528
g8
S'2015-03-13 09:01:24'
p5529
sg10
S'dist.pc3'
p5530
sg12
I146
sg13
S'pc3'
p5531
sg15
S'PC Axis 3 of Distance Matrix'
p5532
sg17
S'current'
p5533
sg19
S'dist'
p5534
sg21
S'../views/GTiff/spat.dist.pc3.tif'
p5535
sg23
S'spatial'
p5536
sg25
S'spat.dist.pc3'
p5537
sg27
S'6167'
p5538
sg29
S'PC Axis 3 of Distance Matrix spatial'
p5539
sg31
g32
sg33
g34
sg35
S'spat.dist.pc3.tif'
p5540
sg37
S'spat'
p5541
sg39
g40
sg41
I4326
sg42
S'current'
p5542
ssS'pc1'
p5543
(dp5544
g8
S'2015-03-13 09:01:24'
p5545
sg10
S'dist.pc1'
p5546
sg12
I139
sg13
S'pc1'
p5547
sg15
S'PC Axis 1 of Distance Matrix'
p5548
sg17
S'current'
p5549
sg19
S'dist'
p5550
sg21
S'../views/GTiff/spat.dist.pc1.tif'
p5551
sg23
S'spatial'
p5552
sg25
S'spat.dist.pc1'
p5553
sg27
S'6168'
p5554
sg29
S'PC Axis 1 of Distance Matrix spatial'
p5555
sg31
g32
sg33
g34
sg35
S'spat.dist.pc1.tif'
p5556
sg37
S'spat'
p5557
sg39
g40
sg41
I4326
sg42
S'current'
p5558
ssss.