(dp1
S'clim'
p2
(dp3
S'he8550'
p4
(dp5
S'bio07'
p6
(dp7
S'created_at'
p8
S'2015-03-17 09:11:15'
p9
sS'Correlated'
p10
S'no'
p11
sS'envLayerType'
p12
S'he8550.bio07'
p13
sS'Name'
p14
I333
sS'typeCode'
p15
S'bio07'
p16
sS'typeCodeDescription'
p17
S'Temperature Annual Range (BIO5-BIO6)'
p18
sS'RCP'
p19
S'85'
p20
sS'bioclim'
p21
S'he8550'
p22
sS'filePath'
p23
S'../views/GTiff/clim.he8550.bio07.tif'
p24
sS'filterType'
p25
S'climate'
p26
sS'fullname'
p27
S'clim.he8550.bio07'
p28
sS'lyrID'
p29
S'6176'
p30
sS'layerDescription'
p31
S'Temperature Annual Range (BIO5-BIO6) HE RCP85 2050'
p32
sS'dataFormat'
p33
S'GTiff'
p34
sS'units'
p35
S'dd'
p36
sS'title'
p37
S'clim.he8550.bio07.tif'
p38
sS'model'
p39
S'clim'
p40
sS'resolution'
p41
S'30'
p42
sS'epsgCode'
p43
I4326
sS'projectionDate'
p44
S'2050'
p45
ssS'bio16'
p46
(dp47
g8
S'2015-03-17 09:11:15'
p48
sg10
S'no'
p49
sg12
S'he8550.bio16'
p50
sg14
I239
sg15
S'bio16'
p51
sg17
S'Precipitation of Wettest Quarter'
p52
sg19
S'85'
p53
sg21
S'he8550'
p54
sg23
S'../views/GTiff/clim.he8550.bio16.tif'
p55
sg25
S'climate'
p56
sg27
S'clim.he8550.bio16'
p57
sg29
S'6173'
p58
sg31
S'Precipitation of Wettest Quarter HE RCP85 2050'
p59
sg33
g34
sg35
g36
sg37
S'clim.he8550.bio16.tif'
p60
sg39
S'clim'
p61
sg41
g42
sg43
I4326
sg44
S'2050'
p62
ssS'bio02'
p63
(dp64
g8
S'2015-03-17 09:11:15'
p65
sg10
S'no'
p66
sg12
S'he8550.bio02'
p67
sg14
I336
sg15
S'bio02'
p68
sg17
S'Mean Diurnal Range (Mean of monthly (max temp - min temp))'
p69
sg19
S'85'
p70
sg21
S'he8550'
p71
sg23
S'../views/GTiff/clim.he8550.bio02.tif'
p72
sg25
S'climate'
p73
sg27
S'clim.he8550.bio02'
p74
sg29
S'6181'
p75
sg31
S'Mean Diurnal Range (Mean of monthly (max temp - min temp)) HE RCP85 2050'
p76
sg33
g34
sg35
g36
sg37
S'clim.he8550.bio02.tif'
p77
sg39
S'clim'
p78
sg41
g42
sg43
I4326
sg44
S'2050'
p79
ssS'bio11'
p80
(dp81
g8
S'2015-03-17 09:11:15'
p82
sg10
S'no'
p83
sg12
S'he8550.bio11'
p84
sg14
I256
sg15
S'bio11'
p85
sg17
S'Mean Temperature of Coldest Quarter'
p86
sg19
S'85'
p87
sg21
S'he8550'
p88
sg23
S'../views/GTiff/clim.he8550.bio11.tif'
p89
sg25
S'climate'
p90
sg27
S'clim.he8550.bio11'
p91
sg29
S'6172'
p92
sg31
S'Mean Temperature of Coldest Quarter HE RCP85 2050'
p93
sg33
g34
sg35
g36
sg37
S'clim.he8550.bio11.tif'
p94
sg39
S'clim'
p95
sg41
g42
sg43
I4326
sg44
S'2050'
p96
ssS'bio12'
p97
(dp98
g8
S'2015-03-17 09:11:15'
p99
sg10
S'no'
p100
sg12
S'he8550.bio12'
p101
sg14
I188
sg15
S'bio12'
p102
sg17
S'Annual Precipitation'
p103
sg19
S'85'
p104
sg21
S'he8550'
p105
sg23
S'../views/GTiff/clim.he8550.bio12.tif'
p106
sg25
S'climate'
p107
sg27
S'clim.he8550.bio12'
p108
sg29
S'6175'
p109
sg31
S'Annual Precipitation HE RCP85 2050'
p110
sg33
g34
sg35
g36
sg37
S'clim.he8550.bio12.tif'
p111
sg39
S'clim'
p112
sg41
g42
sg43
I4326
sg44
S'2050'
p113
ssS'bio10'
p114
(dp115
g8
S'2015-03-17 09:11:15'
p116
sg10
S'no'
p117
sg12
S'he8550.bio10'
p118
sg14
I56
sg15
S'bio10'
p119
sg17
S'Mean Temperature of Warmest Quarter'
p120
sg19
S'85'
p121
sg21
S'he8550'
p122
sg23
S'../views/GTiff/clim.he8550.bio10.tif'
p123
sg25
S'climate'
p124
sg27
S'clim.he8550.bio10'
p125
sg29
S'6169'
p126
sg31
S'Mean Temperature of Warmest Quarter HE RCP85 2050'
p127
sg33
g34
sg35
g36
sg37
S'clim.he8550.bio10.tif'
p128
sg39
S'clim'
p129
sg41
g42
sg43
I4326
sg44
S'2050'
p130
ssS'bio06'
p131
(dp132
g8
S'2015-03-17 09:11:15'
p133
sg10
S'no'
p134
sg12
S'he8550.bio06'
p135
sg14
I77
sg15
S'bio06'
p136
sg17
S'Min Temperature of Coldest Month'
p137
sg19
S'85'
p138
sg21
S'he8550'
p139
sg23
S'../views/GTiff/clim.he8550.bio06.tif'
p140
sg25
S'climate'
p141
sg27
S'clim.he8550.bio06'
p142
sg29
S'6177'
p143
sg31
S'Min Temperature of Coldest Month HE RCP85 2050'
p144
sg33
g34
sg35
g36
sg37
S'clim.he8550.bio06.tif'
p145
sg39
S'clim'
p146
sg41
g42
sg43
I4326
sg44
S'2050'
p147
ssS'bio05'
p148
(dp149
g8
S'2015-03-17 09:11:15'
p150
sg10
S'no'
p151
sg12
S'he8550.bio05'
p152
sg14
I158
sg15
S'bio05'
p153
sg17
S'Max Temperature of Warmest Month'
p154
sg19
S'85'
p155
sg21
S'he8550'
p156
sg23
S'../views/GTiff/clim.he8550.bio05.tif'
p157
sg25
S'climate'
p158
sg27
S'clim.he8550.bio05'
p159
sg29
S'6178'
p160
sg31
S'Max Temperature of Warmest Month HE RCP85 2050'
p161
sg33
g34
sg35
g36
sg37
S'clim.he8550.bio05.tif'
p162
sg39
S'clim'
p163
sg41
g42
sg43
I4326
sg44
S'2050'
p164
ssS'bio13'
p165
(dp166
g8
S'2015-03-17 09:11:15'
p167
sg10
S'no'
p168
sg12
S'he8550.bio13'
p169
sg14
I280
sg15
S'bio13'
p170
sg17
S'Precipitation of Wettest Month'
p171
sg19
S'85'
p172
sg21
S'he8550'
p173
sg23
S'../views/GTiff/clim.he8550.bio13.tif'
p174
sg25
S'climate'
p175
sg27
S'clim.he8550.bio13'
p176
sg29
S'6171'
p177
sg31
S'Precipitation of Wettest Month HE RCP85 2050'
p178
sg33
g34
sg35
g36
sg37
S'clim.he8550.bio13.tif'
p179
sg39
S'clim'
p180
sg41
g42
sg43
I4326
sg44
S'2050'
p181
ssS'bio14'
p182
(dp183
g8
S'2015-03-17 09:11:15'
p184
sg10
S'no'
p185
sg12
S'he8550.bio14'
p186
sg14
I73
sg15
S'bio14'
p187
sg17
S'Precipitation of Driest Month'
p188
sg19
S'85'
p189
sg21
S'he8550'
p190
sg23
S'../views/GTiff/clim.he8550.bio14.tif'
p191
sg25
S'climate'
p192
sg27
S'clim.he8550.bio14'
p193
sg29
S'6185'
p194
sg31
S'Precipitation of Driest Month HE RCP85 2050'
p195
sg33
g34
sg35
g36
sg37
S'clim.he8550.bio14.tif'
p196
sg39
S'clim'
p197
sg41
g42
sg43
I4326
sg44
S'2050'
p198
ssS'bio15'
p199
(dp200
g8
S'2015-03-17 09:11:15'
p201
sg10
S'no'
p202
sg12
S'he8550.bio15'
p203
sg14
I270
sg15
S'bio15'
p204
sg17
S'Precipitation Seasonality (Coefficient of Variation)'
p205
sg19
S'85'
p206
sg21
S'he8550'
p207
sg23
S'../views/GTiff/clim.he8550.bio15.tif'
p208
sg25
S'climate'
p209
sg27
S'clim.he8550.bio15'
p210
sg29
S'6174'
p211
sg31
S'Precipitation Seasonality (Coefficient of Variation) HE RCP85 2050'
p212
sg33
g34
sg35
g36
sg37
S'clim.he8550.bio15.tif'
p213
sg39
S'clim'
p214
sg41
g42
sg43
I4326
sg44
S'2050'
p215
ssS'bio01'
p216
(dp217
g8
S'2015-03-17 09:11:15'
p218
sg10
S'no'
p219
sg12
S'he8550.bio01'
p220
sg14
I48
sg15
S'bio01'
p221
sg17
S'Annual Mean Temperature'
p222
sg19
S'85'
p223
sg21
S'he8550'
p224
sg23
S'../views/GTiff/clim.he8550.bio01.tif'
p225
sg25
S'climate'
p226
sg27
S'clim.he8550.bio01'
p227
sg29
S'6182'
p228
sg31
S'Annual Mean Temperature HE RCP85 2050'
p229
sg33
g34
sg35
g36
sg37
S'clim.he8550.bio01.tif'
p230
sg39
S'clim'
p231
sg41
g42
sg43
I4326
sg44
S'2050'
p232
ssS'bio17'
p233
(dp234
g8
S'2015-03-17 09:11:15'
p235
sg10
S'no'
p236
sg12
S'he8550.bio17'
p237
sg14
I299
sg15
S'bio17'
p238
sg17
S'Precipitation of Driest Quarter'
p239
sg19
S'85'
p240
sg21
S'he8550'
p241
sg23
S'../views/GTiff/clim.he8550.bio17.tif'
p242
sg25
S'climate'
p243
sg27
S'clim.he8550.bio17'
p244
sg29
S'6183'
p245
sg31
S'Precipitation of Driest Quarter HE RCP85 2050'
p246
sg33
g34
sg35
g36
sg37
S'clim.he8550.bio17.tif'
p247
sg39
S'clim'
p248
sg41
g42
sg43
I4326
sg44
S'2050'
p249
ssS'bio18'
p250
(dp251
g8
S'2015-03-17 09:11:15'
p252
sg10
S'no'
p253
sg12
S'he8550.bio18'
p254
sg14
I1
sg15
S'bio18'
p255
sg17
S'Precipitation of Warmest Quarter'
p256
sg19
S'85'
p257
sg21
g4
sg23
S'../views/GTiff/clim.he8550.bio18.tif'
p258
sg25
S'climate'
p259
sg27
S'clim.he8550.bio18'
p260
sg29
S'6184'
p261
sg31
S'Precipitation of Warmest Quarter HE RCP85 2050'
p262
sg33
g34
sg35
g36
sg37
S'clim.he8550.bio18.tif'
p263
sg39
S'clim'
p264
sg41
g42
sg43
I4326
sg44
S'2050'
p265
ssS'bio19'
p266
(dp267
g8
S'2015-03-17 09:11:15'
p268
sg10
S'no'
p269
sg12
S'he8550.bio19'
p270
sg14
I207
sg15
S'bio19'
p271
sg17
S'Precipitation of Coldest Quarter'
p272
sg19
S'85'
p273
sg21
S'he8550'
p274
sg23
S'../views/GTiff/clim.he8550.bio19.tif'
p275
sg25
S'climate'
p276
sg27
S'clim.he8550.bio19'
p277
sg29
S'6170'
p278
sg31
S'Precipitation of Coldest Quarter HE RCP85 2050'
p279
sg33
g34
sg35
g36
sg37
S'clim.he8550.bio19.tif'
p280
sg39
S'clim'
p281
sg41
g42
sg43
I4326
sg44
S'2050'
p282
ssS'bio04'
p283
(dp284
g8
S'2015-03-17 09:11:15'
p285
sg10
S'no'
p286
sg12
S'he8550.bio04'
p287
sg14
I330
sg15
S'bio04'
p288
sg17
S'Temperature Seasonality (standard deviation *100)'
p289
sg19
S'85'
p290
sg21
S'he8550'
p291
sg23
S'../views/GTiff/clim.he8550.bio04.tif'
p292
sg25
S'climate'
p293
sg27
S'clim.he8550.bio04'
p294
sg29
S'6179'
p295
sg31
S'Temperature Seasonality (standard deviation *100) HE RCP85 2050'
p296
sg33
g34
sg35
g36
sg37
S'clim.he8550.bio04.tif'
p297
sg39
S'clim'
p298
sg41
g42
sg43
I4326
sg44
S'2050'
p299
ssS'bio03'
p300
(dp301
g8
S'2015-03-17 09:11:15'
p302
sg10
S'no'
p303
sg12
S'he8550.bio03'
p304
sg14
I286
sg15
S'bio03'
p305
sg17
S'Isothermality (BIO2/BIO7) (* 100)'
p306
sg19
S'85'
p307
sg21
S'he8550'
p308
sg23
S'../views/GTiff/clim.he8550.bio03.tif'
p309
sg25
S'climate'
p310
sg27
S'clim.he8550.bio03'
p311
sg29
S'6180'
p312
sg31
S'Isothermality (BIO2/BIO7) (* 100) HE RCP85 2050'
p313
sg33
g34
sg35
g36
sg37
S'clim.he8550.bio03.tif'
p314
sg39
S'clim'
p315
sg41
g42
sg43
I4326
sg44
S'2050'
p316
ssS'bio09'
p317
(dp318
g8
S'2015-03-17 09:11:15'
p319
sg10
S'no'
p320
sg12
S'he8550.bio09'
p321
sg14
I103
sg15
S'bio09'
p322
sg17
S'Mean Temperature of Driest Quarter'
p323
sg19
S'85'
p324
sg21
S'he8550'
p325
sg23
S'../views/GTiff/clim.he8550.bio09.tif'
p326
sg25
S'climate'
p327
sg27
S'clim.he8550.bio09'
p328
sg29
S'6186'
p329
sg31
S'Mean Temperature of Driest Quarter HE RCP85 2050'
p330
sg33
g34
sg35
g36
sg37
S'clim.he8550.bio09.tif'
p331
sg39
S'clim'
p332
sg41
g42
sg43
I4326
sg44
S'2050'
p333
ssS'bio08'
p334
(dp335
g8
S'2015-03-17 09:11:15'
p336
sg10
S'no'
p337
sg12
S'he8550.bio08'
p338
sg14
I81
sg15
S'bio08'
p339
sg17
S'Mean Temperature of Wettest Quarter'
p340
sg19
S'85'
p341
sg21
S'he8550'
p342
sg23
S'../views/GTiff/clim.he8550.bio08.tif'
p343
sg25
S'climate'
p344
sg27
S'clim.he8550.bio08'
p345
sg29
S'6187'
p346
sg31
S'Mean Temperature of Wettest Quarter HE RCP85 2050'
p347
sg33
g34
sg35
g36
sg37
S'clim.he8550.bio08.tif'
p348
sg39
S'clim'
p349
sg41
g42
sg43
I4326
sg44
S'2050'
p350
sssS'he2670'
p351
(dp352
S'bio07'
p353
(dp354
g8
S'2015-03-17 09:11:15'
p355
sg10
S'no'
p356
sg12
S'he2670.bio07'
p357
sg14
I133
sg15
S'bio07'
p358
sg17
S'Temperature Annual Range (BIO5-BIO6)'
p359
sg19
S'26'
p360
sg21
S'he2670'
p361
sg23
S'../views/GTiff/clim.he2670.bio07.tif'
p362
sg25
S'climate'
p363
sg27
S'clim.he2670.bio07'
p364
sg29
S'6154'
p365
sg31
S'Temperature Annual Range (BIO5-BIO6) HE RCP26 2070'
p366
sg33
g34
sg35
g36
sg37
S'clim.he2670.bio07.tif'
p367
sg39
S'clim'
p368
sg41
g42
sg43
I4326
sg44
S'2070'
p369
ssS'bio19'
p370
(dp371
g8
S'2015-03-17 09:11:15'
p372
sg10
S'no'
p373
sg12
S'he2670.bio19'
p374
sg14
I134
sg15
S'bio19'
p375
sg17
S'Precipitation of Coldest Quarter'
p376
sg19
S'26'
p377
sg21
S'he2670'
p378
sg23
S'../views/GTiff/clim.he2670.bio19.tif'
p379
sg25
S'climate'
p380
sg27
S'clim.he2670.bio19'
p381
sg29
S'6148'
p382
sg31
S'Precipitation of Coldest Quarter HE RCP26 2070'
p383
sg33
g34
sg35
g36
sg37
S'clim.he2670.bio19.tif'
p384
sg39
S'clim'
p385
sg41
g42
sg43
I4326
sg44
S'2070'
p386
ssS'bio13'
p387
(dp388
g8
S'2015-03-17 09:11:15'
p389
sg10
S'no'
p390
sg12
S'he2670.bio13'
p391
sg14
I184
sg15
S'bio13'
p392
sg17
S'Precipitation of Wettest Month'
p393
sg19
S'26'
p394
sg21
S'he2670'
p395
sg23
S'../views/GTiff/clim.he2670.bio13.tif'
p396
sg25
S'climate'
p397
sg27
S'clim.he2670.bio13'
p398
sg29
S'6149'
p399
sg31
S'Precipitation of Wettest Month HE RCP26 2070'
p400
sg33
g34
sg35
g36
sg37
S'clim.he2670.bio13.tif'
p401
sg39
S'clim'
p402
sg41
g42
sg43
I4326
sg44
S'2070'
p403
ssS'bio11'
p404
(dp405
g8
S'2015-03-17 09:11:15'
p406
sg10
S'no'
p407
sg12
S'he2670.bio11'
p408
sg14
I279
sg15
S'bio11'
p409
sg17
S'Mean Temperature of Coldest Quarter'
p410
sg19
S'26'
p411
sg21
S'he2670'
p412
sg23
S'../views/GTiff/clim.he2670.bio11.tif'
p413
sg25
S'climate'
p414
sg27
S'clim.he2670.bio11'
p415
sg29
S'6150'
p416
sg31
S'Mean Temperature of Coldest Quarter HE RCP26 2070'
p417
sg33
g34
sg35
g36
sg37
S'clim.he2670.bio11.tif'
p418
sg39
S'clim'
p419
sg41
g42
sg43
I4326
sg44
S'2070'
p420
ssS'bio05'
p421
(dp422
g8
S'2015-03-17 09:11:15'
p423
sg10
S'no'
p424
sg12
S'he2670.bio05'
p425
sg14
I264
sg15
S'bio05'
p426
sg17
S'Max Temperature of Warmest Month'
p427
sg19
S'26'
p428
sg21
S'he2670'
p429
sg23
S'../views/GTiff/clim.he2670.bio05.tif'
p430
sg25
S'climate'
p431
sg27
S'clim.he2670.bio05'
p432
sg29
S'6156'
p433
sg31
S'Max Temperature of Warmest Month HE RCP26 2070'
p434
sg33
g34
sg35
g36
sg37
S'clim.he2670.bio05.tif'
p435
sg39
S'clim'
p436
sg41
g42
sg43
I4326
sg44
S'2070'
p437
ssS'bio10'
p438
(dp439
g8
S'2015-03-17 09:11:15'
p440
sg10
S'no'
p441
sg12
S'he2670.bio10'
p442
sg14
I14
sg15
S'bio10'
p443
sg17
S'Mean Temperature of Warmest Quarter'
p444
sg19
S'26'
p445
sg21
S'he2670'
p446
sg23
S'../views/GTiff/clim.he2670.bio10.tif'
p447
sg25
S'climate'
p448
sg27
S'clim.he2670.bio10'
p449
sg29
S'6147'
p450
sg31
S'Mean Temperature of Warmest Quarter HE RCP26 2070'
p451
sg33
g34
sg35
g36
sg37
S'clim.he2670.bio10.tif'
p452
sg39
S'clim'
p453
sg41
g42
sg43
I4326
sg44
S'2070'
p454
ssS'bio06'
p455
(dp456
g8
S'2015-03-17 09:11:15'
p457
sg10
S'no'
p458
sg12
S'he2670.bio06'
p459
sg14
I223
sg15
S'bio06'
p460
sg17
S'Min Temperature of Coldest Month'
p461
sg19
S'26'
p462
sg21
S'he2670'
p463
sg23
S'../views/GTiff/clim.he2670.bio06.tif'
p464
sg25
S'climate'
p465
sg27
S'clim.he2670.bio06'
p466
sg29
S'6155'
p467
sg31
S'Min Temperature of Coldest Month HE RCP26 2070'
p468
sg33
g34
sg35
g36
sg37
S'clim.he2670.bio06.tif'
p469
sg39
S'clim'
p470
sg41
g42
sg43
I4326
sg44
S'2070'
p471
ssS'bio12'
p472
(dp473
g8
S'2015-03-17 09:11:15'
p474
sg10
S'no'
p475
sg12
S'he2670.bio12'
p476
sg14
I0
sg15
S'bio12'
p477
sg17
S'Annual Precipitation'
p478
sg19
S'26'
p479
sg21
g351
sg23
S'../views/GTiff/clim.he2670.bio12.tif'
p480
sg25
S'climate'
p481
sg27
S'clim.he2670.bio12'
p482
sg29
S'6153'
p483
sg31
S'Annual Precipitation HE RCP26 2070'
p484
sg33
g34
sg35
g36
sg37
S'clim.he2670.bio12.tif'
p485
sg39
g2
sg41
g42
sg43
I4326
sg44
S'2070'
p486
ssS'bio04'
p487
(dp488
g8
S'2015-03-17 09:11:15'
p489
sg10
S'no'
p490
sg12
S'he2670.bio04'
p491
sg14
I52
sg15
S'bio04'
p492
sg17
S'Temperature Seasonality (standard deviation *100)'
p493
sg19
S'26'
p494
sg21
S'he2670'
p495
sg23
S'../views/GTiff/clim.he2670.bio04.tif'
p496
sg25
S'climate'
p497
sg27
S'clim.he2670.bio04'
p498
sg29
S'6157'
p499
sg31
S'Temperature Seasonality (standard deviation *100) HE RCP26 2070'
p500
sg33
g34
sg35
g36
sg37
S'clim.he2670.bio04.tif'
p501
sg39
S'clim'
p502
sg41
g42
sg43
I4326
sg44
S'2070'
p503
ssS'bio14'
p504
(dp505
g8
S'2015-03-17 09:11:15'
p506
sg10
S'no'
p507
sg12
S'he2670.bio14'
p508
sg14
I95
sg15
S'bio14'
p509
sg17
S'Precipitation of Driest Month'
p510
sg19
S'26'
p511
sg21
S'he2670'
p512
sg23
S'../views/GTiff/clim.he2670.bio14.tif'
p513
sg25
S'climate'
p514
sg27
S'clim.he2670.bio14'
p515
sg29
S'6163'
p516
sg31
S'Precipitation of Driest Month HE RCP26 2070'
p517
sg33
g34
sg35
g36
sg37
S'clim.he2670.bio14.tif'
p518
sg39
S'clim'
p519
sg41
g42
sg43
I4326
sg44
S'2070'
p520
ssS'bio15'
p521
(dp522
g8
S'2015-03-17 09:11:15'
p523
sg10
S'no'
p524
sg12
S'he2670.bio15'
p525
sg14
I80
sg15
S'bio15'
p526
sg17
S'Precipitation Seasonality (Coefficient of Variation)'
p527
sg19
S'26'
p528
sg21
S'he2670'
p529
sg23
S'../views/GTiff/clim.he2670.bio15.tif'
p530
sg25
S'climate'
p531
sg27
S'clim.he2670.bio15'
p532
sg29
S'6152'
p533
sg31
S'Precipitation Seasonality (Coefficient of Variation) HE RCP26 2070'
p534
sg33
g34
sg35
g36
sg37
S'clim.he2670.bio15.tif'
p535
sg39
S'clim'
p536
sg41
g42
sg43
I4326
sg44
S'2070'
p537
ssS'bio16'
p538
(dp539
g8
S'2015-03-17 09:11:15'
p540
sg10
S'no'
p541
sg12
S'he2670.bio16'
p542
sg14
I172
sg15
S'bio16'
p543
sg17
S'Precipitation of Wettest Quarter'
p544
sg19
S'26'
p545
sg21
S'he2670'
p546
sg23
S'../views/GTiff/clim.he2670.bio16.tif'
p547
sg25
S'climate'
p548
sg27
S'clim.he2670.bio16'
p549
sg29
S'6151'
p550
sg31
S'Precipitation of Wettest Quarter HE RCP26 2070'
p551
sg33
g34
sg35
g36
sg37
S'clim.he2670.bio16.tif'
p552
sg39
S'clim'
p553
sg41
g42
sg43
I4326
sg44
S'2070'
p554
ssS'bio17'
p555
(dp556
g8
S'2015-03-17 09:11:15'
p557
sg10
S'no'
p558
sg12
S'he2670.bio17'
p559
sg14
I122
sg15
S'bio17'
p560
sg17
S'Precipitation of Driest Quarter'
p561
sg19
S'26'
p562
sg21
S'he2670'
p563
sg23
S'../views/GTiff/clim.he2670.bio17.tif'
p564
sg25
S'climate'
p565
sg27
S'clim.he2670.bio17'
p566
sg29
S'6161'
p567
sg31
S'Precipitation of Driest Quarter HE RCP26 2070'
p568
sg33
g34
sg35
g36
sg37
S'clim.he2670.bio17.tif'
p569
sg39
S'clim'
p570
sg41
g42
sg43
I4326
sg44
S'2070'
p571
ssS'bio18'
p572
(dp573
g8
S'2015-03-17 09:11:15'
p574
sg10
S'no'
p575
sg12
S'he2670.bio18'
p576
sg14
I247
sg15
S'bio18'
p577
sg17
S'Precipitation of Warmest Quarter'
p578
sg19
S'26'
p579
sg21
S'he2670'
p580
sg23
S'../views/GTiff/clim.he2670.bio18.tif'
p581
sg25
S'climate'
p582
sg27
S'clim.he2670.bio18'
p583
sg29
S'6162'
p584
sg31
S'Precipitation of Warmest Quarter HE RCP26 2070'
p585
sg33
g34
sg35
g36
sg37
S'clim.he2670.bio18.tif'
p586
sg39
S'clim'
p587
sg41
g42
sg43
I4326
sg44
S'2070'
p588
ssS'bio03'
p589
(dp590
g8
S'2015-03-17 09:11:15'
p591
sg10
S'no'
p592
sg12
S'he2670.bio03'
p593
sg14
I2
sg15
S'bio03'
p594
sg17
S'Isothermality (BIO2/BIO7) (* 100)'
p595
sg19
S'26'
p596
sg21
S'he2670'
p597
sg23
S'../views/GTiff/clim.he2670.bio03.tif'
p598
sg25
S'climate'
p599
sg27
S'clim.he2670.bio03'
p600
sg29
S'6158'
p601
sg31
S'Isothermality (BIO2/BIO7) (* 100) HE RCP26 2070'
p602
sg33
g34
sg35
g36
sg37
S'clim.he2670.bio03.tif'
p603
sg39
S'clim'
p604
sg41
g42
sg43
I4326
sg44
S'2070'
p605
ssS'bio08'
p606
(dp607
g8
S'2015-03-17 09:11:15'
p608
sg10
S'no'
p609
sg12
S'he2670.bio08'
p610
sg14
I178
sg15
S'bio08'
p611
sg17
S'Mean Temperature of Wettest Quarter'
p612
sg19
S'26'
p613
sg21
S'he2670'
p614
sg23
S'../views/GTiff/clim.he2670.bio08.tif'
p615
sg25
S'climate'
p616
sg27
S'clim.he2670.bio08'
p617
sg29
S'6165'
p618
sg31
S'Mean Temperature of Wettest Quarter HE RCP26 2070'
p619
sg33
g34
sg35
g36
sg37
S'clim.he2670.bio08.tif'
p620
sg39
S'clim'
p621
sg41
g42
sg43
I4326
sg44
S'2070'
p622
ssS'bio01'
p623
(dp624
g8
S'2015-03-17 09:11:15'
p625
sg10
S'no'
p626
sg12
S'he2670.bio01'
p627
sg14
I293
sg15
S'bio01'
p628
sg17
S'Annual Mean Temperature'
p629
sg19
S'26'
p630
sg21
S'he2670'
p631
sg23
S'../views/GTiff/clim.he2670.bio01.tif'
p632
sg25
S'climate'
p633
sg27
S'clim.he2670.bio01'
p634
sg29
S'6160'
p635
sg31
S'Annual Mean Temperature HE RCP26 2070'
p636
sg33
g34
sg35
g36
sg37
S'clim.he2670.bio01.tif'
p637
sg39
S'clim'
p638
sg41
g42
sg43
I4326
sg44
S'2070'
p639
ssS'bio09'
p640
(dp641
g8
S'2015-03-17 09:11:15'
p642
sg10
S'no'
p643
sg12
S'he2670.bio09'
p644
sg14
I327
sg15
S'bio09'
p645
sg17
S'Mean Temperature of Driest Quarter'
p646
sg19
S'26'
p647
sg21
S'he2670'
p648
sg23
S'../views/GTiff/clim.he2670.bio09.tif'
p649
sg25
S'climate'
p650
sg27
S'clim.he2670.bio09'
p651
sg29
S'6164'
p652
sg31
S'Mean Temperature of Driest Quarter HE RCP26 2070'
p653
sg33
g34
sg35
g36
sg37
S'clim.he2670.bio09.tif'
p654
sg39
S'clim'
p655
sg41
g42
sg43
I4326
sg44
S'2070'
p656
ssS'bio02'
p657
(dp658
g8
S'2015-03-17 09:11:15'
p659
sg10
S'no'
p660
sg12
S'he2670.bio02'
p661
sg14
I121
sg15
S'bio02'
p662
sg17
S'Mean Diurnal Range (Mean of monthly (max temp - min temp))'
p663
sg19
S'26'
p664
sg21
S'he2670'
p665
sg23
S'../views/GTiff/clim.he2670.bio02.tif'
p666
sg25
S'climate'
p667
sg27
S'clim.he2670.bio02'
p668
sg29
S'6159'
p669
sg31
S'Mean Diurnal Range (Mean of monthly (max temp - min temp)) HE RCP26 2070'
p670
sg33
g34
sg35
g36
sg37
S'clim.he2670.bio02.tif'
p671
sg39
S'clim'
p672
sg41
g42
sg43
I4326
sg44
S'2070'
p673
sssS'gs4570'
p674
(dp675
S'bio07'
p676
(dp677
g8
S'2015-03-17 09:11:15'
p678
sg10
S'no'
p679
sg12
S'gs4570.bio07'
p680
sg14
I274
sg15
S'bio07'
p681
sg17
S'Temperature Annual Range (BIO5-BIO6)'
p682
sg19
S'45'
p683
sg21
S'gs4570'
p684
sg23
S'../views/GTiff/clim.gs4570.bio07.tif'
p685
sg25
S'climate'
p686
sg27
S'clim.gs4570.bio07'
p687
sg29
S'6135'
p688
sg31
S'Temperature Annual Range (BIO5-BIO6) GS RCP45 2070'
p689
sg33
g34
sg35
g36
sg37
S'clim.gs4570.bio07.tif'
p690
sg39
S'clim'
p691
sg41
g42
sg43
I4326
sg44
S'2070'
p692
ssS'bio13'
p693
(dp694
g8
S'2015-03-17 09:11:15'
p695
sg10
S'no'
p696
sg12
S'gs4570.bio13'
p697
sg14
I218
sg15
S'bio13'
p698
sg17
S'Precipitation of Wettest Month'
p699
sg19
S'45'
p700
sg21
S'gs4570'
p701
sg23
S'../views/GTiff/clim.gs4570.bio13.tif'
p702
sg25
S'climate'
p703
sg27
S'clim.gs4570.bio13'
p704
sg29
S'6130'
p705
sg31
S'Precipitation of Wettest Month GS RCP45 2070'
p706
sg33
g34
sg35
g36
sg37
S'clim.gs4570.bio13.tif'
p707
sg39
S'clim'
p708
sg41
g42
sg43
I4326
sg44
S'2070'
p709
ssS'bio06'
p710
(dp711
g8
S'2015-03-17 09:11:15'
p712
sg10
S'no'
p713
sg12
S'gs4570.bio06'
p714
sg14
I230
sg15
S'bio06'
p715
sg17
S'Min Temperature of Coldest Month'
p716
sg19
S'45'
p717
sg21
S'gs4570'
p718
sg23
S'../views/GTiff/clim.gs4570.bio06.tif'
p719
sg25
S'climate'
p720
sg27
S'clim.gs4570.bio06'
p721
sg29
S'6136'
p722
sg31
S'Min Temperature of Coldest Month GS RCP45 2070'
p723
sg33
g34
sg35
g36
sg37
S'clim.gs4570.bio06.tif'
p724
sg39
S'clim'
p725
sg41
g42
sg43
I4326
sg44
S'2070'
p726
ssS'bio03'
p727
(dp728
g8
S'2015-03-17 09:11:15'
p729
sg10
S'no'
p730
sg12
S'gs4570.bio03'
p731
sg14
I324
sg15
S'bio03'
p732
sg17
S'Isothermality (BIO2/BIO7) (* 100)'
p733
sg19
S'45'
p734
sg21
S'gs4570'
p735
sg23
S'../views/GTiff/clim.gs4570.bio03.tif'
p736
sg25
S'climate'
p737
sg27
S'clim.gs4570.bio03'
p738
sg29
S'6139'
p739
sg31
S'Isothermality (BIO2/BIO7) (* 100) GS RCP45 2070'
p740
sg33
g34
sg35
g36
sg37
S'clim.gs4570.bio03.tif'
p741
sg39
S'clim'
p742
sg41
g42
sg43
I4326
sg44
S'2070'
p743
ssS'bio05'
p744
(dp745
g8
S'2015-03-17 09:11:15'
p746
sg10
S'no'
p747
sg12
S'gs4570.bio05'
p748
sg14
I272
sg15
S'bio05'
p749
sg17
S'Max Temperature of Warmest Month'
p750
sg19
S'45'
p751
sg21
S'gs4570'
p752
sg23
S'../views/GTiff/clim.gs4570.bio05.tif'
p753
sg25
S'climate'
p754
sg27
S'clim.gs4570.bio05'
p755
sg29
S'6137'
p756
sg31
S'Max Temperature of Warmest Month GS RCP45 2070'
p757
sg33
g34
sg35
g36
sg37
S'clim.gs4570.bio05.tif'
p758
sg39
S'clim'
p759
sg41
g42
sg43
I4326
sg44
S'2070'
p760
ssS'bio10'
p761
(dp762
g8
S'2015-03-17 09:11:15'
p763
sg10
S'no'
p764
sg12
S'gs4570.bio10'
p765
sg14
I24
sg15
S'bio10'
p766
sg17
S'Mean Temperature of Warmest Quarter'
p767
sg19
S'45'
p768
sg21
S'gs4570'
p769
sg23
S'../views/GTiff/clim.gs4570.bio10.tif'
p770
sg25
S'climate'
p771
sg27
S'clim.gs4570.bio10'
p772
sg29
S'6128'
p773
sg31
S'Mean Temperature of Warmest Quarter GS RCP45 2070'
p774
sg33
g34
sg35
g36
sg37
S'clim.gs4570.bio10.tif'
p775
sg39
S'clim'
p776
sg41
g42
sg43
I4326
sg44
S'2070'
p777
ssS'bio11'
p778
(dp779
g8
S'2015-03-17 09:11:15'
p780
sg10
S'no'
p781
sg12
S'gs4570.bio11'
p782
sg14
I211
sg15
S'bio11'
p783
sg17
S'Mean Temperature of Coldest Quarter'
p784
sg19
S'45'
p785
sg21
S'gs4570'
p786
sg23
S'../views/GTiff/clim.gs4570.bio11.tif'
p787
sg25
S'climate'
p788
sg27
S'clim.gs4570.bio11'
p789
sg29
S'6131'
p790
sg31
S'Mean Temperature of Coldest Quarter GS RCP45 2070'
p791
sg33
g34
sg35
g36
sg37
S'clim.gs4570.bio11.tif'
p792
sg39
S'clim'
p793
sg41
g42
sg43
I4326
sg44
S'2070'
p794
ssS'bio12'
p795
(dp796
g8
S'2015-03-17 09:11:15'
p797
sg10
S'no'
p798
sg12
S'gs4570.bio12'
p799
sg14
I162
sg15
S'bio12'
p800
sg17
S'Annual Precipitation'
p801
sg19
S'45'
p802
sg21
S'gs4570'
p803
sg23
S'../views/GTiff/clim.gs4570.bio12.tif'
p804
sg25
S'climate'
p805
sg27
S'clim.gs4570.bio12'
p806
sg29
S'6134'
p807
sg31
S'Annual Precipitation GS RCP45 2070'
p808
sg33
g34
sg35
g36
sg37
S'clim.gs4570.bio12.tif'
p809
sg39
S'clim'
p810
sg41
g42
sg43
I4326
sg44
S'2070'
p811
ssS'bio04'
p812
(dp813
g8
S'2015-03-17 09:11:15'
p814
sg10
S'no'
p815
sg12
S'gs4570.bio04'
p816
sg14
I205
sg15
S'bio04'
p817
sg17
S'Temperature Seasonality (standard deviation *100)'
p818
sg19
S'45'
p819
sg21
S'gs4570'
p820
sg23
S'../views/GTiff/clim.gs4570.bio04.tif'
p821
sg25
S'climate'
p822
sg27
S'clim.gs4570.bio04'
p823
sg29
S'6138'
p824
sg31
S'Temperature Seasonality (standard deviation *100) GS RCP45 2070'
p825
sg33
g34
sg35
g36
sg37
S'clim.gs4570.bio04.tif'
p826
sg39
S'clim'
p827
sg41
g42
sg43
I4326
sg44
S'2070'
p828
ssS'bio14'
p829
(dp830
g8
S'2015-03-17 09:11:15'
p831
sg10
S'no'
p832
sg12
S'gs4570.bio14'
p833
sg14
I37
sg15
S'bio14'
p834
sg17
S'Precipitation of Driest Month'
p835
sg19
S'45'
p836
sg21
S'gs4570'
p837
sg23
S'../views/GTiff/clim.gs4570.bio14.tif'
p838
sg25
S'climate'
p839
sg27
S'clim.gs4570.bio14'
p840
sg29
S'6144'
p841
sg31
S'Precipitation of Driest Month GS RCP45 2070'
p842
sg33
g34
sg35
g36
sg37
S'clim.gs4570.bio14.tif'
p843
sg39
S'clim'
p844
sg41
g42
sg43
I4326
sg44
S'2070'
p845
ssS'bio02'
p846
(dp847
g8
S'2015-03-17 09:11:15'
p848
sg10
S'no'
p849
sg12
S'gs4570.bio02'
p850
sg14
I57
sg15
S'bio02'
p851
sg17
S'Mean Diurnal Range (Mean of monthly (max temp - min temp))'
p852
sg19
S'45'
p853
sg21
S'gs4570'
p854
sg23
S'../views/GTiff/clim.gs4570.bio02.tif'
p855
sg25
S'climate'
p856
sg27
S'clim.gs4570.bio02'
p857
sg29
S'6140'
p858
sg31
S'Mean Diurnal Range (Mean of monthly (max temp - min temp)) GS RCP45 2070'
p859
sg33
g34
sg35
g36
sg37
S'clim.gs4570.bio02.tif'
p860
sg39
S'clim'
p861
sg41
g42
sg43
I4326
sg44
S'2070'
p862
ssS'bio16'
p863
(dp864
g8
S'2015-03-17 09:11:15'
p865
sg10
S'no'
p866
sg12
S'gs4570.bio16'
p867
sg14
I16
sg15
S'bio16'
p868
sg17
S'Precipitation of Wettest Quarter'
p869
sg19
S'45'
p870
sg21
g674
sg23
S'../views/GTiff/clim.gs4570.bio16.tif'
p871
sg25
S'climate'
p872
sg27
S'clim.gs4570.bio16'
p873
sg29
S'6132'
p874
sg31
S'Precipitation of Wettest Quarter GS RCP45 2070'
p875
sg33
g34
sg35
g36
sg37
S'clim.gs4570.bio16.tif'
p876
sg39
S'clim'
p877
sg41
g42
sg43
I4326
sg44
S'2070'
p878
ssS'bio17'
p879
(dp880
g8
S'2015-03-17 09:11:15'
p881
sg10
S'no'
p882
sg12
S'gs4570.bio17'
p883
sg14
I173
sg15
S'bio17'
p884
sg17
S'Precipitation of Driest Quarter'
p885
sg19
S'45'
p886
sg21
S'gs4570'
p887
sg23
S'../views/GTiff/clim.gs4570.bio17.tif'
p888
sg25
S'climate'
p889
sg27
S'clim.gs4570.bio17'
p890
sg29
S'6142'
p891
sg31
S'Precipitation of Driest Quarter GS RCP45 2070'
p892
sg33
g34
sg35
g36
sg37
S'clim.gs4570.bio17.tif'
p893
sg39
S'clim'
p894
sg41
g42
sg43
I4326
sg44
S'2070'
p895
ssS'bio18'
p896
(dp897
g8
S'2015-03-17 09:11:15'
p898
sg10
S'no'
p899
sg12
S'gs4570.bio18'
p900
sg14
I55
sg15
S'bio18'
p901
sg17
S'Precipitation of Warmest Quarter'
p902
sg19
S'45'
p903
sg21
S'gs4570'
p904
sg23
S'../views/GTiff/clim.gs4570.bio18.tif'
p905
sg25
S'climate'
p906
sg27
S'clim.gs4570.bio18'
p907
sg29
S'6143'
p908
sg31
S'Precipitation of Warmest Quarter GS RCP45 2070'
p909
sg33
g34
sg35
g36
sg37
S'clim.gs4570.bio18.tif'
p910
sg39
S'clim'
p911
sg41
g42
sg43
I4326
sg44
S'2070'
p912
ssS'bio19'
p913
(dp914
g8
S'2015-03-17 09:11:15'
p915
sg10
S'no'
p916
sg12
S'gs4570.bio19'
p917
sg14
I35
sg15
S'bio19'
p918
sg17
S'Precipitation of Coldest Quarter'
p919
sg19
S'45'
p920
sg21
S'gs4570'
p921
sg23
S'../views/GTiff/clim.gs4570.bio19.tif'
p922
sg25
S'climate'
p923
sg27
S'clim.gs4570.bio19'
p924
sg29
S'6129'
p925
sg31
S'Precipitation of Coldest Quarter GS RCP45 2070'
p926
sg33
g34
sg35
g36
sg37
S'clim.gs4570.bio19.tif'
p927
sg39
S'clim'
p928
sg41
g42
sg43
I4326
sg44
S'2070'
p929
ssS'bio08'
p930
(dp931
g8
S'2015-03-17 09:11:15'
p932
sg10
S'no'
p933
sg12
S'gs4570.bio08'
p934
sg14
I145
sg15
S'bio08'
p935
sg17
S'Mean Temperature of Wettest Quarter'
p936
sg19
S'45'
p937
sg21
S'gs4570'
p938
sg23
S'../views/GTiff/clim.gs4570.bio08.tif'
p939
sg25
S'climate'
p940
sg27
S'clim.gs4570.bio08'
p941
sg29
S'6146'
p942
sg31
S'Mean Temperature of Wettest Quarter GS RCP45 2070'
p943
sg33
g34
sg35
g36
sg37
S'clim.gs4570.bio08.tif'
p944
sg39
S'clim'
p945
sg41
g42
sg43
I4326
sg44
S'2070'
p946
ssS'bio01'
p947
(dp948
g8
S'2015-03-17 09:11:15'
p949
sg10
S'no'
p950
sg12
S'gs4570.bio01'
p951
sg14
I319
sg15
S'bio01'
p952
sg17
S'Annual Mean Temperature'
p953
sg19
S'45'
p954
sg21
S'gs4570'
p955
sg23
S'../views/GTiff/clim.gs4570.bio01.tif'
p956
sg25
S'climate'
p957
sg27
S'clim.gs4570.bio01'
p958
sg29
S'6141'
p959
sg31
S'Annual Mean Temperature GS RCP45 2070'
p960
sg33
g34
sg35
g36
sg37
S'clim.gs4570.bio01.tif'
p961
sg39
S'clim'
p962
sg41
g42
sg43
I4326
sg44
S'2070'
p963
ssS'bio09'
p964
(dp965
g8
S'2015-03-17 09:11:15'
p966
sg10
S'no'
p967
sg12
S'gs4570.bio09'
p968
sg14
I138
sg15
S'bio09'
p969
sg17
S'Mean Temperature of Driest Quarter'
p970
sg19
S'45'
p971
sg21
S'gs4570'
p972
sg23
S'../views/GTiff/clim.gs4570.bio09.tif'
p973
sg25
S'climate'
p974
sg27
S'clim.gs4570.bio09'
p975
sg29
S'6145'
p976
sg31
S'Mean Temperature of Driest Quarter GS RCP45 2070'
p977
sg33
g34
sg35
g36
sg37
S'clim.gs4570.bio09.tif'
p978
sg39
S'clim'
p979
sg41
g42
sg43
I4326
sg44
S'2070'
p980
ssS'bio15'
p981
(dp982
g8
S'2015-03-17 09:11:15'
p983
sg10
S'no'
p984
sg12
S'gs4570.bio15'
p985
sg14
I86
sg15
S'bio15'
p986
sg17
S'Precipitation Seasonality (Coefficient of Variation)'
p987
sg19
S'45'
p988
sg21
S'gs4570'
p989
sg23
S'../views/GTiff/clim.gs4570.bio15.tif'
p990
sg25
S'climate'
p991
sg27
S'clim.gs4570.bio15'
p992
sg29
S'6133'
p993
sg31
S'Precipitation Seasonality (Coefficient of Variation) GS RCP45 2070'
p994
sg33
g34
sg35
g36
sg37
S'clim.gs4570.bio15.tif'
p995
sg39
S'clim'
p996
sg41
g42
sg43
I4326
sg44
S'2070'
p997
sssS'gd4550'
p998
(dp999
S'bio07'
p1000
(dp1001
g8
S'2015-03-17 09:11:15'
p1002
sg10
S'no'
p1003
sg12
S'gd4550.bio07'
p1004
sg14
I221
sg15
S'bio07'
p1005
sg17
S'Temperature Annual Range (BIO5-BIO6)'
p1006
sg19
S'45'
p1007
sg21
S'gd4550'
p1008
sg23
S'../views/GTiff/clim.gd4550.bio07.tif'
p1009
sg25
S'climate'
p1010
sg27
S'clim.gd4550.bio07'
p1011
sg29
S'6195'
p1012
sg31
S'Temperature Annual Range (BIO5-BIO6) GD RCP45 2050'
p1013
sg33
g34
sg35
g36
sg37
S'clim.gd4550.bio07.tif'
p1014
sg39
S'clim'
p1015
sg41
g42
sg43
I4326
sg44
S'2050'
p1016
ssS'bio01'
p1017
(dp1018
g8
S'2015-03-17 09:11:15'
p1019
sg10
S'no'
p1020
sg12
S'gd4550.bio01'
p1021
sg14
I323
sg15
S'bio01'
p1022
sg17
S'Annual Mean Temperature'
p1023
sg19
S'45'
p1024
sg21
S'gd4550'
p1025
sg23
S'../views/GTiff/clim.gd4550.bio01.tif'
p1026
sg25
S'climate'
p1027
sg27
S'clim.gd4550.bio01'
p1028
sg29
S'6201'
p1029
sg31
S'Annual Mean Temperature GD RCP45 2050'
p1030
sg33
g34
sg35
g36
sg37
S'clim.gd4550.bio01.tif'
p1031
sg39
S'clim'
p1032
sg41
g42
sg43
I4326
sg44
S'2050'
p1033
ssS'bio11'
p1034
(dp1035
g8
S'2015-03-17 09:11:15'
p1036
sg10
S'no'
p1037
sg12
S'gd4550.bio11'
p1038
sg14
I107
sg15
S'bio11'
p1039
sg17
S'Mean Temperature of Coldest Quarter'
p1040
sg19
S'45'
p1041
sg21
S'gd4550'
p1042
sg23
S'../views/GTiff/clim.gd4550.bio11.tif'
p1043
sg25
S'climate'
p1044
sg27
S'clim.gd4550.bio11'
p1045
sg29
S'6191'
p1046
sg31
S'Mean Temperature of Coldest Quarter GD RCP45 2050'
p1047
sg33
g34
sg35
g36
sg37
S'clim.gd4550.bio11.tif'
p1048
sg39
S'clim'
p1049
sg41
g42
sg43
I4326
sg44
S'2050'
p1050
ssS'bio09'
p1051
(dp1052
g8
S'2015-03-17 09:11:15'
p1053
sg10
S'no'
p1054
sg12
S'gd4550.bio09'
p1055
sg14
I318
sg15
S'bio09'
p1056
sg17
S'Mean Temperature of Driest Quarter'
p1057
sg19
S'45'
p1058
sg21
S'gd4550'
p1059
sg23
S'../views/GTiff/clim.gd4550.bio09.tif'
p1060
sg25
S'climate'
p1061
sg27
S'clim.gd4550.bio09'
p1062
sg29
S'6205'
p1063
sg31
S'Mean Temperature of Driest Quarter GD RCP45 2050'
p1064
sg33
g34
sg35
g36
sg37
S'clim.gd4550.bio09.tif'
p1065
sg39
S'clim'
p1066
sg41
g42
sg43
I4326
sg44
S'2050'
p1067
ssS'bio15'
p1068
(dp1069
g8
S'2015-03-17 09:11:15'
p1070
sg10
S'no'
p1071
sg12
S'gd4550.bio15'
p1072
sg14
I202
sg15
S'bio15'
p1073
sg17
S'Precipitation Seasonality (Coefficient of Variation)'
p1074
sg19
S'45'
p1075
sg21
S'gd4550'
p1076
sg23
S'../views/GTiff/clim.gd4550.bio15.tif'
p1077
sg25
S'climate'
p1078
sg27
S'clim.gd4550.bio15'
p1079
sg29
S'6193'
p1080
sg31
S'Precipitation Seasonality (Coefficient of Variation) GD RCP45 2050'
p1081
sg33
g34
sg35
g36
sg37
S'clim.gd4550.bio15.tif'
p1082
sg39
S'clim'
p1083
sg41
g42
sg43
I4326
sg44
S'2050'
p1084
ssS'bio05'
p1085
(dp1086
g8
S'2015-03-17 09:11:15'
p1087
sg10
S'no'
p1088
sg12
S'gd4550.bio05'
p1089
sg14
I224
sg15
S'bio05'
p1090
sg17
S'Max Temperature of Warmest Month'
p1091
sg19
S'45'
p1092
sg21
S'gd4550'
p1093
sg23
S'../views/GTiff/clim.gd4550.bio05.tif'
p1094
sg25
S'climate'
p1095
sg27
S'clim.gd4550.bio05'
p1096
sg29
S'6197'
p1097
sg31
S'Max Temperature of Warmest Month GD RCP45 2050'
p1098
sg33
g34
sg35
g36
sg37
S'clim.gd4550.bio05.tif'
p1099
sg39
S'clim'
p1100
sg41
g42
sg43
I4326
sg44
S'2050'
p1101
ssS'bio14'
p1102
(dp1103
g8
S'2015-03-17 09:11:15'
p1104
sg10
S'no'
p1105
sg12
S'gd4550.bio14'
p1106
sg14
I310
sg15
S'bio14'
p1107
sg17
S'Precipitation of Driest Month'
p1108
sg19
S'45'
p1109
sg21
S'gd4550'
p1110
sg23
S'../views/GTiff/clim.gd4550.bio14.tif'
p1111
sg25
S'climate'
p1112
sg27
S'clim.gd4550.bio14'
p1113
sg29
S'6204'
p1114
sg31
S'Precipitation of Driest Month GD RCP45 2050'
p1115
sg33
g34
sg35
g36
sg37
S'clim.gd4550.bio14.tif'
p1116
sg39
S'clim'
p1117
sg41
g42
sg43
I4326
sg44
S'2050'
p1118
ssS'bio10'
p1119
(dp1120
g8
S'2015-03-17 09:11:15'
p1121
sg10
S'no'
p1122
sg12
S'gd4550.bio10'
p1123
sg14
I143
sg15
S'bio10'
p1124
sg17
S'Mean Temperature of Warmest Quarter'
p1125
sg19
S'45'
p1126
sg21
S'gd4550'
p1127
sg23
S'../views/GTiff/clim.gd4550.bio10.tif'
p1128
sg25
S'climate'
p1129
sg27
S'clim.gd4550.bio10'
p1130
sg29
S'6188'
p1131
sg31
S'Mean Temperature of Warmest Quarter GD RCP45 2050'
p1132
sg33
g34
sg35
g36
sg37
S'clim.gd4550.bio10.tif'
p1133
sg39
S'clim'
p1134
sg41
g42
sg43
I4326
sg44
S'2050'
p1135
ssS'bio06'
p1136
(dp1137
g8
S'2015-03-17 09:11:15'
p1138
sg10
S'no'
p1139
sg12
S'gd4550.bio06'
p1140
sg14
I45
sg15
S'bio06'
p1141
sg17
S'Min Temperature of Coldest Month'
p1142
sg19
S'45'
p1143
sg21
S'gd4550'
p1144
sg23
S'../views/GTiff/clim.gd4550.bio06.tif'
p1145
sg25
S'climate'
p1146
sg27
S'clim.gd4550.bio06'
p1147
sg29
S'6196'
p1148
sg31
S'Min Temperature of Coldest Month GD RCP45 2050'
p1149
sg33
g34
sg35
g36
sg37
S'clim.gd4550.bio06.tif'
p1150
sg39
S'clim'
p1151
sg41
g42
sg43
I4326
sg44
S'2050'
p1152
ssS'bio12'
p1153
(dp1154
g8
S'2015-03-17 09:11:15'
p1155
sg10
S'no'
p1156
sg12
S'gd4550.bio12'
p1157
sg14
I62
sg15
S'bio12'
p1158
sg17
S'Annual Precipitation'
p1159
sg19
S'45'
p1160
sg21
S'gd4550'
p1161
sg23
S'../views/GTiff/clim.gd4550.bio12.tif'
p1162
sg25
S'climate'
p1163
sg27
S'clim.gd4550.bio12'
p1164
sg29
S'6194'
p1165
sg31
S'Annual Precipitation GD RCP45 2050'
p1166
sg33
g34
sg35
g36
sg37
S'clim.gd4550.bio12.tif'
p1167
sg39
S'clim'
p1168
sg41
g42
sg43
I4326
sg44
S'2050'
p1169
ssS'bio13'
p1170
(dp1171
g8
S'2015-03-17 09:11:15'
p1172
sg10
S'no'
p1173
sg12
S'gd4550.bio13'
p1174
sg14
I32
sg15
S'bio13'
p1175
sg17
S'Precipitation of Wettest Month'
p1176
sg19
S'45'
p1177
sg21
g998
sg23
S'../views/GTiff/clim.gd4550.bio13.tif'
p1178
sg25
S'climate'
p1179
sg27
S'clim.gd4550.bio13'
p1180
sg29
S'6190'
p1181
sg31
S'Precipitation of Wettest Month GD RCP45 2050'
p1182
sg33
g34
sg35
g36
sg37
S'clim.gd4550.bio13.tif'
p1183
sg39
S'clim'
p1184
sg41
g42
sg43
I4326
sg44
S'2050'
p1185
ssS'bio03'
p1186
(dp1187
g8
S'2015-03-17 09:11:15'
p1188
sg10
S'no'
p1189
sg12
S'gd4550.bio03'
p1190
sg14
I220
sg15
S'bio03'
p1191
sg17
S'Isothermality (BIO2/BIO7) (* 100)'
p1192
sg19
S'45'
p1193
sg21
S'gd4550'
p1194
sg23
S'../views/GTiff/clim.gd4550.bio03.tif'
p1195
sg25
S'climate'
p1196
sg27
S'clim.gd4550.bio03'
p1197
sg29
S'6199'
p1198
sg31
S'Isothermality (BIO2/BIO7) (* 100) GD RCP45 2050'
p1199
sg33
g34
sg35
g36
sg37
S'clim.gd4550.bio03.tif'
p1200
sg39
S'clim'
p1201
sg41
g42
sg43
I4326
sg44
S'2050'
p1202
ssS'bio02'
p1203
(dp1204
g8
S'2015-03-17 09:11:15'
p1205
sg10
S'no'
p1206
sg12
S'gd4550.bio02'
p1207
sg14
I187
sg15
S'bio02'
p1208
sg17
S'Mean Diurnal Range (Mean of monthly (max temp - min temp))'
p1209
sg19
S'45'
p1210
sg21
S'gd4550'
p1211
sg23
S'../views/GTiff/clim.gd4550.bio02.tif'
p1212
sg25
S'climate'
p1213
sg27
S'clim.gd4550.bio02'
p1214
sg29
S'6200'
p1215
sg31
S'Mean Diurnal Range (Mean of monthly (max temp - min temp)) GD RCP45 2050'
p1216
sg33
g34
sg35
g36
sg37
S'clim.gd4550.bio02.tif'
p1217
sg39
S'clim'
p1218
sg41
g42
sg43
I4326
sg44
S'2050'
p1219
ssS'bio16'
p1220
(dp1221
g8
S'2015-03-17 09:11:15'
p1222
sg10
S'no'
p1223
sg12
S'gd4550.bio16'
p1224
sg14
I36
sg15
S'bio16'
p1225
sg17
S'Precipitation of Wettest Quarter'
p1226
sg19
S'45'
p1227
sg21
S'gd4550'
p1228
sg23
S'../views/GTiff/clim.gd4550.bio16.tif'
p1229
sg25
S'climate'
p1230
sg27
S'clim.gd4550.bio16'
p1231
sg29
S'6192'
p1232
sg31
S'Precipitation of Wettest Quarter GD RCP45 2050'
p1233
sg33
g34
sg35
g36
sg37
S'clim.gd4550.bio16.tif'
p1234
sg39
S'clim'
p1235
sg41
g42
sg43
I4326
sg44
S'2050'
p1236
ssS'bio17'
p1237
(dp1238
g8
S'2015-03-17 09:11:15'
p1239
sg10
S'no'
p1240
sg12
S'gd4550.bio17'
p1241
sg14
I127
sg15
S'bio17'
p1242
sg17
S'Precipitation of Driest Quarter'
p1243
sg19
S'45'
p1244
sg21
S'gd4550'
p1245
sg23
S'../views/GTiff/clim.gd4550.bio17.tif'
p1246
sg25
S'climate'
p1247
sg27
S'clim.gd4550.bio17'
p1248
sg29
S'6202'
p1249
sg31
S'Precipitation of Driest Quarter GD RCP45 2050'
p1250
sg33
g34
sg35
g36
sg37
S'clim.gd4550.bio17.tif'
p1251
sg39
S'clim'
p1252
sg41
g42
sg43
I4326
sg44
S'2050'
p1253
ssS'bio18'
p1254
(dp1255
g8
S'2015-03-17 09:11:15'
p1256
sg10
S'no'
p1257
sg12
S'gd4550.bio18'
p1258
sg14
I260
sg15
S'bio18'
p1259
sg17
S'Precipitation of Warmest Quarter'
p1260
sg19
S'45'
p1261
sg21
S'gd4550'
p1262
sg23
S'../views/GTiff/clim.gd4550.bio18.tif'
p1263
sg25
S'climate'
p1264
sg27
S'clim.gd4550.bio18'
p1265
sg29
S'6203'
p1266
sg31
S'Precipitation of Warmest Quarter GD RCP45 2050'
p1267
sg33
g34
sg35
g36
sg37
S'clim.gd4550.bio18.tif'
p1268
sg39
S'clim'
p1269
sg41
g42
sg43
I4326
sg44
S'2050'
p1270
ssS'bio19'
p1271
(dp1272
g8
S'2015-03-17 09:11:15'
p1273
sg10
S'no'
p1274
sg12
S'gd4550.bio19'
p1275
sg14
I110
sg15
S'bio19'
p1276
sg17
S'Precipitation of Coldest Quarter'
p1277
sg19
S'45'
p1278
sg21
S'gd4550'
p1279
sg23
S'../views/GTiff/clim.gd4550.bio19.tif'
p1280
sg25
S'climate'
p1281
sg27
S'clim.gd4550.bio19'
p1282
sg29
S'6189'
p1283
sg31
S'Precipitation of Coldest Quarter GD RCP45 2050'
p1284
sg33
g34
sg35
g36
sg37
S'clim.gd4550.bio19.tif'
p1285
sg39
S'clim'
p1286
sg41
g42
sg43
I4326
sg44
S'2050'
p1287
ssS'bio04'
p1288
(dp1289
g8
S'2015-03-17 09:11:15'
p1290
sg10
S'no'
p1291
sg12
S'gd4550.bio04'
p1292
sg14
I277
sg15
S'bio04'
p1293
sg17
S'Temperature Seasonality (standard deviation *100)'
p1294
sg19
S'45'
p1295
sg21
S'gd4550'
p1296
sg23
S'../views/GTiff/clim.gd4550.bio04.tif'
p1297
sg25
S'climate'
p1298
sg27
S'clim.gd4550.bio04'
p1299
sg29
S'6198'
p1300
sg31
S'Temperature Seasonality (standard deviation *100) GD RCP45 2050'
p1301
sg33
g34
sg35
g36
sg37
S'clim.gd4550.bio04.tif'
p1302
sg39
S'clim'
p1303
sg41
g42
sg43
I4326
sg44
S'2050'
p1304
ssS'bio08'
p1305
(dp1306
g8
S'2015-03-17 09:11:15'
p1307
sg10
S'no'
p1308
sg12
S'gd4550.bio08'
p1309
sg14
I197
sg15
S'bio08'
p1310
sg17
S'Mean Temperature of Wettest Quarter'
p1311
sg19
S'45'
p1312
sg21
S'gd4550'
p1313
sg23
S'../views/GTiff/clim.gd4550.bio08.tif'
p1314
sg25
S'climate'
p1315
sg27
S'clim.gd4550.bio08'
p1316
sg29
S'6206'
p1317
sg31
S'Mean Temperature of Wettest Quarter GD RCP45 2050'
p1318
sg33
g34
sg35
g36
sg37
S'clim.gd4550.bio08.tif'
p1319
sg39
S'clim'
p1320
sg41
g42
sg43
I4326
sg44
S'2050'
p1321
sssS'he8570'
p1322
(dp1323
S'bio10'
p1324
(dp1325
g8
S'2015-03-17 09:11:15'
p1326
sg10
S'no'
p1327
sg12
S'he8570.bio10'
p1328
sg14
I206
sg15
S'bio10'
p1329
sg17
S'Mean Temperature of Warmest Quarter'
p1330
sg19
S'85'
p1331
sg21
S'he8570'
p1332
sg23
S'../views/GTiff/clim.he8570.bio10.tif'
p1333
sg25
S'climate'
p1334
sg27
S'clim.he8570.bio10'
p1335
sg29
S'6207'
p1336
sg31
S'Mean Temperature of Warmest Quarter HE RCP85 2070'
p1337
sg33
g34
sg35
g36
sg37
S'clim.he8570.bio10.tif'
p1338
sg39
S'clim'
p1339
sg41
g42
sg43
I4326
sg44
S'2070'
p1340
ssS'bio01'
p1341
(dp1342
g8
S'2015-03-17 09:11:15'
p1343
sg10
S'no'
p1344
sg12
S'he8570.bio01'
p1345
sg14
I40
sg15
S'bio01'
p1346
sg17
S'Annual Mean Temperature'
p1347
sg19
S'85'
p1348
sg21
g1322
sg23
S'../views/GTiff/clim.he8570.bio01.tif'
p1349
sg25
S'climate'
p1350
sg27
S'clim.he8570.bio01'
p1351
sg29
S'6220'
p1352
sg31
S'Annual Mean Temperature HE RCP85 2070'
p1353
sg33
g34
sg35
g36
sg37
S'clim.he8570.bio01.tif'
p1354
sg39
S'clim'
p1355
sg41
g42
sg43
I4326
sg44
S'2070'
p1356
ssS'bio06'
p1357
(dp1358
g8
S'2015-03-17 09:11:15'
p1359
sg10
S'no'
p1360
sg12
S'he8570.bio06'
p1361
sg14
I337
sg15
S'bio06'
p1362
sg17
S'Min Temperature of Coldest Month'
p1363
sg19
S'85'
p1364
sg21
S'he8570'
p1365
sg23
S'../views/GTiff/clim.he8570.bio06.tif'
p1366
sg25
S'climate'
p1367
sg27
S'clim.he8570.bio06'
p1368
sg29
S'6215'
p1369
sg31
S'Min Temperature of Coldest Month HE RCP85 2070'
p1370
sg33
g34
sg35
g36
sg37
S'clim.he8570.bio06.tif'
p1371
sg39
S'clim'
p1372
sg41
g42
sg43
I4326
sg44
S'2070'
p1373
ssS'bio13'
p1374
(dp1375
g8
S'2015-03-17 09:11:15'
p1376
sg10
S'no'
p1377
sg12
S'he8570.bio13'
p1378
sg14
I252
sg15
S'bio13'
p1379
sg17
S'Precipitation of Wettest Month'
p1380
sg19
S'85'
p1381
sg21
S'he8570'
p1382
sg23
S'../views/GTiff/clim.he8570.bio13.tif'
p1383
sg25
S'climate'
p1384
sg27
S'clim.he8570.bio13'
p1385
sg29
S'6209'
p1386
sg31
S'Precipitation of Wettest Month HE RCP85 2070'
p1387
sg33
g34
sg35
g36
sg37
S'clim.he8570.bio13.tif'
p1388
sg39
S'clim'
p1389
sg41
g42
sg43
I4326
sg44
S'2070'
p1390
ssS'bio12'
p1391
(dp1392
g8
S'2015-03-17 09:11:15'
p1393
sg10
S'no'
p1394
sg12
S'he8570.bio12'
p1395
sg14
I265
sg15
S'bio12'
p1396
sg17
S'Annual Precipitation'
p1397
sg19
S'85'
p1398
sg21
S'he8570'
p1399
sg23
S'../views/GTiff/clim.he8570.bio12.tif'
p1400
sg25
S'climate'
p1401
sg27
S'clim.he8570.bio12'
p1402
sg29
S'6213'
p1403
sg31
S'Annual Precipitation HE RCP85 2070'
p1404
sg33
g34
sg35
g36
sg37
S'clim.he8570.bio12.tif'
p1405
sg39
S'clim'
p1406
sg41
g42
sg43
I4326
sg44
S'2070'
p1407
ssS'bio07'
p1408
(dp1409
g8
S'2015-03-17 09:11:15'
p1410
sg10
S'no'
p1411
sg12
S'he8570.bio07'
p1412
sg14
I141
sg15
S'bio07'
p1413
sg17
S'Temperature Annual Range (BIO5-BIO6)'
p1414
sg19
S'85'
p1415
sg21
S'he8570'
p1416
sg23
S'../views/GTiff/clim.he8570.bio07.tif'
p1417
sg25
S'climate'
p1418
sg27
S'clim.he8570.bio07'
p1419
sg29
S'6214'
p1420
sg31
S'Temperature Annual Range (BIO5-BIO6) HE RCP85 2070'
p1421
sg33
g34
sg35
g36
sg37
S'clim.he8570.bio07.tif'
p1422
sg39
S'clim'
p1423
sg41
g42
sg43
I4326
sg44
S'2070'
p1424
ssS'bio11'
p1425
(dp1426
g8
S'2015-03-17 09:11:15'
p1427
sg10
S'no'
p1428
sg12
S'he8570.bio11'
p1429
sg14
I244
sg15
S'bio11'
p1430
sg17
S'Mean Temperature of Coldest Quarter'
p1431
sg19
S'85'
p1432
sg21
S'he8570'
p1433
sg23
S'../views/GTiff/clim.he8570.bio11.tif'
p1434
sg25
S'climate'
p1435
sg27
S'clim.he8570.bio11'
p1436
sg29
S'6210'
p1437
sg31
S'Mean Temperature of Coldest Quarter HE RCP85 2070'
p1438
sg33
g34
sg35
g36
sg37
S'clim.he8570.bio11.tif'
p1439
sg39
S'clim'
p1440
sg41
g42
sg43
I4326
sg44
S'2070'
p1441
ssS'bio05'
p1442
(dp1443
g8
S'2015-03-17 09:11:15'
p1444
sg10
S'no'
p1445
sg12
S'he8570.bio05'
p1446
sg14
I185
sg15
S'bio05'
p1447
sg17
S'Max Temperature of Warmest Month'
p1448
sg19
S'85'
p1449
sg21
S'he8570'
p1450
sg23
S'../views/GTiff/clim.he8570.bio05.tif'
p1451
sg25
S'climate'
p1452
sg27
S'clim.he8570.bio05'
p1453
sg29
S'6216'
p1454
sg31
S'Max Temperature of Warmest Month HE RCP85 2070'
p1455
sg33
g34
sg35
g36
sg37
S'clim.he8570.bio05.tif'
p1456
sg39
S'clim'
p1457
sg41
g42
sg43
I4326
sg44
S'2070'
p1458
ssS'bio04'
p1459
(dp1460
g8
S'2015-03-17 09:11:15'
p1461
sg10
S'no'
p1462
sg12
S'he8570.bio04'
p1463
sg14
I192
sg15
S'bio04'
p1464
sg17
S'Temperature Seasonality (standard deviation *100)'
p1465
sg19
S'85'
p1466
sg21
S'he8570'
p1467
sg23
S'../views/GTiff/clim.he8570.bio04.tif'
p1468
sg25
S'climate'
p1469
sg27
S'clim.he8570.bio04'
p1470
sg29
S'6217'
p1471
sg31
S'Temperature Seasonality (standard deviation *100) HE RCP85 2070'
p1472
sg33
g34
sg35
g36
sg37
S'clim.he8570.bio04.tif'
p1473
sg39
S'clim'
p1474
sg41
g42
sg43
I4326
sg44
S'2070'
p1475
ssS'bio14'
p1476
(dp1477
g8
S'2015-03-17 09:11:15'
p1478
sg10
S'no'
p1479
sg12
S'he8570.bio14'
p1480
sg14
I84
sg15
S'bio14'
p1481
sg17
S'Precipitation of Driest Month'
p1482
sg19
S'85'
p1483
sg21
S'he8570'
p1484
sg23
S'../views/GTiff/clim.he8570.bio14.tif'
p1485
sg25
S'climate'
p1486
sg27
S'clim.he8570.bio14'
p1487
sg29
S'6223'
p1488
sg31
S'Precipitation of Driest Month HE RCP85 2070'
p1489
sg33
g34
sg35
g36
sg37
S'clim.he8570.bio14.tif'
p1490
sg39
S'clim'
p1491
sg41
g42
sg43
I4326
sg44
S'2070'
p1492
ssS'bio15'
p1493
(dp1494
g8
S'2015-03-17 09:11:15'
p1495
sg10
S'no'
p1496
sg12
S'he8570.bio15'
p1497
sg14
I255
sg15
S'bio15'
p1498
sg17
S'Precipitation Seasonality (Coefficient of Variation)'
p1499
sg19
S'85'
p1500
sg21
S'he8570'
p1501
sg23
S'../views/GTiff/clim.he8570.bio15.tif'
p1502
sg25
S'climate'
p1503
sg27
S'clim.he8570.bio15'
p1504
sg29
S'6212'
p1505
sg31
S'Precipitation Seasonality (Coefficient of Variation) HE RCP85 2070'
p1506
sg33
g34
sg35
g36
sg37
S'clim.he8570.bio15.tif'
p1507
sg39
S'clim'
p1508
sg41
g42
sg43
I4326
sg44
S'2070'
p1509
ssS'bio16'
p1510
(dp1511
g8
S'2015-03-17 09:11:15'
p1512
sg10
S'no'
p1513
sg12
S'he8570.bio16'
p1514
sg14
I180
sg15
S'bio16'
p1515
sg17
S'Precipitation of Wettest Quarter'
p1516
sg19
S'85'
p1517
sg21
S'he8570'
p1518
sg23
S'../views/GTiff/clim.he8570.bio16.tif'
p1519
sg25
S'climate'
p1520
sg27
S'clim.he8570.bio16'
p1521
sg29
S'6211'
p1522
sg31
S'Precipitation of Wettest Quarter HE RCP85 2070'
p1523
sg33
g34
sg35
g36
sg37
S'clim.he8570.bio16.tif'
p1524
sg39
S'clim'
p1525
sg41
g42
sg43
I4326
sg44
S'2070'
p1526
ssS'bio17'
p1527
(dp1528
g8
S'2015-03-17 09:11:15'
p1529
sg10
S'no'
p1530
sg12
S'he8570.bio17'
p1531
sg14
I288
sg15
S'bio17'
p1532
sg17
S'Precipitation of Driest Quarter'
p1533
sg19
S'85'
p1534
sg21
S'he8570'
p1535
sg23
S'../views/GTiff/clim.he8570.bio17.tif'
p1536
sg25
S'climate'
p1537
sg27
S'clim.he8570.bio17'
p1538
sg29
S'6221'
p1539
sg31
S'Precipitation of Driest Quarter HE RCP85 2070'
p1540
sg33
g34
sg35
g36
sg37
S'clim.he8570.bio17.tif'
p1541
sg39
S'clim'
p1542
sg41
g42
sg43
I4326
sg44
S'2070'
p1543
ssS'bio18'
p1544
(dp1545
g8
S'2015-03-17 09:11:15'
p1546
sg10
S'no'
p1547
sg12
S'he8570.bio18'
p1548
sg14
I68
sg15
S'bio18'
p1549
sg17
S'Precipitation of Warmest Quarter'
p1550
sg19
S'85'
p1551
sg21
S'he8570'
p1552
sg23
S'../views/GTiff/clim.he8570.bio18.tif'
p1553
sg25
S'climate'
p1554
sg27
S'clim.he8570.bio18'
p1555
sg29
S'6222'
p1556
sg31
S'Precipitation of Warmest Quarter HE RCP85 2070'
p1557
sg33
g34
sg35
g36
sg37
S'clim.he8570.bio18.tif'
p1558
sg39
S'clim'
p1559
sg41
g42
sg43
I4326
sg44
S'2070'
p1560
ssS'bio19'
p1561
(dp1562
g8
S'2015-03-17 09:11:15'
p1563
sg10
S'no'
p1564
sg12
S'he8570.bio19'
p1565
sg14
I189
sg15
S'bio19'
p1566
sg17
S'Precipitation of Coldest Quarter'
p1567
sg19
S'85'
p1568
sg21
S'he8570'
p1569
sg23
S'../views/GTiff/clim.he8570.bio19.tif'
p1570
sg25
S'climate'
p1571
sg27
S'clim.he8570.bio19'
p1572
sg29
S'6208'
p1573
sg31
S'Precipitation of Coldest Quarter HE RCP85 2070'
p1574
sg33
g34
sg35
g36
sg37
S'clim.he8570.bio19.tif'
p1575
sg39
S'clim'
p1576
sg41
g42
sg43
I4326
sg44
S'2070'
p1577
ssS'bio02'
p1578
(dp1579
g8
S'2015-03-17 09:11:15'
p1580
sg10
S'no'
p1581
sg12
S'he8570.bio02'
p1582
sg14
I334
sg15
S'bio02'
p1583
sg17
S'Mean Diurnal Range (Mean of monthly (max temp - min temp))'
p1584
sg19
S'85'
p1585
sg21
S'he8570'
p1586
sg23
S'../views/GTiff/clim.he8570.bio02.tif'
p1587
sg25
S'climate'
p1588
sg27
S'clim.he8570.bio02'
p1589
sg29
S'6219'
p1590
sg31
S'Mean Diurnal Range (Mean of monthly (max temp - min temp)) HE RCP85 2070'
p1591
sg33
g34
sg35
g36
sg37
S'clim.he8570.bio02.tif'
p1592
sg39
S'clim'
p1593
sg41
g42
sg43
I4326
sg44
S'2070'
p1594
ssS'bio03'
p1595
(dp1596
g8
S'2015-03-17 09:11:15'
p1597
sg10
S'no'
p1598
sg12
S'he8570.bio03'
p1599
sg14
I198
sg15
S'bio03'
p1600
sg17
S'Isothermality (BIO2/BIO7) (* 100)'
p1601
sg19
S'85'
p1602
sg21
S'he8570'
p1603
sg23
S'../views/GTiff/clim.he8570.bio03.tif'
p1604
sg25
S'climate'
p1605
sg27
S'clim.he8570.bio03'
p1606
sg29
S'6218'
p1607
sg31
S'Isothermality (BIO2/BIO7) (* 100) HE RCP85 2070'
p1608
sg33
g34
sg35
g36
sg37
S'clim.he8570.bio03.tif'
p1609
sg39
S'clim'
p1610
sg41
g42
sg43
I4326
sg44
S'2070'
p1611
ssS'bio09'
p1612
(dp1613
g8
S'2015-03-17 09:11:15'
p1614
sg10
S'no'
p1615
sg12
S'he8570.bio09'
p1616
sg14
I269
sg15
S'bio09'
p1617
sg17
S'Mean Temperature of Driest Quarter'
p1618
sg19
S'85'
p1619
sg21
S'he8570'
p1620
sg23
S'../views/GTiff/clim.he8570.bio09.tif'
p1621
sg25
S'climate'
p1622
sg27
S'clim.he8570.bio09'
p1623
sg29
S'6224'
p1624
sg31
S'Mean Temperature of Driest Quarter HE RCP85 2070'
p1625
sg33
g34
sg35
g36
sg37
S'clim.he8570.bio09.tif'
p1626
sg39
S'clim'
p1627
sg41
g42
sg43
I4326
sg44
S'2070'
p1628
ssS'bio08'
p1629
(dp1630
g8
S'2015-03-17 09:11:15'
p1631
sg10
S'no'
p1632
sg12
S'he8570.bio08'
p1633
sg14
I329
sg15
S'bio08'
p1634
sg17
S'Mean Temperature of Wettest Quarter'
p1635
sg19
S'85'
p1636
sg21
S'he8570'
p1637
sg23
S'../views/GTiff/clim.he8570.bio08.tif'
p1638
sg25
S'climate'
p1639
sg27
S'clim.he8570.bio08'
p1640
sg29
S'6225'
p1641
sg31
S'Mean Temperature of Wettest Quarter HE RCP85 2070'
p1642
sg33
g34
sg35
g36
sg37
S'clim.he8570.bio08.tif'
p1643
sg39
S'clim'
p1644
sg41
g42
sg43
I4326
sg44
S'2070'
p1645
sssS'he2650'
p1646
(dp1647
S'bio07'
p1648
(dp1649
g8
S'2015-03-17 09:11:15'
p1650
sg10
S'no'
p1651
sg12
S'he2650.bio07'
p1652
sg14
I320
sg15
S'bio07'
p1653
sg17
S'Temperature Annual Range (BIO5-BIO6)'
p1654
sg19
S'26'
p1655
sg21
S'he2650'
p1656
sg23
S'../views/GTiff/clim.he2650.bio07.tif'
p1657
sg25
S'climate'
p1658
sg27
S'clim.he2650.bio07'
p1659
sg29
S'6233'
p1660
sg31
S'Temperature Annual Range (BIO5-BIO6) HE RCP26 2050'
p1661
sg33
g34
sg35
g36
sg37
S'clim.he2650.bio07.tif'
p1662
sg39
S'clim'
p1663
sg41
g42
sg43
I4326
sg44
S'2050'
p1664
ssS'bio16'
p1665
(dp1666
g8
S'2015-03-17 09:11:15'
p1667
sg10
S'no'
p1668
sg12
S'he2650.bio16'
p1669
sg14
I182
sg15
S'bio16'
p1670
sg17
S'Precipitation of Wettest Quarter'
p1671
sg19
S'26'
p1672
sg21
S'he2650'
p1673
sg23
S'../views/GTiff/clim.he2650.bio16.tif'
p1674
sg25
S'climate'
p1675
sg27
S'clim.he2650.bio16'
p1676
sg29
S'6230'
p1677
sg31
S'Precipitation of Wettest Quarter HE RCP26 2050'
p1678
sg33
g34
sg35
g36
sg37
S'clim.he2650.bio16.tif'
p1679
sg39
S'clim'
p1680
sg41
g42
sg43
I4326
sg44
S'2050'
p1681
ssS'bio02'
p1682
(dp1683
g8
S'2015-03-17 09:11:15'
p1684
sg10
S'no'
p1685
sg12
S'he2650.bio02'
p1686
sg14
I309
sg15
S'bio02'
p1687
sg17
S'Mean Diurnal Range (Mean of monthly (max temp - min temp))'
p1688
sg19
S'26'
p1689
sg21
S'he2650'
p1690
sg23
S'../views/GTiff/clim.he2650.bio02.tif'
p1691
sg25
S'climate'
p1692
sg27
S'clim.he2650.bio02'
p1693
sg29
S'6238'
p1694
sg31
S'Mean Diurnal Range (Mean of monthly (max temp - min temp)) HE RCP26 2050'
p1695
sg33
g34
sg35
g36
sg37
S'clim.he2650.bio02.tif'
p1696
sg39
S'clim'
p1697
sg41
g42
sg43
I4326
sg44
S'2050'
p1698
ssS'bio11'
p1699
(dp1700
g8
S'2015-03-17 09:11:15'
p1701
sg10
S'no'
p1702
sg12
S'he2650.bio11'
p1703
sg14
I102
sg15
S'bio11'
p1704
sg17
S'Mean Temperature of Coldest Quarter'
p1705
sg19
S'26'
p1706
sg21
S'he2650'
p1707
sg23
S'../views/GTiff/clim.he2650.bio11.tif'
p1708
sg25
S'climate'
p1709
sg27
S'clim.he2650.bio11'
p1710
sg29
S'6229'
p1711
sg31
S'Mean Temperature of Coldest Quarter HE RCP26 2050'
p1712
sg33
g34
sg35
g36
sg37
S'clim.he2650.bio11.tif'
p1713
sg39
S'clim'
p1714
sg41
g42
sg43
I4326
sg44
S'2050'
p1715
ssS'bio12'
p1716
(dp1717
g8
S'2015-03-17 09:11:15'
p1718
sg10
S'no'
p1719
sg12
S'he2650.bio12'
p1720
sg14
I281
sg15
S'bio12'
p1721
sg17
S'Annual Precipitation'
p1722
sg19
S'26'
p1723
sg21
S'he2650'
p1724
sg23
S'../views/GTiff/clim.he2650.bio12.tif'
p1725
sg25
S'climate'
p1726
sg27
S'clim.he2650.bio12'
p1727
sg29
S'6232'
p1728
sg31
S'Annual Precipitation HE RCP26 2050'
p1729
sg33
g34
sg35
g36
sg37
S'clim.he2650.bio12.tif'
p1730
sg39
S'clim'
p1731
sg41
g42
sg43
I4326
sg44
S'2050'
p1732
ssS'bio10'
p1733
(dp1734
g8
S'2015-03-17 09:11:15'
p1735
sg10
S'no'
p1736
sg12
S'he2650.bio10'
p1737
sg14
I212
sg15
S'bio10'
p1738
sg17
S'Mean Temperature of Warmest Quarter'
p1739
sg19
S'26'
p1740
sg21
S'he2650'
p1741
sg23
S'../views/GTiff/clim.he2650.bio10.tif'
p1742
sg25
S'climate'
p1743
sg27
S'clim.he2650.bio10'
p1744
sg29
S'6226'
p1745
sg31
S'Mean Temperature of Warmest Quarter HE RCP26 2050'
p1746
sg33
g34
sg35
g36
sg37
S'clim.he2650.bio10.tif'
p1747
sg39
S'clim'
p1748
sg41
g42
sg43
I4326
sg44
S'2050'
p1749
ssS'bio06'
p1750
(dp1751
g8
S'2015-03-17 09:11:15'
p1752
sg10
S'no'
p1753
sg12
S'he2650.bio06'
p1754
sg14
I41
sg15
S'bio06'
p1755
sg17
S'Min Temperature of Coldest Month'
p1756
sg19
S'26'
p1757
sg21
g1646
sg23
S'../views/GTiff/clim.he2650.bio06.tif'
p1758
sg25
S'climate'
p1759
sg27
S'clim.he2650.bio06'
p1760
sg29
S'6234'
p1761
sg31
S'Min Temperature of Coldest Month HE RCP26 2050'
p1762
sg33
g34
sg35
g36
sg37
S'clim.he2650.bio06.tif'
p1763
sg39
S'clim'
p1764
sg41
g42
sg43
I4326
sg44
S'2050'
p1765
ssS'bio05'
p1766
(dp1767
g8
S'2015-03-17 09:11:15'
p1768
sg10
S'no'
p1769
sg12
S'he2650.bio05'
p1770
sg14
I213
sg15
S'bio05'
p1771
sg17
S'Max Temperature of Warmest Month'
p1772
sg19
S'26'
p1773
sg21
S'he2650'
p1774
sg23
S'../views/GTiff/clim.he2650.bio05.tif'
p1775
sg25
S'climate'
p1776
sg27
S'clim.he2650.bio05'
p1777
sg29
S'6235'
p1778
sg31
S'Max Temperature of Warmest Month HE RCP26 2050'
p1779
sg33
g34
sg35
g36
sg37
S'clim.he2650.bio05.tif'
p1780
sg39
S'clim'
p1781
sg41
g42
sg43
I4326
sg44
S'2050'
p1782
ssS'bio13'
p1783
(dp1784
g8
S'2015-03-17 09:11:15'
p1785
sg10
S'no'
p1786
sg12
S'he2650.bio13'
p1787
sg14
I88
sg15
S'bio13'
p1788
sg17
S'Precipitation of Wettest Month'
p1789
sg19
S'26'
p1790
sg21
S'he2650'
p1791
sg23
S'../views/GTiff/clim.he2650.bio13.tif'
p1792
sg25
S'climate'
p1793
sg27
S'clim.he2650.bio13'
p1794
sg29
S'6228'
p1795
sg31
S'Precipitation of Wettest Month HE RCP26 2050'
p1796
sg33
g34
sg35
g36
sg37
S'clim.he2650.bio13.tif'
p1797
sg39
S'clim'
p1798
sg41
g42
sg43
I4326
sg44
S'2050'
p1799
ssS'bio14'
p1800
(dp1801
g8
S'2015-03-17 09:11:15'
p1802
sg10
S'no'
p1803
sg12
S'he2650.bio14'
p1804
sg14
I93
sg15
S'bio14'
p1805
sg17
S'Precipitation of Driest Month'
p1806
sg19
S'26'
p1807
sg21
S'he2650'
p1808
sg23
S'../views/GTiff/clim.he2650.bio14.tif'
p1809
sg25
S'climate'
p1810
sg27
S'clim.he2650.bio14'
p1811
sg29
S'6242'
p1812
sg31
S'Precipitation of Driest Month HE RCP26 2050'
p1813
sg33
g34
sg35
g36
sg37
S'clim.he2650.bio14.tif'
p1814
sg39
S'clim'
p1815
sg41
g42
sg43
I4326
sg44
S'2050'
p1816
ssS'bio15'
p1817
(dp1818
g8
S'2015-03-17 09:11:15'
p1819
sg10
S'no'
p1820
sg12
S'he2650.bio15'
p1821
sg14
I160
sg15
S'bio15'
p1822
sg17
S'Precipitation Seasonality (Coefficient of Variation)'
p1823
sg19
S'26'
p1824
sg21
S'he2650'
p1825
sg23
S'../views/GTiff/clim.he2650.bio15.tif'
p1826
sg25
S'climate'
p1827
sg27
S'clim.he2650.bio15'
p1828
sg29
S'6231'
p1829
sg31
S'Precipitation Seasonality (Coefficient of Variation) HE RCP26 2050'
p1830
sg33
g34
sg35
g36
sg37
S'clim.he2650.bio15.tif'
p1831
sg39
S'clim'
p1832
sg41
g42
sg43
I4326
sg44
S'2050'
p1833
ssS'bio01'
p1834
(dp1835
g8
S'2015-03-17 09:11:15'
p1836
sg10
S'no'
p1837
sg12
S'he2650.bio01'
p1838
sg14
I116
sg15
S'bio01'
p1839
sg17
S'Annual Mean Temperature'
p1840
sg19
S'26'
p1841
sg21
S'he2650'
p1842
sg23
S'../views/GTiff/clim.he2650.bio01.tif'
p1843
sg25
S'climate'
p1844
sg27
S'clim.he2650.bio01'
p1845
sg29
S'6239'
p1846
sg31
S'Annual Mean Temperature HE RCP26 2050'
p1847
sg33
g34
sg35
g36
sg37
S'clim.he2650.bio01.tif'
p1848
sg39
S'clim'
p1849
sg41
g42
sg43
I4326
sg44
S'2050'
p1850
ssS'bio17'
p1851
(dp1852
g8
S'2015-03-17 09:11:15'
p1853
sg10
S'no'
p1854
sg12
S'he2650.bio17'
p1855
sg14
I296
sg15
S'bio17'
p1856
sg17
S'Precipitation of Driest Quarter'
p1857
sg19
S'26'
p1858
sg21
S'he2650'
p1859
sg23
S'../views/GTiff/clim.he2650.bio17.tif'
p1860
sg25
S'climate'
p1861
sg27
S'clim.he2650.bio17'
p1862
sg29
S'6240'
p1863
sg31
S'Precipitation of Driest Quarter HE RCP26 2050'
p1864
sg33
g34
sg35
g36
sg37
S'clim.he2650.bio17.tif'
p1865
sg39
S'clim'
p1866
sg41
g42
sg43
I4326
sg44
S'2050'
p1867
ssS'bio18'
p1868
(dp1869
g8
S'2015-03-17 09:11:15'
p1870
sg10
S'no'
p1871
sg12
S'he2650.bio18'
p1872
sg14
I228
sg15
S'bio18'
p1873
sg17
S'Precipitation of Warmest Quarter'
p1874
sg19
S'26'
p1875
sg21
S'he2650'
p1876
sg23
S'../views/GTiff/clim.he2650.bio18.tif'
p1877
sg25
S'climate'
p1878
sg27
S'clim.he2650.bio18'
p1879
sg29
S'6241'
p1880
sg31
S'Precipitation of Warmest Quarter HE RCP26 2050'
p1881
sg33
g34
sg35
g36
sg37
S'clim.he2650.bio18.tif'
p1882
sg39
S'clim'
p1883
sg41
g42
sg43
I4326
sg44
S'2050'
p1884
ssS'bio19'
p1885
(dp1886
g8
S'2015-03-17 09:11:15'
p1887
sg10
S'no'
p1888
sg12
S'he2650.bio19'
p1889
sg14
I168
sg15
S'bio19'
p1890
sg17
S'Precipitation of Coldest Quarter'
p1891
sg19
S'26'
p1892
sg21
S'he2650'
p1893
sg23
S'../views/GTiff/clim.he2650.bio19.tif'
p1894
sg25
S'climate'
p1895
sg27
S'clim.he2650.bio19'
p1896
sg29
S'6227'
p1897
sg31
S'Precipitation of Coldest Quarter HE RCP26 2050'
p1898
sg33
g34
sg35
g36
sg37
S'clim.he2650.bio19.tif'
p1899
sg39
S'clim'
p1900
sg41
g42
sg43
I4326
sg44
S'2050'
p1901
ssS'bio04'
p1902
(dp1903
g8
S'2015-03-17 09:11:15'
p1904
sg10
S'no'
p1905
sg12
S'he2650.bio04'
p1906
sg14
I303
sg15
S'bio04'
p1907
sg17
S'Temperature Seasonality (standard deviation *100)'
p1908
sg19
S'26'
p1909
sg21
S'he2650'
p1910
sg23
S'../views/GTiff/clim.he2650.bio04.tif'
p1911
sg25
S'climate'
p1912
sg27
S'clim.he2650.bio04'
p1913
sg29
S'6236'
p1914
sg31
S'Temperature Seasonality (standard deviation *100) HE RCP26 2050'
p1915
sg33
g34
sg35
g36
sg37
S'clim.he2650.bio04.tif'
p1916
sg39
S'clim'
p1917
sg41
g42
sg43
I4326
sg44
S'2050'
p1918
ssS'bio03'
p1919
(dp1920
g8
S'2015-03-17 09:11:15'
p1921
sg10
S'no'
p1922
sg12
S'he2650.bio03'
p1923
sg14
I248
sg15
S'bio03'
p1924
sg17
S'Isothermality (BIO2/BIO7) (* 100)'
p1925
sg19
S'26'
p1926
sg21
S'he2650'
p1927
sg23
S'../views/GTiff/clim.he2650.bio03.tif'
p1928
sg25
S'climate'
p1929
sg27
S'clim.he2650.bio03'
p1930
sg29
S'6237'
p1931
sg31
S'Isothermality (BIO2/BIO7) (* 100) HE RCP26 2050'
p1932
sg33
g34
sg35
g36
sg37
S'clim.he2650.bio03.tif'
p1933
sg39
S'clim'
p1934
sg41
g42
sg43
I4326
sg44
S'2050'
p1935
ssS'bio09'
p1936
(dp1937
g8
S'2015-03-17 09:11:15'
p1938
sg10
S'no'
p1939
sg12
S'he2650.bio09'
p1940
sg14
I71
sg15
S'bio09'
p1941
sg17
S'Mean Temperature of Driest Quarter'
p1942
sg19
S'26'
p1943
sg21
S'he2650'
p1944
sg23
S'../views/GTiff/clim.he2650.bio09.tif'
p1945
sg25
S'climate'
p1946
sg27
S'clim.he2650.bio09'
p1947
sg29
S'6243'
p1948
sg31
S'Mean Temperature of Driest Quarter HE RCP26 2050'
p1949
sg33
g34
sg35
g36
sg37
S'clim.he2650.bio09.tif'
p1950
sg39
S'clim'
p1951
sg41
g42
sg43
I4326
sg44
S'2050'
p1952
ssS'bio08'
p1953
(dp1954
g8
S'2015-03-17 09:11:15'
p1955
sg10
S'no'
p1956
sg12
S'he2650.bio08'
p1957
sg14
I235
sg15
S'bio08'
p1958
sg17
S'Mean Temperature of Wettest Quarter'
p1959
sg19
S'26'
p1960
sg21
S'he2650'
p1961
sg23
S'../views/GTiff/clim.he2650.bio08.tif'
p1962
sg25
S'climate'
p1963
sg27
S'clim.he2650.bio08'
p1964
sg29
S'6244'
p1965
sg31
S'Mean Temperature of Wettest Quarter HE RCP26 2050'
p1966
sg33
g34
sg35
g36
sg37
S'clim.he2650.bio08.tif'
p1967
sg39
S'clim'
p1968
sg41
g42
sg43
I4326
sg44
S'2050'
p1969
sssS'ac4570'
p1970
(dp1971
S'bio07'
p1972
(dp1973
g8
S'2015-03-17 09:11:15'
p1974
sg10
S'no'
p1975
sg12
S'ac4570.bio07'
p1976
sg14
I148
sg15
S'bio07'
p1977
sg17
S'Temperature Annual Range (BIO5-BIO6)'
p1978
sg19
S'45'
p1979
sg21
S'ac4570'
p1980
sg23
S'../views/GTiff/clim.ac4570.bio07.tif'
p1981
sg25
S'climate'
p1982
sg27
S'clim.ac4570.bio07'
p1983
sg29
S'6290'
p1984
sg31
S'Temperature Annual Range (BIO5-BIO6) AC RCP45 2070'
p1985
sg33
g34
sg35
g36
sg37
S'clim.ac4570.bio07.tif'
p1986
sg39
S'clim'
p1987
sg41
g42
sg43
I4326
sg44
S'2070'
p1988
ssS'bio01'
p1989
(dp1990
g8
S'2015-03-17 09:11:15'
p1991
sg10
S'no'
p1992
sg12
S'ac4570.bio01'
p1993
sg14
I156
sg15
S'bio01'
p1994
sg17
S'Annual Mean Temperature'
p1995
sg19
S'45'
p1996
sg21
S'ac4570'
p1997
sg23
S'../views/GTiff/clim.ac4570.bio01.tif'
p1998
sg25
S'climate'
p1999
sg27
S'clim.ac4570.bio01'
p2000
sg29
S'6296'
p2001
sg31
S'Annual Mean Temperature AC RCP45 2070'
p2002
sg33
g34
sg35
g36
sg37
S'clim.ac4570.bio01.tif'
p2003
sg39
S'clim'
p2004
sg41
g42
sg43
I4326
sg44
S'2070'
p2005
ssS'bio06'
p2006
(dp2007
g8
S'2015-03-17 09:11:15'
p2008
sg10
S'no'
p2009
sg12
S'ac4570.bio06'
p2010
sg14
I163
sg15
S'bio06'
p2011
sg17
S'Min Temperature of Coldest Month'
p2012
sg19
S'45'
p2013
sg21
S'ac4570'
p2014
sg23
S'../views/GTiff/clim.ac4570.bio06.tif'
p2015
sg25
S'climate'
p2016
sg27
S'clim.ac4570.bio06'
p2017
sg29
S'6291'
p2018
sg31
S'Min Temperature of Coldest Month AC RCP45 2070'
p2019
sg33
g34
sg35
g36
sg37
S'clim.ac4570.bio06.tif'
p2020
sg39
S'clim'
p2021
sg41
g42
sg43
I4326
sg44
S'2070'
p2022
ssS'bio09'
p2023
(dp2024
g8
S'2015-03-17 09:11:15'
p2025
sg10
S'no'
p2026
sg12
S'ac4570.bio09'
p2027
sg14
I175
sg15
S'bio09'
p2028
sg17
S'Mean Temperature of Driest Quarter'
p2029
sg19
S'45'
p2030
sg21
S'ac4570'
p2031
sg23
S'../views/GTiff/clim.ac4570.bio09.tif'
p2032
sg25
S'climate'
p2033
sg27
S'clim.ac4570.bio09'
p2034
sg29
S'6300'
p2035
sg31
S'Mean Temperature of Driest Quarter AC RCP45 2070'
p2036
sg33
g34
sg35
g36
sg37
S'clim.ac4570.bio09.tif'
p2037
sg39
S'clim'
p2038
sg41
g42
sg43
I4326
sg44
S'2070'
p2039
ssS'bio12'
p2040
(dp2041
g8
S'2015-03-17 09:11:15'
p2042
sg10
S'no'
p2043
sg12
S'ac4570.bio12'
p2044
sg14
I210
sg15
S'bio12'
p2045
sg17
S'Annual Precipitation'
p2046
sg19
S'45'
p2047
sg21
S'ac4570'
p2048
sg23
S'../views/GTiff/clim.ac4570.bio12.tif'
p2049
sg25
S'climate'
p2050
sg27
S'clim.ac4570.bio12'
p2051
sg29
S'6289'
p2052
sg31
S'Annual Precipitation AC RCP45 2070'
p2053
sg33
g34
sg35
g36
sg37
S'clim.ac4570.bio12.tif'
p2054
sg39
S'clim'
p2055
sg41
g42
sg43
I4326
sg44
S'2070'
p2056
ssS'bio10'
p2057
(dp2058
g8
S'2015-03-17 09:11:15'
p2059
sg10
S'no'
p2060
sg12
S'ac4570.bio10'
p2061
sg14
I42
sg15
S'bio10'
p2062
sg17
S'Mean Temperature of Warmest Quarter'
p2063
sg19
S'45'
p2064
sg21
S'ac4570'
p2065
sg23
S'../views/GTiff/clim.ac4570.bio10.tif'
p2066
sg25
S'climate'
p2067
sg27
S'clim.ac4570.bio10'
p2068
sg29
S'6283'
p2069
sg31
S'Mean Temperature of Warmest Quarter AC RCP45 2070'
p2070
sg33
g34
sg35
g36
sg37
S'clim.ac4570.bio10.tif'
p2071
sg39
S'clim'
p2072
sg41
g42
sg43
I4326
sg44
S'2070'
p2073
ssS'bio11'
p2074
(dp2075
g8
S'2015-03-17 09:11:15'
p2076
sg10
S'no'
p2077
sg12
S'ac4570.bio11'
p2078
sg14
I63
sg15
S'bio11'
p2079
sg17
S'Mean Temperature of Coldest Quarter'
p2080
sg19
S'45'
p2081
sg21
S'ac4570'
p2082
sg23
S'../views/GTiff/clim.ac4570.bio11.tif'
p2083
sg25
S'climate'
p2084
sg27
S'clim.ac4570.bio11'
p2085
sg29
S'6286'
p2086
sg31
S'Mean Temperature of Coldest Quarter AC RCP45 2070'
p2087
sg33
g34
sg35
g36
sg37
S'clim.ac4570.bio11.tif'
p2088
sg39
S'clim'
p2089
sg41
g42
sg43
I4326
sg44
S'2070'
p2090
ssS'bio05'
p2091
(dp2092
g8
S'2015-03-17 09:11:15'
p2093
sg10
S'no'
p2094
sg12
S'ac4570.bio05'
p2095
sg14
I89
sg15
S'bio05'
p2096
sg17
S'Max Temperature of Warmest Month'
p2097
sg19
S'45'
p2098
sg21
S'ac4570'
p2099
sg23
S'../views/GTiff/clim.ac4570.bio05.tif'
p2100
sg25
S'climate'
p2101
sg27
S'clim.ac4570.bio05'
p2102
sg29
S'6292'
p2103
sg31
S'Max Temperature of Warmest Month AC RCP45 2070'
p2104
sg33
g34
sg35
g36
sg37
S'clim.ac4570.bio05.tif'
p2105
sg39
S'clim'
p2106
sg41
g42
sg43
I4326
sg44
S'2070'
p2107
ssS'bio13'
p2108
(dp2109
g8
S'2015-03-17 09:11:15'
p2110
sg10
S'no'
p2111
sg12
S'ac4570.bio13'
p2112
sg14
I91
sg15
S'bio13'
p2113
sg17
S'Precipitation of Wettest Month'
p2114
sg19
S'45'
p2115
sg21
S'ac4570'
p2116
sg23
S'../views/GTiff/clim.ac4570.bio13.tif'
p2117
sg25
S'climate'
p2118
sg27
S'clim.ac4570.bio13'
p2119
sg29
S'6285'
p2120
sg31
S'Precipitation of Wettest Month AC RCP45 2070'
p2121
sg33
g34
sg35
g36
sg37
S'clim.ac4570.bio13.tif'
p2122
sg39
S'clim'
p2123
sg41
g42
sg43
I4326
sg44
S'2070'
p2124
ssS'bio14'
p2125
(dp2126
g8
S'2015-03-17 09:11:15'
p2127
sg10
S'no'
p2128
sg12
S'ac4570.bio14'
p2129
sg14
I144
sg15
S'bio14'
p2130
sg17
S'Precipitation of Driest Month'
p2131
sg19
S'45'
p2132
sg21
S'ac4570'
p2133
sg23
S'../views/GTiff/clim.ac4570.bio14.tif'
p2134
sg25
S'climate'
p2135
sg27
S'clim.ac4570.bio14'
p2136
sg29
S'6299'
p2137
sg31
S'Precipitation of Driest Month AC RCP45 2070'
p2138
sg33
g34
sg35
g36
sg37
S'clim.ac4570.bio14.tif'
p2139
sg39
S'clim'
p2140
sg41
g42
sg43
I4326
sg44
S'2070'
p2141
ssS'bio15'
p2142
(dp2143
g8
S'2015-03-17 09:11:15'
p2144
sg10
S'no'
p2145
sg12
S'ac4570.bio15'
p2146
sg14
I112
sg15
S'bio15'
p2147
sg17
S'Precipitation Seasonality (Coefficient of Variation)'
p2148
sg19
S'45'
p2149
sg21
S'ac4570'
p2150
sg23
S'../views/GTiff/clim.ac4570.bio15.tif'
p2151
sg25
S'climate'
p2152
sg27
S'clim.ac4570.bio15'
p2153
sg29
S'6288'
p2154
sg31
S'Precipitation Seasonality (Coefficient of Variation) AC RCP45 2070'
p2155
sg33
g34
sg35
g36
sg37
S'clim.ac4570.bio15.tif'
p2156
sg39
S'clim'
p2157
sg41
g42
sg43
I4326
sg44
S'2070'
p2158
ssS'bio16'
p2159
(dp2160
g8
S'2015-03-17 09:11:15'
p2161
sg10
S'no'
p2162
sg12
S'ac4570.bio16'
p2163
sg14
I47
sg15
S'bio16'
p2164
sg17
S'Precipitation of Wettest Quarter'
p2165
sg19
S'45'
p2166
sg21
S'ac4570'
p2167
sg23
S'../views/GTiff/clim.ac4570.bio16.tif'
p2168
sg25
S'climate'
p2169
sg27
S'clim.ac4570.bio16'
p2170
sg29
S'6287'
p2171
sg31
S'Precipitation of Wettest Quarter AC RCP45 2070'
p2172
sg33
g34
sg35
g36
sg37
S'clim.ac4570.bio16.tif'
p2173
sg39
S'clim'
p2174
sg41
g42
sg43
I4326
sg44
S'2070'
p2175
ssS'bio17'
p2176
(dp2177
g8
S'2015-03-17 09:11:15'
p2178
sg10
S'no'
p2179
sg12
S'ac4570.bio17'
p2180
sg14
I241
sg15
S'bio17'
p2181
sg17
S'Precipitation of Driest Quarter'
p2182
sg19
S'45'
p2183
sg21
S'ac4570'
p2184
sg23
S'../views/GTiff/clim.ac4570.bio17.tif'
p2185
sg25
S'climate'
p2186
sg27
S'clim.ac4570.bio17'
p2187
sg29
S'6297'
p2188
sg31
S'Precipitation of Driest Quarter AC RCP45 2070'
p2189
sg33
g34
sg35
g36
sg37
S'clim.ac4570.bio17.tif'
p2190
sg39
S'clim'
p2191
sg41
g42
sg43
I4326
sg44
S'2070'
p2192
ssS'bio18'
p2193
(dp2194
g8
S'2015-03-17 09:11:15'
p2195
sg10
S'no'
p2196
sg12
S'ac4570.bio18'
p2197
sg14
I179
sg15
S'bio18'
p2198
sg17
S'Precipitation of Warmest Quarter'
p2199
sg19
S'45'
p2200
sg21
S'ac4570'
p2201
sg23
S'../views/GTiff/clim.ac4570.bio18.tif'
p2202
sg25
S'climate'
p2203
sg27
S'clim.ac4570.bio18'
p2204
sg29
S'6298'
p2205
sg31
S'Precipitation of Warmest Quarter AC RCP45 2070'
p2206
sg33
g34
sg35
g36
sg37
S'clim.ac4570.bio18.tif'
p2207
sg39
S'clim'
p2208
sg41
g42
sg43
I4326
sg44
S'2070'
p2209
ssS'bio19'
p2210
(dp2211
g8
S'2015-03-17 09:11:15'
p2212
sg10
S'no'
p2213
sg12
S'ac4570.bio19'
p2214
sg14
I27
sg15
S'bio19'
p2215
sg17
S'Precipitation of Coldest Quarter'
p2216
sg19
S'45'
p2217
sg21
g1970
sg23
S'../views/GTiff/clim.ac4570.bio19.tif'
p2218
sg25
S'climate'
p2219
sg27
S'clim.ac4570.bio19'
p2220
sg29
S'6284'
p2221
sg31
S'Precipitation of Coldest Quarter AC RCP45 2070'
p2222
sg33
g34
sg35
g36
sg37
S'clim.ac4570.bio19.tif'
p2223
sg39
S'clim'
p2224
sg41
g42
sg43
I4326
sg44
S'2070'
p2225
ssS'bio02'
p2226
(dp2227
g8
S'2015-03-17 09:11:15'
p2228
sg10
S'no'
p2229
sg12
S'ac4570.bio02'
p2230
sg14
I325
sg15
S'bio02'
p2231
sg17
S'Mean Diurnal Range (Mean of monthly (max temp - min temp))'
p2232
sg19
S'45'
p2233
sg21
S'ac4570'
p2234
sg23
S'../views/GTiff/clim.ac4570.bio02.tif'
p2235
sg25
S'climate'
p2236
sg27
S'clim.ac4570.bio02'
p2237
sg29
S'6295'
p2238
sg31
S'Mean Diurnal Range (Mean of monthly (max temp - min temp)) AC RCP45 2070'
p2239
sg33
g34
sg35
g36
sg37
S'clim.ac4570.bio02.tif'
p2240
sg39
S'clim'
p2241
sg41
g42
sg43
I4326
sg44
S'2070'
p2242
ssS'bio03'
p2243
(dp2244
g8
S'2015-03-17 09:11:15'
p2245
sg10
S'no'
p2246
sg12
S'ac4570.bio03'
p2247
sg14
I305
sg15
S'bio03'
p2248
sg17
S'Isothermality (BIO2/BIO7) (* 100)'
p2249
sg19
S'45'
p2250
sg21
S'ac4570'
p2251
sg23
S'../views/GTiff/clim.ac4570.bio03.tif'
p2252
sg25
S'climate'
p2253
sg27
S'clim.ac4570.bio03'
p2254
sg29
S'6294'
p2255
sg31
S'Isothermality (BIO2/BIO7) (* 100) AC RCP45 2070'
p2256
sg33
g34
sg35
g36
sg37
S'clim.ac4570.bio03.tif'
p2257
sg39
S'clim'
p2258
sg41
g42
sg43
I4326
sg44
S'2070'
p2259
ssS'bio04'
p2260
(dp2261
g8
S'2015-03-17 09:11:15'
p2262
sg10
S'no'
p2263
sg12
S'ac4570.bio04'
p2264
sg14
I165
sg15
S'bio04'
p2265
sg17
S'Temperature Seasonality (standard deviation *100)'
p2266
sg19
S'45'
p2267
sg21
S'ac4570'
p2268
sg23
S'../views/GTiff/clim.ac4570.bio04.tif'
p2269
sg25
S'climate'
p2270
sg27
S'clim.ac4570.bio04'
p2271
sg29
S'6293'
p2272
sg31
S'Temperature Seasonality (standard deviation *100) AC RCP45 2070'
p2273
sg33
g34
sg35
g36
sg37
S'clim.ac4570.bio04.tif'
p2274
sg39
S'clim'
p2275
sg41
g42
sg43
I4326
sg44
S'2070'
p2276
ssS'bio08'
p2277
(dp2278
g8
S'2015-03-17 09:11:15'
p2279
sg10
S'no'
p2280
sg12
S'ac4570.bio08'
p2281
sg14
I31
sg15
S'bio08'
p2282
sg17
S'Mean Temperature of Wettest Quarter'
p2283
sg19
S'45'
p2284
sg21
S'ac4570'
p2285
sg23
S'../views/GTiff/clim.ac4570.bio08.tif'
p2286
sg25
S'climate'
p2287
sg27
S'clim.ac4570.bio08'
p2288
sg29
S'6301'
p2289
sg31
S'Mean Temperature of Wettest Quarter AC RCP45 2070'
p2290
sg33
g34
sg35
g36
sg37
S'clim.ac4570.bio08.tif'
p2291
sg39
S'clim'
p2292
sg41
g42
sg43
I4326
sg44
S'2070'
p2293
sssS'current'
p2294
(dp2295
S'bio10'
p2296
(dp2297
g8
S'2015-03-17 09:11:15'
p2298
sg10
S'no'
p2299
sg12
S'current.bio10'
p2300
sg14
I109
sg15
S'bio10'
p2301
sg17
S'Mean Temperature of Warmest Quarter'
p2302
sg19
S'current'
p2303
sg21
S'current'
p2304
sg23
S'../views/GTiff/clim.current.bio10.tif'
p2305
sg25
S'climate'
p2306
sg27
S'clim.current.bio10'
p2307
sg29
S'6264'
p2308
sg31
S'Mean Temperature of Warmest Quarter Current Climate 1960-2000'
p2309
sg33
g34
sg35
g36
sg37
S'clim.current.bio10.tif'
p2310
sg39
S'clim'
p2311
sg41
g42
sg43
I4326
sg44
S'current'
p2312
ssS'bio16'
p2313
(dp2314
g8
S'2015-03-17 09:11:15'
p2315
sg10
S'no'
p2316
sg12
S'current.bio16'
p2317
sg14
I237
sg15
S'bio16'
p2318
sg17
S'Precipitation of Wettest Quarter'
p2319
sg19
S'current'
p2320
sg21
S'current'
p2321
sg23
S'../views/GTiff/clim.current.bio16.tif'
p2322
sg25
S'climate'
p2323
sg27
S'clim.current.bio16'
p2324
sg29
S'6268'
p2325
sg31
S'Precipitation of Wettest Quarter Current Climate 1960-2000'
p2326
sg33
g34
sg35
g36
sg37
S'clim.current.bio16.tif'
p2327
sg39
S'clim'
p2328
sg41
g42
sg43
I4326
sg44
S'current'
p2329
ssS'bio11'
p2330
(dp2331
g8
S'2015-03-17 09:11:15'
p2332
sg10
S'no'
p2333
sg12
S'current.bio11'
p2334
sg14
I339
sg15
S'bio11'
p2335
sg17
S'Mean Temperature of Coldest Quarter'
p2336
sg19
S'current'
p2337
sg21
S'current'
p2338
sg23
S'../views/GTiff/clim.current.bio11.tif'
p2339
sg25
S'climate'
p2340
sg27
S'clim.current.bio11'
p2341
sg29
S'6267'
p2342
sg31
S'Mean Temperature of Coldest Quarter Current Climate 1960-2000'
p2343
sg33
g34
sg35
g36
sg37
S'clim.current.bio11.tif'
p2344
sg39
S'clim'
p2345
sg41
g42
sg43
I4326
sg44
S'current'
p2346
ssS'bio15'
p2347
(dp2348
g8
S'2015-03-17 09:11:15'
p2349
sg10
S'no'
p2350
sg12
S'current.bio15'
p2351
sg14
I341
sg15
S'bio15'
p2352
sg17
S'Precipitation Seasonality (Coefficient of Variation)'
p2353
sg19
S'current'
p2354
sg21
S'current'
p2355
sg23
S'../views/GTiff/clim.current.bio15.tif'
p2356
sg25
S'climate'
p2357
sg27
S'clim.current.bio15'
p2358
sg29
S'6269'
p2359
sg31
S'Precipitation Seasonality (Coefficient of Variation) Current Climate 1960-2000'
p2360
sg33
g34
sg35
g36
sg37
S'clim.current.bio15.tif'
p2361
sg39
S'clim'
p2362
sg41
g42
sg43
I4326
sg44
S'current'
p2363
ssS'bio12'
p2364
(dp2365
g8
S'2015-03-17 09:11:15'
p2366
sg10
S'no'
p2367
sg12
S'current.bio12'
p2368
sg14
I326
sg15
S'bio12'
p2369
sg17
S'Annual Precipitation'
p2370
sg19
S'current'
p2371
sg21
S'current'
p2372
sg23
S'../views/GTiff/clim.current.bio12.tif'
p2373
sg25
S'climate'
p2374
sg27
S'clim.current.bio12'
p2375
sg29
S'6270'
p2376
sg31
S'Annual Precipitation Current Climate 1960-2000'
p2377
sg33
g34
sg35
g36
sg37
S'clim.current.bio12.tif'
p2378
sg39
S'clim'
p2379
sg41
g42
sg43
I4326
sg44
S'current'
p2380
ssS'bio07'
p2381
(dp2382
g8
S'2015-03-17 09:11:15'
p2383
sg10
S'no'
p2384
sg12
S'current.bio07'
p2385
sg14
I43
sg15
S'bio07'
p2386
sg17
S'Temperature Annual Range (BIO5-BIO6)'
p2387
sg19
S'current'
p2388
sg21
S'current'
p2389
sg23
S'../views/GTiff/clim.current.bio07.tif'
p2390
sg25
S'climate'
p2391
sg27
S'clim.current.bio07'
p2392
sg29
S'6271'
p2393
sg31
S'Temperature Annual Range (BIO5-BIO6) Current Climate 1960-2000'
p2394
sg33
g34
sg35
g36
sg37
S'clim.current.bio07.tif'
p2395
sg39
S'clim'
p2396
sg41
g42
sg43
I4326
sg44
S'current'
p2397
ssS'bio06'
p2398
(dp2399
g8
S'2015-03-17 09:11:15'
p2400
sg10
S'no'
p2401
sg12
S'current.bio06'
p2402
sg14
I28
sg15
S'bio06'
p2403
sg17
S'Min Temperature of Coldest Month'
p2404
sg19
S'current'
p2405
sg21
S'current'
p2406
sg23
S'../views/GTiff/clim.current.bio06.tif'
p2407
sg25
S'climate'
p2408
sg27
S'clim.current.bio06'
p2409
sg29
S'6272'
p2410
sg31
S'Min Temperature of Coldest Month Current Climate 1960-2000'
p2411
sg33
g34
sg35
g36
sg37
S'clim.current.bio06.tif'
p2412
sg39
S'clim'
p2413
sg41
g42
sg43
I4326
sg44
S'current'
p2414
ssS'bio05'
p2415
(dp2416
g8
S'2015-03-17 09:11:15'
p2417
sg10
S'no'
p2418
sg12
S'current.bio05'
p2419
sg14
I119
sg15
S'bio05'
p2420
sg17
S'Max Temperature of Warmest Month'
p2421
sg19
S'current'
p2422
sg21
S'current'
p2423
sg23
S'../views/GTiff/clim.current.bio05.tif'
p2424
sg25
S'climate'
p2425
sg27
S'clim.current.bio05'
p2426
sg29
S'6273'
p2427
sg31
S'Max Temperature of Warmest Month Current Climate 1960-2000'
p2428
sg33
g34
sg35
g36
sg37
S'clim.current.bio05.tif'
p2429
sg39
S'clim'
p2430
sg41
g42
sg43
I4326
sg44
S'current'
p2431
ssS'bio13'
p2432
(dp2433
g8
S'2015-03-17 09:11:15'
p2434
sg10
S'no'
p2435
sg12
S'current.bio13'
p2436
sg14
I38
sg15
S'bio13'
p2437
sg17
S'Precipitation of Wettest Month'
p2438
sg19
S'current'
p2439
sg21
S'current'
p2440
sg23
S'../views/GTiff/clim.current.bio13.tif'
p2441
sg25
S'climate'
p2442
sg27
S'clim.current.bio13'
p2443
sg29
S'6266'
p2444
sg31
S'Precipitation of Wettest Month Current Climate 1960-2000'
p2445
sg33
g34
sg35
g36
sg37
S'clim.current.bio13.tif'
p2446
sg39
S'clim'
p2447
sg41
g42
sg43
I4326
sg44
S'current'
p2448
ssS'bio14'
p2449
(dp2450
g8
S'2015-03-17 09:11:15'
p2451
sg10
S'no'
p2452
sg12
S'current.bio14'
p2453
sg14
I8
sg15
S'bio14'
p2454
sg17
S'Precipitation of Driest Month'
p2455
sg19
S'current'
p2456
sg21
S'current'
p2457
sg23
S'../views/GTiff/clim.current.bio14.tif'
p2458
sg25
S'climate'
p2459
sg27
S'clim.current.bio14'
p2460
sg29
S'6280'
p2461
sg31
S'Precipitation of Driest Month Current Climate 1960-2000'
p2462
sg33
g34
sg35
g36
sg37
S'clim.current.bio14.tif'
p2463
sg39
S'clim'
p2464
sg41
g42
sg43
I4326
sg44
S'current'
p2465
ssS'bio02'
p2466
(dp2467
g8
S'2015-03-17 09:11:15'
p2468
sg10
S'no'
p2469
sg12
S'current.bio02'
p2470
sg14
I267
sg15
S'bio02'
p2471
sg17
S'Mean Diurnal Range (Mean of monthly (max temp - min temp))'
p2472
sg19
S'current'
p2473
sg21
S'current'
p2474
sg23
S'../views/GTiff/clim.current.bio02.tif'
p2475
sg25
S'climate'
p2476
sg27
S'clim.current.bio02'
p2477
sg29
S'6276'
p2478
sg31
S'Mean Diurnal Range (Mean of monthly (max temp - min temp)) Current Climate 1960-2000'
p2479
sg33
g34
sg35
g36
sg37
S'clim.current.bio02.tif'
p2480
sg39
S'clim'
p2481
sg41
g42
sg43
I4326
sg44
S'current'
p2482
ssS'bio01'
p2483
(dp2484
g8
S'2015-03-17 09:11:15'
p2485
sg10
S'no'
p2486
sg12
S'current.bio01'
p2487
sg14
I4
sg15
S'bio01'
p2488
sg17
S'Annual Mean Temperature'
p2489
sg19
S'current'
p2490
sg21
g2294
sg23
S'../views/GTiff/clim.current.bio01.tif'
p2491
sg25
S'climate'
p2492
sg27
S'clim.current.bio01'
p2493
sg29
S'6277'
p2494
sg31
S'Annual Mean Temperature Current Climate 1960-2000'
p2495
sg33
g34
sg35
g36
sg37
S'clim.current.bio01.tif'
p2496
sg39
S'clim'
p2497
sg41
g42
sg43
I4326
sg44
S'current'
p2498
ssS'bio17'
p2499
(dp2500
g8
S'2015-03-17 09:11:15'
p2501
sg10
S'no'
p2502
sg12
S'current.bio17'
p2503
sg14
I18
sg15
S'bio17'
p2504
sg17
S'Precipitation of Driest Quarter'
p2505
sg19
S'current'
p2506
sg21
S'current'
p2507
sg23
S'../views/GTiff/clim.current.bio17.tif'
p2508
sg25
S'climate'
p2509
sg27
S'clim.current.bio17'
p2510
sg29
S'6278'
p2511
sg31
S'Precipitation of Driest Quarter Current Climate 1960-2000'
p2512
sg33
g34
sg35
g36
sg37
S'clim.current.bio17.tif'
p2513
sg39
S'clim'
p2514
sg41
g42
sg43
I4326
sg44
S'current'
p2515
ssS'bio18'
p2516
(dp2517
g8
S'2015-03-17 09:11:15'
p2518
sg10
S'no'
p2519
sg12
S'current.bio18'
p2520
sg14
I126
sg15
S'bio18'
p2521
sg17
S'Precipitation of Warmest Quarter'
p2522
sg19
S'current'
p2523
sg21
S'current'
p2524
sg23
S'../views/GTiff/clim.current.bio18.tif'
p2525
sg25
S'climate'
p2526
sg27
S'clim.current.bio18'
p2527
sg29
S'6279'
p2528
sg31
S'Precipitation of Warmest Quarter Current Climate 1960-2000'
p2529
sg33
g34
sg35
g36
sg37
S'clim.current.bio18.tif'
p2530
sg39
S'clim'
p2531
sg41
g42
sg43
I4326
sg44
S'current'
p2532
ssS'bio19'
p2533
(dp2534
g8
S'2015-03-17 09:11:15'
p2535
sg10
S'no'
p2536
sg12
S'current.bio19'
p2537
sg14
I67
sg15
S'bio19'
p2538
sg17
S'Precipitation of Coldest Quarter'
p2539
sg19
S'current'
p2540
sg21
S'current'
p2541
sg23
S'../views/GTiff/clim.current.bio19.tif'
p2542
sg25
S'climate'
p2543
sg27
S'clim.current.bio19'
p2544
sg29
S'6265'
p2545
sg31
S'Precipitation of Coldest Quarter Current Climate 1960-2000'
p2546
sg33
g34
sg35
g36
sg37
S'clim.current.bio19.tif'
p2547
sg39
S'clim'
p2548
sg41
g42
sg43
I4326
sg44
S'current'
p2549
ssS'bio04'
p2550
(dp2551
g8
S'2015-03-17 09:11:15'
p2552
sg10
S'no'
p2553
sg12
S'current.bio04'
p2554
sg14
I152
sg15
S'bio04'
p2555
sg17
S'Temperature Seasonality (standard deviation *100)'
p2556
sg19
S'current'
p2557
sg21
S'current'
p2558
sg23
S'../views/GTiff/clim.current.bio04.tif'
p2559
sg25
S'climate'
p2560
sg27
S'clim.current.bio04'
p2561
sg29
S'6274'
p2562
sg31
S'Temperature Seasonality (standard deviation *100) Current Climate 1960-2000'
p2563
sg33
g34
sg35
g36
sg37
S'clim.current.bio04.tif'
p2564
sg39
S'clim'
p2565
sg41
g42
sg43
I4326
sg44
S'current'
p2566
ssS'bio03'
p2567
(dp2568
g8
S'2015-03-17 09:11:15'
p2569
sg10
S'no'
p2570
sg12
S'current.bio03'
p2571
sg14
I94
sg15
S'bio03'
p2572
sg17
S'Isothermality (BIO2/BIO7) (* 100)'
p2573
sg19
S'current'
p2574
sg21
S'current'
p2575
sg23
S'../views/GTiff/clim.current.bio03.tif'
p2576
sg25
S'climate'
p2577
sg27
S'clim.current.bio03'
p2578
sg29
S'6275'
p2579
sg31
S'Isothermality (BIO2/BIO7) (* 100) Current Climate 1960-2000'
p2580
sg33
g34
sg35
g36
sg37
S'clim.current.bio03.tif'
p2581
sg39
S'clim'
p2582
sg41
g42
sg43
I4326
sg44
S'current'
p2583
ssS'bio09'
p2584
(dp2585
g8
S'2015-03-17 09:11:15'
p2586
sg10
S'no'
p2587
sg12
S'current.bio09'
p2588
sg14
I7
sg15
S'bio09'
p2589
sg17
S'Mean Temperature of Driest Quarter'
p2590
sg19
S'current'
p2591
sg21
S'current'
p2592
sg23
S'../views/GTiff/clim.current.bio09.tif'
p2593
sg25
S'climate'
p2594
sg27
S'clim.current.bio09'
p2595
sg29
S'6281'
p2596
sg31
S'Mean Temperature of Driest Quarter Current Climate 1960-2000'
p2597
sg33
g34
sg35
g36
sg37
S'clim.current.bio09.tif'
p2598
sg39
S'clim'
p2599
sg41
g42
sg43
I4326
sg44
S'current'
p2600
ssS'bio08'
p2601
(dp2602
g8
S'2015-03-17 09:11:15'
p2603
sg10
S'no'
p2604
sg12
S'current.bio08'
p2605
sg14
I136
sg15
S'bio08'
p2606
sg17
S'Mean Temperature of Wettest Quarter'
p2607
sg19
S'current'
p2608
sg21
S'current'
p2609
sg23
S'../views/GTiff/clim.current.bio08.tif'
p2610
sg25
S'climate'
p2611
sg27
S'clim.current.bio08'
p2612
sg29
S'6282'
p2613
sg31
S'Mean Temperature of Wettest Quarter Current Climate 1960-2000'
p2614
sg33
g34
sg35
g36
sg37
S'clim.current.bio08.tif'
p2615
sg39
S'clim'
p2616
sg41
g42
sg43
I4326
sg44
S'current'
p2617
sssS'he6050'
p2618
(dp2619
S'bio10'
p2620
(dp2621
g8
S'2015-03-17 09:11:15'
p2622
sg10
S'no'
p2623
sg12
S'he6050.bio10'
p2624
sg14
I234
sg15
S'bio10'
p2625
sg17
S'Mean Temperature of Warmest Quarter'
p2626
sg19
S'60'
p2627
sg21
S'he6050'
p2628
sg23
S'../views/GTiff/clim.he6050.bio10.tif'
p2629
sg25
S'climate'
p2630
sg27
S'clim.he6050.bio10'
p2631
sg29
S'6245'
p2632
sg31
S'Mean Temperature of Warmest Quarter HE RCP60 2050'
p2633
sg33
g34
sg35
g36
sg37
S'clim.he6050.bio10.tif'
p2634
sg39
S'clim'
p2635
sg41
g42
sg43
I4326
sg44
S'2050'
p2636
ssS'bio13'
p2637
(dp2638
g8
S'2015-03-17 09:11:15'
p2639
sg10
S'no'
p2640
sg12
S'he6050.bio13'
p2641
sg14
I142
sg15
S'bio13'
p2642
sg17
S'Precipitation of Wettest Month'
p2643
sg19
S'60'
p2644
sg21
S'he6050'
p2645
sg23
S'../views/GTiff/clim.he6050.bio13.tif'
p2646
sg25
S'climate'
p2647
sg27
S'clim.he6050.bio13'
p2648
sg29
S'6247'
p2649
sg31
S'Precipitation of Wettest Month HE RCP60 2050'
p2650
sg33
g34
sg35
g36
sg37
S'clim.he6050.bio13.tif'
p2651
sg39
S'clim'
p2652
sg41
g42
sg43
I4326
sg44
S'2050'
p2653
ssS'bio06'
p2654
(dp2655
g8
S'2015-03-17 09:11:15'
p2656
sg10
S'no'
p2657
sg12
S'he6050.bio06'
p2658
sg14
I314
sg15
S'bio06'
p2659
sg17
S'Min Temperature of Coldest Month'
p2660
sg19
S'60'
p2661
sg21
S'he6050'
p2662
sg23
S'../views/GTiff/clim.he6050.bio06.tif'
p2663
sg25
S'climate'
p2664
sg27
S'clim.he6050.bio06'
p2665
sg29
S'6253'
p2666
sg31
S'Min Temperature of Coldest Month HE RCP60 2050'
p2667
sg33
g34
sg35
g36
sg37
S'clim.he6050.bio06.tif'
p2668
sg39
S'clim'
p2669
sg41
g42
sg43
I4326
sg44
S'2050'
p2670
ssS'bio16'
p2671
(dp2672
g8
S'2015-03-17 09:11:15'
p2673
sg10
S'no'
p2674
sg12
S'he6050.bio16'
p2675
sg14
I196
sg15
S'bio16'
p2676
sg17
S'Precipitation of Wettest Quarter'
p2677
sg19
S'60'
p2678
sg21
S'he6050'
p2679
sg23
S'../views/GTiff/clim.he6050.bio16.tif'
p2680
sg25
S'climate'
p2681
sg27
S'clim.he6050.bio16'
p2682
sg29
S'6249'
p2683
sg31
S'Precipitation of Wettest Quarter HE RCP60 2050'
p2684
sg33
g34
sg35
g36
sg37
S'clim.he6050.bio16.tif'
p2685
sg39
S'clim'
p2686
sg41
g42
sg43
I4326
sg44
S'2050'
p2687
ssS'bio12'
p2688
(dp2689
g8
S'2015-03-17 09:11:15'
p2690
sg10
S'no'
p2691
sg12
S'he6050.bio12'
p2692
sg14
I271
sg15
S'bio12'
p2693
sg17
S'Annual Precipitation'
p2694
sg19
S'60'
p2695
sg21
S'he6050'
p2696
sg23
S'../views/GTiff/clim.he6050.bio12.tif'
p2697
sg25
S'climate'
p2698
sg27
S'clim.he6050.bio12'
p2699
sg29
S'6251'
p2700
sg31
S'Annual Precipitation HE RCP60 2050'
p2701
sg33
g34
sg35
g36
sg37
S'clim.he6050.bio12.tif'
p2702
sg39
S'clim'
p2703
sg41
g42
sg43
I4326
sg44
S'2050'
p2704
ssS'bio07'
p2705
(dp2706
g8
S'2015-03-17 09:11:15'
p2707
sg10
S'no'
p2708
sg12
S'he6050.bio07'
p2709
sg14
I33
sg15
S'bio07'
p2710
sg17
S'Temperature Annual Range (BIO5-BIO6)'
p2711
sg19
S'60'
p2712
sg21
S'he6050'
p2713
sg23
S'../views/GTiff/clim.he6050.bio07.tif'
p2714
sg25
S'climate'
p2715
sg27
S'clim.he6050.bio07'
p2716
sg29
S'6252'
p2717
sg31
S'Temperature Annual Range (BIO5-BIO6) HE RCP60 2050'
p2718
sg33
g34
sg35
g36
sg37
S'clim.he6050.bio07.tif'
p2719
sg39
S'clim'
p2720
sg41
g42
sg43
I4326
sg44
S'2050'
p2721
ssS'bio11'
p2722
(dp2723
g8
S'2015-03-17 09:11:15'
p2724
sg10
S'no'
p2725
sg12
S'he6050.bio11'
p2726
sg14
I150
sg15
S'bio11'
p2727
sg17
S'Mean Temperature of Coldest Quarter'
p2728
sg19
S'60'
p2729
sg21
S'he6050'
p2730
sg23
S'../views/GTiff/clim.he6050.bio11.tif'
p2731
sg25
S'climate'
p2732
sg27
S'clim.he6050.bio11'
p2733
sg29
S'6248'
p2734
sg31
S'Mean Temperature of Coldest Quarter HE RCP60 2050'
p2735
sg33
g34
sg35
g36
sg37
S'clim.he6050.bio11.tif'
p2736
sg39
S'clim'
p2737
sg41
g42
sg43
I4326
sg44
S'2050'
p2738
ssS'bio05'
p2739
(dp2740
g8
S'2015-03-17 09:11:15'
p2741
sg10
S'no'
p2742
sg12
S'he6050.bio05'
p2743
sg14
I90
sg15
S'bio05'
p2744
sg17
S'Max Temperature of Warmest Month'
p2745
sg19
S'60'
p2746
sg21
S'he6050'
p2747
sg23
S'../views/GTiff/clim.he6050.bio05.tif'
p2748
sg25
S'climate'
p2749
sg27
S'clim.he6050.bio05'
p2750
sg29
S'6254'
p2751
sg31
S'Max Temperature of Warmest Month HE RCP60 2050'
p2752
sg33
g34
sg35
g36
sg37
S'clim.he6050.bio05.tif'
p2753
sg39
S'clim'
p2754
sg41
g42
sg43
I4326
sg44
S'2050'
p2755
ssS'bio04'
p2756
(dp2757
g8
S'2015-03-17 09:11:15'
p2758
sg10
S'no'
p2759
sg12
S'he6050.bio04'
p2760
sg14
I128
sg15
S'bio04'
p2761
sg17
S'Temperature Seasonality (standard deviation *100)'
p2762
sg19
S'60'
p2763
sg21
S'he6050'
p2764
sg23
S'../views/GTiff/clim.he6050.bio04.tif'
p2765
sg25
S'climate'
p2766
sg27
S'clim.he6050.bio04'
p2767
sg29
S'6255'
p2768
sg31
S'Temperature Seasonality (standard deviation *100) HE RCP60 2050'
p2769
sg33
g34
sg35
g36
sg37
S'clim.he6050.bio04.tif'
p2770
sg39
S'clim'
p2771
sg41
g42
sg43
I4326
sg44
S'2050'
p2772
ssS'bio14'
p2773
(dp2774
g8
S'2015-03-17 09:11:15'
p2775
sg10
S'no'
p2776
sg12
S'he6050.bio14'
p2777
sg14
I231
sg15
S'bio14'
p2778
sg17
S'Precipitation of Driest Month'
p2779
sg19
S'60'
p2780
sg21
S'he6050'
p2781
sg23
S'../views/GTiff/clim.he6050.bio14.tif'
p2782
sg25
S'climate'
p2783
sg27
S'clim.he6050.bio14'
p2784
sg29
S'6261'
p2785
sg31
S'Precipitation of Driest Month HE RCP60 2050'
p2786
sg33
g34
sg35
g36
sg37
S'clim.he6050.bio14.tif'
p2787
sg39
S'clim'
p2788
sg41
g42
sg43
I4326
sg44
S'2050'
p2789
ssS'bio15'
p2790
(dp2791
g8
S'2015-03-17 09:11:15'
p2792
sg10
S'no'
p2793
sg12
S'he6050.bio15'
p2794
sg14
I49
sg15
S'bio15'
p2795
sg17
S'Precipitation Seasonality (Coefficient of Variation)'
p2796
sg19
S'60'
p2797
sg21
S'he6050'
p2798
sg23
S'../views/GTiff/clim.he6050.bio15.tif'
p2799
sg25
S'climate'
p2800
sg27
S'clim.he6050.bio15'
p2801
sg29
S'6250'
p2802
sg31
S'Precipitation Seasonality (Coefficient of Variation) HE RCP60 2050'
p2803
sg33
g34
sg35
g36
sg37
S'clim.he6050.bio15.tif'
p2804
sg39
S'clim'
p2805
sg41
g42
sg43
I4326
sg44
S'2050'
p2806
ssS'bio01'
p2807
(dp2808
g8
S'2015-03-17 09:11:15'
p2809
sg10
S'no'
p2810
sg12
S'he6050.bio01'
p2811
sg14
I17
sg15
S'bio01'
p2812
sg17
S'Annual Mean Temperature'
p2813
sg19
S'60'
p2814
sg21
S'he6050'
p2815
sg23
S'../views/GTiff/clim.he6050.bio01.tif'
p2816
sg25
S'climate'
p2817
sg27
S'clim.he6050.bio01'
p2818
sg29
S'6258'
p2819
sg31
S'Annual Mean Temperature HE RCP60 2050'
p2820
sg33
g34
sg35
g36
sg37
S'clim.he6050.bio01.tif'
p2821
sg39
S'clim'
p2822
sg41
g42
sg43
I4326
sg44
S'2050'
p2823
ssS'bio17'
p2824
(dp2825
g8
S'2015-03-17 09:11:15'
p2826
sg10
S'no'
p2827
sg12
S'he6050.bio17'
p2828
sg14
I13
sg15
S'bio17'
p2829
sg17
S'Precipitation of Driest Quarter'
p2830
sg19
S'60'
p2831
sg21
g2618
sg23
S'../views/GTiff/clim.he6050.bio17.tif'
p2832
sg25
S'climate'
p2833
sg27
S'clim.he6050.bio17'
p2834
sg29
S'6259'
p2835
sg31
S'Precipitation of Driest Quarter HE RCP60 2050'
p2836
sg33
g34
sg35
g36
sg37
S'clim.he6050.bio17.tif'
p2837
sg39
S'clim'
p2838
sg41
g42
sg43
I4326
sg44
S'2050'
p2839
ssS'bio18'
p2840
(dp2841
g8
S'2015-03-17 09:11:15'
p2842
sg10
S'no'
p2843
sg12
S'he6050.bio18'
p2844
sg14
I232
sg15
S'bio18'
p2845
sg17
S'Precipitation of Warmest Quarter'
p2846
sg19
S'60'
p2847
sg21
S'he6050'
p2848
sg23
S'../views/GTiff/clim.he6050.bio18.tif'
p2849
sg25
S'climate'
p2850
sg27
S'clim.he6050.bio18'
p2851
sg29
S'6260'
p2852
sg31
S'Precipitation of Warmest Quarter HE RCP60 2050'
p2853
sg33
g34
sg35
g36
sg37
S'clim.he6050.bio18.tif'
p2854
sg39
S'clim'
p2855
sg41
g42
sg43
I4326
sg44
S'2050'
p2856
ssS'bio19'
p2857
(dp2858
g8
S'2015-03-17 09:11:15'
p2859
sg10
S'no'
p2860
sg12
S'he6050.bio19'
p2861
sg14
I44
sg15
S'bio19'
p2862
sg17
S'Precipitation of Coldest Quarter'
p2863
sg19
S'60'
p2864
sg21
S'he6050'
p2865
sg23
S'../views/GTiff/clim.he6050.bio19.tif'
p2866
sg25
S'climate'
p2867
sg27
S'clim.he6050.bio19'
p2868
sg29
S'6246'
p2869
sg31
S'Precipitation of Coldest Quarter HE RCP60 2050'
p2870
sg33
g34
sg35
g36
sg37
S'clim.he6050.bio19.tif'
p2871
sg39
S'clim'
p2872
sg41
g42
sg43
I4326
sg44
S'2050'
p2873
ssS'bio02'
p2874
(dp2875
g8
S'2015-03-17 09:11:15'
p2876
sg10
S'no'
p2877
sg12
S'he6050.bio02'
p2878
sg14
I171
sg15
S'bio02'
p2879
sg17
S'Mean Diurnal Range (Mean of monthly (max temp - min temp))'
p2880
sg19
S'60'
p2881
sg21
S'he6050'
p2882
sg23
S'../views/GTiff/clim.he6050.bio02.tif'
p2883
sg25
S'climate'
p2884
sg27
S'clim.he6050.bio02'
p2885
sg29
S'6257'
p2886
sg31
S'Mean Diurnal Range (Mean of monthly (max temp - min temp)) HE RCP60 2050'
p2887
sg33
g34
sg35
g36
sg37
S'clim.he6050.bio02.tif'
p2888
sg39
S'clim'
p2889
sg41
g42
sg43
I4326
sg44
S'2050'
p2890
ssS'bio03'
p2891
(dp2892
g8
S'2015-03-17 09:11:15'
p2893
sg10
S'no'
p2894
sg12
S'he6050.bio03'
p2895
sg14
I246
sg15
S'bio03'
p2896
sg17
S'Isothermality (BIO2/BIO7) (* 100)'
p2897
sg19
S'60'
p2898
sg21
S'he6050'
p2899
sg23
S'../views/GTiff/clim.he6050.bio03.tif'
p2900
sg25
S'climate'
p2901
sg27
S'clim.he6050.bio03'
p2902
sg29
S'6256'
p2903
sg31
S'Isothermality (BIO2/BIO7) (* 100) HE RCP60 2050'
p2904
sg33
g34
sg35
g36
sg37
S'clim.he6050.bio03.tif'
p2905
sg39
S'clim'
p2906
sg41
g42
sg43
I4326
sg44
S'2050'
p2907
ssS'bio09'
p2908
(dp2909
g8
S'2015-03-17 09:11:15'
p2910
sg10
S'no'
p2911
sg12
S'he6050.bio09'
p2912
sg14
I283
sg15
S'bio09'
p2913
sg17
S'Mean Temperature of Driest Quarter'
p2914
sg19
S'60'
p2915
sg21
S'he6050'
p2916
sg23
S'../views/GTiff/clim.he6050.bio09.tif'
p2917
sg25
S'climate'
p2918
sg27
S'clim.he6050.bio09'
p2919
sg29
S'6262'
p2920
sg31
S'Mean Temperature of Driest Quarter HE RCP60 2050'
p2921
sg33
g34
sg35
g36
sg37
S'clim.he6050.bio09.tif'
p2922
sg39
S'clim'
p2923
sg41
g42
sg43
I4326
sg44
S'2050'
p2924
ssS'bio08'
p2925
(dp2926
g8
S'2015-03-17 09:11:15'
p2927
sg10
S'no'
p2928
sg12
S'he6050.bio08'
p2929
sg14
I53
sg15
S'bio08'
p2930
sg17
S'Mean Temperature of Wettest Quarter'
p2931
sg19
S'60'
p2932
sg21
S'he6050'
p2933
sg23
S'../views/GTiff/clim.he6050.bio08.tif'
p2934
sg25
S'climate'
p2935
sg27
S'clim.he6050.bio08'
p2936
sg29
S'6263'
p2937
sg31
S'Mean Temperature of Wettest Quarter HE RCP60 2050'
p2938
sg33
g34
sg35
g36
sg37
S'clim.he6050.bio08.tif'
p2939
sg39
S'clim'
p2940
sg41
g42
sg43
I4326
sg44
S'2050'
p2941
sssS'gd4570'
p2942
(dp2943
S'bio05'
p2944
(dp2945
g8
S'2015-03-17 09:11:15'
p2946
sg10
S'no'
p2947
sg12
S'gd4570.bio05'
p2948
sg14
I258
sg15
S'bio05'
p2949
sg17
S'Max Temperature of Warmest Month'
p2950
sg19
S'45'
p2951
sg21
S'gd4570'
p2952
sg23
S'../views/GTiff/clim.gd4570.bio05.tif'
p2953
sg25
S'climate'
p2954
sg27
S'clim.gd4570.bio05'
p2955
sg29
S'6311'
p2956
sg31
S'Max Temperature of Warmest Month GD RCP45 2070'
p2957
sg33
g34
sg35
g36
sg37
S'clim.gd4570.bio05.tif'
p2958
sg39
S'clim'
p2959
sg41
g42
sg43
I4326
sg44
S'2070'
p2960
ssS'bio07'
p2961
(dp2962
g8
S'2015-03-17 09:11:15'
p2963
sg10
S'no'
p2964
sg12
S'gd4570.bio07'
p2965
sg14
I298
sg15
S'bio07'
p2966
sg17
S'Temperature Annual Range (BIO5-BIO6)'
p2967
sg19
S'45'
p2968
sg21
S'gd4570'
p2969
sg23
S'../views/GTiff/clim.gd4570.bio07.tif'
p2970
sg25
S'climate'
p2971
sg27
S'clim.gd4570.bio07'
p2972
sg29
S'6309'
p2973
sg31
S'Temperature Annual Range (BIO5-BIO6) GD RCP45 2070'
p2974
sg33
g34
sg35
g36
sg37
S'clim.gd4570.bio07.tif'
p2975
sg39
S'clim'
p2976
sg41
g42
sg43
I4326
sg44
S'2070'
p2977
ssS'bio01'
p2978
(dp2979
g8
S'2015-03-17 09:11:15'
p2980
sg10
S'no'
p2981
sg12
S'gd4570.bio01'
p2982
sg14
I225
sg15
S'bio01'
p2983
sg17
S'Annual Mean Temperature'
p2984
sg19
S'45'
p2985
sg21
S'gd4570'
p2986
sg23
S'../views/GTiff/clim.gd4570.bio01.tif'
p2987
sg25
S'climate'
p2988
sg27
S'clim.gd4570.bio01'
p2989
sg29
S'6315'
p2990
sg31
S'Annual Mean Temperature GD RCP45 2070'
p2991
sg33
g34
sg35
g36
sg37
S'clim.gd4570.bio01.tif'
p2992
sg39
S'clim'
p2993
sg41
g42
sg43
I4326
sg44
S'2070'
p2994
ssS'bio06'
p2995
(dp2996
g8
S'2015-03-17 09:11:15'
p2997
sg10
S'no'
p2998
sg12
S'gd4570.bio06'
p2999
sg14
I100
sg15
S'bio06'
p3000
sg17
S'Min Temperature of Coldest Month'
p3001
sg19
S'45'
p3002
sg21
S'gd4570'
p3003
sg23
S'../views/GTiff/clim.gd4570.bio06.tif'
p3004
sg25
S'climate'
p3005
sg27
S'clim.gd4570.bio06'
p3006
sg29
S'6310'
p3007
sg31
S'Min Temperature of Coldest Month GD RCP45 2070'
p3008
sg33
g34
sg35
g36
sg37
S'clim.gd4570.bio06.tif'
p3009
sg39
S'clim'
p3010
sg41
g42
sg43
I4326
sg44
S'2070'
p3011
ssS'bio13'
p3012
(dp3013
g8
S'2015-03-17 09:11:15'
p3014
sg10
S'no'
p3015
sg12
S'gd4570.bio13'
p3016
sg14
I254
sg15
S'bio13'
p3017
sg17
S'Precipitation of Wettest Month'
p3018
sg19
S'45'
p3019
sg21
S'gd4570'
p3020
sg23
S'../views/GTiff/clim.gd4570.bio13.tif'
p3021
sg25
S'climate'
p3022
sg27
S'clim.gd4570.bio13'
p3023
sg29
S'6304'
p3024
sg31
S'Precipitation of Wettest Month GD RCP45 2070'
p3025
sg33
g34
sg35
g36
sg37
S'clim.gd4570.bio13.tif'
p3026
sg39
S'clim'
p3027
sg41
g42
sg43
I4326
sg44
S'2070'
p3028
ssS'bio14'
p3029
(dp3030
g8
S'2015-03-17 09:11:15'
p3031
sg10
S'no'
p3032
sg12
S'gd4570.bio14'
p3033
sg14
I183
sg15
S'bio14'
p3034
sg17
S'Precipitation of Driest Month'
p3035
sg19
S'45'
p3036
sg21
S'gd4570'
p3037
sg23
S'../views/GTiff/clim.gd4570.bio14.tif'
p3038
sg25
S'climate'
p3039
sg27
S'clim.gd4570.bio14'
p3040
sg29
S'6318'
p3041
sg31
S'Precipitation of Driest Month GD RCP45 2070'
p3042
sg33
g34
sg35
g36
sg37
S'clim.gd4570.bio14.tif'
p3043
sg39
S'clim'
p3044
sg41
g42
sg43
I4326
sg44
S'2070'
p3045
ssS'bio10'
p3046
(dp3047
g8
S'2015-03-17 09:11:15'
p3048
sg10
S'no'
p3049
sg12
S'gd4570.bio10'
p3050
sg14
I70
sg15
S'bio10'
p3051
sg17
S'Mean Temperature of Warmest Quarter'
p3052
sg19
S'45'
p3053
sg21
S'gd4570'
p3054
sg23
S'../views/GTiff/clim.gd4570.bio10.tif'
p3055
sg25
S'climate'
p3056
sg27
S'clim.gd4570.bio10'
p3057
sg29
S'6302'
p3058
sg31
S'Mean Temperature of Warmest Quarter GD RCP45 2070'
p3059
sg33
g34
sg35
g36
sg37
S'clim.gd4570.bio10.tif'
p3060
sg39
S'clim'
p3061
sg41
g42
sg43
I4326
sg44
S'2070'
p3062
ssS'bio11'
p3063
(dp3064
g8
S'2015-03-17 09:11:15'
p3065
sg10
S'no'
p3066
sg12
S'gd4570.bio11'
p3067
sg14
I11
sg15
S'bio11'
p3068
sg17
S'Mean Temperature of Coldest Quarter'
p3069
sg19
S'45'
p3070
sg21
g2942
sg23
S'../views/GTiff/clim.gd4570.bio11.tif'
p3071
sg25
S'climate'
p3072
sg27
S'clim.gd4570.bio11'
p3073
sg29
S'6305'
p3074
sg31
S'Mean Temperature of Coldest Quarter GD RCP45 2070'
p3075
sg33
g34
sg35
g36
sg37
S'clim.gd4570.bio11.tif'
p3076
sg39
S'clim'
p3077
sg41
g42
sg43
I4326
sg44
S'2070'
p3078
ssS'bio12'
p3079
(dp3080
g8
S'2015-03-17 09:11:15'
p3081
sg10
S'no'
p3082
sg12
S'gd4570.bio12'
p3083
sg14
I58
sg15
S'bio12'
p3084
sg17
S'Annual Precipitation'
p3085
sg19
S'45'
p3086
sg21
S'gd4570'
p3087
sg23
S'../views/GTiff/clim.gd4570.bio12.tif'
p3088
sg25
S'climate'
p3089
sg27
S'clim.gd4570.bio12'
p3090
sg29
S'6308'
p3091
sg31
S'Annual Precipitation GD RCP45 2070'
p3092
sg33
g34
sg35
g36
sg37
S'clim.gd4570.bio12.tif'
p3093
sg39
S'clim'
p3094
sg41
g42
sg43
I4326
sg44
S'2070'
p3095
ssS'bio04'
p3096
(dp3097
g8
S'2015-03-17 09:11:15'
p3098
sg10
S'no'
p3099
sg12
S'gd4570.bio04'
p3100
sg14
I39
sg15
S'bio04'
p3101
sg17
S'Temperature Seasonality (standard deviation *100)'
p3102
sg19
S'45'
p3103
sg21
S'gd4570'
p3104
sg23
S'../views/GTiff/clim.gd4570.bio04.tif'
p3105
sg25
S'climate'
p3106
sg27
S'clim.gd4570.bio04'
p3107
sg29
S'6312'
p3108
sg31
S'Temperature Seasonality (standard deviation *100) GD RCP45 2070'
p3109
sg33
g34
sg35
g36
sg37
S'clim.gd4570.bio04.tif'
p3110
sg39
S'clim'
p3111
sg41
g42
sg43
I4326
sg44
S'2070'
p3112
ssS'bio03'
p3113
(dp3114
g8
S'2015-03-17 09:11:15'
p3115
sg10
S'no'
p3116
sg12
S'gd4570.bio03'
p3117
sg14
I20
sg15
S'bio03'
p3118
sg17
S'Isothermality (BIO2/BIO7) (* 100)'
p3119
sg19
S'45'
p3120
sg21
S'gd4570'
p3121
sg23
S'../views/GTiff/clim.gd4570.bio03.tif'
p3122
sg25
S'climate'
p3123
sg27
S'clim.gd4570.bio03'
p3124
sg29
S'6313'
p3125
sg31
S'Isothermality (BIO2/BIO7) (* 100) GD RCP45 2070'
p3126
sg33
g34
sg35
g36
sg37
S'clim.gd4570.bio03.tif'
p3127
sg39
S'clim'
p3128
sg41
g42
sg43
I4326
sg44
S'2070'
p3129
ssS'bio15'
p3130
(dp3131
g8
S'2015-03-17 09:11:15'
p3132
sg10
S'no'
p3133
sg12
S'gd4570.bio15'
p3134
sg14
I108
sg15
S'bio15'
p3135
sg17
S'Precipitation Seasonality (Coefficient of Variation)'
p3136
sg19
S'45'
p3137
sg21
S'gd4570'
p3138
sg23
S'../views/GTiff/clim.gd4570.bio15.tif'
p3139
sg25
S'climate'
p3140
sg27
S'clim.gd4570.bio15'
p3141
sg29
S'6307'
p3142
sg31
S'Precipitation Seasonality (Coefficient of Variation) GD RCP45 2070'
p3143
sg33
g34
sg35
g36
sg37
S'clim.gd4570.bio15.tif'
p3144
sg39
S'clim'
p3145
sg41
g42
sg43
I4326
sg44
S'2070'
p3146
ssS'bio16'
p3147
(dp3148
g8
S'2015-03-17 09:11:15'
p3149
sg10
S'no'
p3150
sg12
S'gd4570.bio16'
p3151
sg14
I97
sg15
S'bio16'
p3152
sg17
S'Precipitation of Wettest Quarter'
p3153
sg19
S'45'
p3154
sg21
S'gd4570'
p3155
sg23
S'../views/GTiff/clim.gd4570.bio16.tif'
p3156
sg25
S'climate'
p3157
sg27
S'clim.gd4570.bio16'
p3158
sg29
S'6306'
p3159
sg31
S'Precipitation of Wettest Quarter GD RCP45 2070'
p3160
sg33
g34
sg35
g36
sg37
S'clim.gd4570.bio16.tif'
p3161
sg39
S'clim'
p3162
sg41
g42
sg43
I4326
sg44
S'2070'
p3163
ssS'bio17'
p3164
(dp3165
g8
S'2015-03-17 09:11:15'
p3166
sg10
S'no'
p3167
sg12
S'gd4570.bio17'
p3168
sg14
I216
sg15
S'bio17'
p3169
sg17
S'Precipitation of Driest Quarter'
p3170
sg19
S'45'
p3171
sg21
S'gd4570'
p3172
sg23
S'../views/GTiff/clim.gd4570.bio17.tif'
p3173
sg25
S'climate'
p3174
sg27
S'clim.gd4570.bio17'
p3175
sg29
S'6316'
p3176
sg31
S'Precipitation of Driest Quarter GD RCP45 2070'
p3177
sg33
g34
sg35
g36
sg37
S'clim.gd4570.bio17.tif'
p3178
sg39
S'clim'
p3179
sg41
g42
sg43
I4326
sg44
S'2070'
p3180
ssS'bio18'
p3181
(dp3182
g8
S'2015-03-17 09:11:15'
p3183
sg10
S'no'
p3184
sg12
S'gd4570.bio18'
p3185
sg14
I79
sg15
S'bio18'
p3186
sg17
S'Precipitation of Warmest Quarter'
p3187
sg19
S'45'
p3188
sg21
S'gd4570'
p3189
sg23
S'../views/GTiff/clim.gd4570.bio18.tif'
p3190
sg25
S'climate'
p3191
sg27
S'clim.gd4570.bio18'
p3192
sg29
S'6317'
p3193
sg31
S'Precipitation of Warmest Quarter GD RCP45 2070'
p3194
sg33
g34
sg35
g36
sg37
S'clim.gd4570.bio18.tif'
p3195
sg39
S'clim'
p3196
sg41
g42
sg43
I4326
sg44
S'2070'
p3197
ssS'bio19'
p3198
(dp3199
g8
S'2015-03-17 09:11:15'
p3200
sg10
S'no'
p3201
sg12
S'gd4570.bio19'
p3202
sg14
I74
sg15
S'bio19'
p3203
sg17
S'Precipitation of Coldest Quarter'
p3204
sg19
S'45'
p3205
sg21
S'gd4570'
p3206
sg23
S'../views/GTiff/clim.gd4570.bio19.tif'
p3207
sg25
S'climate'
p3208
sg27
S'clim.gd4570.bio19'
p3209
sg29
S'6303'
p3210
sg31
S'Precipitation of Coldest Quarter GD RCP45 2070'
p3211
sg33
g34
sg35
g36
sg37
S'clim.gd4570.bio19.tif'
p3212
sg39
S'clim'
p3213
sg41
g42
sg43
I4326
sg44
S'2070'
p3214
ssS'bio02'
p3215
(dp3216
g8
S'2015-03-17 09:11:15'
p3217
sg10
S'no'
p3218
sg12
S'gd4570.bio02'
p3219
sg14
I268
sg15
S'bio02'
p3220
sg17
S'Mean Diurnal Range (Mean of monthly (max temp - min temp))'
p3221
sg19
S'45'
p3222
sg21
S'gd4570'
p3223
sg23
S'../views/GTiff/clim.gd4570.bio02.tif'
p3224
sg25
S'climate'
p3225
sg27
S'clim.gd4570.bio02'
p3226
sg29
S'6314'
p3227
sg31
S'Mean Diurnal Range (Mean of monthly (max temp - min temp)) GD RCP45 2070'
p3228
sg33
g34
sg35
g36
sg37
S'clim.gd4570.bio02.tif'
p3229
sg39
S'clim'
p3230
sg41
g42
sg43
I4326
sg44
S'2070'
p3231
ssS'bio09'
p3232
(dp3233
g8
S'2015-03-17 09:11:15'
p3234
sg10
S'no'
p3235
sg12
S'gd4570.bio09'
p3236
sg14
I291
sg15
S'bio09'
p3237
sg17
S'Mean Temperature of Driest Quarter'
p3238
sg19
S'45'
p3239
sg21
S'gd4570'
p3240
sg23
S'../views/GTiff/clim.gd4570.bio09.tif'
p3241
sg25
S'climate'
p3242
sg27
S'clim.gd4570.bio09'
p3243
sg29
S'6319'
p3244
sg31
S'Mean Temperature of Driest Quarter GD RCP45 2070'
p3245
sg33
g34
sg35
g36
sg37
S'clim.gd4570.bio09.tif'
p3246
sg39
S'clim'
p3247
sg41
g42
sg43
I4326
sg44
S'2070'
p3248
ssS'bio08'
p3249
(dp3250
g8
S'2015-03-17 09:11:15'
p3251
sg10
S'no'
p3252
sg12
S'gd4570.bio08'
p3253
sg14
I147
sg15
S'bio08'
p3254
sg17
S'Mean Temperature of Wettest Quarter'
p3255
sg19
S'45'
p3256
sg21
S'gd4570'
p3257
sg23
S'../views/GTiff/clim.gd4570.bio08.tif'
p3258
sg25
S'climate'
p3259
sg27
S'clim.gd4570.bio08'
p3260
sg29
S'6320'
p3261
sg31
S'Mean Temperature of Wettest Quarter GD RCP45 2070'
p3262
sg33
g34
sg35
g36
sg37
S'clim.gd4570.bio08.tif'
p3263
sg39
S'clim'
p3264
sg41
g42
sg43
I4326
sg44
S'2070'
p3265
sssS'he4550'
p3266
(dp3267
S'bio07'
p3268
(dp3269
g8
S'2015-03-17 09:11:15'
p3270
sg10
S'no'
p3271
sg12
S'he4550.bio07'
p3272
sg14
I135
sg15
S'bio07'
p3273
sg17
S'Temperature Annual Range (BIO5-BIO6)'
p3274
sg19
S'45'
p3275
sg21
S'he4550'
p3276
sg23
S'../views/GTiff/clim.he4550.bio07.tif'
p3277
sg25
S'climate'
p3278
sg27
S'clim.he4550.bio07'
p3279
sg29
S'6388'
p3280
sg31
S'Temperature Annual Range (BIO5-BIO6) HE RCP45 2050'
p3281
sg33
g34
sg35
g36
sg37
S'clim.he4550.bio07.tif'
p3282
sg39
S'clim'
p3283
sg41
g42
sg43
I4326
sg44
S'2050'
p3284
ssS'bio13'
p3285
(dp3286
g8
S'2015-03-17 09:11:15'
p3287
sg10
S'no'
p3288
sg12
S'he4550.bio13'
p3289
sg14
I249
sg15
S'bio13'
p3290
sg17
S'Precipitation of Wettest Month'
p3291
sg19
S'45'
p3292
sg21
S'he4550'
p3293
sg23
S'../views/GTiff/clim.he4550.bio13.tif'
p3294
sg25
S'climate'
p3295
sg27
S'clim.he4550.bio13'
p3296
sg29
S'6323'
p3297
sg31
S'Precipitation of Wettest Month HE RCP45 2050'
p3298
sg33
g34
sg35
g36
sg37
S'clim.he4550.bio13.tif'
p3299
sg39
S'clim'
p3300
sg41
g42
sg43
I4326
sg44
S'2050'
p3301
ssS'bio11'
p3302
(dp3303
g8
S'2015-03-17 09:11:15'
p3304
sg10
S'no'
p3305
sg12
S'he4550.bio11'
p3306
sg14
I155
sg15
S'bio11'
p3307
sg17
S'Mean Temperature of Coldest Quarter'
p3308
sg19
S'45'
p3309
sg21
S'he4550'
p3310
sg23
S'../views/GTiff/clim.he4550.bio11.tif'
p3311
sg25
S'climate'
p3312
sg27
S'clim.he4550.bio11'
p3313
sg29
S'6324'
p3314
sg31
S'Mean Temperature of Coldest Quarter HE RCP45 2050'
p3315
sg33
g34
sg35
g36
sg37
S'clim.he4550.bio11.tif'
p3316
sg39
S'clim'
p3317
sg41
g42
sg43
I4326
sg44
S'2050'
p3318
ssS'bio03'
p3319
(dp3320
g8
S'2015-03-17 09:11:15'
p3321
sg10
S'no'
p3322
sg12
S'he4550.bio03'
p3323
sg14
I332
sg15
S'bio03'
p3324
sg17
S'Isothermality (BIO2/BIO7) (* 100)'
p3325
sg19
S'45'
p3326
sg21
S'he4550'
p3327
sg23
S'../views/GTiff/clim.he4550.bio03.tif'
p3328
sg25
S'climate'
p3329
sg27
S'clim.he4550.bio03'
p3330
sg29
S'6376'
p3331
sg31
S'Isothermality (BIO2/BIO7) (* 100) HE RCP45 2050'
p3332
sg33
g34
sg35
g36
sg37
S'clim.he4550.bio03.tif'
p3333
sg39
S'clim'
p3334
sg41
g42
sg43
I4326
sg44
S'2050'
p3335
ssS'bio05'
p3336
(dp3337
g8
S'2015-03-17 09:11:15'
p3338
sg10
S'no'
p3339
sg12
S'he4550.bio05'
p3340
sg14
I275
sg15
S'bio05'
p3341
sg17
S'Max Temperature of Warmest Month'
p3342
sg19
S'45'
p3343
sg21
S'he4550'
p3344
sg23
S'../views/GTiff/clim.he4550.bio05.tif'
p3345
sg25
S'climate'
p3346
sg27
S'clim.he4550.bio05'
p3347
sg29
S'6387'
p3348
sg31
S'Max Temperature of Warmest Month HE RCP45 2050'
p3349
sg33
g34
sg35
g36
sg37
S'clim.he4550.bio05.tif'
p3350
sg39
S'clim'
p3351
sg41
g42
sg43
I4326
sg44
S'2050'
p3352
ssS'bio10'
p3353
(dp3354
g8
S'2015-03-17 09:11:15'
p3355
sg10
S'no'
p3356
sg12
S'he4550.bio10'
p3357
sg14
I12
sg15
S'bio10'
p3358
sg17
S'Mean Temperature of Warmest Quarter'
p3359
sg19
S'45'
p3360
sg21
S'he4550'
p3361
sg23
S'../views/GTiff/clim.he4550.bio10.tif'
p3362
sg25
S'climate'
p3363
sg27
S'clim.he4550.bio10'
p3364
sg29
S'6321'
p3365
sg31
S'Mean Temperature of Warmest Quarter HE RCP45 2050'
p3366
sg33
g34
sg35
g36
sg37
S'clim.he4550.bio10.tif'
p3367
sg39
S'clim'
p3368
sg41
g42
sg43
I4326
sg44
S'2050'
p3369
ssS'bio06'
p3370
(dp3371
g8
S'2015-03-17 09:11:15'
p3372
sg10
S'no'
p3373
sg12
S'he4550.bio06'
p3374
sg14
I72
sg15
S'bio06'
p3375
sg17
S'Min Temperature of Coldest Month'
p3376
sg19
S'45'
p3377
sg21
S'he4550'
p3378
sg23
S'../views/GTiff/clim.he4550.bio06.tif'
p3379
sg25
S'climate'
p3380
sg27
S'clim.he4550.bio06'
p3381
sg29
S'6389'
p3382
sg31
S'Min Temperature of Coldest Month HE RCP45 2050'
p3383
sg33
g34
sg35
g36
sg37
S'clim.he4550.bio06.tif'
p3384
sg39
S'clim'
p3385
sg41
g42
sg43
I4326
sg44
S'2050'
p3386
ssS'bio12'
p3387
(dp3388
g8
S'2015-03-17 09:11:15'
p3389
sg10
S'no'
p3390
sg12
S'he4550.bio12'
p3391
sg14
I194
sg15
S'bio12'
p3392
sg17
S'Annual Precipitation'
p3393
sg19
S'45'
p3394
sg21
S'he4550'
p3395
sg23
S'../views/GTiff/clim.he4550.bio12.tif'
p3396
sg25
S'climate'
p3397
sg27
S'clim.he4550.bio12'
p3398
sg29
S'6390'
p3399
sg31
S'Annual Precipitation HE RCP45 2050'
p3400
sg33
g34
sg35
g36
sg37
S'clim.he4550.bio12.tif'
p3401
sg39
S'clim'
p3402
sg41
g42
sg43
I4326
sg44
S'2050'
p3403
ssS'bio04'
p3404
(dp3405
g8
S'2015-03-17 09:11:15'
p3406
sg10
S'no'
p3407
sg12
S'he4550.bio04'
p3408
sg14
I154
sg15
S'bio04'
p3409
sg17
S'Temperature Seasonality (standard deviation *100)'
p3410
sg19
S'45'
p3411
sg21
S'he4550'
p3412
sg23
S'../views/GTiff/clim.he4550.bio04.tif'
p3413
sg25
S'climate'
p3414
sg27
S'clim.he4550.bio04'
p3415
sg29
S'6375'
p3416
sg31
S'Temperature Seasonality (standard deviation *100) HE RCP45 2050'
p3417
sg33
g34
sg35
g36
sg37
S'clim.he4550.bio04.tif'
p3418
sg39
S'clim'
p3419
sg41
g42
sg43
I4326
sg44
S'2050'
p3420
ssS'bio14'
p3421
(dp3422
g8
S'2015-03-17 09:11:15'
p3423
sg10
S'no'
p3424
sg12
S'he4550.bio14'
p3425
sg14
I124
sg15
S'bio14'
p3426
sg17
S'Precipitation of Driest Month'
p3427
sg19
S'45'
p3428
sg21
S'he4550'
p3429
sg23
S'../views/GTiff/clim.he4550.bio14.tif'
p3430
sg25
S'climate'
p3431
sg27
S'clim.he4550.bio14'
p3432
sg29
S'6391'
p3433
sg31
S'Precipitation of Driest Month HE RCP45 2050'
p3434
sg33
g34
sg35
g36
sg37
S'clim.he4550.bio14.tif'
p3435
sg39
S'clim'
p3436
sg41
g42
sg43
I4326
sg44
S'2050'
p3437
ssS'bio15'
p3438
(dp3439
g8
S'2015-03-17 09:11:15'
p3440
sg10
S'no'
p3441
sg12
S'he4550.bio15'
p3442
sg14
I92
sg15
S'bio15'
p3443
sg17
S'Precipitation Seasonality (Coefficient of Variation)'
p3444
sg19
S'45'
p3445
sg21
S'he4550'
p3446
sg23
S'../views/GTiff/clim.he4550.bio15.tif'
p3447
sg25
S'climate'
p3448
sg27
S'clim.he4550.bio15'
p3449
sg29
S'6392'
p3450
sg31
S'Precipitation Seasonality (Coefficient of Variation) HE RCP45 2050'
p3451
sg33
g34
sg35
g36
sg37
S'clim.he4550.bio15.tif'
p3452
sg39
S'clim'
p3453
sg41
g42
sg43
I4326
sg44
S'2050'
p3454
ssS'bio16'
p3455
(dp3456
g8
S'2015-03-17 09:11:15'
p3457
sg10
S'no'
p3458
sg12
S'he4550.bio16'
p3459
sg14
I161
sg15
S'bio16'
p3460
sg17
S'Precipitation of Wettest Quarter'
p3461
sg19
S'45'
p3462
sg21
S'he4550'
p3463
sg23
S'../views/GTiff/clim.he4550.bio16.tif'
p3464
sg25
S'climate'
p3465
sg27
S'clim.he4550.bio16'
p3466
sg29
S'6325'
p3467
sg31
S'Precipitation of Wettest Quarter HE RCP45 2050'
p3468
sg33
g34
sg35
g36
sg37
S'clim.he4550.bio16.tif'
p3469
sg39
S'clim'
p3470
sg41
g42
sg43
I4326
sg44
S'2050'
p3471
ssS'bio17'
p3472
(dp3473
g8
S'2015-03-17 09:11:15'
p3474
sg10
S'no'
p3475
sg12
S'he4550.bio17'
p3476
sg14
I159
sg15
S'bio17'
p3477
sg17
S'Precipitation of Driest Quarter'
p3478
sg19
S'45'
p3479
sg21
S'he4550'
p3480
sg23
S'../views/GTiff/clim.he4550.bio17.tif'
p3481
sg25
S'climate'
p3482
sg27
S'clim.he4550.bio17'
p3483
sg29
S'6393'
p3484
sg31
S'Precipitation of Driest Quarter HE RCP45 2050'
p3485
sg33
g34
sg35
g36
sg37
S'clim.he4550.bio17.tif'
p3486
sg39
S'clim'
p3487
sg41
g42
sg43
I4326
sg44
S'2050'
p3488
ssS'bio18'
p3489
(dp3490
g8
S'2015-03-17 09:11:15'
p3491
sg10
S'no'
p3492
sg12
S'he4550.bio18'
p3493
sg14
I10
sg15
S'bio18'
p3494
sg17
S'Precipitation of Warmest Quarter'
p3495
sg19
S'45'
p3496
sg21
S'he4550'
p3497
sg23
S'../views/GTiff/clim.he4550.bio18.tif'
p3498
sg25
S'climate'
p3499
sg27
S'clim.he4550.bio18'
p3500
sg29
S'6394'
p3501
sg31
S'Precipitation of Warmest Quarter HE RCP45 2050'
p3502
sg33
g34
sg35
g36
sg37
S'clim.he4550.bio18.tif'
p3503
sg39
S'clim'
p3504
sg41
g42
sg43
I4326
sg44
S'2050'
p3505
ssS'bio19'
p3506
(dp3507
g8
S'2015-03-17 09:11:15'
p3508
sg10
S'no'
p3509
sg12
S'he4550.bio19'
p3510
sg14
I105
sg15
S'bio19'
p3511
sg17
S'Precipitation of Coldest Quarter'
p3512
sg19
S'45'
p3513
sg21
S'he4550'
p3514
sg23
S'../views/GTiff/clim.he4550.bio19.tif'
p3515
sg25
S'climate'
p3516
sg27
S'clim.he4550.bio19'
p3517
sg29
S'6322'
p3518
sg31
S'Precipitation of Coldest Quarter HE RCP45 2050'
p3519
sg33
g34
sg35
g36
sg37
S'clim.he4550.bio19.tif'
p3520
sg39
S'clim'
p3521
sg41
g42
sg43
I4326
sg44
S'2050'
p3522
ssS'bio02'
p3523
(dp3524
g8
S'2015-03-17 09:11:15'
p3525
sg10
S'no'
p3526
sg12
S'he4550.bio02'
p3527
sg14
I195
sg15
S'bio02'
p3528
sg17
S'Mean Diurnal Range (Mean of monthly (max temp - min temp))'
p3529
sg19
S'45'
p3530
sg21
S'he4550'
p3531
sg23
S'../views/GTiff/clim.he4550.bio02.tif'
p3532
sg25
S'climate'
p3533
sg27
S'clim.he4550.bio02'
p3534
sg29
S'6377'
p3535
sg31
S'Mean Diurnal Range (Mean of monthly (max temp - min temp)) HE RCP45 2050'
p3536
sg33
g34
sg35
g36
sg37
S'clim.he4550.bio02.tif'
p3537
sg39
S'clim'
p3538
sg41
g42
sg43
I4326
sg44
S'2050'
p3539
ssS'bio01'
p3540
(dp3541
g8
S'2015-03-17 09:11:15'
p3542
sg10
S'no'
p3543
sg12
S'he4550.bio01'
p3544
sg14
I306
sg15
S'bio01'
p3545
sg17
S'Annual Mean Temperature'
p3546
sg19
S'45'
p3547
sg21
S'he4550'
p3548
sg23
S'../views/GTiff/clim.he4550.bio01.tif'
p3549
sg25
S'climate'
p3550
sg27
S'clim.he4550.bio01'
p3551
sg29
S'6378'
p3552
sg31
S'Annual Mean Temperature HE RCP45 2050'
p3553
sg33
g34
sg35
g36
sg37
S'clim.he4550.bio01.tif'
p3554
sg39
S'clim'
p3555
sg41
g42
sg43
I4326
sg44
S'2050'
p3556
ssS'bio09'
p3557
(dp3558
g8
S'2015-03-17 09:11:15'
p3559
sg10
S'no'
p3560
sg12
S'he4550.bio09'
p3561
sg14
I307
sg15
S'bio09'
p3562
sg17
S'Mean Temperature of Driest Quarter'
p3563
sg19
S'45'
p3564
sg21
S'he4550'
p3565
sg23
S'../views/GTiff/clim.he4550.bio09.tif'
p3566
sg25
S'climate'
p3567
sg27
S'clim.he4550.bio09'
p3568
sg29
S'6395'
p3569
sg31
S'Mean Temperature of Driest Quarter HE RCP45 2050'
p3570
sg33
g34
sg35
g36
sg37
S'clim.he4550.bio09.tif'
p3571
sg39
S'clim'
p3572
sg41
g42
sg43
I4326
sg44
S'2050'
p3573
ssS'bio08'
p3574
(dp3575
g8
S'2015-03-17 09:11:15'
p3576
sg10
S'no'
p3577
sg12
S'he4550.bio08'
p3578
sg14
I5
sg15
S'bio08'
p3579
sg17
S'Mean Temperature of Wettest Quarter'
p3580
sg19
S'45'
p3581
sg21
g3266
sg23
S'../views/GTiff/clim.he4550.bio08.tif'
p3582
sg25
S'climate'
p3583
sg27
S'clim.he4550.bio08'
p3584
sg29
S'6396'
p3585
sg31
S'Mean Temperature of Wettest Quarter HE RCP45 2050'
p3586
sg33
g34
sg35
g36
sg37
S'clim.he4550.bio08.tif'
p3587
sg39
S'clim'
p3588
sg41
g42
sg43
I4326
sg44
S'2050'
p3589
sssS'gs4550'
p3590
(dp3591
S'bio07'
p3592
(dp3593
g8
S'2015-03-17 09:11:15'
p3594
sg10
S'no'
p3595
sg12
S'gs4550.bio07'
p3596
sg14
I222
sg15
S'bio07'
p3597
sg17
S'Temperature Annual Range (BIO5-BIO6)'
p3598
sg19
S'45'
p3599
sg21
S'gs4550'
p3600
sg23
S'../views/GTiff/clim.gs4550.bio07.tif'
p3601
sg25
S'climate'
p3602
sg27
S'clim.gs4550.bio07'
p3603
sg29
S'6397'
p3604
sg31
S'Temperature Annual Range (BIO5-BIO6) GS RCP45 2050'
p3605
sg33
g34
sg35
g36
sg37
S'clim.gs4550.bio07.tif'
p3606
sg39
S'clim'
p3607
sg41
g42
sg43
I4326
sg44
S'2050'
p3608
ssS'bio01'
p3609
(dp3610
g8
S'2015-03-17 09:11:15'
p3611
sg10
S'no'
p3612
sg12
S'gs4550.bio01'
p3613
sg14
I170
sg15
S'bio01'
p3614
sg17
S'Annual Mean Temperature'
p3615
sg19
S'45'
p3616
sg21
S'gs4550'
p3617
sg23
S'../views/GTiff/clim.gs4550.bio01.tif'
p3618
sg25
S'climate'
p3619
sg27
S'clim.gs4550.bio01'
p3620
sg29
S'6382'
p3621
sg31
S'Annual Mean Temperature GS RCP45 2050'
p3622
sg33
g34
sg35
g36
sg37
S'clim.gs4550.bio01.tif'
p3623
sg39
S'clim'
p3624
sg41
g42
sg43
I4326
sg44
S'2050'
p3625
ssS'bio11'
p3626
(dp3627
g8
S'2015-03-17 09:11:15'
p3628
sg10
S'no'
p3629
sg12
S'gs4550.bio11'
p3630
sg14
I343
sg15
S'bio11'
p3631
sg17
S'Mean Temperature of Coldest Quarter'
p3632
sg19
S'45'
p3633
sg21
S'gs4550'
p3634
sg23
S'../views/GTiff/clim.gs4550.bio11.tif'
p3635
sg25
S'climate'
p3636
sg27
S'clim.gs4550.bio11'
p3637
sg29
S'6398'
p3638
sg31
S'Mean Temperature of Coldest Quarter GS RCP45 2050'
p3639
sg33
g34
sg35
g36
sg37
S'clim.gs4550.bio11.tif'
p3640
sg39
S'clim'
p3641
sg41
g42
sg43
I4326
sg44
S'2050'
p3642
ssS'bio05'
p3643
(dp3644
g8
S'2015-03-17 09:11:15'
p3645
sg10
S'no'
p3646
sg12
S'gs4550.bio05'
p3647
sg14
I290
sg15
S'bio05'
p3648
sg17
S'Max Temperature of Warmest Month'
p3649
sg19
S'45'
p3650
sg21
S'gs4550'
p3651
sg23
S'../views/GTiff/clim.gs4550.bio05.tif'
p3652
sg25
S'climate'
p3653
sg27
S'clim.gs4550.bio05'
p3654
sg29
S'6399'
p3655
sg31
S'Max Temperature of Warmest Month GS RCP45 2050'
p3656
sg33
g34
sg35
g36
sg37
S'clim.gs4550.bio05.tif'
p3657
sg39
S'clim'
p3658
sg41
g42
sg43
I4326
sg44
S'2050'
p3659
ssS'bio10'
p3660
(dp3661
g8
S'2015-03-17 09:11:15'
p3662
sg10
S'no'
p3663
sg12
S'gs4550.bio10'
p3664
sg14
I215
sg15
S'bio10'
p3665
sg17
S'Mean Temperature of Warmest Quarter'
p3666
sg19
S'45'
p3667
sg21
S'gs4550'
p3668
sg23
S'../views/GTiff/clim.gs4550.bio10.tif'
p3669
sg25
S'climate'
p3670
sg27
S'clim.gs4550.bio10'
p3671
sg29
S'6400'
p3672
sg31
S'Mean Temperature of Warmest Quarter GS RCP45 2050'
p3673
sg33
g34
sg35
g36
sg37
S'clim.gs4550.bio10.tif'
p3674
sg39
S'clim'
p3675
sg41
g42
sg43
I4326
sg44
S'2050'
p3676
ssS'bio06'
p3677
(dp3678
g8
S'2015-03-17 09:11:15'
p3679
sg10
S'no'
p3680
sg12
S'gs4550.bio06'
p3681
sg14
I177
sg15
S'bio06'
p3682
sg17
S'Min Temperature of Coldest Month'
p3683
sg19
S'45'
p3684
sg21
S'gs4550'
p3685
sg23
S'../views/GTiff/clim.gs4550.bio06.tif'
p3686
sg25
S'climate'
p3687
sg27
S'clim.gs4550.bio06'
p3688
sg29
S'6401'
p3689
sg31
S'Min Temperature of Coldest Month GS RCP45 2050'
p3690
sg33
g34
sg35
g36
sg37
S'clim.gs4550.bio06.tif'
p3691
sg39
S'clim'
p3692
sg41
g42
sg43
I4326
sg44
S'2050'
p3693
ssS'bio12'
p3694
(dp3695
g8
S'2015-03-17 09:11:15'
p3696
sg10
S'no'
p3697
sg12
S'gs4550.bio12'
p3698
sg14
I87
sg15
S'bio12'
p3699
sg17
S'Annual Precipitation'
p3700
sg19
S'45'
p3701
sg21
S'gs4550'
p3702
sg23
S'../views/GTiff/clim.gs4550.bio12.tif'
p3703
sg25
S'climate'
p3704
sg27
S'clim.gs4550.bio12'
p3705
sg29
S'6402'
p3706
sg31
S'Annual Precipitation GS RCP45 2050'
p3707
sg33
g34
sg35
g36
sg37
S'clim.gs4550.bio12.tif'
p3708
sg39
S'clim'
p3709
sg41
g42
sg43
I4326
sg44
S'2050'
p3710
ssS'bio13'
p3711
(dp3712
g8
S'2015-03-17 09:11:15'
p3713
sg10
S'no'
p3714
sg12
S'gs4550.bio13'
p3715
sg14
I99
sg15
S'bio13'
p3716
sg17
S'Precipitation of Wettest Month'
p3717
sg19
S'45'
p3718
sg21
S'gs4550'
p3719
sg23
S'../views/GTiff/clim.gs4550.bio13.tif'
p3720
sg25
S'climate'
p3721
sg27
S'clim.gs4550.bio13'
p3722
sg29
S'6403'
p3723
sg31
S'Precipitation of Wettest Month GS RCP45 2050'
p3724
sg33
g34
sg35
g36
sg37
S'clim.gs4550.bio13.tif'
p3725
sg39
S'clim'
p3726
sg41
g42
sg43
I4326
sg44
S'2050'
p3727
ssS'bio14'
p3728
(dp3729
g8
S'2015-03-17 09:11:15'
p3730
sg10
S'no'
p3731
sg12
S'gs4550.bio14'
p3732
sg14
I101
sg15
S'bio14'
p3733
sg17
S'Precipitation of Driest Month'
p3734
sg19
S'45'
p3735
sg21
S'gs4550'
p3736
sg23
S'../views/GTiff/clim.gs4550.bio14.tif'
p3737
sg25
S'climate'
p3738
sg27
S'clim.gs4550.bio14'
p3739
sg29
S'6404'
p3740
sg31
S'Precipitation of Driest Month GS RCP45 2050'
p3741
sg33
g34
sg35
g36
sg37
S'clim.gs4550.bio14.tif'
p3742
sg39
S'clim'
p3743
sg41
g42
sg43
I4326
sg44
S'2050'
p3744
ssS'bio15'
p3745
(dp3746
g8
S'2015-03-17 09:11:15'
p3747
sg10
S'no'
p3748
sg12
S'gs4550.bio15'
p3749
sg14
I29
sg15
S'bio15'
p3750
sg17
S'Precipitation Seasonality (Coefficient of Variation)'
p3751
sg19
S'45'
p3752
sg21
g3590
sg23
S'../views/GTiff/clim.gs4550.bio15.tif'
p3753
sg25
S'climate'
p3754
sg27
S'clim.gs4550.bio15'
p3755
sg29
S'6405'
p3756
sg31
S'Precipitation Seasonality (Coefficient of Variation) GS RCP45 2050'
p3757
sg33
g34
sg35
g36
sg37
S'clim.gs4550.bio15.tif'
p3758
sg39
S'clim'
p3759
sg41
g42
sg43
I4326
sg44
S'2050'
p3760
ssS'bio16'
p3761
(dp3762
g8
S'2015-03-17 09:11:15'
p3763
sg10
S'no'
p3764
sg12
S'gs4550.bio16'
p3765
sg14
I120
sg15
S'bio16'
p3766
sg17
S'Precipitation of Wettest Quarter'
p3767
sg19
S'45'
p3768
sg21
S'gs4550'
p3769
sg23
S'../views/GTiff/clim.gs4550.bio16.tif'
p3770
sg25
S'climate'
p3771
sg27
S'clim.gs4550.bio16'
p3772
sg29
S'6406'
p3773
sg31
S'Precipitation of Wettest Quarter GS RCP45 2050'
p3774
sg33
g34
sg35
g36
sg37
S'clim.gs4550.bio16.tif'
p3775
sg39
S'clim'
p3776
sg41
g42
sg43
I4326
sg44
S'2050'
p3777
ssS'bio17'
p3778
(dp3779
g8
S'2015-03-17 09:11:15'
p3780
sg10
S'no'
p3781
sg12
S'gs4550.bio17'
p3782
sg14
I69
sg15
S'bio17'
p3783
sg17
S'Precipitation of Driest Quarter'
p3784
sg19
S'45'
p3785
sg21
S'gs4550'
p3786
sg23
S'../views/GTiff/clim.gs4550.bio17.tif'
p3787
sg25
S'climate'
p3788
sg27
S'clim.gs4550.bio17'
p3789
sg29
S'6407'
p3790
sg31
S'Precipitation of Driest Quarter GS RCP45 2050'
p3791
sg33
g34
sg35
g36
sg37
S'clim.gs4550.bio17.tif'
p3792
sg39
S'clim'
p3793
sg41
g42
sg43
I4326
sg44
S'2050'
p3794
ssS'bio18'
p3795
(dp3796
g8
S'2015-03-17 09:11:15'
p3797
sg10
S'no'
p3798
sg12
S'gs4550.bio18'
p3799
sg14
I259
sg15
S'bio18'
p3800
sg17
S'Precipitation of Warmest Quarter'
p3801
sg19
S'45'
p3802
sg21
S'gs4550'
p3803
sg23
S'../views/GTiff/clim.gs4550.bio18.tif'
p3804
sg25
S'climate'
p3805
sg27
S'clim.gs4550.bio18'
p3806
sg29
S'6408'
p3807
sg31
S'Precipitation of Warmest Quarter GS RCP45 2050'
p3808
sg33
g34
sg35
g36
sg37
S'clim.gs4550.bio18.tif'
p3809
sg39
S'clim'
p3810
sg41
g42
sg43
I4326
sg44
S'2050'
p3811
ssS'bio19'
p3812
(dp3813
g8
S'2015-03-17 09:11:15'
p3814
sg10
S'no'
p3815
sg12
S'gs4550.bio19'
p3816
sg14
I30
sg15
S'bio19'
p3817
sg17
S'Precipitation of Coldest Quarter'
p3818
sg19
S'45'
p3819
sg21
S'gs4550'
p3820
sg23
S'../views/GTiff/clim.gs4550.bio19.tif'
p3821
sg25
S'climate'
p3822
sg27
S'clim.gs4550.bio19'
p3823
sg29
S'6409'
p3824
sg31
S'Precipitation of Coldest Quarter GS RCP45 2050'
p3825
sg33
g34
sg35
g36
sg37
S'clim.gs4550.bio19.tif'
p3826
sg39
S'clim'
p3827
sg41
g42
sg43
I4326
sg44
S'2050'
p3828
ssS'bio04'
p3829
(dp3830
g8
S'2015-03-17 09:11:15'
p3831
sg10
S'no'
p3832
sg12
S'gs4550.bio04'
p3833
sg14
I284
sg15
S'bio04'
p3834
sg17
S'Temperature Seasonality (standard deviation *100)'
p3835
sg19
S'45'
p3836
sg21
S'gs4550'
p3837
sg23
S'../views/GTiff/clim.gs4550.bio04.tif'
p3838
sg25
S'climate'
p3839
sg27
S'clim.gs4550.bio04'
p3840
sg29
S'6379'
p3841
sg31
S'Temperature Seasonality (standard deviation *100) GS RCP45 2050'
p3842
sg33
g34
sg35
g36
sg37
S'clim.gs4550.bio04.tif'
p3843
sg39
S'clim'
p3844
sg41
g42
sg43
I4326
sg44
S'2050'
p3845
ssS'bio08'
p3846
(dp3847
g8
S'2015-03-17 09:11:15'
p3848
sg10
S'no'
p3849
sg12
S'gs4550.bio08'
p3850
sg14
I295
sg15
S'bio08'
p3851
sg17
S'Mean Temperature of Wettest Quarter'
p3852
sg19
S'45'
p3853
sg21
S'gs4550'
p3854
sg23
S'../views/GTiff/clim.gs4550.bio08.tif'
p3855
sg25
S'climate'
p3856
sg27
S'clim.gs4550.bio08'
p3857
sg29
S'6411'
p3858
sg31
S'Mean Temperature of Wettest Quarter GS RCP45 2050'
p3859
sg33
g34
sg35
g36
sg37
S'clim.gs4550.bio08.tif'
p3860
sg39
S'clim'
p3861
sg41
g42
sg43
I4326
sg44
S'2050'
p3862
ssS'bio03'
p3863
(dp3864
g8
S'2015-03-17 09:11:15'
p3865
sg10
S'no'
p3866
sg12
S'gs4550.bio03'
p3867
sg14
I174
sg15
S'bio03'
p3868
sg17
S'Isothermality (BIO2/BIO7) (* 100)'
p3869
sg19
S'45'
p3870
sg21
S'gs4550'
p3871
sg23
S'../views/GTiff/clim.gs4550.bio03.tif'
p3872
sg25
S'climate'
p3873
sg27
S'clim.gs4550.bio03'
p3874
sg29
S'6380'
p3875
sg31
S'Isothermality (BIO2/BIO7) (* 100) GS RCP45 2050'
p3876
sg33
g34
sg35
g36
sg37
S'clim.gs4550.bio03.tif'
p3877
sg39
S'clim'
p3878
sg41
g42
sg43
I4326
sg44
S'2050'
p3879
ssS'bio09'
p3880
(dp3881
g8
S'2015-03-17 09:11:15'
p3882
sg10
S'no'
p3883
sg12
S'gs4550.bio09'
p3884
sg14
I76
sg15
S'bio09'
p3885
sg17
S'Mean Temperature of Driest Quarter'
p3886
sg19
S'45'
p3887
sg21
S'gs4550'
p3888
sg23
S'../views/GTiff/clim.gs4550.bio09.tif'
p3889
sg25
S'climate'
p3890
sg27
S'clim.gs4550.bio09'
p3891
sg29
S'6410'
p3892
sg31
S'Mean Temperature of Driest Quarter GS RCP45 2050'
p3893
sg33
g34
sg35
g36
sg37
S'clim.gs4550.bio09.tif'
p3894
sg39
S'clim'
p3895
sg41
g42
sg43
I4326
sg44
S'2050'
p3896
ssS'bio02'
p3897
(dp3898
g8
S'2015-03-17 09:11:15'
p3899
sg10
S'no'
p3900
sg12
S'gs4550.bio02'
p3901
sg14
I114
sg15
S'bio02'
p3902
sg17
S'Mean Diurnal Range (Mean of monthly (max temp - min temp))'
p3903
sg19
S'45'
p3904
sg21
S'gs4550'
p3905
sg23
S'../views/GTiff/clim.gs4550.bio02.tif'
p3906
sg25
S'climate'
p3907
sg27
S'clim.gs4550.bio02'
p3908
sg29
S'6381'
p3909
sg31
S'Mean Diurnal Range (Mean of monthly (max temp - min temp)) GS RCP45 2050'
p3910
sg33
g34
sg35
g36
sg37
S'clim.gs4550.bio02.tif'
p3911
sg39
S'clim'
p3912
sg41
g42
sg43
I4326
sg44
S'2050'
p3913
sssS'he6070'
p3914
(dp3915
S'bio07'
p3916
(dp3917
g8
S'2015-03-17 09:11:15'
p3918
sg10
S'no'
p3919
sg12
S'he6070.bio07'
p3920
sg14
I201
sg15
S'bio07'
p3921
sg17
S'Temperature Annual Range (BIO5-BIO6)'
p3922
sg19
S'60'
p3923
sg21
S'he6070'
p3924
sg23
S'../views/GTiff/clim.he6070.bio07.tif'
p3925
sg25
S'climate'
p3926
sg27
S'clim.he6070.bio07'
p3927
sg29
S'6363'
p3928
sg31
S'Temperature Annual Range (BIO5-BIO6) HE RCP60 2070'
p3929
sg33
g34
sg35
g36
sg37
S'clim.he6070.bio07.tif'
p3930
sg39
S'clim'
p3931
sg41
g42
sg43
I4326
sg44
S'2070'
p3932
ssS'bio19'
p3933
(dp3934
g8
S'2015-03-17 09:11:15'
p3935
sg10
S'no'
p3936
sg12
S'he6070.bio19'
p3937
sg14
I209
sg15
S'bio19'
p3938
sg17
S'Precipitation of Coldest Quarter'
p3939
sg19
S'60'
p3940
sg21
S'he6070'
p3941
sg23
S'../views/GTiff/clim.he6070.bio19.tif'
p3942
sg25
S'climate'
p3943
sg27
S'clim.he6070.bio19'
p3944
sg29
S'6357'
p3945
sg31
S'Precipitation of Coldest Quarter HE RCP60 2070'
p3946
sg33
g34
sg35
g36
sg37
S'clim.he6070.bio19.tif'
p3947
sg39
S'clim'
p3948
sg41
g42
sg43
I4326
sg44
S'2070'
p3949
ssS'bio01'
p3950
(dp3951
g8
S'2015-03-17 09:11:15'
p3952
sg10
S'no'
p3953
sg12
S'he6070.bio01'
p3954
sg14
I315
sg15
S'bio01'
p3955
sg17
S'Annual Mean Temperature'
p3956
sg19
S'60'
p3957
sg21
S'he6070'
p3958
sg23
S'../views/GTiff/clim.he6070.bio01.tif'
p3959
sg25
S'climate'
p3960
sg27
S'clim.he6070.bio01'
p3961
sg29
S'6369'
p3962
sg31
S'Annual Mean Temperature HE RCP60 2070'
p3963
sg33
g34
sg35
g36
sg37
S'clim.he6070.bio01.tif'
p3964
sg39
S'clim'
p3965
sg41
g42
sg43
I4326
sg44
S'2070'
p3966
ssS'bio11'
p3967
(dp3968
g8
S'2015-03-17 09:11:15'
p3969
sg10
S'no'
p3970
sg12
S'he6070.bio11'
p3971
sg14
I262
sg15
S'bio11'
p3972
sg17
S'Mean Temperature of Coldest Quarter'
p3973
sg19
S'60'
p3974
sg21
S'he6070'
p3975
sg23
S'../views/GTiff/clim.he6070.bio11.tif'
p3976
sg25
S'climate'
p3977
sg27
S'clim.he6070.bio11'
p3978
sg29
S'6359'
p3979
sg31
S'Mean Temperature of Coldest Quarter HE RCP60 2070'
p3980
sg33
g34
sg35
g36
sg37
S'clim.he6070.bio11.tif'
p3981
sg39
S'clim'
p3982
sg41
g42
sg43
I4326
sg44
S'2070'
p3983
ssS'bio09'
p3984
(dp3985
g8
S'2015-03-17 09:11:15'
p3986
sg10
S'no'
p3987
sg12
S'he6070.bio09'
p3988
sg14
I338
sg15
S'bio09'
p3989
sg17
S'Mean Temperature of Driest Quarter'
p3990
sg19
S'60'
p3991
sg21
S'he6070'
p3992
sg23
S'../views/GTiff/clim.he6070.bio09.tif'
p3993
sg25
S'climate'
p3994
sg27
S'clim.he6070.bio09'
p3995
sg29
S'6373'
p3996
sg31
S'Mean Temperature of Driest Quarter HE RCP60 2070'
p3997
sg33
g34
sg35
g36
sg37
S'clim.he6070.bio09.tif'
p3998
sg39
S'clim'
p3999
sg41
g42
sg43
I4326
sg44
S'2070'
p4000
ssS'bio15'
p4001
(dp4002
g8
S'2015-03-17 09:11:15'
p4003
sg10
S'no'
p4004
sg12
S'he6070.bio15'
p4005
sg14
I263
sg15
S'bio15'
p4006
sg17
S'Precipitation Seasonality (Coefficient of Variation)'
p4007
sg19
S'60'
p4008
sg21
S'he6070'
p4009
sg23
S'../views/GTiff/clim.he6070.bio15.tif'
p4010
sg25
S'climate'
p4011
sg27
S'clim.he6070.bio15'
p4012
sg29
S'6361'
p4013
sg31
S'Precipitation Seasonality (Coefficient of Variation) HE RCP60 2070'
p4014
sg33
g34
sg35
g36
sg37
S'clim.he6070.bio15.tif'
p4015
sg39
S'clim'
p4016
sg41
g42
sg43
I4326
sg44
S'2070'
p4017
ssS'bio05'
p4018
(dp4019
g8
S'2015-03-17 09:11:15'
p4020
sg10
S'no'
p4021
sg12
S'he6070.bio05'
p4022
sg14
I123
sg15
S'bio05'
p4023
sg17
S'Max Temperature of Warmest Month'
p4024
sg19
S'60'
p4025
sg21
S'he6070'
p4026
sg23
S'../views/GTiff/clim.he6070.bio05.tif'
p4027
sg25
S'climate'
p4028
sg27
S'clim.he6070.bio05'
p4029
sg29
S'6365'
p4030
sg31
S'Max Temperature of Warmest Month HE RCP60 2070'
p4031
sg33
g34
sg35
g36
sg37
S'clim.he6070.bio05.tif'
p4032
sg39
S'clim'
p4033
sg41
g42
sg43
I4326
sg44
S'2070'
p4034
ssS'bio10'
p4035
(dp4036
g8
S'2015-03-17 09:11:15'
p4037
sg10
S'no'
p4038
sg12
S'he6070.bio10'
p4039
sg14
I65
sg15
S'bio10'
p4040
sg17
S'Mean Temperature of Warmest Quarter'
p4041
sg19
S'60'
p4042
sg21
S'he6070'
p4043
sg23
S'../views/GTiff/clim.he6070.bio10.tif'
p4044
sg25
S'climate'
p4045
sg27
S'clim.he6070.bio10'
p4046
sg29
S'6356'
p4047
sg31
S'Mean Temperature of Warmest Quarter HE RCP60 2070'
p4048
sg33
g34
sg35
g36
sg37
S'clim.he6070.bio10.tif'
p4049
sg39
S'clim'
p4050
sg41
g42
sg43
I4326
sg44
S'2070'
p4051
ssS'bio06'
p4052
(dp4053
g8
S'2015-03-17 09:11:15'
p4054
sg10
S'no'
p4055
sg12
S'he6070.bio06'
p4056
sg14
I193
sg15
S'bio06'
p4057
sg17
S'Min Temperature of Coldest Month'
p4058
sg19
S'60'
p4059
sg21
S'he6070'
p4060
sg23
S'../views/GTiff/clim.he6070.bio06.tif'
p4061
sg25
S'climate'
p4062
sg27
S'clim.he6070.bio06'
p4063
sg29
S'6364'
p4064
sg31
S'Min Temperature of Coldest Month HE RCP60 2070'
p4065
sg33
g34
sg35
g36
sg37
S'clim.he6070.bio06.tif'
p4066
sg39
S'clim'
p4067
sg41
g42
sg43
I4326
sg44
S'2070'
p4068
ssS'bio12'
p4069
(dp4070
g8
S'2015-03-17 09:11:15'
p4071
sg10
S'no'
p4072
sg12
S'he6070.bio12'
p4073
sg14
I66
sg15
S'bio12'
p4074
sg17
S'Annual Precipitation'
p4075
sg19
S'60'
p4076
sg21
S'he6070'
p4077
sg23
S'../views/GTiff/clim.he6070.bio12.tif'
p4078
sg25
S'climate'
p4079
sg27
S'clim.he6070.bio12'
p4080
sg29
S'6362'
p4081
sg31
S'Annual Precipitation HE RCP60 2070'
p4082
sg33
g34
sg35
g36
sg37
S'clim.he6070.bio12.tif'
p4083
sg39
S'clim'
p4084
sg41
g42
sg43
I4326
sg44
S'2070'
p4085
ssS'bio13'
p4086
(dp4087
g8
S'2015-03-17 09:11:15'
p4088
sg10
S'no'
p4089
sg12
S'he6070.bio13'
p4090
sg14
I219
sg15
S'bio13'
p4091
sg17
S'Precipitation of Wettest Month'
p4092
sg19
S'60'
p4093
sg21
S'he6070'
p4094
sg23
S'../views/GTiff/clim.he6070.bio13.tif'
p4095
sg25
S'climate'
p4096
sg27
S'clim.he6070.bio13'
p4097
sg29
S'6358'
p4098
sg31
S'Precipitation of Wettest Month HE RCP60 2070'
p4099
sg33
g34
sg35
g36
sg37
S'clim.he6070.bio13.tif'
p4100
sg39
S'clim'
p4101
sg41
g42
sg43
I4326
sg44
S'2070'
p4102
ssS'bio14'
p4103
(dp4104
g8
S'2015-03-17 09:11:15'
p4105
sg10
S'no'
p4106
sg12
S'he6070.bio14'
p4107
sg14
I98
sg15
S'bio14'
p4108
sg17
S'Precipitation of Driest Month'
p4109
sg19
S'60'
p4110
sg21
S'he6070'
p4111
sg23
S'../views/GTiff/clim.he6070.bio14.tif'
p4112
sg25
S'climate'
p4113
sg27
S'clim.he6070.bio14'
p4114
sg29
S'6372'
p4115
sg31
S'Precipitation of Driest Month HE RCP60 2070'
p4116
sg33
g34
sg35
g36
sg37
S'clim.he6070.bio14.tif'
p4117
sg39
S'clim'
p4118
sg41
g42
sg43
I4326
sg44
S'2070'
p4119
ssS'bio02'
p4120
(dp4121
g8
S'2015-03-17 09:11:15'
p4122
sg10
S'no'
p4123
sg12
S'he6070.bio02'
p4124
sg14
I140
sg15
S'bio02'
p4125
sg17
S'Mean Diurnal Range (Mean of monthly (max temp - min temp))'
p4126
sg19
S'60'
p4127
sg21
S'he6070'
p4128
sg23
S'../views/GTiff/clim.he6070.bio02.tif'
p4129
sg25
S'climate'
p4130
sg27
S'clim.he6070.bio02'
p4131
sg29
S'6368'
p4132
sg31
S'Mean Diurnal Range (Mean of monthly (max temp - min temp)) HE RCP60 2070'
p4133
sg33
g34
sg35
g36
sg37
S'clim.he6070.bio02.tif'
p4134
sg39
S'clim'
p4135
sg41
g42
sg43
I4326
sg44
S'2070'
p4136
ssS'bio16'
p4137
(dp4138
g8
S'2015-03-17 09:11:15'
p4139
sg10
S'no'
p4140
sg12
S'he6070.bio16'
p4141
sg14
I21
sg15
S'bio16'
p4142
sg17
S'Precipitation of Wettest Quarter'
p4143
sg19
S'60'
p4144
sg21
g3914
sg23
S'../views/GTiff/clim.he6070.bio16.tif'
p4145
sg25
S'climate'
p4146
sg27
S'clim.he6070.bio16'
p4147
sg29
S'6360'
p4148
sg31
S'Precipitation of Wettest Quarter HE RCP60 2070'
p4149
sg33
g34
sg35
g36
sg37
S'clim.he6070.bio16.tif'
p4150
sg39
S'clim'
p4151
sg41
g42
sg43
I4326
sg44
S'2070'
p4152
ssS'bio17'
p4153
(dp4154
g8
S'2015-03-17 09:11:15'
p4155
sg10
S'no'
p4156
sg12
S'he6070.bio17'
p4157
sg14
I64
sg15
S'bio17'
p4158
sg17
S'Precipitation of Driest Quarter'
p4159
sg19
S'60'
p4160
sg21
S'he6070'
p4161
sg23
S'../views/GTiff/clim.he6070.bio17.tif'
p4162
sg25
S'climate'
p4163
sg27
S'clim.he6070.bio17'
p4164
sg29
S'6370'
p4165
sg31
S'Precipitation of Driest Quarter HE RCP60 2070'
p4166
sg33
g34
sg35
g36
sg37
S'clim.he6070.bio17.tif'
p4167
sg39
S'clim'
p4168
sg41
g42
sg43
I4326
sg44
S'2070'
p4169
ssS'bio18'
p4170
(dp4171
g8
S'2015-03-17 09:11:15'
p4172
sg10
S'no'
p4173
sg12
S'he6070.bio18'
p4174
sg14
I96
sg15
S'bio18'
p4175
sg17
S'Precipitation of Warmest Quarter'
p4176
sg19
S'60'
p4177
sg21
S'he6070'
p4178
sg23
S'../views/GTiff/clim.he6070.bio18.tif'
p4179
sg25
S'climate'
p4180
sg27
S'clim.he6070.bio18'
p4181
sg29
S'6371'
p4182
sg31
S'Precipitation of Warmest Quarter HE RCP60 2070'
p4183
sg33
g34
sg35
g36
sg37
S'clim.he6070.bio18.tif'
p4184
sg39
S'clim'
p4185
sg41
g42
sg43
I4326
sg44
S'2070'
p4186
ssS'bio03'
p4187
(dp4188
g8
S'2015-03-17 09:11:15'
p4189
sg10
S'no'
p4190
sg12
S'he6070.bio03'
p4191
sg14
I186
sg15
S'bio03'
p4192
sg17
S'Isothermality (BIO2/BIO7) (* 100)'
p4193
sg19
S'60'
p4194
sg21
S'he6070'
p4195
sg23
S'../views/GTiff/clim.he6070.bio03.tif'
p4196
sg25
S'climate'
p4197
sg27
S'clim.he6070.bio03'
p4198
sg29
S'6367'
p4199
sg31
S'Isothermality (BIO2/BIO7) (* 100) HE RCP60 2070'
p4200
sg33
g34
sg35
g36
sg37
S'clim.he6070.bio03.tif'
p4201
sg39
S'clim'
p4202
sg41
g42
sg43
I4326
sg44
S'2070'
p4203
ssS'bio04'
p4204
(dp4205
g8
S'2015-03-17 09:11:15'
p4206
sg10
S'no'
p4207
sg12
S'he6070.bio04'
p4208
sg14
I251
sg15
S'bio04'
p4209
sg17
S'Temperature Seasonality (standard deviation *100)'
p4210
sg19
S'60'
p4211
sg21
S'he6070'
p4212
sg23
S'../views/GTiff/clim.he6070.bio04.tif'
p4213
sg25
S'climate'
p4214
sg27
S'clim.he6070.bio04'
p4215
sg29
S'6366'
p4216
sg31
S'Temperature Seasonality (standard deviation *100) HE RCP60 2070'
p4217
sg33
g34
sg35
g36
sg37
S'clim.he6070.bio04.tif'
p4218
sg39
S'clim'
p4219
sg41
g42
sg43
I4326
sg44
S'2070'
p4220
ssS'bio08'
p4221
(dp4222
g8
S'2015-03-17 09:11:15'
p4223
sg10
S'no'
p4224
sg12
S'he6070.bio08'
p4225
sg14
I50
sg15
S'bio08'
p4226
sg17
S'Mean Temperature of Wettest Quarter'
p4227
sg19
S'60'
p4228
sg21
S'he6070'
p4229
sg23
S'../views/GTiff/clim.he6070.bio08.tif'
p4230
sg25
S'climate'
p4231
sg27
S'clim.he6070.bio08'
p4232
sg29
S'6374'
p4233
sg31
S'Mean Temperature of Wettest Quarter HE RCP60 2070'
p4234
sg33
g34
sg35
g36
sg37
S'clim.he6070.bio08.tif'
p4235
sg39
S'clim'
p4236
sg41
g42
sg43
I4326
sg44
S'2070'
p4237
sssS'ac4550'
p4238
(dp4239
S'bio07'
p4240
(dp4241
g8
S'2015-03-17 09:11:15'
p4242
sg10
S'no'
p4243
sg12
S'ac4550.bio07'
p4244
sg14
I316
sg15
S'bio07'
p4245
sg17
S'Temperature Annual Range (BIO5-BIO6)'
p4246
sg19
S'45'
p4247
sg21
S'ac4550'
p4248
sg23
S'../views/GTiff/clim.ac4550.bio07.tif'
p4249
sg25
S'climate'
p4250
sg27
S'clim.ac4550.bio07'
p4251
sg29
S'6333'
p4252
sg31
S'Temperature Annual Range (BIO5-BIO6) AC RCP45 2050'
p4253
sg33
g34
sg35
g36
sg37
S'clim.ac4550.bio07.tif'
p4254
sg39
S'clim'
p4255
sg41
g42
sg43
I4326
sg44
S'2050'
p4256
ssS'bio13'
p4257
(dp4258
g8
S'2015-03-17 09:11:15'
p4259
sg10
S'no'
p4260
sg12
S'ac4550.bio13'
p4261
sg14
I317
sg15
S'bio13'
p4262
sg17
S'Precipitation of Wettest Month'
p4263
sg19
S'45'
p4264
sg21
S'ac4550'
p4265
sg23
S'../views/GTiff/clim.ac4550.bio13.tif'
p4266
sg25
S'climate'
p4267
sg27
S'clim.ac4550.bio13'
p4268
sg29
S'6328'
p4269
sg31
S'Precipitation of Wettest Month AC RCP45 2050'
p4270
sg33
g34
sg35
g36
sg37
S'clim.ac4550.bio13.tif'
p4271
sg39
S'clim'
p4272
sg41
g42
sg43
I4326
sg44
S'2050'
p4273
ssS'bio16'
p4274
(dp4275
g8
S'2015-03-17 09:11:15'
p4276
sg10
S'no'
p4277
sg12
S'ac4550.bio16'
p4278
sg14
I301
sg15
S'bio16'
p4279
sg17
S'Precipitation of Wettest Quarter'
p4280
sg19
S'45'
p4281
sg21
S'ac4550'
p4282
sg23
S'../views/GTiff/clim.ac4550.bio16.tif'
p4283
sg25
S'climate'
p4284
sg27
S'clim.ac4550.bio16'
p4285
sg29
S'6330'
p4286
sg31
S'Precipitation of Wettest Quarter AC RCP45 2050'
p4287
sg33
g34
sg35
g36
sg37
S'clim.ac4550.bio16.tif'
p4288
sg39
S'clim'
p4289
sg41
g42
sg43
I4326
sg44
S'2050'
p4290
ssS'bio11'
p4291
(dp4292
g8
S'2015-03-17 09:11:15'
p4293
sg10
S'no'
p4294
sg12
S'ac4550.bio11'
p4295
sg14
I250
sg15
S'bio11'
p4296
sg17
S'Mean Temperature of Coldest Quarter'
p4297
sg19
S'45'
p4298
sg21
S'ac4550'
p4299
sg23
S'../views/GTiff/clim.ac4550.bio11.tif'
p4300
sg25
S'climate'
p4301
sg27
S'clim.ac4550.bio11'
p4302
sg29
S'6329'
p4303
sg31
S'Mean Temperature of Coldest Quarter AC RCP45 2050'
p4304
sg33
g34
sg35
g36
sg37
S'clim.ac4550.bio11.tif'
p4305
sg39
S'clim'
p4306
sg41
g42
sg43
I4326
sg44
S'2050'
p4307
ssS'bio15'
p4308
(dp4309
g8
S'2015-03-17 09:11:15'
p4310
sg10
S'no'
p4311
sg12
S'ac4550.bio15'
p4312
sg14
I313
sg15
S'bio15'
p4313
sg17
S'Precipitation Seasonality (Coefficient of Variation)'
p4314
sg19
S'45'
p4315
sg21
S'ac4550'
p4316
sg23
S'../views/GTiff/clim.ac4550.bio15.tif'
p4317
sg25
S'climate'
p4318
sg27
S'clim.ac4550.bio15'
p4319
sg29
S'6331'
p4320
sg31
S'Precipitation Seasonality (Coefficient of Variation) AC RCP45 2050'
p4321
sg33
g34
sg35
g36
sg37
S'clim.ac4550.bio15.tif'
p4322
sg39
S'clim'
p4323
sg41
g42
sg43
I4326
sg44
S'2050'
p4324
ssS'bio12'
p4325
(dp4326
g8
S'2015-03-17 09:11:15'
p4327
sg10
S'no'
p4328
sg12
S'ac4550.bio12'
p4329
sg14
I104
sg15
S'bio12'
p4330
sg17
S'Annual Precipitation'
p4331
sg19
S'45'
p4332
sg21
S'ac4550'
p4333
sg23
S'../views/GTiff/clim.ac4550.bio12.tif'
p4334
sg25
S'climate'
p4335
sg27
S'clim.ac4550.bio12'
p4336
sg29
S'6332'
p4337
sg31
S'Annual Precipitation AC RCP45 2050'
p4338
sg33
g34
sg35
g36
sg37
S'clim.ac4550.bio12.tif'
p4339
sg39
S'clim'
p4340
sg41
g42
sg43
I4326
sg44
S'2050'
p4341
ssS'bio10'
p4342
(dp4343
g8
S'2015-03-17 09:11:15'
p4344
sg10
S'no'
p4345
sg12
S'ac4550.bio10'
p4346
sg14
I257
sg15
S'bio10'
p4347
sg17
S'Mean Temperature of Warmest Quarter'
p4348
sg19
S'45'
p4349
sg21
S'ac4550'
p4350
sg23
S'../views/GTiff/clim.ac4550.bio10.tif'
p4351
sg25
S'climate'
p4352
sg27
S'clim.ac4550.bio10'
p4353
sg29
S'6326'
p4354
sg31
S'Mean Temperature of Warmest Quarter AC RCP45 2050'
p4355
sg33
g34
sg35
g36
sg37
S'clim.ac4550.bio10.tif'
p4356
sg39
S'clim'
p4357
sg41
g42
sg43
I4326
sg44
S'2050'
p4358
ssS'bio06'
p4359
(dp4360
g8
S'2015-03-17 09:11:15'
p4361
sg10
S'no'
p4362
sg12
S'ac4550.bio06'
p4363
sg14
I75
sg15
S'bio06'
p4364
sg17
S'Min Temperature of Coldest Month'
p4365
sg19
S'45'
p4366
sg21
g4238
sg23
S'../views/GTiff/clim.ac4550.bio06.tif'
p4367
sg25
S'climate'
p4368
sg27
S'clim.ac4550.bio06'
p4369
sg29
S'6334'
p4370
sg31
S'Min Temperature of Coldest Month AC RCP45 2050'
p4371
sg33
g34
sg35
g36
sg37
S'clim.ac4550.bio06.tif'
p4372
sg39
S'clim'
p4373
sg41
g42
sg43
I4326
sg44
S'2050'
p4374
ssS'bio05'
p4375
(dp4376
g8
S'2015-03-17 09:11:15'
p4377
sg10
S'no'
p4378
sg12
S'ac4550.bio05'
p4379
sg14
I85
sg15
S'bio05'
p4380
sg17
S'Max Temperature of Warmest Month'
p4381
sg19
S'45'
p4382
sg21
S'ac4550'
p4383
sg23
S'../views/GTiff/clim.ac4550.bio05.tif'
p4384
sg25
S'climate'
p4385
sg27
S'clim.ac4550.bio05'
p4386
sg29
S'6335'
p4387
sg31
S'Max Temperature of Warmest Month AC RCP45 2050'
p4388
sg33
g34
sg35
g36
sg37
S'clim.ac4550.bio05.tif'
p4389
sg39
S'clim'
p4390
sg41
g42
sg43
I4326
sg44
S'2050'
p4391
ssS'bio04'
p4392
(dp4393
g8
S'2015-03-17 09:11:15'
p4394
sg10
S'no'
p4395
sg12
S'ac4550.bio04'
p4396
sg14
I115
sg15
S'bio04'
p4397
sg17
S'Temperature Seasonality (standard deviation *100)'
p4398
sg19
S'45'
p4399
sg21
S'ac4550'
p4400
sg23
S'../views/GTiff/clim.ac4550.bio04.tif'
p4401
sg25
S'climate'
p4402
sg27
S'clim.ac4550.bio04'
p4403
sg29
S'6336'
p4404
sg31
S'Temperature Seasonality (standard deviation *100) AC RCP45 2050'
p4405
sg33
g34
sg35
g36
sg37
S'clim.ac4550.bio04.tif'
p4406
sg39
S'clim'
p4407
sg41
g42
sg43
I4326
sg44
S'2050'
p4408
ssS'bio14'
p4409
(dp4410
g8
S'2015-03-17 09:11:15'
p4411
sg10
S'no'
p4412
sg12
S'ac4550.bio14'
p4413
sg14
I190
sg15
S'bio14'
p4414
sg17
S'Precipitation of Driest Month'
p4415
sg19
S'45'
p4416
sg21
S'ac4550'
p4417
sg23
S'../views/GTiff/clim.ac4550.bio14.tif'
p4418
sg25
S'climate'
p4419
sg27
S'clim.ac4550.bio14'
p4420
sg29
S'6342'
p4421
sg31
S'Precipitation of Driest Month AC RCP45 2050'
p4422
sg33
g34
sg35
g36
sg37
S'clim.ac4550.bio14.tif'
p4423
sg39
S'clim'
p4424
sg41
g42
sg43
I4326
sg44
S'2050'
p4425
ssS'bio02'
p4426
(dp4427
g8
S'2015-03-17 09:11:15'
p4428
sg10
S'no'
p4429
sg12
S'ac4550.bio02'
p4430
sg14
I153
sg15
S'bio02'
p4431
sg17
S'Mean Diurnal Range (Mean of monthly (max temp - min temp))'
p4432
sg19
S'45'
p4433
sg21
S'ac4550'
p4434
sg23
S'../views/GTiff/clim.ac4550.bio02.tif'
p4435
sg25
S'climate'
p4436
sg27
S'clim.ac4550.bio02'
p4437
sg29
S'6338'
p4438
sg31
S'Mean Diurnal Range (Mean of monthly (max temp - min temp)) AC RCP45 2050'
p4439
sg33
g34
sg35
g36
sg37
S'clim.ac4550.bio02.tif'
p4440
sg39
S'clim'
p4441
sg41
g42
sg43
I4326
sg44
S'2050'
p4442
ssS'bio01'
p4443
(dp4444
g8
S'2015-03-17 09:11:15'
p4445
sg10
S'no'
p4446
sg12
S'ac4550.bio01'
p4447
sg14
I164
sg15
S'bio01'
p4448
sg17
S'Annual Mean Temperature'
p4449
sg19
S'45'
p4450
sg21
S'ac4550'
p4451
sg23
S'../views/GTiff/clim.ac4550.bio01.tif'
p4452
sg25
S'climate'
p4453
sg27
S'clim.ac4550.bio01'
p4454
sg29
S'6339'
p4455
sg31
S'Annual Mean Temperature AC RCP45 2050'
p4456
sg33
g34
sg35
g36
sg37
S'clim.ac4550.bio01.tif'
p4457
sg39
S'clim'
p4458
sg41
g42
sg43
I4326
sg44
S'2050'
p4459
ssS'bio17'
p4460
(dp4461
g8
S'2015-03-17 09:11:15'
p4462
sg10
S'no'
p4463
sg12
S'ac4550.bio17'
p4464
sg14
I342
sg15
S'bio17'
p4465
sg17
S'Precipitation of Driest Quarter'
p4466
sg19
S'45'
p4467
sg21
S'ac4550'
p4468
sg23
S'../views/GTiff/clim.ac4550.bio17.tif'
p4469
sg25
S'climate'
p4470
sg27
S'clim.ac4550.bio17'
p4471
sg29
S'6340'
p4472
sg31
S'Precipitation of Driest Quarter AC RCP45 2050'
p4473
sg33
g34
sg35
g36
sg37
S'clim.ac4550.bio17.tif'
p4474
sg39
S'clim'
p4475
sg41
g42
sg43
I4326
sg44
S'2050'
p4476
ssS'bio18'
p4477
(dp4478
g8
S'2015-03-17 09:11:15'
p4479
sg10
S'no'
p4480
sg12
S'ac4550.bio18'
p4481
sg14
I273
sg15
S'bio18'
p4482
sg17
S'Precipitation of Warmest Quarter'
p4483
sg19
S'45'
p4484
sg21
S'ac4550'
p4485
sg23
S'../views/GTiff/clim.ac4550.bio18.tif'
p4486
sg25
S'climate'
p4487
sg27
S'clim.ac4550.bio18'
p4488
sg29
S'6341'
p4489
sg31
S'Precipitation of Warmest Quarter AC RCP45 2050'
p4490
sg33
g34
sg35
g36
sg37
S'clim.ac4550.bio18.tif'
p4491
sg39
S'clim'
p4492
sg41
g42
sg43
I4326
sg44
S'2050'
p4493
ssS'bio19'
p4494
(dp4495
g8
S'2015-03-17 09:11:15'
p4496
sg10
S'no'
p4497
sg12
S'ac4550.bio19'
p4498
sg14
I167
sg15
S'bio19'
p4499
sg17
S'Precipitation of Coldest Quarter'
p4500
sg19
S'45'
p4501
sg21
S'ac4550'
p4502
sg23
S'../views/GTiff/clim.ac4550.bio19.tif'
p4503
sg25
S'climate'
p4504
sg27
S'clim.ac4550.bio19'
p4505
sg29
S'6327'
p4506
sg31
S'Precipitation of Coldest Quarter AC RCP45 2050'
p4507
sg33
g34
sg35
g36
sg37
S'clim.ac4550.bio19.tif'
p4508
sg39
S'clim'
p4509
sg41
g42
sg43
I4326
sg44
S'2050'
p4510
ssS'bio03'
p4511
(dp4512
g8
S'2015-03-17 09:11:15'
p4513
sg10
S'no'
p4514
sg12
S'ac4550.bio03'
p4515
sg14
I292
sg15
S'bio03'
p4516
sg17
S'Isothermality (BIO2/BIO7) (* 100)'
p4517
sg19
S'45'
p4518
sg21
S'ac4550'
p4519
sg23
S'../views/GTiff/clim.ac4550.bio03.tif'
p4520
sg25
S'climate'
p4521
sg27
S'clim.ac4550.bio03'
p4522
sg29
S'6337'
p4523
sg31
S'Isothermality (BIO2/BIO7) (* 100) AC RCP45 2050'
p4524
sg33
g34
sg35
g36
sg37
S'clim.ac4550.bio03.tif'
p4525
sg39
S'clim'
p4526
sg41
g42
sg43
I4326
sg44
S'2050'
p4527
ssS'bio09'
p4528
(dp4529
g8
S'2015-03-17 09:11:15'
p4530
sg10
S'no'
p4531
sg12
S'ac4550.bio09'
p4532
sg14
I132
sg15
S'bio09'
p4533
sg17
S'Mean Temperature of Driest Quarter'
p4534
sg19
S'45'
p4535
sg21
S'ac4550'
p4536
sg23
S'../views/GTiff/clim.ac4550.bio09.tif'
p4537
sg25
S'climate'
p4538
sg27
S'clim.ac4550.bio09'
p4539
sg29
S'6343'
p4540
sg31
S'Mean Temperature of Driest Quarter AC RCP45 2050'
p4541
sg33
g34
sg35
g36
sg37
S'clim.ac4550.bio09.tif'
p4542
sg39
S'clim'
p4543
sg41
g42
sg43
I4326
sg44
S'2050'
p4544
ssS'bio08'
p4545
(dp4546
g8
S'2015-03-17 09:11:15'
p4547
sg10
S'no'
p4548
sg12
S'ac4550.bio08'
p4549
sg14
I130
sg15
S'bio08'
p4550
sg17
S'Mean Temperature of Wettest Quarter'
p4551
sg19
S'45'
p4552
sg21
S'ac4550'
p4553
sg23
S'../views/GTiff/clim.ac4550.bio08.tif'
p4554
sg25
S'climate'
p4555
sg27
S'clim.ac4550.bio08'
p4556
sg29
S'6344'
p4557
sg31
S'Mean Temperature of Wettest Quarter AC RCP45 2050'
p4558
sg33
g34
sg35
g36
sg37
S'clim.ac4550.bio08.tif'
p4559
sg39
S'clim'
p4560
sg41
g42
sg43
I4326
sg44
S'2050'
p4561
sssS'he4570'
p4562
(dp4563
S'bio05'
p4564
(dp4565
g8
S'2015-03-17 09:11:15'
p4566
sg10
S'no'
p4567
sg12
S'he4570.bio05'
p4568
sg14
I308
sg15
S'bio05'
p4569
sg17
S'Max Temperature of Warmest Month'
p4570
sg19
S'45'
p4571
sg21
S'he4570'
p4572
sg23
S'../views/GTiff/clim.he4570.bio05.tif'
p4573
sg25
S'climate'
p4574
sg27
S'clim.he4570.bio05'
p4575
sg29
S'6414'
p4576
sg31
S'Max Temperature of Warmest Month HE RCP45 2070'
p4577
sg33
g34
sg35
g36
sg37
S'clim.he4570.bio05.tif'
p4578
sg39
S'clim'
p4579
sg41
g42
sg43
I4326
sg44
S'2070'
p4580
ssS'bio07'
p4581
(dp4582
g8
S'2015-03-17 09:11:15'
p4583
sg10
S'no'
p4584
sg12
S'he4570.bio07'
p4585
sg14
I131
sg15
S'bio07'
p4586
sg17
S'Temperature Annual Range (BIO5-BIO6)'
p4587
sg19
S'45'
p4588
sg21
S'he4570'
p4589
sg23
S'../views/GTiff/clim.he4570.bio07.tif'
p4590
sg25
S'climate'
p4591
sg27
S'clim.he4570.bio07'
p4592
sg29
S'6412'
p4593
sg31
S'Temperature Annual Range (BIO5-BIO6) HE RCP45 2070'
p4594
sg33
g34
sg35
g36
sg37
S'clim.he4570.bio07.tif'
p4595
sg39
S'clim'
p4596
sg41
g42
sg43
I4326
sg44
S'2070'
p4597
ssS'bio19'
p4598
(dp4599
g8
S'2015-03-17 09:11:15'
p4600
sg10
S'no'
p4601
sg12
S'he4570.bio19'
p4602
sg14
I304
sg15
S'bio19'
p4603
sg17
S'Precipitation of Coldest Quarter'
p4604
sg19
S'45'
p4605
sg21
S'he4570'
p4606
sg23
S'../views/GTiff/clim.he4570.bio19.tif'
p4607
sg25
S'climate'
p4608
sg27
S'clim.he4570.bio19'
p4609
sg29
S'6424'
p4610
sg31
S'Precipitation of Coldest Quarter HE RCP45 2070'
p4611
sg33
g34
sg35
g36
sg37
S'clim.he4570.bio19.tif'
p4612
sg39
S'clim'
p4613
sg41
g42
sg43
I4326
sg44
S'2070'
p4614
ssS'bio16'
p4615
(dp4616
g8
S'2015-03-17 09:11:15'
p4617
sg10
S'no'
p4618
sg12
S'he4570.bio16'
p4619
sg14
I217
sg15
S'bio16'
p4620
sg17
S'Precipitation of Wettest Quarter'
p4621
sg19
S'45'
p4622
sg21
S'he4570'
p4623
sg23
S'../views/GTiff/clim.he4570.bio16.tif'
p4624
sg25
S'climate'
p4625
sg27
S'clim.he4570.bio16'
p4626
sg29
S'6421'
p4627
sg31
S'Precipitation of Wettest Quarter HE RCP45 2070'
p4628
sg33
g34
sg35
g36
sg37
S'clim.he4570.bio16.tif'
p4629
sg39
S'clim'
p4630
sg41
g42
sg43
I4326
sg44
S'2070'
p4631
ssS'bio06'
p4632
(dp4633
g8
S'2015-03-17 09:11:15'
p4634
sg10
S'no'
p4635
sg12
S'he4570.bio06'
p4636
sg14
I266
sg15
S'bio06'
p4637
sg17
S'Min Temperature of Coldest Month'
p4638
sg19
S'45'
p4639
sg21
S'he4570'
p4640
sg23
S'../views/GTiff/clim.he4570.bio06.tif'
p4641
sg25
S'climate'
p4642
sg27
S'clim.he4570.bio06'
p4643
sg29
S'6413'
p4644
sg31
S'Min Temperature of Coldest Month HE RCP45 2070'
p4645
sg33
g34
sg35
g36
sg37
S'clim.he4570.bio06.tif'
p4646
sg39
S'clim'
p4647
sg41
g42
sg43
I4326
sg44
S'2070'
p4648
ssS'bio13'
p4649
(dp4650
g8
S'2015-03-17 09:11:15'
p4651
sg10
S'no'
p4652
sg12
S'he4570.bio13'
p4653
sg14
I297
sg15
S'bio13'
p4654
sg17
S'Precipitation of Wettest Month'
p4655
sg19
S'45'
p4656
sg21
S'he4570'
p4657
sg23
S'../views/GTiff/clim.he4570.bio13.tif'
p4658
sg25
S'climate'
p4659
sg27
S'clim.he4570.bio13'
p4660
sg29
S'6418'
p4661
sg31
S'Precipitation of Wettest Month HE RCP45 2070'
p4662
sg33
g34
sg35
g36
sg37
S'clim.he4570.bio13.tif'
p4663
sg39
S'clim'
p4664
sg41
g42
sg43
I4326
sg44
S'2070'
p4665
ssS'bio10'
p4666
(dp4667
g8
S'2015-03-17 09:11:15'
p4668
sg10
S'no'
p4669
sg12
S'he4570.bio10'
p4670
sg14
I61
sg15
S'bio10'
p4671
sg17
S'Mean Temperature of Warmest Quarter'
p4672
sg19
S'45'
p4673
sg21
S'he4570'
p4674
sg23
S'../views/GTiff/clim.he4570.bio10.tif'
p4675
sg25
S'climate'
p4676
sg27
S'clim.he4570.bio10'
p4677
sg29
S'6415'
p4678
sg31
S'Mean Temperature of Warmest Quarter HE RCP45 2070'
p4679
sg33
g34
sg35
g36
sg37
S'clim.he4570.bio10.tif'
p4680
sg39
S'clim'
p4681
sg41
g42
sg43
I4326
sg44
S'2070'
p4682
ssS'bio11'
p4683
(dp4684
g8
S'2015-03-17 09:11:15'
p4685
sg10
S'no'
p4686
sg12
S'he4570.bio11'
p4687
sg14
I233
sg15
S'bio11'
p4688
sg17
S'Mean Temperature of Coldest Quarter'
p4689
sg19
S'45'
p4690
sg21
S'he4570'
p4691
sg23
S'../views/GTiff/clim.he4570.bio11.tif'
p4692
sg25
S'climate'
p4693
sg27
S'clim.he4570.bio11'
p4694
sg29
S'6416'
p4695
sg31
S'Mean Temperature of Coldest Quarter HE RCP45 2070'
p4696
sg33
g34
sg35
g36
sg37
S'clim.he4570.bio11.tif'
p4697
sg39
S'clim'
p4698
sg41
g42
sg43
I4326
sg44
S'2070'
p4699
ssS'bio12'
p4700
(dp4701
g8
S'2015-03-17 09:11:15'
p4702
sg10
S'no'
p4703
sg12
S'he4570.bio12'
p4704
sg14
I169
sg15
S'bio12'
p4705
sg17
S'Annual Precipitation'
p4706
sg19
S'45'
p4707
sg21
S'he4570'
p4708
sg23
S'../views/GTiff/clim.he4570.bio12.tif'
p4709
sg25
S'climate'
p4710
sg27
S'clim.he4570.bio12'
p4711
sg29
S'6417'
p4712
sg31
S'Annual Precipitation HE RCP45 2070'
p4713
sg33
g34
sg35
g36
sg37
S'clim.he4570.bio12.tif'
p4714
sg39
S'clim'
p4715
sg41
g42
sg43
I4326
sg44
S'2070'
p4716
ssS'bio04'
p4717
(dp4718
g8
S'2015-03-17 09:11:15'
p4719
sg10
S'no'
p4720
sg12
S'he4570.bio04'
p4721
sg14
I199
sg15
S'bio04'
p4722
sg17
S'Temperature Seasonality (standard deviation *100)'
p4723
sg19
S'45'
p4724
sg21
S'he4570'
p4725
sg23
S'../views/GTiff/clim.he4570.bio04.tif'
p4726
sg25
S'climate'
p4727
sg27
S'clim.he4570.bio04'
p4728
sg29
S'6383'
p4729
sg31
S'Temperature Seasonality (standard deviation *100) HE RCP45 2070'
p4730
sg33
g34
sg35
g36
sg37
S'clim.he4570.bio04.tif'
p4731
sg39
S'clim'
p4732
sg41
g42
sg43
I4326
sg44
S'2070'
p4733
ssS'bio03'
p4734
(dp4735
g8
S'2015-03-17 09:11:15'
p4736
sg10
S'no'
p4737
sg12
S'he4570.bio03'
p4738
sg14
I111
sg15
S'bio03'
p4739
sg17
S'Isothermality (BIO2/BIO7) (* 100)'
p4740
sg19
S'45'
p4741
sg21
S'he4570'
p4742
sg23
S'../views/GTiff/clim.he4570.bio03.tif'
p4743
sg25
S'climate'
p4744
sg27
S'clim.he4570.bio03'
p4745
sg29
S'6384'
p4746
sg31
S'Isothermality (BIO2/BIO7) (* 100) HE RCP45 2070'
p4747
sg33
g34
sg35
g36
sg37
S'clim.he4570.bio03.tif'
p4748
sg39
S'clim'
p4749
sg41
g42
sg43
I4326
sg44
S'2070'
p4750
ssS'bio02'
p4751
(dp4752
g8
S'2015-03-17 09:11:15'
p4753
sg10
S'no'
p4754
sg12
S'he4570.bio02'
p4755
sg14
I46
sg15
S'bio02'
p4756
sg17
S'Mean Diurnal Range (Mean of monthly (max temp - min temp))'
p4757
sg19
S'45'
p4758
sg21
S'he4570'
p4759
sg23
S'../views/GTiff/clim.he4570.bio02.tif'
p4760
sg25
S'climate'
p4761
sg27
S'clim.he4570.bio02'
p4762
sg29
S'6385'
p4763
sg31
S'Mean Diurnal Range (Mean of monthly (max temp - min temp)) HE RCP45 2070'
p4764
sg33
g34
sg35
g36
sg37
S'clim.he4570.bio02.tif'
p4765
sg39
S'clim'
p4766
sg41
g42
sg43
I4326
sg44
S'2070'
p4767
ssS'bio01'
p4768
(dp4769
g8
S'2015-03-17 09:11:15'
p4770
sg10
S'no'
p4771
sg12
S'he4570.bio01'
p4772
sg14
I51
sg15
S'bio01'
p4773
sg17
S'Annual Mean Temperature'
p4774
sg19
S'45'
p4775
sg21
S'he4570'
p4776
sg23
S'../views/GTiff/clim.he4570.bio01.tif'
p4777
sg25
S'climate'
p4778
sg27
S'clim.he4570.bio01'
p4779
sg29
S'6386'
p4780
sg31
S'Annual Mean Temperature HE RCP45 2070'
p4781
sg33
g34
sg35
g36
sg37
S'clim.he4570.bio01.tif'
p4782
sg39
S'clim'
p4783
sg41
g42
sg43
I4326
sg44
S'2070'
p4784
ssS'bio17'
p4785
(dp4786
g8
S'2015-03-17 09:11:15'
p4787
sg10
S'no'
p4788
sg12
S'he4570.bio17'
p4789
sg14
I227
sg15
S'bio17'
p4790
sg17
S'Precipitation of Driest Quarter'
p4791
sg19
S'45'
p4792
sg21
S'he4570'
p4793
sg23
S'../views/GTiff/clim.he4570.bio17.tif'
p4794
sg25
S'climate'
p4795
sg27
S'clim.he4570.bio17'
p4796
sg29
S'6422'
p4797
sg31
S'Precipitation of Driest Quarter HE RCP45 2070'
p4798
sg33
g34
sg35
g36
sg37
S'clim.he4570.bio17.tif'
p4799
sg39
S'clim'
p4800
sg41
g42
sg43
I4326
sg44
S'2070'
p4801
ssS'bio18'
p4802
(dp4803
g8
S'2015-03-17 09:11:15'
p4804
sg10
S'no'
p4805
sg12
S'he4570.bio18'
p4806
sg14
I34
sg15
S'bio18'
p4807
sg17
S'Precipitation of Warmest Quarter'
p4808
sg19
S'45'
p4809
sg21
g4562
sg23
S'../views/GTiff/clim.he4570.bio18.tif'
p4810
sg25
S'climate'
p4811
sg27
S'clim.he4570.bio18'
p4812
sg29
S'6423'
p4813
sg31
S'Precipitation of Warmest Quarter HE RCP45 2070'
p4814
sg33
g34
sg35
g36
sg37
S'clim.he4570.bio18.tif'
p4815
sg39
S'clim'
p4816
sg41
g42
sg43
I4326
sg44
S'2070'
p4817
ssS'bio14'
p4818
(dp4819
g8
S'2015-03-17 09:11:15'
p4820
sg10
S'no'
p4821
sg12
S'he4570.bio14'
p4822
sg14
I137
sg15
S'bio14'
p4823
sg17
S'Precipitation of Driest Month'
p4824
sg19
S'45'
p4825
sg21
S'he4570'
p4826
sg23
S'../views/GTiff/clim.he4570.bio14.tif'
p4827
sg25
S'climate'
p4828
sg27
S'clim.he4570.bio14'
p4829
sg29
S'6419'
p4830
sg31
S'Precipitation of Driest Month HE RCP45 2070'
p4831
sg33
g34
sg35
g36
sg37
S'clim.he4570.bio14.tif'
p4832
sg39
S'clim'
p4833
sg41
g42
sg43
I4326
sg44
S'2070'
p4834
ssS'bio08'
p4835
(dp4836
g8
S'2015-03-17 09:11:15'
p4837
sg10
S'no'
p4838
sg12
S'he4570.bio08'
p4839
sg14
I242
sg15
S'bio08'
p4840
sg17
S'Mean Temperature of Wettest Quarter'
p4841
sg19
S'45'
p4842
sg21
S'he4570'
p4843
sg23
S'../views/GTiff/clim.he4570.bio08.tif'
p4844
sg25
S'climate'
p4845
sg27
S'clim.he4570.bio08'
p4846
sg29
S'6426'
p4847
sg31
S'Mean Temperature of Wettest Quarter HE RCP45 2070'
p4848
sg33
g34
sg35
g36
sg37
S'clim.he4570.bio08.tif'
p4849
sg39
S'clim'
p4850
sg41
g42
sg43
I4326
sg44
S'2070'
p4851
ssS'bio09'
p4852
(dp4853
g8
S'2015-03-17 09:11:15'
p4854
sg10
S'no'
p4855
sg12
S'he4570.bio09'
p4856
sg14
I243
sg15
S'bio09'
p4857
sg17
S'Mean Temperature of Driest Quarter'
p4858
sg19
S'45'
p4859
sg21
S'he4570'
p4860
sg23
S'../views/GTiff/clim.he4570.bio09.tif'
p4861
sg25
S'climate'
p4862
sg27
S'clim.he4570.bio09'
p4863
sg29
S'6425'
p4864
sg31
S'Mean Temperature of Driest Quarter HE RCP45 2070'
p4865
sg33
g34
sg35
g36
sg37
S'clim.he4570.bio09.tif'
p4866
sg39
S'clim'
p4867
sg41
g42
sg43
I4326
sg44
S'2070'
p4868
ssS'bio15'
p4869
(dp4870
g8
S'2015-03-17 09:11:15'
p4871
sg10
S'no'
p4872
sg12
S'he4570.bio15'
p4873
sg14
I229
sg15
S'bio15'
p4874
sg17
S'Precipitation Seasonality (Coefficient of Variation)'
p4875
sg19
S'45'
p4876
sg21
S'he4570'
p4877
sg23
S'../views/GTiff/clim.he4570.bio15.tif'
p4878
sg25
S'climate'
p4879
sg27
S'clim.he4570.bio15'
p4880
sg29
S'6420'
p4881
sg31
S'Precipitation Seasonality (Coefficient of Variation) HE RCP45 2070'
p4882
sg33
g34
sg35
g36
sg37
S'clim.he4570.bio15.tif'
p4883
sg39
S'clim'
p4884
sg41
g42
sg43
I4326
sg44
S'2070'
p4885
ssssS'agclim'
p4886
(dp4887
S'he8550'
p4888
(dp4889
S'bio06'
p4890
(dp4891
g8
S'2015-03-17 09:11:15'
p4892
sg10
S'no'
p4893
sg12
S'he8550.bio06'
p4894
sg14
I78
sg15
S'bio06'
p4895
sg17
S'Min Temperature of Coldest Month'
p4896
sg19
S'85'
p4897
sg21
S'he8550'
p4898
sg23
S'../views/GTiff/agclim.he8550.bio06.tif'
p4899
sg25
S'agclimate'
p4900
sg27
S'agclim.he8550.bio06'
p4901
sg29
S'6498'
p4902
sg31
S'Min Temperature of Coldest Month'
p4903
sg33
g34
sg35
g36
sg37
S'agclim.he8550.bio06.tif'
p4904
sg39
S'agclim'
p4905
sg41
g42
sg43
I4326
sg44
S'2050'
p4906
ssS'bio12'
p4907
(dp4908
g8
S'2015-03-17 09:11:15'
p4909
sg10
S'no'
p4910
sg12
S'he8550.bio12'
p4911
sg14
I321
sg15
S'bio12'
p4912
sg17
S'Annual Precipitation'
p4913
sg19
S'85'
p4914
sg21
S'he8550'
p4915
sg23
S'../views/GTiff/agclim.he8550.bio12.tif'
p4916
sg25
S'agclimate'
p4917
sg27
S'agclim.he8550.bio12'
p4918
sg29
S'6499'
p4919
sg31
S'Annual Precipitation'
p4920
sg33
g34
sg35
g36
sg37
S'agclim.he8550.bio12.tif'
p4921
sg39
S'agclim'
p4922
sg41
g42
sg43
I4326
sg44
S'2050'
p4923
ssS'gdd5'
p4924
(dp4925
g8
S'2015-03-17 09:11:15'
p4926
sg10
S'no'
p4927
sg12
S'he8550.gdd5'
p4928
sg14
I19
sg15
S'gdd5'
p4929
sg17
S'Growing Degree Days 5C Baseline'
p4930
sg19
S'85'
p4931
sg21
g4888
sg23
S'../views/GTiff/agclim.he8550.gdd5.tif'
p4932
sg25
S'agclimate'
p4933
sg27
S'agclim.he8550.gdd5'
p4934
sg29
S'6500'
p4935
sg31
S'Growing Degree Days 5C Baseline'
p4936
sg33
g34
sg35
g36
sg37
S'agclim.he8550.gdd5.tif'
p4937
sg39
S'agclim'
p4938
sg41
g42
sg43
I4326
sg44
S'2050'
p4939
ssS'aridity'
p4940
(dp4941
g8
S'2015-03-17 09:11:15'
p4942
sg10
S'no'
p4943
sg12
S'he8550.aridity'
p4944
sg14
I106
sg15
S'aridity'
p4945
sg17
S'CRU Metric of Mean Annual Aridity'
p4946
sg19
S'85'
p4947
sg21
S'he8550'
p4948
sg23
S'../views/GTiff/agclim.he8550.aridity.tif'
p4949
sg25
S'agclimate'
p4950
sg27
S'agclim.he8550.aridity'
p4951
sg29
S'6501'
p4952
sg31
S'CRU Metric of Mean Annual Aridity'
p4953
sg33
g34
sg35
g36
sg37
S'agclim.he8550.aridity.tif'
p4954
sg39
S'agclim'
p4955
sg41
g42
sg43
I4326
sg44
S'2050'
p4956
ssS'petmn'
p4957
(dp4958
g8
S'2015-03-17 09:11:15'
p4959
sg10
S'no'
p4960
sg12
S'he8550.petmn'
p4961
sg14
I118
sg15
S'petmn'
p4962
sg17
S'CRU Mean Annual Evapotranspiration'
p4963
sg19
S'85'
p4964
sg21
S'he8550'
p4965
sg23
S'../views/GTiff/agclim.he8550.petmn.tif'
p4966
sg25
S'agclimate'
p4967
sg27
S'agclim.he8550.petmn'
p4968
sg29
S'6502'
p4969
sg31
S'CRU Mean Annual Evapotranspiration'
p4970
sg33
g34
sg35
g36
sg37
S'agclim.he8550.petmn.tif'
p4971
sg39
S'agclim'
p4972
sg41
g42
sg43
I4326
sg44
S'2050'
p4973
sssS'he2670'
p4974
(dp4975
S'bio06'
p4976
(dp4977
g8
S'2015-03-17 09:11:15'
p4978
sg10
S'no'
p4979
sg12
S'he2670.bio06'
p4980
sg14
I149
sg15
S'bio06'
p4981
sg17
S'Min Temperature of Coldest Month'
p4982
sg19
S'26'
p4983
sg21
S'he2670'
p4984
sg23
S'../views/GTiff/agclim.he2670.bio06.tif'
p4985
sg25
S'agclimate'
p4986
sg27
S'agclim.he2670.bio06'
p4987
sg29
S'6503'
p4988
sg31
S'Min Temperature of Coldest Month'
p4989
sg33
g34
sg35
g36
sg37
S'agclim.he2670.bio06.tif'
p4990
sg39
S'agclim'
p4991
sg41
g42
sg43
I4326
sg44
S'2070'
p4992
ssS'bio12'
p4993
(dp4994
g8
S'2015-03-17 09:11:15'
p4995
sg10
S'no'
p4996
sg12
S'he2670.bio12'
p4997
sg14
I287
sg15
S'bio12'
p4998
sg17
S'Annual Precipitation'
p4999
sg19
S'26'
p5000
sg21
S'he2670'
p5001
sg23
S'../views/GTiff/agclim.he2670.bio12.tif'
p5002
sg25
S'agclimate'
p5003
sg27
S'agclim.he2670.bio12'
p5004
sg29
S'6504'
p5005
sg31
S'Annual Precipitation'
p5006
sg33
g34
sg35
g36
sg37
S'agclim.he2670.bio12.tif'
p5007
sg39
S'agclim'
p5008
sg41
g42
sg43
I4326
sg44
S'2070'
p5009
ssS'gdd5'
p5010
(dp5011
g8
S'2015-03-17 09:11:15'
p5012
sg10
S'no'
p5013
sg12
S'he2670.gdd5'
p5014
sg14
I60
sg15
S'gdd5'
p5015
sg17
S'Growing Degree Days 5C Baseline'
p5016
sg19
S'26'
p5017
sg21
g4974
sg23
S'../views/GTiff/agclim.he2670.gdd5.tif'
p5018
sg25
S'agclimate'
p5019
sg27
S'agclim.he2670.gdd5'
p5020
sg29
S'6505'
p5021
sg31
S'Growing Degree Days 5C Baseline'
p5022
sg33
g34
sg35
g36
sg37
S'agclim.he2670.gdd5.tif'
p5023
sg39
S'agclim'
p5024
sg41
g42
sg43
I4326
sg44
S'2070'
p5025
ssS'aridity'
p5026
(dp5027
g8
S'2015-03-17 09:11:15'
p5028
sg10
S'no'
p5029
sg12
S'he2670.aridity'
p5030
sg14
I282
sg15
S'aridity'
p5031
sg17
S'CRU Metric of Mean Annual Aridity'
p5032
sg19
S'26'
p5033
sg21
S'he2670'
p5034
sg23
S'../views/GTiff/agclim.he2670.aridity.tif'
p5035
sg25
S'agclimate'
p5036
sg27
S'agclim.he2670.aridity'
p5037
sg29
S'6538'
p5038
sg31
S'CRU Metric of Mean Annual Aridity'
p5039
sg33
g34
sg35
g36
sg37
S'agclim.he2670.aridity.tif'
p5040
sg39
S'agclim'
p5041
sg41
g42
sg43
I4326
sg44
S'2070'
p5042
ssS'petmn'
p5043
(dp5044
g8
S'2015-03-17 09:11:15'
p5045
sg10
S'no'
p5046
sg12
S'he2670.petmn'
p5047
sg14
I200
sg15
S'petmn'
p5048
sg17
S'CRU Mean Annual Evapotranspiration'
p5049
sg19
S'26'
p5050
sg21
S'he2670'
p5051
sg23
S'../views/GTiff/agclim.he2670.petmn.tif'
p5052
sg25
S'agclimate'
p5053
sg27
S'agclim.he2670.petmn'
p5054
sg29
S'6506'
p5055
sg31
S'CRU Mean Annual Evapotranspiration'
p5056
sg33
g34
sg35
g36
sg37
S'agclim.he2670.petmn.tif'
p5057
sg39
S'agclim'
p5058
sg41
g42
sg43
I4326
sg44
S'2070'
p5059
sssS'he8570'
p5060
(dp5061
S'bio06'
p5062
(dp5063
g8
S'2015-03-17 09:11:15'
p5064
sg10
S'no'
p5065
sg12
S'he8570.bio06'
p5066
sg14
I3
sg15
S'bio06'
p5067
sg17
S'Min Temperature of Coldest Month'
p5068
sg19
S'85'
p5069
sg21
g5060
sg23
S'../views/GTiff/agclim.he8570.bio06.tif'
p5070
sg25
S'agclimate'
p5071
sg27
S'agclim.he8570.bio06'
p5072
sg29
S'6507'
p5073
sg31
S'Min Temperature of Coldest Month'
p5074
sg33
g34
sg35
g36
sg37
S'agclim.he8570.bio06.tif'
p5075
sg39
g4886
sg41
g42
sg43
I4326
sg44
S'2070'
p5076
ssS'bio12'
p5077
(dp5078
g8
S'2015-03-17 09:11:15'
p5079
sg10
S'no'
p5080
sg12
S'he8570.bio12'
p5081
sg14
I240
sg15
S'bio12'
p5082
sg17
S'Annual Precipitation'
p5083
sg19
S'85'
p5084
sg21
S'he8570'
p5085
sg23
S'../views/GTiff/agclim.he8570.bio12.tif'
p5086
sg25
S'agclimate'
p5087
sg27
S'agclim.he8570.bio12'
p5088
sg29
S'6508'
p5089
sg31
S'Annual Precipitation'
p5090
sg33
g34
sg35
g36
sg37
S'agclim.he8570.bio12.tif'
p5091
sg39
S'agclim'
p5092
sg41
g42
sg43
I4326
sg44
S'2070'
p5093
ssS'gdd5'
p5094
(dp5095
g8
S'2015-03-17 09:11:15'
p5096
sg10
S'no'
p5097
sg12
S'he8570.gdd5'
p5098
sg14
I191
sg15
S'gdd5'
p5099
sg17
S'Growing Degree Days 5C Baseline'
p5100
sg19
S'85'
p5101
sg21
S'he8570'
p5102
sg23
S'../views/GTiff/agclim.he8570.gdd5.tif'
p5103
sg25
S'agclimate'
p5104
sg27
S'agclim.he8570.gdd5'
p5105
sg29
S'6539'
p5106
sg31
S'Growing Degree Days 5C Baseline'
p5107
sg33
g34
sg35
g36
sg37
S'agclim.he8570.gdd5.tif'
p5108
sg39
S'agclim'
p5109
sg41
g42
sg43
I4326
sg44
S'2070'
p5110
ssS'aridity'
p5111
(dp5112
g8
S'2015-03-17 09:11:15'
p5113
sg10
S'no'
p5114
sg12
S'he8570.aridity'
p5115
sg14
I117
sg15
S'aridity'
p5116
sg17
S'CRU Metric of Mean Annual Aridity'
p5117
sg19
S'85'
p5118
sg21
S'he8570'
p5119
sg23
S'../views/GTiff/agclim.he8570.aridity.tif'
p5120
sg25
S'agclimate'
p5121
sg27
S'agclim.he8570.aridity'
p5122
sg29
S'6509'
p5123
sg31
S'CRU Metric of Mean Annual Aridity'
p5124
sg33
g34
sg35
g36
sg37
S'agclim.he8570.aridity.tif'
p5125
sg39
S'agclim'
p5126
sg41
g42
sg43
I4326
sg44
S'2070'
p5127
ssS'petmn'
p5128
(dp5129
g8
S'2015-03-17 09:11:15'
p5130
sg10
S'no'
p5131
sg12
S'he8570.petmn'
p5132
sg14
I181
sg15
S'petmn'
p5133
sg17
S'CRU Mean Annual Evapotranspiration'
p5134
sg19
S'85'
p5135
sg21
S'he8570'
p5136
sg23
S'../views/GTiff/agclim.he8570.petmn.tif'
p5137
sg25
S'agclimate'
p5138
sg27
S'agclim.he8570.petmn'
p5139
sg29
S'6540'
p5140
sg31
S'CRU Mean Annual Evapotranspiration'
p5141
sg33
g34
sg35
g36
sg37
S'agclim.he8570.petmn.tif'
p5142
sg39
S'agclim'
p5143
sg41
g42
sg43
I4326
sg44
S'2070'
p5144
sssS'he2650'
p5145
(dp5146
S'bio06'
p5147
(dp5148
g8
S'2015-03-17 09:11:15'
p5149
sg10
S'no'
p5150
sg12
S'he2650.bio06'
p5151
sg14
I208
sg15
S'bio06'
p5152
sg17
S'Min Temperature of Coldest Month'
p5153
sg19
S'26'
p5154
sg21
S'he2650'
p5155
sg23
S'../views/GTiff/agclim.he2650.bio06.tif'
p5156
sg25
S'agclimate'
p5157
sg27
S'agclim.he2650.bio06'
p5158
sg29
S'6510'
p5159
sg31
S'Min Temperature of Coldest Month'
p5160
sg33
g34
sg35
g36
sg37
S'agclim.he2650.bio06.tif'
p5161
sg39
S'agclim'
p5162
sg41
g42
sg43
I4326
sg44
S'2050'
p5163
ssS'bio12'
p5164
(dp5165
g8
S'2015-03-17 09:11:15'
p5166
sg10
S'no'
p5167
sg12
S'he2650.bio12'
p5168
sg14
I340
sg15
S'bio12'
p5169
sg17
S'Annual Precipitation'
p5170
sg19
S'26'
p5171
sg21
S'he2650'
p5172
sg23
S'../views/GTiff/agclim.he2650.bio12.tif'
p5173
sg25
S'agclimate'
p5174
sg27
S'agclim.he2650.bio12'
p5175
sg29
S'6511'
p5176
sg31
S'Annual Precipitation'
p5177
sg33
g34
sg35
g36
sg37
S'agclim.he2650.bio12.tif'
p5178
sg39
S'agclim'
p5179
sg41
g42
sg43
I4326
sg44
S'2050'
p5180
ssS'gdd5'
p5181
(dp5182
g8
S'2015-03-17 09:11:15'
p5183
sg10
S'no'
p5184
sg12
S'he2650.gdd5'
p5185
sg14
I157
sg15
S'gdd5'
p5186
sg17
S'Growing Degree Days 5C Baseline'
p5187
sg19
S'26'
p5188
sg21
S'he2650'
p5189
sg23
S'../views/GTiff/agclim.he2650.gdd5.tif'
p5190
sg25
S'agclimate'
p5191
sg27
S'agclim.he2650.gdd5'
p5192
sg29
S'6512'
p5193
sg31
S'Growing Degree Days 5C Baseline'
p5194
sg33
g34
sg35
g36
sg37
S'agclim.he2650.gdd5.tif'
p5195
sg39
S'agclim'
p5196
sg41
g42
sg43
I4326
sg44
S'2050'
p5197
ssS'aridity'
p5198
(dp5199
g8
S'2015-03-17 09:11:15'
p5200
sg10
S'no'
p5201
sg12
S'he2650.aridity'
p5202
sg14
I253
sg15
S'aridity'
p5203
sg17
S'CRU Metric of Mean Annual Aridity'
p5204
sg19
S'26'
p5205
sg21
S'he2650'
p5206
sg23
S'../views/GTiff/agclim.he2650.aridity.tif'
p5207
sg25
S'agclimate'
p5208
sg27
S'agclim.he2650.aridity'
p5209
sg29
S'6541'
p5210
sg31
S'CRU Metric of Mean Annual Aridity'
p5211
sg33
g34
sg35
g36
sg37
S'agclim.he2650.aridity.tif'
p5212
sg39
S'agclim'
p5213
sg41
g42
sg43
I4326
sg44
S'2050'
p5214
ssS'petmn'
p5215
(dp5216
g8
S'2015-03-17 09:11:15'
p5217
sg10
S'no'
p5218
sg12
S'he2650.petmn'
p5219
sg14
I9
sg15
S'petmn'
p5220
sg17
S'CRU Mean Annual Evapotranspiration'
p5221
sg19
S'26'
p5222
sg21
g5145
sg23
S'../views/GTiff/agclim.he2650.petmn.tif'
p5223
sg25
S'agclimate'
p5224
sg27
S'agclim.he2650.petmn'
p5225
sg29
S'6542'
p5226
sg31
S'CRU Mean Annual Evapotranspiration'
p5227
sg33
g34
sg35
g36
sg37
S'agclim.he2650.petmn.tif'
p5228
sg39
S'agclim'
p5229
sg41
g42
sg43
I4326
sg44
S'2050'
p5230
sssS'current'
p5231
(dp5232
S'bio06'
p5233
(dp5234
g8
S'2015-03-17 09:11:15'
p5235
sg10
S'no'
p5236
sg12
S'current.bio06'
p5237
sg14
I125
sg15
S'bio06'
p5238
sg17
S'Min Temperature of Coldest Month'
p5239
sg19
S'current'
p5240
sg21
g5231
sg23
S'../views/GTiff/agclim.current.bio06.tif'
p5241
sg25
S'agclimate'
p5242
sg27
S'agclim.current.bio06'
p5243
sg29
S'6513'
p5244
sg31
S'Min Temperature of Coldest Month'
p5245
sg33
g34
sg35
g36
sg37
S'agclim.current.bio06.tif'
p5246
sg39
S'agclim'
p5247
sg41
g42
sg43
I4326
sg44
S'current'
p5248
ssS'bio12'
p5249
(dp5250
g8
S'2015-03-17 09:11:15'
p5251
sg10
S'no'
p5252
sg12
S'current.bio12'
p5253
sg14
I238
sg15
S'bio12'
p5254
sg17
S'Annual Precipitation'
p5255
sg19
S'current'
p5256
sg21
S'current'
p5257
sg23
S'../views/GTiff/agclim.current.bio12.tif'
p5258
sg25
S'agclimate'
p5259
sg27
S'agclim.current.bio12'
p5260
sg29
S'6514'
p5261
sg31
S'Annual Precipitation'
p5262
sg33
g34
sg35
g36
sg37
S'agclim.current.bio12.tif'
p5263
sg39
S'agclim'
p5264
sg41
g42
sg43
I4326
sg44
S'current'
p5265
ssS'gdd5'
p5266
(dp5267
g8
S'2015-03-17 09:11:15'
p5268
sg10
S'yes'
p5269
sg12
S'current.gdd5'
p5270
sg14
I166
sg15
S'gdd5'
p5271
sg17
S'Growing Degree Days 5C Baseline'
p5272
sg19
S'current'
p5273
sg21
S'current'
p5274
sg23
S'../views/GTiff/agclim.current.gdd5.tif'
p5275
sg25
S'agclimate'
p5276
sg27
S'agclim.current.gdd5'
p5277
sg29
S'6515'
p5278
sg31
S'Growing Degree Days 5C Baseline'
p5279
sg33
g34
sg35
g36
sg37
S'agclim.current.gdd5.tif'
p5280
sg39
S'agclim'
p5281
sg41
g42
sg43
I4326
sg44
S'current'
p5282
ssS'aridity'
p5283
(dp5284
g8
S'2015-03-17 09:11:15'
p5285
sg10
S'yes'
p5286
sg12
S'current.aridity'
p5287
sg14
I261
sg15
S'aridity'
p5288
sg17
S'CRU Metric of Mean Annual Aridity'
p5289
sg19
S'current'
p5290
sg21
S'current'
p5291
sg23
S'../views/GTiff/agclim.current.aridity.tif'
p5292
sg25
S'agclimate'
p5293
sg27
S'agclim.current.aridity'
p5294
sg29
S'6516'
p5295
sg31
S'CRU Metric of Mean Annual Aridity'
p5296
sg33
g34
sg35
g36
sg37
S'agclim.current.aridity.tif'
p5297
sg39
S'agclim'
p5298
sg41
g42
sg43
I4326
sg44
S'current'
p5299
ssS'petmn'
p5300
(dp5301
g8
S'2015-03-17 09:11:15'
p5302
sg10
S'yes'
p5303
sg12
S'current.petmn'
p5304
sg14
I312
sg15
S'petmn'
p5305
sg17
S'CRU Mean Annual Evapotranspiration'
p5306
sg19
S'current'
p5307
sg21
S'current'
p5308
sg23
S'../views/GTiff/agclim.current.petmn.tif'
p5309
sg25
S'agclimate'
p5310
sg27
S'agclim.current.petmn'
p5311
sg29
S'6517'
p5312
sg31
S'CRU Mean Annual Evapotranspiration'
p5313
sg33
g34
sg35
g36
sg37
S'agclim.current.petmn.tif'
p5314
sg39
S'agclim'
p5315
sg41
g42
sg43
I4326
sg44
S'current'
p5316
sssS'he6050'
p5317
(dp5318
S'bio06'
p5319
(dp5320
g8
S'2015-03-17 09:11:15'
p5321
sg10
S'no'
p5322
sg12
S'he6050.bio06'
p5323
sg14
I82
sg15
S'bio06'
p5324
sg17
S'Min Temperature of Coldest Month'
p5325
sg19
S'60'
p5326
sg21
g5317
sg23
S'../views/GTiff/agclim.he6050.bio06.tif'
p5327
sg25
S'agclimate'
p5328
sg27
S'agclim.he6050.bio06'
p5329
sg29
S'6518'
p5330
sg31
S'Min Temperature of Coldest Month'
p5331
sg33
g34
sg35
g36
sg37
S'agclim.he6050.bio06.tif'
p5332
sg39
S'agclim'
p5333
sg41
g42
sg43
I4326
sg44
S'2050'
p5334
ssS'bio12'
p5335
(dp5336
g8
S'2015-03-17 09:11:15'
p5337
sg10
S'no'
p5338
sg12
S'he6050.bio12'
p5339
sg14
I311
sg15
S'bio12'
p5340
sg17
S'Annual Precipitation'
p5341
sg19
S'60'
p5342
sg21
S'he6050'
p5343
sg23
S'../views/GTiff/agclim.he6050.bio12.tif'
p5344
sg25
S'agclimate'
p5345
sg27
S'agclim.he6050.bio12'
p5346
sg29
S'6519'
p5347
sg31
S'Annual Precipitation'
p5348
sg33
g34
sg35
g36
sg37
S'agclim.he6050.bio12.tif'
p5349
sg39
S'agclim'
p5350
sg41
g42
sg43
I4326
sg44
S'2050'
p5351
ssS'gdd5'
p5352
(dp5353
g8
S'2015-03-17 09:11:15'
p5354
sg10
S'no'
p5355
sg12
S'he6050.gdd5'
p5356
sg14
I113
sg15
S'gdd5'
p5357
sg17
S'Growing Degree Days 5C Baseline'
p5358
sg19
S'60'
p5359
sg21
S'he6050'
p5360
sg23
S'../views/GTiff/agclim.he6050.gdd5.tif'
p5361
sg25
S'agclimate'
p5362
sg27
S'agclim.he6050.gdd5'
p5363
sg29
S'6520'
p5364
sg31
S'Growing Degree Days 5C Baseline'
p5365
sg33
g34
sg35
g36
sg37
S'agclim.he6050.gdd5.tif'
p5366
sg39
S'agclim'
p5367
sg41
g42
sg43
I4326
sg44
S'2050'
p5368
ssS'aridity'
p5369
(dp5370
g8
S'2015-03-17 09:11:15'
p5371
sg10
S'no'
p5372
sg12
S'he6050.aridity'
p5373
sg14
I151
sg15
S'aridity'
p5374
sg17
S'CRU Metric of Mean Annual Aridity'
p5375
sg19
S'60'
p5376
sg21
S'he6050'
p5377
sg23
S'../views/GTiff/agclim.he6050.aridity.tif'
p5378
sg25
S'agclimate'
p5379
sg27
S'agclim.he6050.aridity'
p5380
sg29
S'6521'
p5381
sg31
S'CRU Metric of Mean Annual Aridity'
p5382
sg33
g34
sg35
g36
sg37
S'agclim.he6050.aridity.tif'
p5383
sg39
S'agclim'
p5384
sg41
g42
sg43
I4326
sg44
S'2050'
p5385
ssS'petmn'
p5386
(dp5387
g8
S'2015-03-17 09:11:15'
p5388
sg10
S'no'
p5389
sg12
S'he6050.petmn'
p5390
sg14
I236
sg15
S'petmn'
p5391
sg17
S'CRU Mean Annual Evapotranspiration'
p5392
sg19
S'60'
p5393
sg21
S'he6050'
p5394
sg23
S'../views/GTiff/agclim.he6050.petmn.tif'
p5395
sg25
S'agclimate'
p5396
sg27
S'agclim.he6050.petmn'
p5397
sg29
S'6522'
p5398
sg31
S'CRU Mean Annual Evapotranspiration'
p5399
sg33
g34
sg35
g36
sg37
S'agclim.he6050.petmn.tif'
p5400
sg39
S'agclim'
p5401
sg41
g42
sg43
I4326
sg44
S'2050'
p5402
sssS'he4550'
p5403
(dp5404
S'bio06'
p5405
(dp5406
g8
S'2015-03-17 09:11:15'
p5407
sg10
S'no'
p5408
sg12
S'he4550.bio06'
p5409
sg14
I285
sg15
S'bio06'
p5410
sg17
S'Min Temperature of Coldest Month'
p5411
sg19
S'45'
p5412
sg21
S'he4550'
p5413
sg23
S'../views/GTiff/agclim.he4550.bio06.tif'
p5414
sg25
S'agclimate'
p5415
sg27
S'agclim.he4550.bio06'
p5416
sg29
S'6528'
p5417
sg31
S'Min Temperature of Coldest Month'
p5418
sg33
g34
sg35
g36
sg37
S'agclim.he4550.bio06.tif'
p5419
sg39
S'agclim'
p5420
sg41
g42
sg43
I4326
sg44
S'2050'
p5421
ssS'bio12'
p5422
(dp5423
g8
S'2015-03-17 09:11:15'
p5424
sg10
S'no'
p5425
sg12
S'he4550.bio12'
p5426
sg14
I226
sg15
S'bio12'
p5427
sg17
S'Annual Precipitation'
p5428
sg19
S'45'
p5429
sg21
S'he4550'
p5430
sg23
S'../views/GTiff/agclim.he4550.bio12.tif'
p5431
sg25
S'agclimate'
p5432
sg27
S'agclim.he4550.bio12'
p5433
sg29
S'6529'
p5434
sg31
S'Annual Precipitation'
p5435
sg33
g34
sg35
g36
sg37
S'agclim.he4550.bio12.tif'
p5436
sg39
S'agclim'
p5437
sg41
g42
sg43
I4326
sg44
S'2050'
p5438
ssS'gdd5'
p5439
(dp5440
g8
S'2015-03-17 09:11:15'
p5441
sg10
S'no'
p5442
sg12
S'he4550.gdd5'
p5443
sg14
I276
sg15
S'gdd5'
p5444
sg17
S'Growing Degree Days 5C Baseline'
p5445
sg19
S'45'
p5446
sg21
S'he4550'
p5447
sg23
S'../views/GTiff/agclim.he4550.gdd5.tif'
p5448
sg25
S'agclimate'
p5449
sg27
S'agclim.he4550.gdd5'
p5450
sg29
S'6530'
p5451
sg31
S'Growing Degree Days 5C Baseline'
p5452
sg33
g34
sg35
g36
sg37
S'agclim.he4550.gdd5.tif'
p5453
sg39
S'agclim'
p5454
sg41
g42
sg43
I4326
sg44
S'2050'
p5455
ssS'aridity'
p5456
(dp5457
g8
S'2015-03-17 09:11:15'
p5458
sg10
S'no'
p5459
sg12
S'he4550.aridity'
p5460
sg14
I322
sg15
S'aridity'
p5461
sg17
S'CRU Metric of Mean Annual Aridity'
p5462
sg19
S'45'
p5463
sg21
S'he4550'
p5464
sg23
S'../views/GTiff/agclim.he4550.aridity.tif'
p5465
sg25
S'agclimate'
p5466
sg27
S'agclim.he4550.aridity'
p5467
sg29
S'6531'
p5468
sg31
S'CRU Metric of Mean Annual Aridity'
p5469
sg33
g34
sg35
g36
sg37
S'agclim.he4550.aridity.tif'
p5470
sg39
S'agclim'
p5471
sg41
g42
sg43
I4326
sg44
S'2050'
p5472
ssS'petmn'
p5473
(dp5474
g8
S'2015-03-17 09:11:15'
p5475
sg10
S'no'
p5476
sg12
S'he4550.petmn'
p5477
sg14
I204
sg15
S'petmn'
p5478
sg17
S'CRU Mean Annual Evapotranspiration'
p5479
sg19
S'45'
p5480
sg21
g5403
sg23
S'../views/GTiff/agclim.he4550.petmn.tif'
p5481
sg25
S'agclimate'
p5482
sg27
S'agclim.he4550.petmn'
p5483
sg29
S'6532'
p5484
sg31
S'CRU Mean Annual Evapotranspiration'
p5485
sg33
g34
sg35
g36
sg37
S'agclim.he4550.petmn.tif'
p5486
sg39
S'agclim'
p5487
sg41
g42
sg43
I4326
sg44
S'2050'
p5488
sssS'he6070'
p5489
(dp5490
S'bio06'
p5491
(dp5492
g8
S'2015-03-17 09:11:15'
p5493
sg10
S'no'
p5494
sg12
S'he6070.bio06'
p5495
sg14
I278
sg15
S'bio06'
p5496
sg17
S'Min Temperature of Coldest Month'
p5497
sg19
S'60'
p5498
sg21
S'he6070'
p5499
sg23
S'../views/GTiff/agclim.he6070.bio06.tif'
p5500
sg25
S'agclimate'
p5501
sg27
S'agclim.he6070.bio06'
p5502
sg29
S'6523'
p5503
sg31
S'Min Temperature of Coldest Month'
p5504
sg33
g34
sg35
g36
sg37
S'agclim.he6070.bio06.tif'
p5505
sg39
S'agclim'
p5506
sg41
g42
sg43
I4326
sg44
S'2070'
p5507
ssS'bio12'
p5508
(dp5509
g8
S'2015-03-17 09:11:15'
p5510
sg10
S'no'
p5511
sg12
S'he6070.bio12'
p5512
sg14
I300
sg15
S'bio12'
p5513
sg17
S'Annual Precipitation'
p5514
sg19
S'60'
p5515
sg21
S'he6070'
p5516
sg23
S'../views/GTiff/agclim.he6070.bio12.tif'
p5517
sg25
S'agclimate'
p5518
sg27
S'agclim.he6070.bio12'
p5519
sg29
S'6524'
p5520
sg31
S'Annual Precipitation'
p5521
sg33
g34
sg35
g36
sg37
S'agclim.he6070.bio12.tif'
p5522
sg39
S'agclim'
p5523
sg41
g42
sg43
I4326
sg44
S'2070'
p5524
ssS'gdd5'
p5525
(dp5526
g8
S'2015-03-17 09:11:15'
p5527
sg10
S'no'
p5528
sg12
S'he6070.gdd5'
p5529
sg14
I15
sg15
S'gdd5'
p5530
sg17
S'Growing Degree Days 5C Baseline'
p5531
sg19
S'60'
p5532
sg21
g5489
sg23
S'../views/GTiff/agclim.he6070.gdd5.tif'
p5533
sg25
S'agclimate'
p5534
sg27
S'agclim.he6070.gdd5'
p5535
sg29
S'6525'
p5536
sg31
S'Growing Degree Days 5C Baseline'
p5537
sg33
g34
sg35
g36
sg37
S'agclim.he6070.gdd5.tif'
p5538
sg39
S'agclim'
p5539
sg41
g42
sg43
I4326
sg44
S'2070'
p5540
ssS'aridity'
p5541
(dp5542
g8
S'2015-03-17 09:11:15'
p5543
sg10
S'no'
p5544
sg12
S'he6070.aridity'
p5545
sg14
I59
sg15
S'aridity'
p5546
sg17
S'CRU Metric of Mean Annual Aridity'
p5547
sg19
S'60'
p5548
sg21
S'he6070'
p5549
sg23
S'../views/GTiff/agclim.he6070.aridity.tif'
p5550
sg25
S'agclimate'
p5551
sg27
S'agclim.he6070.aridity'
p5552
sg29
S'6526'
p5553
sg31
S'CRU Metric of Mean Annual Aridity'
p5554
sg33
g34
sg35
g36
sg37
S'agclim.he6070.aridity.tif'
p5555
sg39
S'agclim'
p5556
sg41
g42
sg43
I4326
sg44
S'2070'
p5557
ssS'petmn'
p5558
(dp5559
g8
S'2015-03-17 09:11:15'
p5560
sg10
S'no'
p5561
sg12
S'he6070.petmn'
p5562
sg14
I129
sg15
S'petmn'
p5563
sg17
S'CRU Mean Annual Evapotranspiration'
p5564
sg19
S'60'
p5565
sg21
S'he6070'
p5566
sg23
S'../views/GTiff/agclim.he6070.petmn.tif'
p5567
sg25
S'agclimate'
p5568
sg27
S'agclim.he6070.petmn'
p5569
sg29
S'6527'
p5570
sg31
S'CRU Mean Annual Evapotranspiration'
p5571
sg33
g34
sg35
g36
sg37
S'agclim.he6070.petmn.tif'
p5572
sg39
S'agclim'
p5573
sg41
g42
sg43
I4326
sg44
S'2070'
p5574
sssS'he4570'
p5575
(dp5576
S'bio06'
p5577
(dp5578
g8
S'2015-03-17 09:11:15'
p5579
sg10
S'no'
p5580
sg12
S'he4570.bio06'
p5581
sg14
I328
sg15
S'bio06'
p5582
sg17
S'Min Temperature of Coldest Month'
p5583
sg19
S'45'
p5584
sg21
S'he4570'
p5585
sg23
S'../views/GTiff/agclim.he4570.bio06.tif'
p5586
sg25
S'agclimate'
p5587
sg27
S'agclim.he4570.bio06'
p5588
sg29
S'6533'
p5589
sg31
S'Min Temperature of Coldest Month'
p5590
sg33
g34
sg35
g36
sg37
S'agclim.he4570.bio06.tif'
p5591
sg39
S'agclim'
p5592
sg41
g42
sg43
I4326
sg44
S'2070'
p5593
ssS'bio12'
p5594
(dp5595
g8
S'2015-03-17 09:11:15'
p5596
sg10
S'no'
p5597
sg12
S'he4570.bio12'
p5598
sg14
I6
sg15
S'bio12'
p5599
sg17
S'Annual Precipitation'
p5600
sg19
S'45'
p5601
sg21
g5575
sg23
S'../views/GTiff/agclim.he4570.bio12.tif'
p5602
sg25
S'agclimate'
p5603
sg27
S'agclim.he4570.bio12'
p5604
sg29
S'6534'
p5605
sg31
S'Annual Precipitation'
p5606
sg33
g34
sg35
g36
sg37
S'agclim.he4570.bio12.tif'
p5607
sg39
S'agclim'
p5608
sg41
g42
sg43
I4326
sg44
S'2070'
p5609
ssS'gdd5'
p5610
(dp5611
g8
S'2015-03-17 09:11:15'
p5612
sg10
S'no'
p5613
sg12
S'he4570.gdd5'
p5614
sg14
I245
sg15
S'gdd5'
p5615
sg17
S'Growing Degree Days 5C Baseline'
p5616
sg19
S'45'
p5617
sg21
S'he4570'
p5618
sg23
S'../views/GTiff/agclim.he4570.gdd5.tif'
p5619
sg25
S'agclimate'
p5620
sg27
S'agclim.he4570.gdd5'
p5621
sg29
S'6535'
p5622
sg31
S'Growing Degree Days 5C Baseline'
p5623
sg33
g34
sg35
g36
sg37
S'agclim.he4570.gdd5.tif'
p5624
sg39
S'agclim'
p5625
sg41
g42
sg43
I4326
sg44
S'2070'
p5626
ssS'aridity'
p5627
(dp5628
g8
S'2015-03-17 09:11:15'
p5629
sg10
S'no'
p5630
sg12
S'he4570.aridity'
p5631
sg14
I331
sg15
S'aridity'
p5632
sg17
S'CRU Metric of Mean Annual Aridity'
p5633
sg19
S'45'
p5634
sg21
S'he4570'
p5635
sg23
S'../views/GTiff/agclim.he4570.aridity.tif'
p5636
sg25
S'agclimate'
p5637
sg27
S'agclim.he4570.aridity'
p5638
sg29
S'6536'
p5639
sg31
S'CRU Metric of Mean Annual Aridity'
p5640
sg33
g34
sg35
g36
sg37
S'agclim.he4570.aridity.tif'
p5641
sg39
S'agclim'
p5642
sg41
g42
sg43
I4326
sg44
S'2070'
p5643
ssS'petmn'
p5644
(dp5645
g8
S'2015-03-17 09:11:15'
p5646
sg10
S'no'
p5647
sg12
S'he4570.petmn'
p5648
sg14
I23
sg15
S'petmn'
p5649
sg17
S'CRU Mean Annual Evapotranspiration'
p5650
sg19
S'45'
p5651
sg21
S'he4570'
p5652
sg23
S'../views/GTiff/agclim.he4570.petmn.tif'
p5653
sg25
S'agclimate'
p5654
sg27
S'agclim.he4570.petmn'
p5655
sg29
S'6537'
p5656
sg31
S'CRU Mean Annual Evapotranspiration'
p5657
sg33
g34
sg35
g36
sg37
S'agclim.he4570.petmn.tif'
p5658
sg39
S'agclim'
p5659
sg41
g42
sg43
I4326
sg44
S'2070'
p5660
ssssS'env'
p5661
(dp5662
S'hwsd'
p5663
(dp5664
S't_gravel'
p5665
(dp5666
g8
S'2015-03-17 09:11:15'
p5667
sg10
S'yes'
p5668
sg12
S'hwsd.t_gravel'
p5669
sg14
I22
sg15
S't_gravel'
p5670
sg17
S'HWSD topsoil gravel'
p5671
sg19
S'current'
p5672
sg21
g5663
sg23
S'../views/GTiff/env.hwsd.t_gravel.tif'
p5673
sg25
S'environmental'
p5674
sg27
S'env.hwsd.t_gravel'
p5675
sg29
S'6346'
p5676
sg31
S'Harmonized World Soil Database topsoil gravel (% vol.)'
p5677
sg33
g34
sg35
g36
sg37
S'env.hwsd.t_gravel.tif'
p5678
sg39
g5661
sg41
g42
sg43
I4326
sg44
S'current'
p5679
ssS't_sand'
p5680
(dp5681
g8
S'2015-03-17 09:11:15'
p5682
sg10
S'yes'
p5683
sg12
S'hwsd.t_sand'
p5684
sg14
I302
sg15
S't_sand'
p5685
sg17
S'HWSD topsoil sand'
p5686
sg19
S'current'
p5687
sg21
S'hwsd'
p5688
sg23
S'../views/GTiff/env.hwsd.t_sand.tif'
p5689
sg25
S'environmental'
p5690
sg27
S'env.hwsd.t_sand'
p5691
sg29
S'6347'
p5692
sg31
S'Harmonized World Soil Database topsoil sand (% frac.)'
p5693
sg33
g34
sg35
g36
sg37
S'env.hwsd.t_sand.tif'
p5694
sg39
S'env'
p5695
sg41
g42
sg43
I4326
sg44
S'current'
p5696
ssS't_ph'
p5697
(dp5698
g8
S'2015-03-17 09:11:15'
p5699
sg10
S'yes'
p5700
sg12
S'hwsd.t_ph'
p5701
sg14
I26
sg15
S't_ph'
p5702
sg17
S'HWSD topsoil pH'
p5703
sg19
S'current'
p5704
sg21
S'hwsd'
p5705
sg23
S'../views/GTiff/env.hwsd.t_ph.tif'
p5706
sg25
S'environmental'
p5707
sg27
S'env.hwsd.t_ph'
p5708
sg29
S'6348'
p5709
sg31
S'Harmonized World Soil Database topsoil pH (log[H+])'
p5710
sg33
g34
sg35
g36
sg37
S'env.hwsd.t_ph.tif'
p5711
sg39
S'env'
p5712
sg41
g42
sg43
I4326
sg44
S'current'
p5713
ssS't_caco3'
p5714
(dp5715
g8
S'2015-03-17 09:11:15'
p5716
sg10
S'yes'
p5717
sg12
S'hwsd.t_caco3'
p5718
sg14
I214
sg15
S't_caco3'
p5719
sg17
S'HWSD topsoil CACO3'
p5720
sg19
S'current'
p5721
sg21
S'hwsd'
p5722
sg23
S'../views/GTiff/env.hwsd.t_caco3.tif'
p5723
sg25
S'environmental'
p5724
sg27
S'env.hwsd.t_caco3'
p5725
sg29
S'6349'
p5726
sg31
S'Harmonized World Soil Database topsoil CACO3 (% weight)'
p5727
sg33
g34
sg35
g36
sg37
S'env.hwsd.t_caco3.tif'
p5728
sg39
S'env'
p5729
sg41
g42
sg43
I4326
sg44
S'current'
p5730
ssS't_oc'
p5731
(dp5732
g8
S'2015-03-17 09:11:15'
p5733
sg10
S'yes'
p5734
sg12
S'hwsd.t_oc'
p5735
sg14
I25
sg15
S't_oc'
p5736
sg17
S'HWSD topsoil oc'
p5737
sg19
S'current'
p5738
sg21
S'hwsd'
p5739
sg23
S'../views/GTiff/env.hwsd.t_oc.tif'
p5740
sg25
S'environmental'
p5741
sg27
S'env.hwsd.t_oc'
p5742
sg29
S'6355'
p5743
sg31
S'Harmonized World Soil Database topsoil organic carbon (% weight)'
p5744
sg33
g34
sg35
g36
sg37
S'env.hwsd.t_oc.tif'
p5745
sg39
S'env'
p5746
sg41
g42
sg43
I4326
sg44
S'current'
p5747
ssS't_silt'
p5748
(dp5749
g8
S'2015-03-17 09:11:15'
p5750
sg10
S'yes'
p5751
sg12
S'hwsd.t_silt'
p5752
sg14
I289
sg15
S't_silt'
p5753
sg17
S'HWSD topsoil silt'
p5754
sg19
S'current'
p5755
sg21
S'hwsd'
p5756
sg23
S'../views/GTiff/env.hwsd.t_silt.tif'
p5757
sg25
S'environmental'
p5758
sg27
S'env.hwsd.t_silt'
p5759
sg29
S'6351'
p5760
sg31
S'Harmonized World Soil Database topsoil silt (% frac.)'
p5761
sg33
g34
sg35
g36
sg37
S'env.hwsd.t_silt.tif'
p5762
sg39
S'env'
p5763
sg41
g42
sg43
I4326
sg44
S'current'
p5764
ssS't_clay'
p5765
(dp5766
g8
S'2015-03-17 09:11:15'
p5767
sg10
S'yes'
p5768
sg12
S'hwsd.t_clay'
p5769
sg14
I54
sg15
S't_clay'
p5770
sg17
S'HWSD topsoil clay'
p5771
sg19
S'current'
p5772
sg21
S'hwsd'
p5773
sg23
S'../views/GTiff/env.hwsd.t_clay.tif'
p5774
sg25
S'environmental'
p5775
sg27
S'env.hwsd.t_clay'
p5776
sg29
S'6352'
p5777
sg31
S'Harmonized World Soil Database topsoil clay (% frac.)'
p5778
sg33
g34
sg35
g36
sg37
S'env.hwsd.t_clay.tif'
p5779
sg39
S'env'
p5780
sg41
g42
sg43
I4326
sg44
S'current'
p5781
ssS't_caso4'
p5782
(dp5783
g8
S'2015-03-17 09:11:15'
p5784
sg10
S'yes'
p5785
sg12
S'hwsd.t_caso4'
p5786
sg14
I176
sg15
S't_caso4'
p5787
sg17
S'HWSD topsoil CASO4'
p5788
sg19
S'current'
p5789
sg21
S'hwsd'
p5790
sg23
S'../views/GTiff/env.hwsd.t_caso4.tif'
p5791
sg25
S'environmental'
p5792
sg27
S'env.hwsd.t_caso4'
p5793
sg29
S'6353'
p5794
sg31
S'Harmonized World Soil Database topsoil CASO4 (% weight)'
p5795
sg33
g34
sg35
g36
sg37
S'env.hwsd.t_caso4.tif'
p5796
sg39
S'env'
p5797
sg41
g42
sg43
I4326
sg44
S'current'
p5798
ssS't_cecsoil'
p5799
(dp5800
g8
S'2015-03-17 09:11:15'
p5801
sg10
S'yes'
p5802
sg12
S'hwsd.t_cecsoil'
p5803
sg14
I203
sg15
S't_cecsoil'
p5804
sg17
S'HWSD topsoil CECsoil'
p5805
sg19
S'current'
p5806
sg21
S'hwsd'
p5807
sg23
S'../views/GTiff/env.hwsd.t_cecsoil.tif'
p5808
sg25
S'environmental'
p5809
sg27
S'env.hwsd.t_cecsoil'
p5810
sg29
S'6354'
p5811
sg31
S'Harmonized World Soil Database topsoil CECsoil (cmol/kg)'
p5812
sg33
g34
sg35
g36
sg37
S'env.hwsd.t_cecsoil.tif'
p5813
sg39
S'env'
p5814
sg41
g42
sg43
I4326
sg44
S'current'
p5815
ssS't_ece'
p5816
(dp5817
g8
S'2015-03-17 09:11:15'
p5818
sg10
S'yes'
p5819
sg12
S'hwsd.t_ece'
p5820
sg14
I294
sg15
S't_ece'
p5821
sg17
S'HWSD topsoil ECE'
p5822
sg19
S'current'
p5823
sg21
S'hwsd'
p5824
sg23
S'../views/GTiff/env.hwsd.t_ece.tif'
p5825
sg25
S'environmental'
p5826
sg27
S'env.hwsd.t_ece'
p5827
sg29
S'6350'
p5828
sg31
S'Harmonized World Soil Database topsoil ECE (salinity dS/m)'
p5829
sg33
g34
sg35
g36
sg37
S'env.hwsd.t_ece.tif'
p5830
sg39
S'env'
p5831
sg41
g42
sg43
I4326
sg44
S'current'
p5832
sssS'gmted2010'
p5833
(dp5834
S'elev_mean'
p5835
(dp5836
g8
S'2015-03-17 09:11:15'
p5837
sg10
S'yes'
p5838
sg12
S'gmted2010.elev_mean'
p5839
sg14
I335
sg15
S'elev_mean'
p5840
sg17
S'USGS GMTED2010 Mean Elevation'
p5841
sg19
S'current'
p5842
sg21
g5833
sg23
S'../views/GTiff/env.gmted2010.elev_mean.tif'
p5843
sg25
S'environmental'
p5844
sg27
S'env.gmted2010.elev_mean'
p5845
sg29
S'6345'
p5846
sg31
S'USGS GMTED2010 Mean Elevation'
p5847
sg33
g34
sg35
g36
sg37
S'env.gmted2010.elev_mean.tif'
p5848
sg39
S'env'
p5849
sg41
g42
sg43
I4326
sg44
S'current'
p5850
ssssS'spat'
p5851
(dp5852
S'dist'
p5853
(dp5854
S'pc2'
p5855
(dp5856
g8
S'2015-03-17 09:11:15'
p5857
sg10
S'yes'
p5858
sg12
S'dist.pc2'
p5859
sg14
I83
sg15
S'pc2'
p5860
sg17
S'PC Axis 2 of Distance Matrix'
p5861
sg19
S'current'
p5862
sg21
g5853
sg23
S'../views/GTiff/spat.dist.pc2.tif'
p5863
sg25
S'spatial'
p5864
sg27
S'spat.dist.pc2'
p5865
sg29
S'6166'
p5866
sg31
S'PC Axis 2 of Distance Matrix spatial'
p5867
sg33
g34
sg35
g36
sg37
S'spat.dist.pc2.tif'
p5868
sg39
g5851
sg41
g42
sg43
I4326
sg44
S'current'
p5869
ssS'pc3'
p5870
(dp5871
g8
S'2015-03-17 09:11:15'
p5872
sg10
S'yes'
p5873
sg12
S'dist.pc3'
p5874
sg14
I146
sg15
S'pc3'
p5875
sg17
S'PC Axis 3 of Distance Matrix'
p5876
sg19
S'current'
p5877
sg21
S'dist'
p5878
sg23
S'../views/GTiff/spat.dist.pc3.tif'
p5879
sg25
S'spatial'
p5880
sg27
S'spat.dist.pc3'
p5881
sg29
S'6167'
p5882
sg31
S'PC Axis 3 of Distance Matrix spatial'
p5883
sg33
g34
sg35
g36
sg37
S'spat.dist.pc3.tif'
p5884
sg39
S'spat'
p5885
sg41
g42
sg43
I4326
sg44
S'current'
p5886
ssS'pc1'
p5887
(dp5888
g8
S'2015-03-17 09:11:15'
p5889
sg10
S'yes'
p5890
sg12
S'dist.pc1'
p5891
sg14
I139
sg15
S'pc1'
p5892
sg17
S'PC Axis 1 of Distance Matrix'
p5893
sg19
S'current'
p5894
sg21
S'dist'
p5895
sg23
S'../views/GTiff/spat.dist.pc1.tif'
p5896
sg25
S'spatial'
p5897
sg27
S'spat.dist.pc1'
p5898
sg29
S'6168'
p5899
sg31
S'PC Axis 1 of Distance Matrix spatial'
p5900
sg33
g34
sg35
g36
sg37
S'spat.dist.pc1.tif'
p5901
sg39
S'spat'
p5902
sg41
g42
sg43
I4326
sg44
S'current'
p5903
ssss.