(dp1
S'Bupleurum_odontites'
p2
(dp3
S'metadataUrl'
p4
S'http://lifemapper.org/services/sdm/experiments/1399949'
p5
sS'speciesName'
p6
g2
sS'description'
p7
S'Test run2'
p8
sS'statusModTime'
p9
S'2015-03-13 21:14:27'
p10
sS'bbox'
p11
S'(-179.0, 14.5, -45.0, 83.5)'
p12
sS'id'
p13
S'1399949'
p14
sS'modTime'
p15
S'2015-03-13 21:14:27'
p16
sS'created_at'
p17
S'2015-03-14 05:34:10'
p18
sS'createTime'
p19
S'2015-03-13 21:14:27'
p20
sS'epsgcode'
p21
S'4326'
p22
sS'user'
p23
S'cgwillis'
p24
ssS'Zephyranthes_jonesii'
p25
(dp26
g4
S'http://lifemapper.org/services/sdm/experiments/1399950'
p27
sg6
g25
sg7
S'Test run2'
p28
sg9
S'2015-03-14 00:49:01'
p29
sg11
S'(-179.0, 14.5, -45.0, 83.5)'
p30
sg13
S'1399950'
p31
sg15
S'2015-03-14 00:49:01'
p32
sg17
S'2015-03-14 05:34:14'
p33
sg19
S'2015-03-14 00:49:01'
p34
sg21
S'4326'
p35
sg23
S'cgwillis'
p36
ssS'Allium_hickmanii'
p37
(dp38
g4
S'http://lifemapper.org/services/sdm/experiments/1399951'
p39
sg6
g37
sg7
S'Test run2'
p40
sg9
S'2015-03-13 21:14:18'
p41
sg11
S'(-179.0, 14.5, -45.0, 83.5)'
p42
sg13
S'1399951'
p43
sg15
S'2015-03-13 21:14:18'
p44
sg17
S'2015-03-14 05:34:19'
p45
sg19
S'2015-03-13 21:14:18'
p46
sg21
S'4326'
p47
sg23
S'cgwillis'
p48
ssS'Eriogonum_alpinum'
p49
(dp50
g4
S'http://lifemapper.org/services/sdm/experiments/1399952'
p51
sg6
g49
sg7
S'Test run2'
p52
sg9
S'2015-03-13 22:32:04'
p53
sg11
S'(-179.0, 14.5, -45.0, 83.5)'
p54
sg13
S'1399952'
p55
sg15
S'2015-03-13 22:32:04'
p56
sg17
S'2015-03-14 05:34:24'
p57
sg19
S'2015-03-13 22:32:04'
p58
sg21
S'4326'
p59
sg23
S'cgwillis'
p60
ss.