(dp1
S'Caede'
p2
(dp3
S'metadataUrl'
p4
S'http://lifemapper.org/services/sdm/experiments/1399921'
p5
sS'speciesName'
p6
g2
sS'description'
p7
S'Test run2'
p8
sS'statusModTime'
p9
S'2015-03-12 21:18:05'
p10
sS'bbox'
p11
S'(-179.0, 14.5, -45.0, 83.5)'
p12
sS'id'
p13
S'1399921'
p14
sS'modTime'
p15
S'2015-03-12 21:18:05'
p16
sS'created_at'
p17
S'2015-03-13 09:01:38'
p18
sS'createTime'
p19
S'2015-03-12 21:18:05'
p20
sS'epsgcode'
p21
S'4326'
p22
sS'user'
p23
S'cgwillis'
p24
ssS'Abies_balsamea'
p25
(dp26
g4
S'http://lifemapper.org/services/sdm/experiments/1399922'
p27
sg6
g25
sg7
S'Test run2'
p28
sg9
S'2015-03-13 00:23:26'
p29
sg11
S'(-179.0, 14.5, -45.0, 83.5)'
p30
sg13
S'1399922'
p31
sg15
S'2015-03-13 00:23:26'
p32
sg17
S'2015-03-13 09:03:34'
p33
sg19
S'2015-03-13 00:23:26'
p34
sg21
S'4326'
p35
sg23
S'cgwillis'
p36
ss.