(dp1
S'Bupleurum_odontites'
p2
(dp3
S'prjScns'
p4
(lp5
S'1343'
p6
aS'1347'
p7
aS'1336'
p8
aS'1335'
p9
aS'1345'
p10
aS'1344'
p11
aS'1341'
p12
aS'1349'
p13
aS'1342'
p14
aS'1337'
p15
aS'1340'
p16
aS'1348'
p17
aS'1338'
p18
aS'1346'
p19
aS'1339'
p20
asS'metadataUrl'
p21
S'http://lifemapper.org/services/sdm/experiments/1400186'
p22
sS'speciesName'
p23
g2
sS'description'
p24
S'Description data'
p25
sS'statusModTime'
p26
S'2015-03-17 14:17:01'
p27
sS'occSetId'
p28
S'5665579'
p29
sS'mdlScn'
p30
g19
sS'bbox'
p31
S'(-179.0, 14.5, -45.0, 83.5)'
p32
sS'id'
p33
S'1400186'
p34
sS'modTime'
p35
S'2015-03-17 14:17:01'
p36
sS'algorithm'
p37
ccopy_reg
_reconstructor
p38
(clifemapper.sdm
Algorithm
p39
c__builtin__
object
p40
NtRp41
(dp42
S'code'
p43
S'ATT_MAXENT'
p44
sS'name'
p45
S'Maximum Entropy - ATT Implementation'
p46
sS'parameters'
p47
(lp48
g38
(clifemapper.sdm
AlgorithmParameter
p49
g40
NtRp50
(dp51
g45
S'adjustsampleradius'
p52
sS'min'
p53
S'0'
sS'default'
p54
S'0'
sS'max'
p55
NsS'value'
p56
S'0'
sS'type'
p57
S'Integer'
p58
sbag38
(g49
g40
NtRp59
(dp60
g45
S'appendtoresultsfile'
p61
sg53
S'0'
sg54
S'0'
sg55
S'1'
sg56
S'0'
sg57
S'Integer'
p62
sbag38
(g49
g40
NtRp63
(dp64
g45
S'autofeature'
p65
sg53
S'0'
sg54
S'1'
sg55
S'1'
sg56
S'1'
sg57
S'Integer'
p66
sbag38
(g49
g40
NtRp67
(dp68
g45
S'beta_categorical'
p69
sg53
Nsg54
S'-1.0'
p70
sg55
Nsg56
g70
sg57
S'Float'
p71
sbag38
(g49
g40
NtRp72
(dp73
g45
S'beta_hinge'
p74
sg53
Nsg54
S'-1.0'
p75
sg55
Nsg56
g75
sg57
S'Float'
p76
sbag38
(g49
g40
NtRp77
(dp78
g45
S'beta_lqp'
p79
sg53
Nsg54
S'-1.0'
p80
sg55
Nsg56
g80
sg57
S'Float'
p81
sbag38
(g49
g40
NtRp82
(dp83
g45
S'beta_threshold'
p84
sg53
Nsg54
S'-1.0'
p85
sg55
Nsg56
g85
sg57
S'Float'
p86
sbag38
(g49
g40
NtRp87
(dp88
g45
S'betamultiplier'
p89
sg53
S'0'
sg54
S'1.0'
p90
sg55
Nsg56
g90
sg57
S'Float'
p91
sbag38
(g49
g40
NtRp92
(dp93
g45
S'convergencethreshold'
p94
sg53
S'0'
sg54
S'0.00001'
p95
sg55
Nsg56
g95
sg57
S'Float'
p96
sbag38
(g49
g40
NtRp97
(dp98
g45
S'defaultprevalence'
p99
sg53
S'0.0'
p100
sg54
S'0.5'
p101
sg55
S'1.0'
p102
sg56
g101
sg57
S'Float'
p103
sbag38
(g49
g40
NtRp104
(dp105
g45
S'doclamp'
p106
sg53
S'0'
sg54
S'1'
sg55
S'1'
sg56
S'1'
sg57
S'Integer'
p107
sbag38
(g49
g40
NtRp108
(dp109
g45
S'extrapolate'
p110
sg53
S'0'
sg54
S'1'
sg55
S'1'
sg56
S'1'
sg57
S'Integer'
p111
sbag38
(g49
g40
NtRp112
(dp113
g45
S'fadebyclamping'
p114
sg53
S'0'
sg54
S'0'
sg55
S'1'
sg56
S'0'
sg57
S'Integer'
p115
sbag38
(g49
g40
NtRp116
(dp117
g45
S'hinge'
p118
sg53
S'0'
sg54
S'1'
sg55
S'1'
sg56
S'1'
sg57
S'Integer'
p119
sbag38
(g49
g40
NtRp120
(dp121
g45
S'hingethreshold'
p122
sg53
S'0'
sg54
S'15'
p123
sg55
Nsg56
g123
sg57
S'Integer'
p124
sbag38
(g49
g40
NtRp125
(dp126
g45
S'jackknife'
p127
sg53
S'0'
sg54
S'0'
sg55
S'1'
sg56
I1
sg57
S'Integer'
p128
sbag38
(g49
g40
NtRp129
(dp130
g45
S'l2lqthreshold'
p131
sg53
S'0'
sg54
S'10'
p132
sg55
Nsg56
g132
sg57
S'Integer'
p133
sbag38
(g49
g40
NtRp134
(dp135
g45
S'linear'
p136
sg53
S'0'
sg54
S'1'
sg55
S'1'
sg56
S'1'
sg57
S'Integer'
p137
sbag38
(g49
g40
NtRp138
(dp139
g45
S'logscale'
p140
sg53
S'0'
sg54
S'1'
sg55
S'1'
sg56
S'1'
sg57
S'Integer'
p141
sbag38
(g49
g40
NtRp142
(dp143
g45
S'lq2lqptthreshold'
p144
sg53
S'0'
sg54
S'80'
p145
sg55
Nsg56
g145
sg57
S'Integer'
p146
sbag38
(g49
g40
NtRp147
(dp148
g45
S'maximumbackground'
p149
sg53
S'0'
sg54
S'10000'
p150
sg55
Nsg56
g150
sg57
S'Integer'
p151
sbag38
(g49
g40
NtRp152
(dp153
g45
S'maximumiterations'
p154
sg53
S'0'
sg54
S'500'
p155
sg55
Nsg56
g155
sg57
S'Integer'
p156
sbag38
(g49
g40
NtRp157
(dp158
g45
S'outputformat'
p159
sg53
S'0'
sg54
S'1'
sg55
S'2'
sg56
I0
sg57
S'Integer'
p160
sbag38
(g49
g40
NtRp161
(dp162
g45
S'outputgrids'
p163
sg53
S'0'
sg54
S'1'
sg55
S'1'
sg56
S'1'
sg57
S'Integer'
p164
sbag38
(g49
g40
NtRp165
(dp166
g45
S'perspeciesresults'
p167
sg53
S'0'
sg54
S'0'
sg55
S'1'
sg56
S'0'
sg57
S'Integer'
p168
sbag38
(g49
g40
NtRp169
(dp170
g45
S'pictures'
p171
sg53
S'0'
sg54
S'1'
sg55
S'1'
sg56
S'1'
sg57
S'Integer'
p172
sbag38
(g49
g40
NtRp173
(dp174
g45
S'plots'
p175
sg53
S'0'
sg54
S'1'
sg55
S'1'
sg56
S'1'
sg57
S'Integer'
p176
sbag38
(g49
g40
NtRp177
(dp178
g45
S'product'
p179
sg53
S'0'
sg54
S'1'
sg55
S'1'
sg56
S'1'
sg57
S'Integer'
p180
sbag38
(g49
g40
NtRp181
(dp182
g45
S'quadratic'
p183
sg53
S'0'
sg54
S'1'
sg55
S'1'
sg56
S'1'
sg57
S'Integer'
p184
sbag38
(g49
g40
NtRp185
(dp186
g45
S'randomseed'
p187
sg53
S'0'
sg54
S'0'
sg55
S'1'
sg56
S'0'
sg57
S'Integer'
p188
sbag38
(g49
g40
NtRp189
(dp190
g45
S'randomtestpoints'
p191
sg53
S'0'
sg54
S'0'
sg55
S'100'
p192
sg56
S'0'
sg57
S'Integer'
p193
sbag38
(g49
g40
NtRp194
(dp195
g45
S'replicates'
p196
sg53
S'1'
sg54
S'1'
sg55
Nsg56
S'1'
sg57
S'Integer'
p197
sbag38
(g49
g40
NtRp198
(dp199
g45
S'replicatetype'
p200
sg53
S'0'
sg54
S'0'
sg55
S'2'
sg56
S'0'
sg57
S'Integer'
p201
sbag38
(g49
g40
NtRp202
(dp203
g45
S'removeduplicates'
p204
sg53
S'0'
sg54
S'1'
sg55
S'1'
sg56
I1
sg57
S'Integer'
p205
sbag38
(g49
g40
NtRp206
(dp207
g45
S'responsecurves'
p208
sg53
S'0'
sg54
S'0'
sg55
S'1'
sg56
S'0'
sg57
S'Integer'
p209
sbag38
(g49
g40
NtRp210
(dp211
g45
S'responsecurvesexponent'
p212
sg53
S'0'
sg54
S'0'
sg55
S'1'
sg56
S'0'
sg57
S'Integer'
p213
sbag38
(g49
g40
NtRp214
(dp215
g45
S'threshold'
p216
sg53
S'0'
sg54
S'1'
sg55
S'1'
sg56
I0
sg57
S'Integer'
p217
sbag38
(g49
g40
NtRp218
(dp219
g45
S'writebackgroundpredictions'
p220
sg53
S'0'
sg54
S'0'
sg55
S'1'
sg56
S'0'
sg57
S'Integer'
p221
sbag38
(g49
g40
NtRp222
(dp223
g45
S'writeclampgrid'
p224
sg53
S'0'
sg54
S'1'
sg55
S'1'
sg56
S'1'
sg57
S'Integer'
p225
sbag38
(g49
g40
NtRp226
(dp227
g45
S'writemess'
p228
sg53
S'0'
sg54
S'1'
sg55
S'1'
sg56
S'1'
sg57
S'Integer'
p229
sbag38
(g49
g40
NtRp230
(dp231
g45
S'writeplotdata'
p232
sg53
S'0'
sg54
S'0'
sg55
S'1'
sg56
S'0'
sg57
S'Integer'
p233
sbasbsS'epsgcode'
p234
S'4326'
p235
sS'createTime'
p236
S'2015-03-17 14:17:01'
p237
sS'created_at'
p238
S'2015-03-17 10:44:38'
p239
sS'user'
p240
S'cgwillis'
p241
ssS'Eriogonum_alpinum'
p242
(dp243
g4
g5
sg21
S'http://lifemapper.org/services/sdm/experiments/1400187'
p244
sg23
g242
sg24
S'Description data'
p245
sg26
S'2015-03-17 14:16:44'
p246
sg28
S'5665581'
p247
sg30
g19
sg31
S'(-179.0, 14.5, -45.0, 83.5)'
p248
sg33
S'1400187'
p249
sg35
S'2015-03-17 14:16:44'
p250
sg37
g41
sg234
S'4326'
p251
sg236
S'2015-03-17 14:16:44'
p252
sg238
S'2015-03-17 10:44:50'
p253
sg240
S'cgwillis'
p254
ss.