(dp1
S'Hemigraphis_reptans'
p2
(dp3
S'prjScns'
p4
(lp5
S'1312'
p6
aS'1311'
p7
aS'1313'
p8
aS'1314'
p9
aS'1316'
p10
aS'1315'
p11
aS'1317'
p12
aS'1319'
p13
aS'1318'
p14
asS'metadataUrl'
p15
S'http://lifemapper.org/services/sdm/experiments/1399942'
p16
sS'speciesName'
p17
g2
sS'description'
p18
S'Description data'
p19
sS'statusModTime'
p20
S'2015-03-13 21:13:58'
p21
sS'occSetId'
p22
S'5673147'
p23
sS'mdlScn'
p24
g11
sS'bbox'
p25
S'(-179.0, 14.5, -45.0, 83.5)'
p26
sS'id'
p27
S'1399942'
p28
sS'modTime'
p29
S'2015-03-13 21:13:58'
p30
sS'algorithm'
p31
ccopy_reg
_reconstructor
p32
(clifemapper.sdm
Algorithm
p33
c__builtin__
object
p34
NtRp35
(dp36
S'code'
p37
S'ATT_MAXENT'
p38
sS'name'
p39
S'Maximum Entropy - ATT Implementation'
p40
sS'parameters'
p41
(lp42
g32
(clifemapper.sdm
AlgorithmParameter
p43
g34
NtRp44
(dp45
g39
S'adjustsampleradius'
p46
sS'min'
p47
S'0'
sS'default'
p48
S'0'
sS'max'
p49
NsS'value'
p50
S'0'
sS'type'
p51
S'Integer'
p52
sbag32
(g43
g34
NtRp53
(dp54
g39
S'appendtoresultsfile'
p55
sg47
S'0'
sg48
S'0'
sg49
S'1'
sg50
S'0'
sg51
S'Integer'
p56
sbag32
(g43
g34
NtRp57
(dp58
g39
S'autofeature'
p59
sg47
S'0'
sg48
S'1'
sg49
S'1'
sg50
S'1'
sg51
S'Integer'
p60
sbag32
(g43
g34
NtRp61
(dp62
g39
S'beta_categorical'
p63
sg47
Nsg48
S'-1.0'
p64
sg49
Nsg50
g64
sg51
S'Float'
p65
sbag32
(g43
g34
NtRp66
(dp67
g39
S'beta_hinge'
p68
sg47
Nsg48
S'-1.0'
p69
sg49
Nsg50
g69
sg51
S'Float'
p70
sbag32
(g43
g34
NtRp71
(dp72
g39
S'beta_lqp'
p73
sg47
Nsg48
S'-1.0'
p74
sg49
Nsg50
g74
sg51
S'Float'
p75
sbag32
(g43
g34
NtRp76
(dp77
g39
S'beta_threshold'
p78
sg47
Nsg48
S'-1.0'
p79
sg49
Nsg50
g79
sg51
S'Float'
p80
sbag32
(g43
g34
NtRp81
(dp82
g39
S'betamultiplier'
p83
sg47
S'0'
sg48
S'1.0'
p84
sg49
Nsg50
g84
sg51
S'Float'
p85
sbag32
(g43
g34
NtRp86
(dp87
g39
S'convergencethreshold'
p88
sg47
S'0'
sg48
S'0.00001'
p89
sg49
Nsg50
g89
sg51
S'Float'
p90
sbag32
(g43
g34
NtRp91
(dp92
g39
S'defaultprevalence'
p93
sg47
S'0.0'
p94
sg48
S'0.5'
p95
sg49
S'1.0'
p96
sg50
g95
sg51
S'Float'
p97
sbag32
(g43
g34
NtRp98
(dp99
g39
S'doclamp'
p100
sg47
S'0'
sg48
S'1'
sg49
S'1'
sg50
S'1'
sg51
S'Integer'
p101
sbag32
(g43
g34
NtRp102
(dp103
g39
S'extrapolate'
p104
sg47
S'0'
sg48
S'1'
sg49
S'1'
sg50
S'1'
sg51
S'Integer'
p105
sbag32
(g43
g34
NtRp106
(dp107
g39
S'fadebyclamping'
p108
sg47
S'0'
sg48
S'0'
sg49
S'1'
sg50
S'0'
sg51
S'Integer'
p109
sbag32
(g43
g34
NtRp110
(dp111
g39
S'hinge'
p112
sg47
S'0'
sg48
S'1'
sg49
S'1'
sg50
S'1'
sg51
S'Integer'
p113
sbag32
(g43
g34
NtRp114
(dp115
g39
S'hingethreshold'
p116
sg47
S'0'
sg48
S'15'
p117
sg49
Nsg50
g117
sg51
S'Integer'
p118
sbag32
(g43
g34
NtRp119
(dp120
g39
S'jackknife'
p121
sg47
S'0'
sg48
S'0'
sg49
S'1'
sg50
I1
sg51
S'Integer'
p122
sbag32
(g43
g34
NtRp123
(dp124
g39
S'l2lqthreshold'
p125
sg47
S'0'
sg48
S'10'
p126
sg49
Nsg50
g126
sg51
S'Integer'
p127
sbag32
(g43
g34
NtRp128
(dp129
g39
S'linear'
p130
sg47
S'0'
sg48
S'1'
sg49
S'1'
sg50
S'1'
sg51
S'Integer'
p131
sbag32
(g43
g34
NtRp132
(dp133
g39
S'logscale'
p134
sg47
S'0'
sg48
S'1'
sg49
S'1'
sg50
S'1'
sg51
S'Integer'
p135
sbag32
(g43
g34
NtRp136
(dp137
g39
S'lq2lqptthreshold'
p138
sg47
S'0'
sg48
S'80'
p139
sg49
Nsg50
g139
sg51
S'Integer'
p140
sbag32
(g43
g34
NtRp141
(dp142
g39
S'maximumbackground'
p143
sg47
S'0'
sg48
S'10000'
p144
sg49
Nsg50
g144
sg51
S'Integer'
p145
sbag32
(g43
g34
NtRp146
(dp147
g39
S'maximumiterations'
p148
sg47
S'0'
sg48
S'500'
p149
sg49
Nsg50
g149
sg51
S'Integer'
p150
sbag32
(g43
g34
NtRp151
(dp152
g39
S'outputformat'
p153
sg47
S'0'
sg48
S'1'
sg49
S'2'
sg50
I0
sg51
S'Integer'
p154
sbag32
(g43
g34
NtRp155
(dp156
g39
S'outputgrids'
p157
sg47
S'0'
sg48
S'1'
sg49
S'1'
sg50
S'1'
sg51
S'Integer'
p158
sbag32
(g43
g34
NtRp159
(dp160
g39
S'perspeciesresults'
p161
sg47
S'0'
sg48
S'0'
sg49
S'1'
sg50
S'0'
sg51
S'Integer'
p162
sbag32
(g43
g34
NtRp163
(dp164
g39
S'pictures'
p165
sg47
S'0'
sg48
S'1'
sg49
S'1'
sg50
S'1'
sg51
S'Integer'
p166
sbag32
(g43
g34
NtRp167
(dp168
g39
S'plots'
p169
sg47
S'0'
sg48
S'1'
sg49
S'1'
sg50
S'1'
sg51
S'Integer'
p170
sbag32
(g43
g34
NtRp171
(dp172
g39
S'product'
p173
sg47
S'0'
sg48
S'1'
sg49
S'1'
sg50
S'1'
sg51
S'Integer'
p174
sbag32
(g43
g34
NtRp175
(dp176
g39
S'quadratic'
p177
sg47
S'0'
sg48
S'1'
sg49
S'1'
sg50
S'1'
sg51
S'Integer'
p178
sbag32
(g43
g34
NtRp179
(dp180
g39
S'randomseed'
p181
sg47
S'0'
sg48
S'0'
sg49
S'1'
sg50
S'0'
sg51
S'Integer'
p182
sbag32
(g43
g34
NtRp183
(dp184
g39
S'randomtestpoints'
p185
sg47
S'0'
sg48
S'0'
sg49
S'100'
p186
sg50
S'0'
sg51
S'Integer'
p187
sbag32
(g43
g34
NtRp188
(dp189
g39
S'replicates'
p190
sg47
S'1'
sg48
S'1'
sg49
Nsg50
S'1'
sg51
S'Integer'
p191
sbag32
(g43
g34
NtRp192
(dp193
g39
S'replicatetype'
p194
sg47
S'0'
sg48
S'0'
sg49
S'2'
sg50
S'0'
sg51
S'Integer'
p195
sbag32
(g43
g34
NtRp196
(dp197
g39
S'removeduplicates'
p198
sg47
S'0'
sg48
S'1'
sg49
S'1'
sg50
I1
sg51
S'Integer'
p199
sbag32
(g43
g34
NtRp200
(dp201
g39
S'responsecurves'
p202
sg47
S'0'
sg48
S'0'
sg49
S'1'
sg50
S'0'
sg51
S'Integer'
p203
sbag32
(g43
g34
NtRp204
(dp205
g39
S'responsecurvesexponent'
p206
sg47
S'0'
sg48
S'0'
sg49
S'1'
sg50
S'0'
sg51
S'Integer'
p207
sbag32
(g43
g34
NtRp208
(dp209
g39
S'threshold'
p210
sg47
S'0'
sg48
S'1'
sg49
S'1'
sg50
I0
sg51
S'Integer'
p211
sbag32
(g43
g34
NtRp212
(dp213
g39
S'writebackgroundpredictions'
p214
sg47
S'0'
sg48
S'0'
sg49
S'1'
sg50
S'0'
sg51
S'Integer'
p215
sbag32
(g43
g34
NtRp216
(dp217
g39
S'writeclampgrid'
p218
sg47
S'0'
sg48
S'1'
sg49
S'1'
sg50
S'1'
sg51
S'Integer'
p219
sbag32
(g43
g34
NtRp220
(dp221
g39
S'writemess'
p222
sg47
S'0'
sg48
S'1'
sg49
S'1'
sg50
S'1'
sg51
S'Integer'
p223
sbag32
(g43
g34
NtRp224
(dp225
g39
S'writeplotdata'
p226
sg47
S'0'
sg48
S'0'
sg49
S'1'
sg50
S'0'
sg51
S'Integer'
p227
sbasbsS'epsgcode'
p228
S'4326'
p229
sS'createTime'
p230
S'2015-03-13 21:13:58'
p231
sS'created_at'
p232
S'2015-03-13 20:31:13'
p233
sS'user'
p234
S'cgwillis'
p235
ssS'Justicia_carnea'
p236
(dp237
g4
g5
sg15
S'http://lifemapper.org/services/sdm/experiments/1399943'
p238
sg17
g236
sg18
S'Description data'
p239
sg20
S'2015-03-13 21:13:28'
p240
sg22
S'5676275'
p241
sg24
g11
sg25
S'(-179.0, 14.5, -45.0, 83.5)'
p242
sg27
S'1399943'
p243
sg29
S'2015-03-13 21:13:28'
p244
sg31
g35
sg228
S'4326'
p245
sg230
S'2015-03-13 21:13:28'
p246
sg232
S'2015-03-13 20:31:18'
p247
sg234
S'cgwillis'
p248
ssS'Sanchezia_parvibracteata'
p249
(dp250
g4
g5
sg15
S'http://lifemapper.org/services/sdm/experiments/1399944'
p251
sg17
g249
sg18
S'Description data'
p252
sg20
S'2015-03-13 22:32:04'
p253
sg22
S'5673402'
p254
sg24
g11
sg25
S'(-179.0, 14.5, -45.0, 83.5)'
p255
sg27
S'1399944'
p256
sg29
S'2015-03-13 22:32:04'
p257
sg31
g35
sg228
S'4326'
p258
sg230
S'2015-03-13 22:32:04'
p259
sg232
S'2015-03-13 20:31:22'
p260
sg234
S'cgwillis'
p261
ssS'Eranthemum_pulchellum'
p262
(dp263
g4
g5
sg15
S'http://lifemapper.org/services/sdm/experiments/1399945'
p264
sg17
g262
sg18
S'Description data'
p265
sg20
S'2015-03-13 21:14:55'
p266
sg22
S'5670543'
p267
sg24
g11
sg25
S'(-179.0, 14.5, -45.0, 83.5)'
p268
sg27
S'1399945'
p269
sg29
S'2015-03-13 21:14:55'
p270
sg31
g35
sg228
S'4326'
p271
sg230
S'2015-03-13 21:14:55'
p272
sg232
S'2015-03-13 20:31:27'
p273
sg234
S'cgwillis'
p274
ssS'Agrimonia_parviflora'
p275
(dp276
g4
g5
sg15
S'http://lifemapper.org/services/sdm/experiments/1399946'
p277
sg17
g275
sg18
S'Description data'
p278
sg20
S'2015-03-13 21:13:11'
p279
sg22
S'5668972'
p280
sg24
g11
sg25
S'(-179.0, 14.5, -45.0, 83.5)'
p281
sg27
S'1399946'
p282
sg29
S'2015-03-13 21:13:11'
p283
sg31
g35
sg228
S'4326'
p284
sg230
S'2015-03-13 21:13:11'
p285
sg232
S'2015-03-13 20:31:32'
p286
sg234
S'cgwillis'
p287
ssS'Acalypha_monostachya'
p288
(dp289
g4
g5
sg15
S'http://lifemapper.org/services/sdm/experiments/1399947'
p290
sg17
g288
sg18
S'Description data'
p291
sg20
S'2015-03-13 21:13:19'
p292
sg22
S'5667947'
p293
sg24
g11
sg25
S'(-179.0, 14.5, -45.0, 83.5)'
p294
sg27
S'1399947'
p295
sg29
S'2015-03-13 21:13:19'
p296
sg31
g35
sg228
S'4326'
p297
sg230
S'2015-03-13 21:13:19'
p298
sg232
S'2015-03-13 20:31:37'
p299
sg234
S'cgwillis'
p300
ss.