(dp1
S'Salvia_farinacea'
p2
(dp3
S'shpPath'
p4
S'../views/shapefiles/Salvia_farinacea.shp'
p5
sS'epsgCode'
p6
S'4326'
p7
sS'species'
p8
S'Salvia_farinacea'
p9
sS'occID'
p10
S'5665175'
p11
ssS'Scutellaria_ovata'
p12
(dp13
g4
S'../views/shapefiles/Scutellaria_ovata.shp'
p14
sg6
g7
sg8
S'Scutellaria_ovata'
p15
sg10
S'5665176'
p16
ssS'Trichostema_parishii'
p17
(dp18
g4
S'../views/shapefiles/Trichostema_parishii.shp'
p19
sg6
g7
sg8
S'Trichostema_parishii'
p20
sg10
S'5665177'
p21
ssS'Blephilia_hirsuta'
p22
(dp23
g4
S'../views/shapefiles/Blephilia_hirsuta.shp'
p24
sg6
g7
sg8
S'Blephilia_hirsuta'
p25
sg10
S'5665178'
p26
ssS'Salvia_eremostachya'
p27
(dp28
g4
S'../views/shapefiles/Salvia_eremostachya.shp'
p29
sg6
g7
sg8
S'Salvia_eremostachya'
p30
sg10
S'5665179'
p31
ssS'Stachys_aspera'
p32
(dp33
g4
S'../views/shapefiles/Stachys_aspera.shp'
p34
sg6
g7
sg8
S'Stachys_aspera'
p35
sg10
S'5665180'
p36
ssS'Moluccella_laevis'
p37
(dp38
g4
S'../views/shapefiles/Moluccella_laevis.shp'
p39
sg6
g7
sg8
S'Moluccella_laevis'
p40
sg10
S'5665181'
p41
ssS'Nepeta_cataria'
p42
(dp43
g4
S'../views/shapefiles/Nepeta_cataria.shp'
p44
sg6
g7
sg8
S'Nepeta_cataria'
p45
sg10
S'5665182'
p46
ssS'Salvia_brandegeei'
p47
(dp48
g4
S'../views/shapefiles/Salvia_brandegeei.shp'
p49
sg6
g7
sg8
S'Salvia_brandegeei'
p50
sg10
S'5665183'
p51
ssS'Salvia_funerea'
p52
(dp53
g4
S'../views/shapefiles/Salvia_funerea.shp'
p54
sg6
g7
sg8
S'Salvia_funerea'
p55
sg10
S'5665184'
p56
ssS'Scutellaria_bushii'
p57
(dp58
g4
S'../views/shapefiles/Scutellaria_bushii.shp'
p59
sg6
g7
sg8
S'Scutellaria_bushii'
p60
sg10
S'5665185'
p61
ssS'Pycnanthemum_muticum'
p62
(dp63
g4
S'../views/shapefiles/Pycnanthemum_muticum.shp'
p64
sg6
g7
sg8
S'Pycnanthemum_muticum'
p65
sg10
S'5665186'
p66
ssS'Stachys_albens'
p67
(dp68
g4
S'../views/shapefiles/Stachys_albens.shp'
p69
sg6
g7
sg8
S'Stachys_albens'
p70
sg10
S'5665187'
p71
ssS'Monarda_pectinata'
p72
(dp73
g4
S'../views/shapefiles/Monarda_pectinata.shp'
p74
sg6
g7
sg8
S'Monarda_pectinata'
p75
sg10
S'5665188'
p76
ssS'Hyptis_suaveolens'
p77
(dp78
g4
S'../views/shapefiles/Hyptis_suaveolens.shp'
p79
sg6
g7
sg8
S'Hyptis_suaveolens'
p80
sg10
S'5665189'
p81
ssS'Monarda_fruticulosa'
p82
(dp83
g4
S'../views/shapefiles/Monarda_fruticulosa.shp'
p84
sg6
g7
sg8
S'Monarda_fruticulosa'
p85
sg10
S'5665190'
p86
ssS'Physostegia_leptophylla'
p87
(dp88
g4
S'../views/shapefiles/Physostegia_leptophylla.shp'
p89
sg6
g7
sg8
S'Physostegia_leptophylla'
p90
sg10
S'5665191'
p91
ssS'Scutellaria_incana'
p92
(dp93
g4
S'../views/shapefiles/Scutellaria_incana.shp'
p94
sg6
g7
sg8
S'Scutellaria_incana'
p95
sg10
S'5665192'
p96
ssS'Physostegia_pulchella'
p97
(dp98
g4
S'../views/shapefiles/Physostegia_pulchella.shp'
p99
sg6
g7
sg8
S'Physostegia_pulchella'
p100
sg10
S'5665193'
p101
ssS'Blephilia_subnuda'
p102
(dp103
g4
S'../views/shapefiles/Blephilia_subnuda.shp'
p104
sg6
g7
sg8
S'Blephilia_subnuda'
p105
sg10
S'5665194'
p106
ssS'Stachys_bullata'
p107
(dp108
g4
S'../views/shapefiles/Stachys_bullata.shp'
p109
sg6
g7
sg8
S'Stachys_bullata'
p110
sg10
S'5665195'
p111
ssS'Stachys_pycnantha'
p112
(dp113
g4
S'../views/shapefiles/Stachys_pycnantha.shp'
p114
sg6
g7
sg8
S'Stachys_pycnantha'
p115
sg10
S'5665196'
p116
ssS'Scutellaria_multiglandulosa'
p117
(dp118
g4
S'../views/shapefiles/Scutellaria_multiglandulosa.shp'
p119
sg6
g7
sg8
S'Scutellaria_multiglandulosa'
p120
sg10
S'5665197'
p121
ssS'Scutellaria_texana'
p122
(dp123
g4
S'../views/shapefiles/Scutellaria_texana.shp'
p124
sg6
g7
sg8
S'Scutellaria_texana'
p125
sg10
S'5665198'
p126
ssS'Lamium_amplexicaule'
p127
(dp128
g4
S'../views/shapefiles/Lamium_amplexicaule.shp'
p129
sg6
g7
sg8
S'Lamium_amplexicaule'
p130
sg10
S'5665199'
p131
ssS'Salvia_parryi'
p132
(dp133
g4
S'../views/shapefiles/Salvia_parryi.shp'
p134
sg6
g7
sg8
S'Salvia_parryi'
p135
sg10
S'5665200'
p136
ssS'Salvia_vaseyi'
p137
(dp138
g4
S'../views/shapefiles/Salvia_vaseyi.shp'
p139
sg6
g7
sg8
S'Salvia_vaseyi'
p140
sg10
S'5665201'
p141
ssS'Pycnanthemum_floridanum'
p142
(dp143
g4
S'../views/shapefiles/Pycnanthemum_floridanum.shp'
p144
sg6
g7
sg8
S'Pycnanthemum_floridanum'
p145
sg10
S'5665202'
p146
ssS'Scutellaria_elliptica'
p147
(dp148
g4
S'../views/shapefiles/Scutellaria_elliptica.shp'
p149
sg6
g7
sg8
S'Scutellaria_elliptica'
p150
sg10
S'5665203'
p151
ssS'Salvia_columbariae'
p152
(dp153
g4
S'../views/shapefiles/Salvia_columbariae.shp'
p154
sg6
g7
sg8
S'Salvia_columbariae'
p155
sg10
S'5665204'
p156
ssS'Scutellaria_alabamensis'
p157
(dp158
g4
S'../views/shapefiles/Scutellaria_alabamensis.shp'
p159
sg6
g7
sg8
S'Scutellaria_alabamensis'
p160
sg10
S'5665205'
p161
ssS'Scutellaria_arenicola'
p162
(dp163
g4
S'../views/shapefiles/Scutellaria_arenicola.shp'
p164
sg6
g7
sg8
S'Scutellaria_arenicola'
p165
sg10
S'5665206'
p166
ssS'Salvia_spathacea'
p167
(dp168
g4
S'../views/shapefiles/Salvia_spathacea.shp'
p169
sg6
g7
sg8
S'Salvia_spathacea'
p170
sg10
S'5665207'
p171
ssS'Monardella_leucocephala'
p172
(dp173
g4
S'../views/shapefiles/Monardella_leucocephala.shp'
p174
sg6
g7
sg8
S'Monardella_leucocephala'
p175
sg10
S'5665208'
p176
ssS'Scutellaria_tuberosa'
p177
(dp178
g4
S'../views/shapefiles/Scutellaria_tuberosa.shp'
p179
sg6
g7
sg8
S'Scutellaria_tuberosa'
p180
sg10
S'5665209'
p181
ssS'Stachys_bergii'
p182
(dp183
g4
S'../views/shapefiles/Stachys_bergii.shp'
p184
sg6
g7
sg8
S'Stachys_bergii'
p185
sg10
S'5665210'
p186
ssS'Agastache_rupestris'
p187
(dp188
g4
S'../views/shapefiles/Agastache_rupestris.shp'
p189
sg6
g7
sg8
S'Agastache_rupestris'
p190
sg10
S'5665211'
p191
ssS'Agastache_pallida'
p192
(dp193
g4
S'../views/shapefiles/Agastache_pallida.shp'
p194
sg6
g7
sg8
S'Agastache_pallida'
p195
sg10
S'5665212'
p196
ssS'Monardella_stoneana'
p197
(dp198
g4
S'../views/shapefiles/Monardella_stoneana.shp'
p199
sg6
g7
sg8
S'Monardella_stoneana'
p200
sg10
S'5665213'
p201
ssS'Pogogyne_clareana'
p202
(dp203
g4
S'../views/shapefiles/Pogogyne_clareana.shp'
p204
sg6
g7
sg8
S'Pogogyne_clareana'
p205
sg10
S'5665214'
p206
ssS'Monarda_punctata'
p207
(dp208
g4
S'../views/shapefiles/Monarda_punctata.shp'
p209
sg6
g7
sg8
S'Monarda_punctata'
p210
sg10
S'5665215'
p211
ssS'Trichostema_ovatum'
p212
(dp213
g4
S'../views/shapefiles/Trichostema_ovatum.shp'
p214
sg6
g7
sg8
S'Trichostema_ovatum'
p215
sg10
S'5665216'
p216
ssS'Clerodendrum_coulteri'
p217
(dp218
g4
S'../views/shapefiles/Clerodendrum_coulteri.shp'
p219
sg6
g7
sg8
S'Clerodendrum_coulteri'
p220
sg10
S'5665217'
p221
ssS'Clerodendrum_indicum'
p222
(dp223
g4
S'../views/shapefiles/Clerodendrum_indicum.shp'
p224
sg6
g7
sg8
S'Clerodendrum_indicum'
p225
sg10
S'5665218'
p226
ssS'Salvia_palmeri'
p227
(dp228
g4
S'../views/shapefiles/Salvia_palmeri.shp'
p229
sg6
g7
sg8
S'Salvia_palmeri'
p230
sg10
S'5665219'
p231
ssS'Monarda_clinopodia'
p232
(dp233
g4
S'../views/shapefiles/Monarda_clinopodia.shp'
p234
sg6
g7
sg8
S'Monarda_clinopodia'
p235
sg10
S'5665220'
p236
ssS'Satureja_hortensis'
p237
(dp238
g4
S'../views/shapefiles/Satureja_hortensis.shp'
p239
sg6
g7
sg8
S'Satureja_hortensis'
p240
sg10
S'5665221'
p241
ssS'Salvia_clevelandii'
p242
(dp243
g4
S'../views/shapefiles/Salvia_clevelandii.shp'
p244
sg6
g7
sg8
S'Salvia_clevelandii'
p245
sg10
S'5665222'
p246
ssS'Scutellaria_mexicana'
p247
(dp248
g4
S'../views/shapefiles/Scutellaria_mexicana.shp'
p249
sg6
g7
sg8
S'Scutellaria_mexicana'
p250
sg10
S'5665223'
p251
ssS'Salvia_sclarea'
p252
(dp253
g4
S'../views/shapefiles/Salvia_sclarea.shp'
p254
sg6
g7
sg8
S'Salvia_sclarea'
p255
sg10
S'5665224'
p256
ssS'Scutellaria_sapphirina'
p257
(dp258
g4
S'../views/shapefiles/Scutellaria_sapphirina.shp'
p259
sg6
g7
sg8
S'Scutellaria_sapphirina'
p260
sg10
S'5665225'
p261
ssS'Trichostema_oblongum'
p262
(dp263
g4
S'../views/shapefiles/Trichostema_oblongum.shp'
p264
sg6
g7
sg8
S'Trichostema_oblongum'
p265
sg10
S'5665226'
p266
ssS'Stachys_sylvatica'
p267
(dp268
g4
S'../views/shapefiles/Stachys_sylvatica.shp'
p269
sg6
g7
sg8
S'Stachys_sylvatica'
p270
sg10
S'5665227'
p271
ssS'Scutellaria_muriculata'
p272
(dp273
g4
S'../views/shapefiles/Scutellaria_muriculata.shp'
p274
sg6
g7
sg8
S'Scutellaria_muriculata'
p275
sg10
S'5665228'
p276
ssS'Dicerandra_linearifolia'
p277
(dp278
g4
S'../views/shapefiles/Dicerandra_linearifolia.shp'
p279
sg6
g7
sg8
S'Dicerandra_linearifolia'
p280
sg10
S'5665229'
p281
ssS'Melissa_officinalis'
p282
(dp283
g4
S'../views/shapefiles/Melissa_officinalis.shp'
p284
sg6
g7
sg8
S'Melissa_officinalis'
p285
sg10
S'5665230'
p286
ssS'Monarda_bradburiana'
p287
(dp288
g4
S'../views/shapefiles/Monarda_bradburiana.shp'
p289
sg6
g7
sg8
S'Monarda_bradburiana'
p290
sg10
S'5665231'
p291
ssS'Clinopodium_chandleri'
p292
(dp293
g4
S'../views/shapefiles/Clinopodium_chandleri.shp'
p294
sg6
g7
sg8
S'Clinopodium_chandleri'
p295
sg10
S'5665232'
p296
ssS'Scutellaria_pseudoserrata'
p297
(dp298
g4
S'../views/shapefiles/Scutellaria_pseudoserrata.shp'
p299
sg6
g7
sg8
S'Scutellaria_pseudoserrata'
p300
sg10
S'5665233'
p301
ssS'Hyptis_verticillata'
p302
(dp303
g4
S'../views/shapefiles/Hyptis_verticillata.shp'
p304
sg6
g7
sg8
S'Hyptis_verticillata'
p305
sg10
S'5665234'
p306
ssS'Chaiturus_marrubiastrum'
p307
(dp308
g4
S'../views/shapefiles/Chaiturus_marrubiastrum.shp'
p309
sg6
g7
sg8
S'Chaiturus_marrubiastrum'
p310
sg10
S'5665235'
p311
ssS'Monarda_media'
p312
(dp313
g4
S'../views/shapefiles/Monarda_media.shp'
p314
sg6
g7
sg8
S'Monarda_media'
p315
sg10
S'5665236'
p316
ssS'Physostegia_parviflora'
p317
(dp318
g4
S'../views/shapefiles/Physostegia_parviflora.shp'
p319
sg6
g7
sg8
S'Physostegia_parviflora'
p320
sg10
S'5665237'
p321
ssS'Mentha_arvensis'
p322
(dp323
g4
S'../views/shapefiles/Mentha_arvensis.shp'
p324
sg6
g7
sg8
S'Mentha_arvensis'
p325
sg10
S'5665238'
p326
ssS'Clinopodium_vulgare'
p327
(dp328
g4
S'../views/shapefiles/Clinopodium_vulgare.shp'
p329
sg6
g7
sg8
S'Clinopodium_vulgare'
p330
sg10
S'5665239'
p331
ssS'Hedeoma_pilosa'
p332
(dp333
g4
S'../views/shapefiles/Hedeoma_pilosa.shp'
p334
sg6
g7
sg8
S'Hedeoma_pilosa'
p335
sg10
S'5665240'
p336
ssS'Pogogyne_abramsii'
p337
(dp338
g4
S'../views/shapefiles/Pogogyne_abramsii.shp'
p339
sg6
g7
sg8
S'Pogogyne_abramsii'
p340
sg10
S'5665241'
p341
ssS'Poliomintha_glabrescens'
p342
(dp343
g4
S'../views/shapefiles/Poliomintha_glabrescens.shp'
p344
sg6
g7
sg8
S'Poliomintha_glabrescens'
p345
sg10
S'5665242'
p346
ssS'Pycnanthemum_flexuosum'
p347
(dp348
g4
S'../views/shapefiles/Pycnanthemum_flexuosum.shp'
p349
sg6
g7
sg8
S'Pycnanthemum_flexuosum'
p350
sg10
S'5665243'
p351
ssS'Prunella_vulgaris'
p352
(dp353
g4
S'../views/shapefiles/Prunella_vulgaris.shp'
p354
sg6
g7
sg8
S'Prunella_vulgaris'
p355
sg10
S'5665244'
p356
ssS'Agastache_cana'
p357
(dp358
g4
S'../views/shapefiles/Agastache_cana.shp'
p359
sg6
g7
sg8
S'Agastache_cana'
p360
sg10
S'5665245'
p361
ssS'Clerodendrum_bungei'
p362
(dp363
g4
S'../views/shapefiles/Clerodendrum_bungei.shp'
p364
sg6
g7
sg8
S'Clerodendrum_bungei'
p365
sg10
S'5665246'
p366
ssS'Salvia_aethiopis'
p367
(dp368
g4
S'../views/shapefiles/Salvia_aethiopis.shp'
p369
sg6
g7
sg8
S'Salvia_aethiopis'
p370
sg10
S'5665247'
p371
ssS'Scutellaria_brittonii'
p372
(dp373
g4
S'../views/shapefiles/Scutellaria_brittonii.shp'
p374
sg6
g7
sg8
S'Scutellaria_brittonii'
p375
sg10
S'5665248'
p376
ssS'Salvia_pentstemonoides'
p377
(dp378
g4
S'../views/shapefiles/Salvia_pentstemonoides.shp'
p379
sg6
g7
sg8
S'Salvia_pentstemonoides'
p380
sg10
S'5665249'
p381
ssS'Monardella_robisonii'
p382
(dp383
g4
S'../views/shapefiles/Monardella_robisonii.shp'
p384
sg6
g7
sg8
S'Monardella_robisonii'
p385
sg10
S'5665250'
p386
ssS'Physostegia_angustifolia'
p387
(dp388
g4
S'../views/shapefiles/Physostegia_angustifolia.shp'
p389
sg6
g7
sg8
S'Physostegia_angustifolia'
p390
sg10
S'5665251'
p391
ssS'Scutellaria_lateriflora'
p392
(dp393
g4
S'../views/shapefiles/Scutellaria_lateriflora.shp'
p394
sg6
g7
sg8
S'Scutellaria_lateriflora'
p395
sg10
S'5665252'
p396
ssS'Lavandula_angustifolia'
p397
(dp398
g4
S'../views/shapefiles/Lavandula_angustifolia.shp'
p399
sg6
g7
sg8
S'Lavandula_angustifolia'
p400
sg10
S'5665253'
p401
ssS'Ajuga_reptans'
p402
(dp403
g4
S'../views/shapefiles/Ajuga_reptans.shp'
p404
sg6
g7
sg8
S'Ajuga_reptans'
p405
sg10
S'5665254'
p406
ssS'Monardella_saxicola'
p407
(dp408
g4
S'../views/shapefiles/Monardella_saxicola.shp'
p409
sg6
g7
sg8
S'Monardella_saxicola'
p410
sg10
S'5665255'
p411
ssS'Scutellaria_racemosa'
p412
(dp413
g4
S'../views/shapefiles/Scutellaria_racemosa.shp'
p414
sg6
g7
sg8
S'Scutellaria_racemosa'
p415
sg10
S'5665256'
p416
ssS'Hedeoma_nana'
p417
(dp418
g4
S'../views/shapefiles/Hedeoma_nana.shp'
p419
sg6
g7
sg8
S'Hedeoma_nana'
p420
sg10
S'5665257'
p421
ssS'Monardella_hypoleuca'
p422
(dp423
g4
S'../views/shapefiles/Monardella_hypoleuca.shp'
p424
sg6
g7
sg8
S'Monardella_hypoleuca'
p425
sg10
S'5665258'
p426
ssS'Lycopus_cokeri'
p427
(dp428
g4
S'../views/shapefiles/Lycopus_cokeri.shp'
p429
sg6
g7
sg8
S'Lycopus_cokeri'
p430
sg10
S'5665259'
p431
ssS'Mentha_pulegium'
p432
(dp433
g4
S'../views/shapefiles/Mentha_pulegium.shp'
p434
sg6
g7
sg8
S'Mentha_pulegium'
p435
sg10
S'5665260'
p436
ssS'Stachys_agraria'
p437
(dp438
g4
S'../views/shapefiles/Stachys_agraria.shp'
p439
sg6
g7
sg8
S'Stachys_agraria'
p440
sg10
S'5665261'
p441
ssS'Lepechinia_ganderi'
p442
(dp443
g4
S'../views/shapefiles/Lepechinia_ganderi.shp'
p444
sg6
g7
sg8
S'Lepechinia_ganderi'
p445
sg10
S'5665262'
p446
ssS'Clerodendrum_speciosum'
p447
(dp448
g4
S'../views/shapefiles/Clerodendrum_speciosum.shp'
p449
sg6
g7
sg8
S'Clerodendrum_speciosum'
p450
sg10
S'5665263'
p451
ssS'Clinopodium_glabrum'
p452
(dp453
g4
S'../views/shapefiles/Clinopodium_glabrum.shp'
p454
sg6
g7
sg8
S'Clinopodium_glabrum'
p455
sg10
S'5665264'
p456
ssS'Salvia_virgata'
p457
(dp458
g4
S'../views/shapefiles/Salvia_virgata.shp'
p459
sg6
g7
sg8
S'Salvia_virgata'
p460
sg10
S'5665265'
p461
ssS'Galeopsis_tetrahit'
p462
(dp463
g4
S'../views/shapefiles/Galeopsis_tetrahit.shp'
p464
sg6
g7
sg8
S'Galeopsis_tetrahit'
p465
sg10
S'5665266'
p466
ssS'Stachys_drummondii'
p467
(dp468
g4
S'../views/shapefiles/Stachys_drummondii.shp'
p469
sg6
g7
sg8
S'Stachys_drummondii'
p470
sg10
S'5665267'
p471
ssS'Vitex_agnus-castus'
p472
(dp473
g4
S'../views/shapefiles/Vitex_agnus-castus.shp'
p474
sg6
g7
sg8
S'Vitex_agnus-castus'
p475
sg10
S'5665268'
p476
ssS'Mentha_piperita'
p477
(dp478
g4
S'../views/shapefiles/Mentha_piperita.shp'
p479
sg6
g7
sg8
S'Mentha_piperita'
p480
sg10
S'5665269'
p481
ssS'Monardella_palmeri'
p482
(dp483
g4
S'../views/shapefiles/Monardella_palmeri.shp'
p484
sg6
g7
sg8
S'Monardella_palmeri'
p485
sg10
S'5665270'
p486
ssS'Stachys_bigelovii'
p487
(dp488
g4
S'../views/shapefiles/Stachys_bigelovii.shp'
p489
sg6
g7
sg8
S'Stachys_bigelovii'
p490
sg10
S'5665271'
p491
ssS'Clerodendrum_japonicum'
p492
(dp493
g4
S'../views/shapefiles/Clerodendrum_japonicum.shp'
p494
sg6
g7
sg8
S'Clerodendrum_japonicum'
p495
sg10
S'5665272'
p496
ssS'Dracocephalum_thymiflorum'
p497
(dp498
g4
S'../views/shapefiles/Dracocephalum_thymiflorum.shp'
p499
sg6
g7
sg8
S'Dracocephalum_thymiflorum'
p500
sg10
S'5665273'
p501
ssS'Mentha_verticillata'
p502
(dp503
g4
S'../views/shapefiles/Mentha_verticillata.shp'
p504
sg6
g7
sg8
S'Mentha_verticillata'
p505
sg10
S'5665274'
p506
ssS'Salvia_tiliifolia'
p507
(dp508
g4
S'../views/shapefiles/Salvia_tiliifolia.shp'
p509
sg6
g7
sg8
S'Salvia_tiliifolia'
p510
sg10
S'5665275'
p511
ssS'Stachys_coccinea'
p512
(dp513
g4
S'../views/shapefiles/Stachys_coccinea.shp'
p514
sg6
g7
sg8
S'Stachys_coccinea'
p515
sg10
S'5665276'
p516
ssS'Agastache_scrophulariifolia'
p517
(dp518
g4
S'../views/shapefiles/Agastache_scrophulariifolia.shp'
p519
sg6
g7
sg8
S'Agastache_scrophulariifolia'
p520
sg10
S'5665277'
p521
ssS'Monardella_douglasii'
p522
(dp523
g4
S'../views/shapefiles/Monardella_douglasii.shp'
p524
sg6
g7
sg8
S'Monardella_douglasii'
p525
sg10
S'5665278'
p526
ssS'Scutellaria_nervosa'
p527
(dp528
g4
S'../views/shapefiles/Scutellaria_nervosa.shp'
p529
sg6
g7
sg8
S'Scutellaria_nervosa'
p530
sg10
S'5665279'
p531
ssS'Stachys_rigida'
p532
(dp533
g4
S'../views/shapefiles/Stachys_rigida.shp'
p534
sg6
g7
sg8
S'Stachys_rigida'
p535
sg10
S'5665280'
p536
ssS'Clerodendrum_trichotomum'
p537
(dp538
g4
S'../views/shapefiles/Clerodendrum_trichotomum.shp'
p539
sg6
g7
sg8
S'Clerodendrum_trichotomum'
p540
sg10
S'5665281'
p541
ssS'Trichostema_simulatum'
p542
(dp543
g4
S'../views/shapefiles/Trichostema_simulatum.shp'
p544
sg6
g7
sg8
S'Trichostema_simulatum'
p545
sg10
S'5665282'
p546
ssS'Conradina_grandiflora'
p547
(dp548
g4
S'../views/shapefiles/Conradina_grandiflora.shp'
p549
sg6
g7
sg8
S'Conradina_grandiflora'
p550
sg10
S'5665283'
p551
ssS'Clerodendrum_chinense'
p552
(dp553
g4
S'../views/shapefiles/Clerodendrum_chinense.shp'
p554
sg6
g7
sg8
S'Clerodendrum_chinense'
p555
sg10
S'5665284'
p556
ssS'Pogogyne_nudiuscula'
p557
(dp558
g4
S'../views/shapefiles/Pogogyne_nudiuscula.shp'
p559
sg6
g7
sg8
S'Pogogyne_nudiuscula'
p560
sg10
S'5665285'
p561
ssS'Thymus_pulegioides'
p562
(dp563
g4
S'../views/shapefiles/Thymus_pulegioides.shp'
p564
sg6
g7
sg8
S'Thymus_pulegioides'
p565
sg10
S'5665286'
p566
ssS'Stachys_biflora'
p567
(dp568
g4
S'../views/shapefiles/Stachys_biflora.shp'
p569
sg6
g7
sg8
S'Stachys_biflora'
p570
sg10
S'5665287'
p571
ssS'Salvia_greatae'
p572
(dp573
g4
S'../views/shapefiles/Salvia_greatae.shp'
p574
sg6
g7
sg8
S'Salvia_greatae'
p575
sg10
S'5665288'
p576
ssS'Teucrium_laciniatum'
p577
(dp578
g4
S'../views/shapefiles/Teucrium_laciniatum.shp'
p579
sg6
g7
sg8
S'Teucrium_laciniatum'
p580
sg10
S'5665289'
p581
ssS'Scutellaria_potosina'
p582
(dp583
g4
S'../views/shapefiles/Scutellaria_potosina.shp'
p584
sg6
g7
sg8
S'Scutellaria_potosina'
p585
sg10
S'5665290'
p586
ssS'Collinsonia_canadensis'
p587
(dp588
g4
S'../views/shapefiles/Collinsonia_canadensis.shp'
p589
sg6
g7
sg8
S'Collinsonia_canadensis'
p590
sg10
S'5665291'
p591
ssS'Stachys_chamissonis'
p592
(dp593
g4
S'../views/shapefiles/Stachys_chamissonis.shp'
p594
sg6
g7
sg8
S'Stachys_chamissonis'
p595
sg10
S'5665292'
p596
ssS'Lavandula_stoechas'
p597
(dp598
g4
S'../views/shapefiles/Lavandula_stoechas.shp'
p599
sg6
g7
sg8
S'Lavandula_stoechas'
p600
sg10
S'5665293'
p601
ssS'Leonurus_cardiaca'
p602
(dp603
g4
S'../views/shapefiles/Leonurus_cardiaca.shp'
p604
sg6
g7
sg8
S'Leonurus_cardiaca'
p605
sg10
S'5665294'
p606
ssS'Trichostema_micranthum'
p607
(dp608
g4
S'../views/shapefiles/Trichostema_micranthum.shp'
p609
sg6
g7
sg8
S'Trichostema_micranthum'
p610
sg10
S'5665295'
p611
ssS'Monardella_viridis'
p612
(dp613
g4
S'../views/shapefiles/Monardella_viridis.shp'
p614
sg6
g7
sg8
S'Monardella_viridis'
p615
sg10
S'5665296'
p616
ssS'Poliomintha_incana'
p617
(dp618
g4
S'../views/shapefiles/Poliomintha_incana.shp'
p619
sg6
g7
sg8
S'Poliomintha_incana'
p620
sg10
S'5665297'
p621
ssS'Lycopus_virginicus'
p622
(dp623
g4
S'../views/shapefiles/Lycopus_virginicus.shp'
p624
sg6
g7
sg8
S'Lycopus_virginicus'
p625
sg10
S'5665298'
p626
ssS'Scutellaria_drummondii'
p627
(dp628
g4
S'../views/shapefiles/Scutellaria_drummondii.shp'
p629
sg6
g7
sg8
S'Scutellaria_drummondii'
p630
sg10
S'5665299'
p631
ssS'Pogogyne_serpylloides'
p632
(dp633
g4
S'../views/shapefiles/Pogogyne_serpylloides.shp'
p634
sg6
g7
sg8
S'Pogogyne_serpylloides'
p635
sg10
S'5665300'
p636
ssS'Scutellaria_antirrhinoides'
p637
(dp638
g4
S'../views/shapefiles/Scutellaria_antirrhinoides.shp'
p639
sg6
g7
sg8
S'Scutellaria_antirrhinoides'
p640
sg10
S'5665301'
p641
ssS'Monarda_citriodora'
p642
(dp643
g4
S'../views/shapefiles/Monarda_citriodora.shp'
p644
sg6
g7
sg8
S'Monarda_citriodora'
p645
sg10
S'5665302'
p646
ssS'Pycnanthemum_setosum'
p647
(dp648
g4
S'../views/shapefiles/Pycnanthemum_setosum.shp'
p649
sg6
g7
sg8
S'Pycnanthemum_setosum'
p650
sg10
S'5665303'
p651
ssS'Macbridea_caroliniana'
p652
(dp653
g4
S'../views/shapefiles/Macbridea_caroliniana.shp'
p654
sg6
g7
sg8
S'Macbridea_caroliniana'
p655
sg10
S'5665304'
p656
ssS'Monardella_odoratissima'
p657
(dp658
g4
S'../views/shapefiles/Monardella_odoratissima.shp'
p659
sg6
g7
sg8
S'Monardella_odoratissima'
p660
sg10
S'5665305'
p661
ssS'Stachys_pilosa'
p662
(dp663
g4
S'../views/shapefiles/Stachys_pilosa.shp'
p664
sg6
g7
sg8
S'Stachys_pilosa'
p665
sg10
S'5665306'
p666
ssS'Salvia_dorrii'
p667
(dp668
g4
S'../views/shapefiles/Salvia_dorrii.shp'
p669
sg6
g7
sg8
S'Salvia_dorrii'
p670
sg10
S'5665307'
p671
ssS'Mentha_suaveolens'
p672
(dp673
g4
S'../views/shapefiles/Mentha_suaveolens.shp'
p674
sg6
g7
sg8
S'Mentha_suaveolens'
p675
sg10
S'5665308'
p676
ssS'Acanthomintha_obovata'
p677
(dp678
g4
S'../views/shapefiles/Acanthomintha_obovata.shp'
p679
sg6
g7
sg8
S'Acanthomintha_obovata'
p680
sg10
S'5665309'
p681
ssS'Salvia_mellifera'
p682
(dp683
g4
S'../views/shapefiles/Salvia_mellifera.shp'
p684
sg6
g7
sg8
S'Salvia_mellifera'
p685
sg10
S'5665310'
p686
ssS'Ajuga_genevensis'
p687
(dp688
g4
S'../views/shapefiles/Ajuga_genevensis.shp'
p689
sg6
g7
sg8
S'Ajuga_genevensis'
p690
sg10
S'5665311'
p691
ssS'Pycnanthemum_pycnanthemoides'
p692
(dp693
g4
S'../views/shapefiles/Pycnanthemum_pycnanthemoides.shp'
p694
sg6
g7
sg8
S'Pycnanthemum_pycnanthemoides'
p695
sg10
S'5665312'
p696
ssS'Pycnanthemum_loomisii'
p697
(dp698
g4
S'../views/shapefiles/Pycnanthemum_loomisii.shp'
p699
sg6
g7
sg8
S'Pycnanthemum_loomisii'
p700
sg10
S'5665313'
p701
ssS'Vitex_negundo'
p702
(dp703
g4
S'../views/shapefiles/Vitex_negundo.shp'
p704
sg6
g7
sg8
S'Vitex_negundo'
p705
sg10
S'5665314'
p706
ssS'Hedeoma_apiculata'
p707
(dp708
g4
S'../views/shapefiles/Hedeoma_apiculata.shp'
p709
sg6
g7
sg8
S'Hedeoma_apiculata'
p710
sg10
S'5665315'
p711
ssS'Prunella_laciniata'
p712
(dp713
g4
S'../views/shapefiles/Prunella_laciniata.shp'
p714
sg6
g7
sg8
S'Prunella_laciniata'
p715
sg10
S'5665316'
p716
ssS'Physostegia_godfreyi'
p717
(dp718
g4
S'../views/shapefiles/Physostegia_godfreyi.shp'
p719
sg6
g7
sg8
S'Physostegia_godfreyi'
p720
sg10
S'5665317'
p721
ssS'Teucrium_scorodonia'
p722
(dp723
g4
S'../views/shapefiles/Teucrium_scorodonia.shp'
p724
sg6
g7
sg8
S'Teucrium_scorodonia'
p725
sg10
S'5665318'
p726
ssS'Dicerandra_densiflora'
p727
(dp728
g4
S'../views/shapefiles/Dicerandra_densiflora.shp'
p729
sg6
g7
sg8
S'Dicerandra_densiflora'
p730
sg10
S'5665319'
p731
ssS'Salvia_glutinosa'
p732
(dp733
g4
S'../views/shapefiles/Salvia_glutinosa.shp'
p734
sg6
g7
sg8
S'Salvia_glutinosa'
p735
sg10
S'5665320'
p736
ssS'Stachys_eplingii'
p737
(dp738
g4
S'../views/shapefiles/Stachys_eplingii.shp'
p739
sg6
g7
sg8
S'Stachys_eplingii'
p740
sg10
S'5665321'
p741
ssS'Monarda_viridissima'
p742
(dp743
g4
S'../views/shapefiles/Monarda_viridissima.shp'
p744
sg6
g7
sg8
S'Monarda_viridissima'
p745
sg10
S'5665322'
p746
ssS'Monardella_follettii'
p747
(dp748
g4
S'../views/shapefiles/Monardella_follettii.shp'
p749
sg6
g7
sg8
S'Monardella_follettii'
p750
sg10
S'5665323'
p751
ssS'Trichostema_austromontanum'
p752
(dp753
g4
S'../views/shapefiles/Trichostema_austromontanum.shp'
p754
sg6
g7
sg8
S'Trichostema_austromontanum'
p755
sg10
S'5665324'
p756
ssS'Stachys_rothrockii'
p757
(dp758
g4
S'../views/shapefiles/Stachys_rothrockii.shp'
p759
sg6
g7
sg8
S'Stachys_rothrockii'
p760
sg10
S'5665325'
p761
ssS'Stachys_arvensis'
p762
(dp763
g4
S'../views/shapefiles/Stachys_arvensis.shp'
p764
sg6
g7
sg8
S'Stachys_arvensis'
p765
sg10
S'5665326'
p766
ssS'Salvia_serotina'
p767
(dp768
g4
S'../views/shapefiles/Salvia_serotina.shp'
p769
sg6
g7
sg8
S'Salvia_serotina'
p770
sg10
S'5665327'
p771
ssS'Collinsonia_verticillata'
p772
(dp773
g4
S'../views/shapefiles/Collinsonia_verticillata.shp'
p774
sg6
g7
sg8
S'Collinsonia_verticillata'
p775
sg10
S'5665328'
p776
ssS'Scutellaria_bolanderi'
p777
(dp778
g4
S'../views/shapefiles/Scutellaria_bolanderi.shp'
p779
sg6
g7
sg8
S'Scutellaria_bolanderi'
p780
sg10
S'5665329'
p781
ssS'Hyptis_emoryi'
p782
(dp783
g4
S'../views/shapefiles/Hyptis_emoryi.shp'
p784
sg6
g7
sg8
S'Hyptis_emoryi'
p785
sg10
S'5665330'
p786
ssS'Origanum_vulgare'
p787
(dp788
g4
S'../views/shapefiles/Origanum_vulgare.shp'
p789
sg6
g7
sg8
S'Origanum_vulgare'
p790
sg10
S'5665331'
p791
ssS'Salvia_sonomensis'
p792
(dp793
g4
S'../views/shapefiles/Salvia_sonomensis.shp'
p794
sg6
g7
sg8
S'Salvia_sonomensis'
p795
sg10
S'5665332'
p796
ssS'Ajuga_chamaepitys'
p797
(dp798
g4
S'../views/shapefiles/Ajuga_chamaepitys.shp'
p799
sg6
g7
sg8
S'Ajuga_chamaepitys'
p800
sg10
S'5665333'
p801
ssS'Acanthomintha_lanceolata'
p802
(dp803
g4
S'../views/shapefiles/Acanthomintha_lanceolata.shp'
p804
sg6
g7
sg8
S'Acanthomintha_lanceolata'
p805
sg10
S'5665334'
p806
ssS'Hyssopus_officinalis'
p807
(dp808
g4
S'../views/shapefiles/Hyssopus_officinalis.shp'
p809
sg6
g7
sg8
S'Hyssopus_officinalis'
p810
sg10
S'5665335'
p811
ssS'Agastache_pallidiflora'
p812
(dp813
g4
S'../views/shapefiles/Agastache_pallidiflora.shp'
p814
sg6
g7
sg8
S'Agastache_pallidiflora'
p815
sg10
S'5665336'
p816
ssS'Hedeoma_hyssopifolia'
p817
(dp818
g4
S'../views/shapefiles/Hedeoma_hyssopifolia.shp'
p819
sg6
g7
sg8
S'Hedeoma_hyssopifolia'
p820
sg10
S'5665337'
p821
ssS'Salvia_henryi'
p822
(dp823
g4
S'../views/shapefiles/Salvia_henryi.shp'
p824
sg6
g7
sg8
S'Salvia_henryi'
p825
sg10
S'5665338'
p826
ssS'Dracocephalum_parviflorum'
p827
(dp828
g4
S'../views/shapefiles/Dracocephalum_parviflorum.shp'
p829
sg6
g7
sg8
S'Dracocephalum_parviflorum'
p830
sg10
S'5665339'
p831
ssS'Salvia_reptans'
p832
(dp833
g4
S'../views/shapefiles/Salvia_reptans.shp'
p834
sg6
g7
sg8
S'Salvia_reptans'
p835
sg10
S'5665340'
p836
ssS'Galeopsis_bifida'
p837
(dp838
g4
S'../views/shapefiles/Galeopsis_bifida.shp'
p839
sg6
g7
sg8
S'Galeopsis_bifida'
p840
sg10
S'5665341'
p841
ssS'Hedeoma_dentata'
p842
(dp843
g4
S'../views/shapefiles/Hedeoma_dentata.shp'
p844
sg6
g7
sg8
S'Hedeoma_dentata'
p845
sg10
S'5665342'
p846
ssS'Trichostema_lanceolatum'
p847
(dp848
g4
S'../views/shapefiles/Trichostema_lanceolatum.shp'
p849
sg6
g7
sg8
S'Trichostema_lanceolatum'
p850
sg10
S'5665343'
p851
ssS'Dracocephalum_moldavica'
p852
(dp853
g4
S'../views/shapefiles/Dracocephalum_moldavica.shp'
p854
sg6
g7
sg8
S'Dracocephalum_moldavica'
p855
sg10
S'5665344'
p856
ssS'Agastache_parvifolia'
p857
(dp858
g4
S'../views/shapefiles/Agastache_parvifolia.shp'
p859
sg6
g7
sg8
S'Agastache_parvifolia'
p860
sg10
S'5665345'
p861
ssS'Monarda_fistulosa'
p862
(dp863
g4
S'../views/shapefiles/Monarda_fistulosa.shp'
p864
sg6
g7
sg8
S'Monarda_fistulosa'
p865
sg10
S'5665346'
p866
ssS'Salvia_subincisa'
p867
(dp868
g4
S'../views/shapefiles/Salvia_subincisa.shp'
p869
sg6
g7
sg8
S'Salvia_subincisa'
p870
sg10
S'5665347'
p871
ssS'Pycnanthemum_incanum'
p872
(dp873
g4
S'../views/shapefiles/Pycnanthemum_incanum.shp'
p874
sg6
g7
sg8
S'Pycnanthemum_incanum'
p875
sg10
S'5665348'
p876
ssS'Stachys_tenuifolia'
p877
(dp878
g4
S'../views/shapefiles/Stachys_tenuifolia.shp'
p879
sg6
g7
sg8
S'Stachys_tenuifolia'
p880
sg10
S'5665349'
p881
ssS'Salvia_officinalis'
p882
(dp883
g4
S'../views/shapefiles/Salvia_officinalis.shp'
p884
sg6
g7
sg8
S'Salvia_officinalis'
p885
sg10
S'5665350'
p886
ssS'Salvia_ballotiflora'
p887
(dp888
g4
S'../views/shapefiles/Salvia_ballotiflora.shp'
p889
sg6
g7
sg8
S'Salvia_ballotiflora'
p890
sg10
S'5665351'
p891
ssS'Clinopodium_gracile'
p892
(dp893
g4
S'../views/shapefiles/Clinopodium_gracile.shp'
p894
sg6
g7
sg8
S'Clinopodium_gracile'
p895
sg10
S'5665352'
p896
ssS'Pogogyne_floribunda'
p897
(dp898
g4
S'../views/shapefiles/Pogogyne_floribunda.shp'
p899
sg6
g7
sg8
S'Pogogyne_floribunda'
p900
sg10
S'5665353'
p901
ssS'Clinopodium_acinos'
p902
(dp903
g4
S'../views/shapefiles/Clinopodium_acinos.shp'
p904
sg6
g7
sg8
S'Clinopodium_acinos'
p905
sg10
S'5665354'
p906
ssS'Callicarpa_americana'
p907
(dp908
g4
S'../views/shapefiles/Callicarpa_americana.shp'
p909
sg6
g7
sg8
S'Callicarpa_americana'
p910
sg10
S'5665355'
p911
ssS'Stachys_ajugoides'
p912
(dp913
g4
S'../views/shapefiles/Stachys_ajugoides.shp'
p914
sg6
g7
sg8
S'Stachys_ajugoides'
p915
sg10
S'5665356'
p916
ssS'Stachydeoma_graveolens'
p917
(dp918
g4
S'../views/shapefiles/Stachydeoma_graveolens.shp'
p919
sg6
g7
sg8
S'Stachydeoma_graveolens'
p920
sg10
S'5665357'
p921
ssS'Salvia_occidentalis'
p922
(dp923
g4
S'../views/shapefiles/Salvia_occidentalis.shp'
p924
sg6
g7
sg8
S'Salvia_occidentalis'
p925
sg10
S'5665358'
p926
ssS'Salvia_argentea'
p927
(dp928
g4
S'../views/shapefiles/Salvia_argentea.shp'
p929
sg6
g7
sg8
S'Salvia_argentea'
p930
sg10
S'5665359'
p931
ssS'Clinopodium_nepeta'
p932
(dp933
g4
S'../views/shapefiles/Clinopodium_nepeta.shp'
p934
sg6
g7
sg8
S'Clinopodium_nepeta'
p935
sg10
S'5665360'
p936
ssS'Teucrium_glandulosum'
p937
(dp938
g4
S'../views/shapefiles/Teucrium_glandulosum.shp'
p939
sg6
g7
sg8
S'Teucrium_glandulosum'
p940
sg10
S'5665361'
p941
ssS'Trichostema_laxum'
p942
(dp943
g4
S'../views/shapefiles/Trichostema_laxum.shp'
p944
sg6
g7
sg8
S'Trichostema_laxum'
p945
sg10
S'5665362'
p946
ssS'Monarda_stanfieldii'
p947
(dp948
g4
S'../views/shapefiles/Monarda_stanfieldii.shp'
p949
sg6
g7
sg8
S'Monarda_stanfieldii'
p950
sg10
S'5665363'
p951
ssS'Dicerandra_frutescens'
p952
(dp953
g4
S'../views/shapefiles/Dicerandra_frutescens.shp'
p954
sg6
g7
sg8
S'Dicerandra_frutescens'
p955
sg10
S'5665364'
p956
ssS'Monardella_villosa'
p957
(dp958
g4
S'../views/shapefiles/Monardella_villosa.shp'
p959
sg6
g7
sg8
S'Monardella_villosa'
p960
sg10
S'5665365'
p961
ssS'Vitex_trifolia'
p962
(dp963
g4
S'../views/shapefiles/Vitex_trifolia.shp'
p964
sg6
g7
sg8
S'Vitex_trifolia'
p965
sg10
S'5665366'
p966
ssS'Agastache_occidentalis'
p967
(dp968
g4
S'../views/shapefiles/Agastache_occidentalis.shp'
p969
sg6
g7
sg8
S'Agastache_occidentalis'
p970
sg10
S'5665367'
p971
ssS'Pogogyne_douglasii'
p972
(dp973
g4
S'../views/shapefiles/Pogogyne_douglasii.shp'
p974
sg6
g7
sg8
S'Pogogyne_douglasii'
p975
sg10
S'5665368'
p976
ssS'Aegiphila_elata'
p977
(dp978
g4
S'../views/shapefiles/Aegiphila_elata.shp'
p979
sg6
g7
sg8
S'Aegiphila_elata'
p980
sg10
S'5665369'
p981
ssS'Salvia_whitehousei'
p982
(dp983
g4
S'../views/shapefiles/Salvia_whitehousei.shp'
p984
sg6
g7
sg8
S'Salvia_whitehousei'
p985
sg10
S'5665370'
p986
ssS'Monarda_clinopodioides'
p987
(dp988
g4
S'../views/shapefiles/Monarda_clinopodioides.shp'
p989
sg6
g7
sg8
S'Monarda_clinopodioides'
p990
sg10
S'5665371'
p991
ssS'Monarda_russeliana'
p992
(dp993
g4
S'../views/shapefiles/Monarda_russeliana.shp'
p994
sg6
g7
sg8
S'Monarda_russeliana'
p995
sg10
S'5665372'
p996
ssS'Monardella_pringlei'
p997
(dp998
g4
S'../views/shapefiles/Monardella_pringlei.shp'
p999
sg6
g7
sg8
S'Monardella_pringlei'
p1000
sg10
S'5665373'
p1001
ssS'Trichostema_rubisepalum'
p1002
(dp1003
g4
S'../views/shapefiles/Trichostema_rubisepalum.shp'
p1004
sg6
g7
sg8
S'Trichostema_rubisepalum'
p1005
sg10
S'5665374'
p1006
ssS'Warnockia_scutellarioides'
p1007
(dp1008
g4
S'../views/shapefiles/Warnockia_scutellarioides.shp'
p1009
sg6
g7
sg8
S'Warnockia_scutellarioides'
p1010
sg10
S'5665375'
p1011
ssS'Acanthomintha_ilicifolia'
p1012
(dp1013
g4
S'../views/shapefiles/Acanthomintha_ilicifolia.shp'
p1014
sg6
g7
sg8
S'Acanthomintha_ilicifolia'
p1015
sg10
S'5665376'
p1016
ssS'Monardella_beneolens'
p1017
(dp1018
g4
S'../views/shapefiles/Monardella_beneolens.shp'
p1019
sg6
g7
sg8
S'Monardella_beneolens'
p1020
sg10
S'5665377'
p1021
ssS'Agastache_breviflora'
p1022
(dp1023
g4
S'../views/shapefiles/Agastache_breviflora.shp'
p1024
sg6
g7
sg8
S'Agastache_breviflora'
p1025
sg10
S'5665378'
p1026
ssS'Plectranthus_parviflorus'
p1027
(dp1028
g4
S'../views/shapefiles/Plectranthus_parviflorus.shp'
p1029
sg6
g7
sg8
S'Plectranthus_parviflorus'
p1030
sg10
S'5665379'
p1031
ssS'Stachys_stricta'
p1032
(dp1033
g4
S'../views/shapefiles/Stachys_stricta.shp'
p1034
sg6
g7
sg8
S'Stachys_stricta'
p1035
sg10
S'5665380'
p1036
ssS'Stachys_latidens'
p1037
(dp1038
g4
S'../views/shapefiles/Stachys_latidens.shp'
p1039
sg6
g7
sg8
S'Stachys_latidens'
p1040
sg10
S'5665381'
p1041
ssS'Rosmarinus_officinalis'
p1042
(dp1043
g4
S'../views/shapefiles/Rosmarinus_officinalis.shp'
p1044
sg6
g7
sg8
S'Rosmarinus_officinalis'
p1045
sg10
S'5665382'
p1046
ssS'Salvia_azurea'
p1047
(dp1048
g4
S'../views/shapefiles/Salvia_azurea.shp'
p1049
sg6
g7
sg8
S'Salvia_azurea'
p1050
sg10
S'5665383'
p1051
ssS'Scutellaria_nana'
p1052
(dp1053
g4
S'../views/shapefiles/Scutellaria_nana.shp'
p1054
sg6
g7
sg8
S'Scutellaria_nana'
p1055
sg10
S'5665384'
p1056
ssS'Ocimum_gratissimum'
p1057
(dp1058
g4
S'../views/shapefiles/Ocimum_gratissimum.shp'
p1059
sg6
g7
sg8
S'Ocimum_gratissimum'
p1060
sg10
S'5665385'
p1061
ssS'Ocimum_basilicum'
p1062
(dp1063
g4
S'../views/shapefiles/Ocimum_basilicum.shp'
p1064
sg6
g7
sg8
S'Ocimum_basilicum'
p1065
sg10
S'5665386'
p1066
ssS'Stachys_recta'
p1067
(dp1068
g4
S'../views/shapefiles/Stachys_recta.shp'
p1069
sg6
g7
sg8
S'Stachys_recta'
p1070
sg10
S'5665387'
p1071
ssS'Thymus_serpyllum'
p1072
(dp1073
g4
S'../views/shapefiles/Thymus_serpyllum.shp'
p1074
sg6
g7
sg8
S'Thymus_serpyllum'
p1075
sg10
S'5665388'
p1076
ssS'Lamium_album'
p1077
(dp1078
g4
S'../views/shapefiles/Lamium_album.shp'
p1079
sg6
g7
sg8
S'Lamium_album'
p1080
sg10
S'5665389'
p1081
ssS'Hyptis_alata'
p1082
(dp1083
g4
S'../views/shapefiles/Hyptis_alata.shp'
p1084
sg6
g7
sg8
S'Hyptis_alata'
p1085
sg10
S'5665390'
p1086
ssS'Hedeoma_diffusa'
p1087
(dp1088
g4
S'../views/shapefiles/Hedeoma_diffusa.shp'
p1089
sg6
g7
sg8
S'Hedeoma_diffusa'
p1090
sg10
S'5665391'
p1091
ssS'Pycnanthemum_tenuifolium'
p1092
(dp1093
g4
S'../views/shapefiles/Pycnanthemum_tenuifolium.shp'
p1094
sg6
g7
sg8
S'Pycnanthemum_tenuifolium'
p1095
sg10
S'5665392'
p1096
ssS'Perilla_frutescens'
p1097
(dp1098
g4
S'../views/shapefiles/Perilla_frutescens.shp'
p1099
sg6
g7
sg8
S'Perilla_frutescens'
p1100
sg10
S'5665393'
p1101
ssS'Salvia_coccinea'
p1102
(dp1103
g4
S'../views/shapefiles/Salvia_coccinea.shp'
p1104
sg6
g7
sg8
S'Salvia_coccinea'
p1105
sg10
S'5665394'
p1106
ssS'Physostegia_intermedia'
p1107
(dp1108
g4
S'../views/shapefiles/Physostegia_intermedia.shp'
p1109
sg6
g7
sg8
S'Physostegia_intermedia'
p1110
sg10
S'5665395'
p1111
ssS'Conradina_etonia'
p1112
(dp1113
g4
S'../views/shapefiles/Conradina_etonia.shp'
p1114
sg6
g7
sg8
S'Conradina_etonia'
p1115
sg10
S'5665396'
p1116
ssS'Hedeoma_drummondii'
p1117
(dp1118
g4
S'../views/shapefiles/Hedeoma_drummondii.shp'
p1119
sg6
g7
sg8
S'Hedeoma_drummondii'
p1120
sg10
S'5665397'
p1121
ssS'Pycnanthemum_curvipes'
p1122
(dp1123
g4
S'../views/shapefiles/Pycnanthemum_curvipes.shp'
p1124
sg6
g7
sg8
S'Pycnanthemum_curvipes'
p1125
sg10
S'5665398'
p1126
ssS'Hedeoma_acinoides'
p1127
(dp1128
g4
S'../views/shapefiles/Hedeoma_acinoides.shp'
p1129
sg6
g7
sg8
S'Hedeoma_acinoides'
p1130
sg10
S'5665399'
p1131
ssS'Salvia_misella'
p1132
(dp1133
g4
S'../views/shapefiles/Salvia_misella.shp'
p1134
sg6
g7
sg8
S'Salvia_misella'
p1135
sg10
S'5665400'
p1136
ssS'Salvia_leucophylla'
p1137
(dp1138
g4
S'../views/shapefiles/Salvia_leucophylla.shp'
p1139
sg6
g7
sg8
S'Salvia_leucophylla'
p1140
sg10
S'5665401'
p1141
ssS'Sideritis_romana'
p1142
(dp1143
g4
S'../views/shapefiles/Sideritis_romana.shp'
p1144
sg6
g7
sg8
S'Sideritis_romana'
p1145
sg10
S'5665402'
p1146
ssS'Nepeta_racemosa'
p1147
(dp1148
g4
S'../views/shapefiles/Nepeta_racemosa.shp'
p1149
sg6
g7
sg8
S'Nepeta_racemosa'
p1150
sg10
S'5665403'
p1151
ssS'Stachys_byzantina'
p1152
(dp1153
g4
S'../views/shapefiles/Stachys_byzantina.shp'
p1154
sg6
g7
sg8
S'Stachys_byzantina'
p1155
sg10
S'5665404'
p1156
ssS'Lepechinia_calycina'
p1157
(dp1158
g4
S'../views/shapefiles/Lepechinia_calycina.shp'
p1159
sg6
g7
sg8
S'Lepechinia_calycina'
p1160
sg10
S'5665405'
p1161
ssS'Pycnanthemum_albescens'
p1162
(dp1163
g4
S'../views/shapefiles/Pycnanthemum_albescens.shp'
p1164
sg6
g7
sg8
S'Pycnanthemum_albescens'
p1165
sg10
S'5665406'
p1166
ssS'Conradina_verticillata'
p1167
(dp1168
g4
S'../views/shapefiles/Conradina_verticillata.shp'
p1169
sg6
g7
sg8
S'Conradina_verticillata'
p1170
sg10
S'5665407'
p1171
ssS'Salvia_arizonica'
p1172
(dp1173
g4
S'../views/shapefiles/Salvia_arizonica.shp'
p1174
sg6
g7
sg8
S'Salvia_arizonica'
p1175
sg10
S'5665408'
p1176
ssS'Lycopus_americanus'
p1177
(dp1178
g4
S'../views/shapefiles/Lycopus_americanus.shp'
p1179
sg6
g7
sg8
S'Lycopus_americanus'
p1180
sg10
S'5665409'
p1181
ssS'Marrubium_vulgare'
p1182
(dp1183
g4
S'../views/shapefiles/Marrubium_vulgare.shp'
p1184
sg6
g7
sg8
S'Marrubium_vulgare'
p1185
sg10
S'5665410'
p1186
ssS'Lamium_maculatum'
p1187
(dp1188
g4
S'../views/shapefiles/Lamium_maculatum.shp'
p1189
sg6
g7
sg8
S'Lamium_maculatum'
p1190
sg10
S'5665411'
p1191
ssS'Leonurus_japonicus'
p1192
(dp1193
g4
S'../views/shapefiles/Leonurus_japonicus.shp'
p1194
sg6
g7
sg8
S'Leonurus_japonicus'
p1195
sg10
S'5665412'
p1196
ssS'Scutellaria_floridana'
p1197
(dp1198
g4
S'../views/shapefiles/Scutellaria_floridana.shp'
p1199
sg6
g7
sg8
S'Scutellaria_floridana'
p1200
sg10
S'5665413'
p1201
ssS'Stachys_affinis'
p1202
(dp1203
g4
S'../views/shapefiles/Stachys_affinis.shp'
p1204
sg6
g7
sg8
S'Stachys_affinis'
p1205
sg10
S'5665414'
p1206
ssS'Lepechinia_hastata'
p1207
(dp1208
g4
S'../views/shapefiles/Lepechinia_hastata.shp'
p1209
sg6
g7
sg8
S'Lepechinia_hastata'
p1210
sg10
S'5665415'
p1211
ssS'Agastache_nepetoides'
p1212
(dp1213
g4
S'../views/shapefiles/Agastache_nepetoides.shp'
p1214
sg6
g7
sg8
S'Agastache_nepetoides'
p1215
sg10
S'5665416'
p1216
ssS'Salvia_pratensis'
p1217
(dp1218
g4
S'../views/shapefiles/Salvia_pratensis.shp'
p1219
sg6
g7
sg8
S'Salvia_pratensis'
p1220
sg10
S'5665417'
p1221
ssS'Scutellaria_altamaha'
p1222
(dp1223
g4
S'../views/shapefiles/Scutellaria_altamaha.shp'
p1224
sg6
g7
sg8
S'Scutellaria_altamaha'
p1225
sg10
S'5665418'
p1226
ssS'Salvia_pachyphylla'
p1227
(dp1228
g4
S'../views/shapefiles/Salvia_pachyphylla.shp'
p1229
sg6
g7
sg8
S'Salvia_pachyphylla'
p1230
sg10
S'5665419'
p1231
ssS'Hyptis_pectinata'
p1232
(dp1233
g4
S'../views/shapefiles/Hyptis_pectinata.shp'
p1234
sg6
g7
sg8
S'Hyptis_pectinata'
p1235
sg10
S'5665420'
p1236
ssS'Lycopus_europaeus'
p1237
(dp1238
g4
S'../views/shapefiles/Lycopus_europaeus.shp'
p1239
sg6
g7
sg8
S'Lycopus_europaeus'
p1240
sg10
S'5665421'
p1241
ssS'Salvia_engelmannii'
p1242
(dp1243
g4
S'../views/shapefiles/Salvia_engelmannii.shp'
p1244
sg6
g7
sg8
S'Salvia_engelmannii'
p1245
sg10
S'5665422'
p1246
ssS'Nepeta_grandiflora'
p1247
(dp1248
g4
S'../views/shapefiles/Nepeta_grandiflora.shp'
p1249
sg6
g7
sg8
S'Nepeta_grandiflora'
p1250
sg10
S'5665423'
p1251
ssS'Trichostema_brachiatum'
p1252
(dp1253
g4
S'../views/shapefiles/Trichostema_brachiatum.shp'
p1254
sg6
g7
sg8
S'Trichostema_brachiatum'
p1255
sg10
S'5665424'
p1256
ssS'Hedeoma_pulcherrima'
p1257
(dp1258
g4
S'../views/shapefiles/Hedeoma_pulcherrima.shp'
p1259
sg6
g7
sg8
S'Hedeoma_pulcherrima'
p1260
sg10
S'5665425'
p1261
ssS'Salvia_reflexa'
p1262
(dp1263
g4
S'../views/shapefiles/Salvia_reflexa.shp'
p1264
sg6
g7
sg8
S'Salvia_reflexa'
p1265
sg10
S'5665426'
p1266
ssS'Scutellaria_wrightii'
p1267
(dp1268
g4
S'../views/shapefiles/Scutellaria_wrightii.shp'
p1269
sg6
g7
sg8
S'Scutellaria_wrightii'
p1270
sg10
S'5665427'
p1271
ssS'Salvia_amissa'
p1272
(dp1273
g4
S'../views/shapefiles/Salvia_amissa.shp'
p1274
sg6
g7
sg8
S'Salvia_amissa'
p1275
sg10
S'5665428'
p1276
ssS'Monardella_breweri'
p1277
(dp1278
g4
S'../views/shapefiles/Monardella_breweri.shp'
p1279
sg6
g7
sg8
S'Monardella_breweri'
p1280
sg10
S'5665429'
p1281
ssS'Callicarpa_dichotoma'
p1282
(dp1283
g4
S'../views/shapefiles/Callicarpa_dichotoma.shp'
p1284
sg6
g7
sg8
S'Callicarpa_dichotoma'
p1285
sg10
S'5665430'
p1286
ssS'Lallemantia_peltata'
p1287
(dp1288
g4
S'../views/shapefiles/Lallemantia_peltata.shp'
p1289
sg6
g7
sg8
S'Lallemantia_peltata'
p1290
sg10
S'5665431'
p1291
ssS'Monardella_macrantha'
p1292
(dp1293
g4
S'../views/shapefiles/Monardella_macrantha.shp'
p1294
sg6
g7
sg8
S'Monardella_macrantha'
p1295
sg10
S'5665432'
p1296
ssS'Pycnanthemum_californicum'
p1297
(dp1298
g4
S'../views/shapefiles/Pycnanthemum_californicum.shp'
p1299
sg6
g7
sg8
S'Pycnanthemum_californicum'
p1300
sg10
S'5665433'
p1301
ssS'Lepechinia_rossii'
p1302
(dp1303
g4
S'../views/shapefiles/Lepechinia_rossii.shp'
p1304
sg6
g7
sg8
S'Lepechinia_rossii'
p1305
sg10
S'5665434'
p1306
ssS'Thymus_vulgaris'
p1307
(dp1308
g4
S'../views/shapefiles/Thymus_vulgaris.shp'
p1309
sg6
g7
sg8
S'Thymus_vulgaris'
p1310
sg10
S'5665435'
p1311
ssS'Scutellaria_angustifolia'
p1312
(dp1313
g4
S'../views/shapefiles/Scutellaria_angustifolia.shp'
p1314
sg6
g7
sg8
S'Scutellaria_angustifolia'
p1315
sg10
S'5665436'
p1316
ssS'Salvia_mohavensis'
p1317
(dp1318
g4
S'../views/shapefiles/Salvia_mohavensis.shp'
p1319
sg6
g7
sg8
S'Salvia_mohavensis'
p1320
sg10
S'5665437'
p1321
ssS'Stachys_palustris'
p1322
(dp1323
g4
S'../views/shapefiles/Stachys_palustris.shp'
p1324
sg6
g7
sg8
S'Stachys_palustris'
p1325
sg10
S'5665438'
p1326
ssS'Clinopodium_coccineum'
p1327
(dp1328
g4
S'../views/shapefiles/Clinopodium_coccineum.shp'
p1329
sg6
g7
sg8
S'Clinopodium_coccineum'
p1330
sg10
S'5665439'
p1331
ssS'Physostegia_digitalis'
p1332
(dp1333
g4
S'../views/shapefiles/Physostegia_digitalis.shp'
p1334
sg6
g7
sg8
S'Physostegia_digitalis'
p1335
sg10
S'5665440'
p1336
ssS'Agastache_micrantha'
p1337
(dp1338
g4
S'../views/shapefiles/Agastache_micrantha.shp'
p1339
sg6
g7
sg8
S'Agastache_micrantha'
p1340
sg10
S'5665441'
p1341
ssS'Glechoma_hederacea'
p1342
(dp1343
g4
S'../views/shapefiles/Glechoma_hederacea.shp'
p1344
sg6
g7
sg8
S'Glechoma_hederacea'
p1345
sg10
S'5665442'
p1346
ssS'Mentha_spicata'
p1347
(dp1348
g4
S'../views/shapefiles/Mentha_spicata.shp'
p1349
sg6
g7
sg8
S'Mentha_spicata'
p1350
sg10
S'5665443'
p1351
ssS'Hedeoma_reverchonii'
p1352
(dp1353
g4
S'../views/shapefiles/Hedeoma_reverchonii.shp'
p1354
sg6
g7
sg8
S'Hedeoma_reverchonii'
p1355
sg10
S'5665444'
p1356
ssS'Hedeoma_hispida'
p1357
(dp1358
g4
S'../views/shapefiles/Hedeoma_hispida.shp'
p1359
sg6
g7
sg8
S'Hedeoma_hispida'
p1360
sg10
S'5665445'
p1361
ssS'Ballota_nigra'
p1362
(dp1363
g4
S'../views/shapefiles/Ballota_nigra.shp'
p1364
sg6
g7
sg8
S'Ballota_nigra'
p1365
sg10
S'5665446'
p1366
ssS'Pycnanthemum_nudum'
p1367
(dp1368
g4
S'../views/shapefiles/Pycnanthemum_nudum.shp'
p1369
sg6
g7
sg8
S'Pycnanthemum_nudum'
p1370
sg10
S'5665447'
p1371
ssS'Trichostema_lanatum'
p1372
(dp1373
g4
S'../views/shapefiles/Trichostema_lanatum.shp'
p1374
sg6
g7
sg8
S'Trichostema_lanatum'
p1375
sg10
S'5665448'
p1376
ssS'Monarda_didyma'
p1377
(dp1378
g4
S'../views/shapefiles/Monarda_didyma.shp'
p1379
sg6
g7
sg8
S'Monarda_didyma'
p1380
sg10
S'5665449'
p1381
ssS'Galeopsis_ladanum'
p1382
(dp1383
g4
S'../views/shapefiles/Galeopsis_ladanum.shp'
p1384
sg6
g7
sg8
S'Galeopsis_ladanum'
p1385
sg10
S'5665450'
p1386
ssS'Lycopus_uniflorus'
p1387
(dp1388
g4
S'../views/shapefiles/Lycopus_uniflorus.shp'
p1389
sg6
g7
sg8
S'Lycopus_uniflorus'
p1390
sg10
S'5665451'
p1391
ssS'Teucrium_botrys'
p1392
(dp1393
g4
S'../views/shapefiles/Teucrium_botrys.shp'
p1394
sg6
g7
sg8
S'Teucrium_botrys'
p1395
sg10
S'5665452'
p1396
ssS'Lamium_galeobdolon'
p1397
(dp1398
g4
S'../views/shapefiles/Lamium_galeobdolon.shp'
p1399
sg6
g7
sg8
S'Lamium_galeobdolon'
p1400
sg10
S'5665453'
p1401
ssS'Pycnanthemum_beadlei'
p1402
(dp1403
g4
S'../views/shapefiles/Pycnanthemum_beadlei.shp'
p1404
sg6
g7
sg8
S'Pycnanthemum_beadlei'
p1405
sg10
S'5665454'
p1406
ssS'Hedeoma_plicata'
p1407
(dp1408
g4
S'../views/shapefiles/Hedeoma_plicata.shp'
p1409
sg6
g7
sg8
S'Hedeoma_plicata'
p1410
sg10
S'5665455'
p1411
ssS'Rhododon_ciliatus'
p1412
(dp1413
g4
S'../views/shapefiles/Rhododon_ciliatus.shp'
p1414
sg6
g7
sg8
S'Rhododon_ciliatus'
p1415
sg10
S'5665456'
p1416
ssS'Blephilia_ciliata'
p1417
(dp1418
g4
S'../views/shapefiles/Blephilia_ciliata.shp'
p1419
sg6
g7
sg8
S'Blephilia_ciliata'
p1420
sg10
S'5665457'
p1421
ssS'Salvia_roemeriana'
p1422
(dp1423
g4
S'../views/shapefiles/Salvia_roemeriana.shp'
p1424
sg6
g7
sg8
S'Salvia_roemeriana'
p1425
sg10
S'5665458'
p1426
ssS'Pycnanthemum_verticillatum'
p1427
(dp1428
g4
S'../views/shapefiles/Pycnanthemum_verticillatum.shp'
p1429
sg6
g7
sg8
S'Pycnanthemum_verticillatum'
p1430
sg10
S'5665459'
p1431
ssS'Stachys_germanica'
p1432
(dp1433
g4
S'../views/shapefiles/Stachys_germanica.shp'
p1434
sg6
g7
sg8
S'Stachys_germanica'
p1435
sg10
S'5665460'
p1436
ssS'Leonotis_leonurus'
p1437
(dp1438
g4
S'../views/shapefiles/Leonotis_leonurus.shp'
p1439
sg6
g7
sg8
S'Leonotis_leonurus'
p1440
sg10
S'5665461'
p1441
ssS'Scutellaria_glabriuscula'
p1442
(dp1443
g4
S'../views/shapefiles/Scutellaria_glabriuscula.shp'
p1444
sg6
g7
sg8
S'Scutellaria_glabriuscula'
p1445
sg10
S'5665462'
p1446
ssS'Physostegia_longisepala'
p1447
(dp1448
g4
S'../views/shapefiles/Physostegia_longisepala.shp'
p1449
sg6
g7
sg8
S'Physostegia_longisepala'
p1450
sg10
S'5665463'
p1451
ssS'Leonotis_nepetifolia'
p1452
(dp1453
g4
S'../views/shapefiles/Leonotis_nepetifolia.shp'
p1454
sg6
g7
sg8
S'Leonotis_nepetifolia'
p1455
sg10
S'5665464'
p1456
ssS'Scutellaria_microphylla'
p1457
(dp1458
g4
S'../views/shapefiles/Scutellaria_microphylla.shp'
p1459
sg6
g7
sg8
S'Scutellaria_microphylla'
p1460
sg10
S'5665465'
p1461
ssS'Monardella_undulata'
p1462
(dp1463
g4
S'../views/shapefiles/Monardella_undulata.shp'
p1464
sg6
g7
sg8
S'Monardella_undulata'
p1465
sg10
S'5665466'
p1466
ssS'Teucrium_cubense'
p1467
(dp1468
g4
S'../views/shapefiles/Teucrium_cubense.shp'
p1469
sg6
g7
sg8
S'Teucrium_cubense'
p1470
sg10
S'5665467'
p1471
ssS'Clerodendrum_speciosissimum'
p1472
(dp1473
g4
S'../views/shapefiles/Clerodendrum_speciosissimum.shp'
p1474
sg6
g7
sg8
S'Clerodendrum_speciosissimum'
p1475
sg10
S'5665468'
p1476
ssS'Scutellaria_siphocampyloides'
p1477
(dp1478
g4
S'../views/shapefiles/Scutellaria_siphocampyloides.shp'
p1479
sg6
g7
sg8
S'Scutellaria_siphocampyloides'
p1480
sg10
S'5665469'
p1481
ssS'Holmskioldia_sanguinea'
p1482
(dp1483
g4
S'../views/shapefiles/Holmskioldia_sanguinea.shp'
p1484
sg6
g7
sg8
S'Holmskioldia_sanguinea'
p1485
sg10
S'5665470'
p1486
ssS'Trichostema_ruygtii'
p1487
(dp1488
g4
S'../views/shapefiles/Trichostema_ruygtii.shp'
p1489
sg6
g7
sg8
S'Trichostema_ruygtii'
p1490
sg10
S'5665471'
p1491
ssS'Salvia_lycioides'
p1492
(dp1493
g4
S'../views/shapefiles/Salvia_lycioides.shp'
p1494
sg6
g7
sg8
S'Salvia_lycioides'
p1495
sg10
S'5665472'
p1496
ssS'Piloblephis_rigida'
p1497
(dp1498
g4
S'../views/shapefiles/Piloblephis_rigida.shp'
p1499
sg6
g7
sg8
S'Piloblephis_rigida'
p1500
sg10
S'5665473'
p1501
ssS'Lamium_purpureum'
p1502
(dp1503
g4
S'../views/shapefiles/Lamium_purpureum.shp'
p1504
sg6
g7
sg8
S'Lamium_purpureum'
p1505
sg10
S'5665474'
p1506
ssS'Scutellaria_cardiophylla'
p1507
(dp1508
g4
S'../views/shapefiles/Scutellaria_cardiophylla.shp'
p1509
sg6
g7
sg8
S'Scutellaria_cardiophylla'
p1510
sg10
S'5665475'
p1511
ssS'Monarda_maritima'
p1512
(dp1513
g4
S'../views/shapefiles/Monarda_maritima.shp'
p1514
sg6
g7
sg8
S'Monarda_maritima'
p1515
sg10
S'5665476'
p1516
ssS'Cornutia_pyramidata'
p1517
(dp1518
g4
S'../views/shapefiles/Cornutia_pyramidata.shp'
p1519
sg6
g7
sg8
S'Cornutia_pyramidata'
p1520
sg10
S'5665477'
p1521
ssS'Stachys_cordata'
p1522
(dp1523
g4
S'../views/shapefiles/Stachys_cordata.shp'
p1524
sg6
g7
sg8
S'Stachys_cordata'
p1525
sg10
S'5665478'
p1526
ssS'Pycnanthemum_montanum'
p1527
(dp1528
g4
S'../views/shapefiles/Pycnanthemum_montanum.shp'
p1529
sg6
g7
sg8
S'Pycnanthemum_montanum'
p1530
sg10
S'5665479'
p1531
ssS'Teucrium_canadense'
p1532
(dp1533
g4
S'../views/shapefiles/Teucrium_canadense.shp'
p1534
sg6
g7
sg8
S'Teucrium_canadense'
p1535
sg10
S'5665480'
p1536
ssS'Lycopus_asper'
p1537
(dp1538
g4
S'../views/shapefiles/Lycopus_asper.shp'
p1539
sg6
g7
sg8
S'Lycopus_asper'
p1540
sg10
S'5665481'
p1541
ssS'Origanum_majorana'
p1542
(dp1543
g4
S'../views/shapefiles/Origanum_majorana.shp'
p1544
sg6
g7
sg8
S'Origanum_majorana'
p1545
sg10
S'5665482'
p1546
ssS'Stachys_mexicana'
p1547
(dp1548
g4
S'../views/shapefiles/Stachys_mexicana.shp'
p1549
sg6
g7
sg8
S'Stachys_mexicana'
p1550
sg10
S'5665483'
p1551
ssS'Salvia_munzii'
p1552
(dp1553
g4
S'../views/shapefiles/Salvia_munzii.shp'
p1554
sg6
g7
sg8
S'Salvia_munzii'
p1555
sg10
S'5665484'
p1556
ssS'Scutellaria_serrata'
p1557
(dp1558
g4
S'../views/shapefiles/Scutellaria_serrata.shp'
p1559
sg6
g7
sg8
S'Scutellaria_serrata'
p1560
sg10
S'5665485'
p1561
ssS'Salvia_longistyla'
p1562
(dp1563
g4
S'../views/shapefiles/Salvia_longistyla.shp'
p1564
sg6
g7
sg8
S'Salvia_longistyla'
p1565
sg10
S'5665486'
p1566
ssS'Brazoria_arenaria'
p1567
(dp1568
g4
S'../views/shapefiles/Brazoria_arenaria.shp'
p1569
sg6
g7
sg8
S'Brazoria_arenaria'
p1570
sg10
S'5665487'
p1571
ssS'Salvia_urticifolia'
p1572
(dp1573
g4
S'../views/shapefiles/Salvia_urticifolia.shp'
p1574
sg6
g7
sg8
S'Salvia_urticifolia'
p1575
sg10
S'5665488'
p1576
ssS'Conradina_canescens'
p1577
(dp1578
g4
S'../views/shapefiles/Conradina_canescens.shp'
p1579
sg6
g7
sg8
S'Conradina_canescens'
p1580
sg10
S'5665489'
p1581
ssS'Scutellaria_montana'
p1582
(dp1583
g4
S'../views/shapefiles/Scutellaria_montana.shp'
p1584
sg6
g7
sg8
S'Scutellaria_montana'
p1585
sg10
S'5665490'
p1586
ssS'Monardella_exilis'
p1587
(dp1588
g4
S'../views/shapefiles/Monardella_exilis.shp'
p1589
sg6
g7
sg8
S'Monardella_exilis'
p1590
sg10
S'5665491'
p1591
ssS'Hedeoma_mollis'
p1592
(dp1593
g4
S'../views/shapefiles/Hedeoma_mollis.shp'
p1594
sg6
g7
sg8
S'Hedeoma_mollis'
p1595
sg10
S'5665492'
p1596
ssS'Trichostema_dichotomum'
p1597
(dp1598
g4
S'../views/shapefiles/Trichostema_dichotomum.shp'
p1599
sg6
g7
sg8
S'Trichostema_dichotomum'
p1600
sg10
S'5665493'
p1601
ssS'Clinopodium_dentatum'
p1602
(dp1603
g4
S'../views/shapefiles/Clinopodium_dentatum.shp'
p1604
sg6
g7
sg8
S'Clinopodium_dentatum'
p1605
sg10
S'5665494'
p1606
ssS'Scutellaria_mellichampii'
p1607
(dp1608
g4
S'../views/shapefiles/Scutellaria_mellichampii.shp'
p1609
sg6
g7
sg8
S'Scutellaria_mellichampii'
p1610
sg10
S'5665495'
p1611
ssS'Brazoria_truncata'
p1612
(dp1613
g4
S'../views/shapefiles/Brazoria_truncata.shp'
p1614
sg6
g7
sg8
S'Brazoria_truncata'
p1615
sg10
S'5665496'
p1616
ssS'Elsholtzia_ciliata'
p1617
(dp1618
g4
S'../views/shapefiles/Elsholtzia_ciliata.shp'
p1619
sg6
g7
sg8
S'Elsholtzia_ciliata'
p1620
sg10
S'5665497'
p1621
ssS'Hedeoma_pulegioides'
p1622
(dp1623
g4
S'../views/shapefiles/Hedeoma_pulegioides.shp'
p1624
sg6
g7
sg8
S'Hedeoma_pulegioides'
p1625
sg10
S'5665498'
p1626
ssS'Salvia_microphylla'
p1627
(dp1628
g4
S'../views/shapefiles/Salvia_microphylla.shp'
p1629
sg6
g7
sg8
S'Salvia_microphylla'
p1630
sg10
S'5665499'
p1631
ssS'Hedeoma_costata'
p1632
(dp1633
g4
S'../views/shapefiles/Hedeoma_costata.shp'
p1634
sg6
g7
sg8
S'Hedeoma_costata'
p1635
sg10
S'5665500'
p1636
ssS'Stachys_annua'
p1637
(dp1638
g4
S'../views/shapefiles/Stachys_annua.shp'
p1639
sg6
g7
sg8
S'Stachys_annua'
p1640
sg10
S'5665501'
p1641
ssS'Salvia_greggii'
p1642
(dp1643
g4
S'../views/shapefiles/Salvia_greggii.shp'
p1644
sg6
g7
sg8
S'Salvia_greggii'
p1645
sg10
S'5665502'
p1646
ssS'Meehania_cordata'
p1647
(dp1648
g4
S'../views/shapefiles/Meehania_cordata.shp'
p1649
sg6
g7
sg8
S'Meehania_cordata'
p1650
sg10
S'5665503'
p1651
ssS'Teucrium_fruticans'
p1652
(dp1653
g4
S'../views/shapefiles/Teucrium_fruticans.shp'
p1654
sg6
g7
sg8
S'Teucrium_fruticans'
p1655
sg10
S'5665504'
p1656
ssS'Trichostema_suffrutescens'
p1657
(dp1658
g4
S'../views/shapefiles/Trichostema_suffrutescens.shp'
p1659
sg6
g7
sg8
S'Trichostema_suffrutescens'
p1660
sg10
S'5665505'
p1661
ssS'Trichostema_setaceum'
p1662
(dp1663
g4
S'../views/shapefiles/Trichostema_setaceum.shp'
p1664
sg6
g7
sg8
S'Trichostema_setaceum'
p1665
sg10
S'5665506'
p1666
ssS'Monardella_linoides'
p1667
(dp1668
g4
S'../views/shapefiles/Monardella_linoides.shp'
p1669
sg6
g7
sg8
S'Monardella_linoides'
p1670
sg10
S'5665507'
p1671
ssS'Leonurus_sibiricus'
p1672
(dp1673
g4
S'../views/shapefiles/Leonurus_sibiricus.shp'
p1674
sg6
g7
sg8
S'Leonurus_sibiricus'
p1675
sg10
S'5665508'
p1676
ssS'Lepechinia_fragrans'
p1677
(dp1678
g4
S'../views/shapefiles/Lepechinia_fragrans.shp'
p1679
sg6
g7
sg8
S'Lepechinia_fragrans'
p1680
sg10
S'5665509'
p1681
ssS'Mentha_aquatica'
p1682
(dp1683
g4
S'../views/shapefiles/Mentha_aquatica.shp'
p1684
sg6
g7
sg8
S'Mentha_aquatica'
p1685
sg10
S'5665510'
p1686
ssS'Scutellaria_churchilliana'
p1687
(dp1688
g4
S'../views/shapefiles/Scutellaria_churchilliana.shp'
p1689
sg6
g7
sg8
S'Scutellaria_churchilliana'
p1690
sg10
S'5665511'
p1691
ssS'Salvia_pinguifolia'
p1692
(dp1693
g4
S'../views/shapefiles/Salvia_pinguifolia.shp'
p1694
sg6
g7
sg8
S'Salvia_pinguifolia'
p1695
sg10
S'5665512'
p1696
ssS'Stachys_hyssopifolia'
p1697
(dp1698
g4
S'../views/shapefiles/Stachys_hyssopifolia.shp'
p1699
sg6
g7
sg8
S'Stachys_hyssopifolia'
p1700
sg10
S'5665513'
p1701
ssS'Stachys_floridana'
p1702
(dp1703
g4
S'../views/shapefiles/Stachys_floridana.shp'
p1704
sg6
g7
sg8
S'Stachys_floridana'
p1705
sg10
S'5665514'
p1706
ssS'Physostegia_purpurea'
p1707
(dp1708
g4
S'../views/shapefiles/Physostegia_purpurea.shp'
p1709
sg6
g7
sg8
S'Physostegia_purpurea'
p1710
sg10
S'5665515'
p1711
ssS'Clinopodium_mimuloides'
p1712
(dp1713
g4
S'../views/shapefiles/Clinopodium_mimuloides.shp'
p1714
sg6
g7
sg8
S'Clinopodium_mimuloides'
p1715
sg10
S'5665516'
p1716
ssS'Scutellaria_integrifolia'
p1717
(dp1718
g4
S'../views/shapefiles/Scutellaria_integrifolia.shp'
p1719
sg6
g7
sg8
S'Scutellaria_integrifolia'
p1720
sg10
S'5665517'
p1721
ssS'Clinopodium_brownei'
p1722
(dp1723
g4
S'../views/shapefiles/Clinopodium_brownei.shp'
p1724
sg6
g7
sg8
S'Clinopodium_brownei'
p1725
sg10
S'5665518'
p1726
ssS'Monardella_arizonica'
p1727
(dp1728
g4
S'../views/shapefiles/Monardella_arizonica.shp'
p1729
sg6
g7
sg8
S'Monardella_arizonica'
p1730
sg10
S'5665519'
p1731
ssS'Monardella_candicans'
p1732
(dp1733
g4
S'../views/shapefiles/Monardella_candicans.shp'
p1734
sg6
g7
sg8
S'Monardella_candicans'
p1735
sg10
S'5665520'
p1736
ssS'Scutellaria_laevis'
p1737
(dp1738
g4
S'../views/shapefiles/Scutellaria_laevis.shp'
p1739
sg6
g7
sg8
S'Scutellaria_laevis'
p1740
sg10
S'5665521'
p1741
ssS'Callicarpa_japonica'
p1742
(dp1743
g4
S'../views/shapefiles/Callicarpa_japonica.shp'
p1744
sg6
g7
sg8
S'Callicarpa_japonica'
p1745
sg10
S'5665522'
p1746
ssS'Clinopodium_glabellum'
p1747
(dp1748
g4
S'../views/shapefiles/Clinopodium_glabellum.shp'
p1749
sg6
g7
sg8
S'Clinopodium_glabellum'
p1750
sg10
S'5665523'
p1751
ssS'Monardella_nana'
p1752
(dp1753
g4
S'../views/shapefiles/Monardella_nana.shp'
p1754
sg6
g7
sg8
S'Monardella_nana'
p1755
sg10
S'5665524'
p1756
ssS'Salvia_hispanica'
p1757
(dp1758
g4
S'../views/shapefiles/Salvia_hispanica.shp'
p1759
sg6
g7
sg8
S'Salvia_hispanica'
p1760
sg10
S'5665525'
p1761
ssS'Monarda_lindheimeri'
p1762
(dp1763
g4
S'../views/shapefiles/Monarda_lindheimeri.shp'
p1764
sg6
g7
sg8
S'Monarda_lindheimeri'
p1765
sg10
S'5665526'
p1766
ssS'Sideritis_montana'
p1767
(dp1768
g4
S'../views/shapefiles/Sideritis_montana.shp'
p1769
sg6
g7
sg8
S'Sideritis_montana'
p1770
sg10
S'5665527'
p1771
ssS'Lepechinia_cardiophylla'
p1772
(dp1773
g4
S'../views/shapefiles/Lepechinia_cardiophylla.shp'
p1774
sg6
g7
sg8
S'Lepechinia_cardiophylla'
p1775
sg10
S'5665528'
p1776
ssS'Monardella_stebbinsii'
p1777
(dp1778
g4
S'../views/shapefiles/Monardella_stebbinsii.shp'
p1779
sg6
g7
sg8
S'Monardella_stebbinsii'
p1780
sg10
S'5665529'
p1781
ssS'Scutellaria_parvula'
p1782
(dp1783
g4
S'../views/shapefiles/Scutellaria_parvula.shp'
p1784
sg6
g7
sg8
S'Scutellaria_parvula'
p1785
sg10
S'5665530'
p1786
ssS'Cantinoa_mutabilis'
p1787
(dp1788
g4
S'../views/shapefiles/Cantinoa_mutabilis.shp'
p1789
sg6
g7
sg8
S'Cantinoa_mutabilis'
p1790
sg10
S'5665531'
p1791
ssS'Salvia_verticillata'
p1792
(dp1793
g4
S'../views/shapefiles/Salvia_verticillata.shp'
p1794
sg6
g7
sg8
S'Salvia_verticillata'
p1795
sg10
S'5665532'
p1796
ssS'Agastache_wrightii'
p1797
(dp1798
g4
S'../views/shapefiles/Agastache_wrightii.shp'
p1799
sg6
g7
sg8
S'Agastache_wrightii'
p1800
sg10
S'5665533'
p1801
ssS'Pycnanthemum_clinopodioides'
p1802
(dp1803
g4
S'../views/shapefiles/Pycnanthemum_clinopodioides.shp'
p1804
sg6
g7
sg8
S'Pycnanthemum_clinopodioides'
p1805
sg10
S'5665534'
p1806
ssS'Synandra_hispidula'
p1807
(dp1808
g4
S'../views/shapefiles/Synandra_hispidula.shp'
p1809
sg6
g7
sg8
S'Synandra_hispidula'
p1810
sg10
S'5665535'
p1811
ssS'Scutellaria_galericulata'
p1812
(dp1813
g4
S'../views/shapefiles/Scutellaria_galericulata.shp'
p1814
sg6
g7
sg8
S'Scutellaria_galericulata'
p1815
sg10
S'5665536'
p1816
ssS'Agastache_urticifolia'
p1817
(dp1818
g4
S'../views/shapefiles/Agastache_urticifolia.shp'
p1819
sg6
g7
sg8
S'Agastache_urticifolia'
p1820
sg10
S'5665537'
p1821
ssS'Lycopus_amplectens'
p1822
(dp1823
g4
S'../views/shapefiles/Lycopus_amplectens.shp'
p1824
sg6
g7
sg8
S'Lycopus_amplectens'
p1825
sg10
S'5665538'
p1826
ssS'Monardella_purpurea'
p1827
(dp1828
g4
S'../views/shapefiles/Monardella_purpurea.shp'
p1829
sg6
g7
sg8
S'Monardella_purpurea'
p1830
sg10
S'5665539'
p1831
ssS'Cunila_origanoides'
p1832
(dp1833
g4
S'../views/shapefiles/Cunila_origanoides.shp'
p1834
sg6
g7
sg8
S'Cunila_origanoides'
p1835
sg10
S'5665540'
p1836
ssS'Salvia_carduacea'
p1837
(dp1838
g4
S'../views/shapefiles/Salvia_carduacea.shp'
p1839
sg6
g7
sg8
S'Salvia_carduacea'
p1840
sg10
S'5665541'
p1841
ssS'Hedeoma_todsenii'
p1842
(dp1843
g4
S'../views/shapefiles/Hedeoma_todsenii.shp'
p1844
sg6
g7
sg8
S'Hedeoma_todsenii'
p1845
sg10
S'5665542'
p1846
ssS'Physostegia_correllii'
p1847
(dp1848
g4
S'../views/shapefiles/Physostegia_correllii.shp'
p1849
sg6
g7
sg8
S'Physostegia_correllii'
p1850
sg10
S'5665543'
p1851
ssS'Stachys_officinalis'
p1852
(dp1853
g4
S'../views/shapefiles/Stachys_officinalis.shp'
p1854
sg6
g7
sg8
S'Stachys_officinalis'
p1855
sg10
S'5665544'
p1856
ssS'Lycopus_laurentianus'
p1857
(dp1858
g4
S'../views/shapefiles/Lycopus_laurentianus.shp'
p1859
sg6
g7
sg8
S'Lycopus_laurentianus'
p1860
sg10
S'5665545'
p1861
ssS'Monardella_australis'
p1862
(dp1863
g4
S'../views/shapefiles/Monardella_australis.shp'
p1864
sg6
g7
sg8
S'Monardella_australis'
p1865
sg10
S'5665546'
p1866
ssS'Hedeoma_oblongifolia'
p1867
(dp1868
g4
S'../views/shapefiles/Hedeoma_oblongifolia.shp'
p1869
sg6
g7
sg8
S'Hedeoma_oblongifolia'
p1870
sg10
S'5665547'
p1871
ssS'Stachys_clingmanii'
p1872
(dp1873
g4
S'../views/shapefiles/Stachys_clingmanii.shp'
p1874
sg6
g7
sg8
S'Stachys_clingmanii'
p1875
sg10
S'5665548'
p1876
ssS'Cedronella_canariensis'
p1877
(dp1878
g4
S'../views/shapefiles/Cedronella_canariensis.shp'
p1879
sg6
g7
sg8
S'Cedronella_canariensis'
p1880
sg10
S'5665549'
p1881
ssS'Salvia_splendens'
p1882
(dp1883
g4
S'../views/shapefiles/Salvia_splendens.shp'
p1884
sg6
g7
sg8
S'Salvia_splendens'
p1885
sg10
S'5665550'
p1886
ssS'Macbridea_alba'
p1887
(dp1888
g4
S'../views/shapefiles/Macbridea_alba.shp'
p1889
sg6
g7
sg8
S'Macbridea_alba'
p1890
sg10
S'5665551'
p1891
ssS'Trichostema_arizonicum'
p1892
(dp1893
g4
S'../views/shapefiles/Trichostema_arizonicum.shp'
p1894
sg6
g7
sg8
S'Trichostema_arizonicum'
p1895
sg10
S'5665552'
p1896
ssS'Agastache_cusickii'
p1897
(dp1898
g4
S'../views/shapefiles/Agastache_cusickii.shp'
p1899
sg6
g7
sg8
S'Agastache_cusickii'
p1900
sg10
S'5665553'
p1901
ssS'Thymus_praecox'
p1902
(dp1903
g4
S'../views/shapefiles/Thymus_praecox.shp'
p1904
sg6
g7
sg8
S'Thymus_praecox'
p1905
sg10
S'5665554'
p1906
ssS'Salvia_regla'
p1907
(dp1908
g4
S'../views/shapefiles/Salvia_regla.shp'
p1909
sg6
g7
sg8
S'Salvia_regla'
p1910
sg10
S'5665555'
p1911
ssS'Lycopus_rubellus'
p1912
(dp1913
g4
S'../views/shapefiles/Lycopus_rubellus.shp'
p1914
sg6
g7
sg8
S'Lycopus_rubellus'
p1915
sg10
S'5665556'
p1916
ssS'Scutellaria_saxatilis'
p1917
(dp1918
g4
S'../views/shapefiles/Scutellaria_saxatilis.shp'
p1919
sg6
g7
sg8
S'Scutellaria_saxatilis'
p1920
sg10
S'5665557'
p1921
ssS'Hyptis_capitata'
p1922
(dp1923
g4
S'../views/shapefiles/Hyptis_capitata.shp'
p1924
sg6
g7
sg8
S'Hyptis_capitata'
p1925
sg10
S'5665558'
p1926
ssS'Salvia_summa'
p1927
(dp1928
g4
S'../views/shapefiles/Salvia_summa.shp'
p1929
sg6
g7
sg8
S'Salvia_summa'
p1930
sg10
S'5665559'
p1931
ssS'Clinopodium_ashei'
p1932
(dp1933
g4
S'../views/shapefiles/Clinopodium_ashei.shp'
p1934
sg6
g7
sg8
S'Clinopodium_ashei'
p1935
sg10
S'5665560'
p1936
ssS'Agastache_mearnsii'
p1937
(dp1938
g4
S'../views/shapefiles/Agastache_mearnsii.shp'
p1939
sg6
g7
sg8
S'Agastache_mearnsii'
p1940
sg10
S'5665561'
p1941
ssS'Agastache_foeniculum'
p1942
(dp1943
g4
S'../views/shapefiles/Agastache_foeniculum.shp'
p1944
sg6
g7
sg8
S'Agastache_foeniculum'
p1945
sg10
S'5665562'
p1946
ssS'Salvia_apiana'
p1947
(dp1948
g4
S'../views/shapefiles/Salvia_apiana.shp'
p1949
sg6
g7
sg8
S'Salvia_apiana'
p1950
sg10
S'5665563'
p1951
ssS'Clerodendrum_umbellatum'
p1952
(dp1953
g4
S'../views/shapefiles/Clerodendrum_umbellatum.shp'
p1954
sg6
g7
sg8
S'Clerodendrum_umbellatum'
p1955
sg10
S'5665564'
p1956
ssS'Dicerandra_odoratissima'
p1957
(dp1958
g4
S'../views/shapefiles/Dicerandra_odoratissima.shp'
p1959
sg6
g7
sg8
S'Dicerandra_odoratissima'
p1960
sg10
S'5665565'
p1961
ssS'Scutellaria_resinosa'
p1962
(dp1963
g4
S'../views/shapefiles/Scutellaria_resinosa.shp'
p1964
sg6
g7
sg8
S'Scutellaria_resinosa'
p1965
sg10
S'5665566'
p1966
ssS'Salvia_lyrata'
p1967
(dp1968
g4
S'../views/shapefiles/Salvia_lyrata.shp'
p1969
sg6
g7
sg8
S'Salvia_lyrata'
p1970
sg10
S'5665567'
p1971
ssS'Mosla_dianthera'
p1972
(dp1973
g4
S'../views/shapefiles/Mosla_dianthera.shp'
p1974
sg6
g7
sg8
S'Mosla_dianthera'
p1975
sg10
S'5665568'
p1976
ssS'Ocimum_campechianum'
p1977
(dp1978
g4
S'../views/shapefiles/Ocimum_campechianum.shp'
p1979
sg6
g7
sg8
S'Ocimum_campechianum'
p1980
sg10
S'5665569'
p1981
ssS'Scutellaria_havanensis'
p1982
(dp1983
g4
S'../views/shapefiles/Scutellaria_havanensis.shp'
p1984
sg6
g7
sg8
S'Scutellaria_havanensis'
p1985
sg10
S'5665570'
p1986
ssS'Physostegia_virginiana'
p1987
(dp1988
g4
S'../views/shapefiles/Physostegia_virginiana.shp'
p1989
sg6
g7
sg8
S'Physostegia_virginiana'
p1990
sg10
S'5665571'
p1991
ssS'Scutellaria_californica'
p1992
(dp1993
g4
S'../views/shapefiles/Scutellaria_californica.shp'
p1994
sg6
g7
sg8
S'Scutellaria_californica'
p1995
sg10
S'5665572'
p1996
ssS'Conradina_glabra'
p1997
(dp1998
g4
S'../views/shapefiles/Conradina_glabra.shp'
p1999
sg6
g7
sg8
S'Conradina_glabra'
p2000
sg10
S'5665573'
p2001
ssS'Salvia_texana'
p2002
(dp2003
g4
S'../views/shapefiles/Salvia_texana.shp'
p2004
sg6
g7
sg8
S'Salvia_texana'
p2005
sg10
S'5665574'
p2006
ssS'Pycnanthemum_virginianum'
p2007
(dp2008
g4
S'../views/shapefiles/Pycnanthemum_virginianum.shp'
p2009
sg6
g7
sg8
S'Pycnanthemum_virginianum'
p2010
sg10
S'5665575'
p2011
ssS'Monardella_sheltonii'
p2012
(dp2013
g4
S'../views/shapefiles/Monardella_sheltonii.shp'
p2014
sg6
g7
sg8
S'Monardella_sheltonii'
p2015
sg10
S'5665576'
p2016
ssS'Agastache_pringlei'
p2017
(dp2018
g4
S'../views/shapefiles/Agastache_pringlei.shp'
p2019
sg6
g7
sg8
S'Agastache_pringlei'
p2020
sg10
S'5665577'
p2021
ssS'Plectranthus_scutellarioides'
p2022
(dp2023
g4
S'../views/shapefiles/Plectranthus_scutellarioides.shp'
p2024
sg6
g7
sg8
S'Plectranthus_scutellarioides'
p2025
sg10
S'5665578'
p2026
ss.