(dp1
S'clim'
p2
(dp3
S'current'
p4
(dp5
S'bio10'
p6
(dp7
S'created_at'
p8
S'2015-03-19 10:08:15'
p9
sS'Correlated'
p10
S'yes'
p11
sS'envLayerType'
p12
S'current.bio10'
p13
sS'Name'
p14
I311
sS'typeCode'
p15
S'bio10'
p16
sS'typeCodeDescription'
p17
S'Mean Temperature of Warmest Quarter'
p18
sS'RCP'
p19
S'current'
p20
sS'bioclim'
p21
S'current'
p22
sS'filePath'
p23
S'../views/GTiff/clim.current.bio10.tif'
p24
sS'filterType'
p25
S'climate'
p26
sS'fullname'
p27
S'clim.current.bio10'
p28
sS'layerDescription'
p29
S'Mean Temperature of Warmest Quarter Current Climate 1960-2000'
p30
sS'dataFormat'
p31
S'GTiff'
p32
sS'units'
p33
S'dd'
p34
sS'title'
p35
S'clim.current.bio10.tif'
p36
sS'model'
p37
S'clim'
p38
sS'resolution'
p39
S'30'
p40
sS'epsgCode'
p41
I4326
sS'projectionDate'
p42
S'current'
p43
ssS'bio01'
p44
(dp45
g8
S'2015-03-19 10:08:15'
p46
sg10
S'no'
p47
sg12
S'current.bio01'
p48
sg14
I296
sg15
S'bio01'
p49
sg17
S'Annual Mean Temperature'
p50
sg19
S'current'
p51
sg21
S'current'
p52
sg23
S'../views/GTiff/clim.current.bio01.tif'
p53
sg25
S'climate'
p54
sg27
S'clim.current.bio01'
p55
sg29
S'Annual Mean Temperature Current Climate 1960-2000'
p56
sg31
g32
sg33
g34
sg35
S'clim.current.bio01.tif'
p57
sg37
S'clim'
p58
sg39
g40
sg41
I4326
sg42
S'current'
p59
ssS'bio11'
p60
(dp61
g8
S'2015-03-19 10:08:15'
p62
sg10
S'yes'
p63
sg12
S'current.bio11'
p64
sg14
I336
sg15
S'bio11'
p65
sg17
S'Mean Temperature of Coldest Quarter'
p66
sg19
S'current'
p67
sg21
S'current'
p68
sg23
S'../views/GTiff/clim.current.bio11.tif'
p69
sg25
S'climate'
p70
sg27
S'clim.current.bio11'
p71
sg29
S'Mean Temperature of Coldest Quarter Current Climate 1960-2000'
p72
sg31
g32
sg33
g34
sg35
S'clim.current.bio11.tif'
p73
sg37
S'clim'
p74
sg39
g40
sg41
I4326
sg42
S'current'
p75
ssS'bio15'
p76
(dp77
g8
S'2015-03-19 10:08:15'
p78
sg10
S'no'
p79
sg12
S'current.bio15'
p80
sg14
I125
sg15
S'bio15'
p81
sg17
S'Precipitation Seasonality (Coefficient of Variation)'
p82
sg19
S'current'
p83
sg21
S'current'
p84
sg23
S'../views/GTiff/clim.current.bio15.tif'
p85
sg25
S'climate'
p86
sg27
S'clim.current.bio15'
p87
sg29
S'Precipitation Seasonality (Coefficient of Variation) Current Climate 1960-2000'
p88
sg31
g32
sg33
g34
sg35
S'clim.current.bio15.tif'
p89
sg37
S'clim'
p90
sg39
g40
sg41
I4326
sg42
S'current'
p91
ssS'bio05'
p92
(dp93
g8
S'2015-03-19 10:08:15'
p94
sg10
S'yes'
p95
sg12
S'current.bio05'
p96
sg14
I257
sg15
S'bio05'
p97
sg17
S'Max Temperature of Warmest Month'
p98
sg19
S'current'
p99
sg21
S'current'
p100
sg23
S'../views/GTiff/clim.current.bio05.tif'
p101
sg25
S'climate'
p102
sg27
S'clim.current.bio05'
p103
sg29
S'Max Temperature of Warmest Month Current Climate 1960-2000'
p104
sg31
g32
sg33
g34
sg35
S'clim.current.bio05.tif'
p105
sg37
S'clim'
p106
sg39
g40
sg41
I4326
sg42
S'current'
p107
ssS'bio14'
p108
(dp109
g8
S'2015-03-19 10:08:15'
p110
sg10
S'yes'
p111
sg12
S'current.bio14'
p112
sg14
I287
sg15
S'bio14'
p113
sg17
S'Precipitation of Driest Month'
p114
sg19
S'current'
p115
sg21
S'current'
p116
sg23
S'../views/GTiff/clim.current.bio14.tif'
p117
sg25
S'climate'
p118
sg27
S'clim.current.bio14'
p119
sg29
S'Precipitation of Driest Month Current Climate 1960-2000'
p120
sg31
g32
sg33
g34
sg35
S'clim.current.bio14.tif'
p121
sg37
S'clim'
p122
sg39
g40
sg41
I4326
sg42
S'current'
p123
ssS'bio07'
p124
(dp125
g8
S'2015-03-19 10:08:15'
p126
sg10
S'no'
p127
sg12
S'current.bio07'
p128
sg14
I62
sg15
S'bio07'
p129
sg17
S'Temperature Annual Range (BIO5-BIO6)'
p130
sg19
S'current'
p131
sg21
S'current'
p132
sg23
S'../views/GTiff/clim.current.bio07.tif'
p133
sg25
S'climate'
p134
sg27
S'clim.current.bio07'
p135
sg29
S'Temperature Annual Range (BIO5-BIO6) Current Climate 1960-2000'
p136
sg31
g32
sg33
g34
sg35
S'clim.current.bio07.tif'
p137
sg37
S'clim'
p138
sg39
g40
sg41
I4326
sg42
S'current'
p139
ssS'bio06'
p140
(dp141
g8
S'2015-03-19 10:08:15'
p142
sg10
S'yes'
p143
sg12
S'current.bio06'
p144
sg14
I193
sg15
S'bio06'
p145
sg17
S'Min Temperature of Coldest Month'
p146
sg19
S'current'
p147
sg21
S'current'
p148
sg23
S'../views/GTiff/clim.current.bio06.tif'
p149
sg25
S'climate'
p150
sg27
S'clim.current.bio06'
p151
sg29
S'Min Temperature of Coldest Month Current Climate 1960-2000'
p152
sg31
g32
sg33
g34
sg35
S'clim.current.bio06.tif'
p153
sg37
S'clim'
p154
sg39
g40
sg41
I4326
sg42
S'current'
p155
ssS'bio12'
p156
(dp157
g8
S'2015-03-19 10:08:15'
p158
sg10
S'no'
p159
sg12
S'current.bio12'
p160
sg14
I239
sg15
S'bio12'
p161
sg17
S'Annual Precipitation'
p162
sg19
S'current'
p163
sg21
S'current'
p164
sg23
S'../views/GTiff/clim.current.bio12.tif'
p165
sg25
S'climate'
p166
sg27
S'clim.current.bio12'
p167
sg29
S'Annual Precipitation Current Climate 1960-2000'
p168
sg31
g32
sg33
g34
sg35
S'clim.current.bio12.tif'
p169
sg37
S'clim'
p170
sg39
g40
sg41
I4326
sg42
S'current'
p171
ssS'bio13'
p172
(dp173
g8
S'2015-03-19 10:08:15'
p174
sg10
S'yes'
p175
sg12
S'current.bio13'
p176
sg14
I42
sg15
S'bio13'
p177
sg17
S'Precipitation of Wettest Month'
p178
sg19
S'current'
p179
sg21
S'current'
p180
sg23
S'../views/GTiff/clim.current.bio13.tif'
p181
sg25
S'climate'
p182
sg27
S'clim.current.bio13'
p183
sg29
S'Precipitation of Wettest Month Current Climate 1960-2000'
p184
sg31
g32
sg33
g34
sg35
S'clim.current.bio13.tif'
p185
sg37
S'clim'
p186
sg39
g40
sg41
I4326
sg42
S'current'
p187
ssS'bio03'
p188
(dp189
g8
S'2015-03-19 10:08:15'
p190
sg10
S'yes'
p191
sg12
S'current.bio03'
p192
sg14
I127
sg15
S'bio03'
p193
sg17
S'Isothermality (BIO2/BIO7) (* 100)'
p194
sg19
S'current'
p195
sg21
S'current'
p196
sg23
S'../views/GTiff/clim.current.bio03.tif'
p197
sg25
S'climate'
p198
sg27
S'clim.current.bio03'
p199
sg29
S'Isothermality (BIO2/BIO7) (* 100) Current Climate 1960-2000'
p200
sg31
g32
sg33
g34
sg35
S'clim.current.bio03.tif'
p201
sg37
S'clim'
p202
sg39
g40
sg41
I4326
sg42
S'current'
p203
ssS'bio02'
p204
(dp205
g8
S'2015-03-19 10:08:15'
p206
sg10
S'yes'
p207
sg12
S'current.bio02'
p208
sg14
I15
sg15
S'bio02'
p209
sg17
S'Mean Diurnal Range (Mean of monthly (max temp - min temp))'
p210
sg19
S'current'
p211
sg21
S'current'
p212
sg23
S'../views/GTiff/clim.current.bio02.tif'
p213
sg25
S'climate'
p214
sg27
S'clim.current.bio02'
p215
sg29
S'Mean Diurnal Range (Mean of monthly (max temp - min temp)) Current Climate 1960-2000'
p216
sg31
g32
sg33
g34
sg35
S'clim.current.bio02.tif'
p217
sg37
S'clim'
p218
sg39
g40
sg41
I4326
sg42
S'current'
p219
ssS'bio16'
p220
(dp221
g8
S'2015-03-19 10:08:15'
p222
sg10
S'yes'
p223
sg12
S'current.bio16'
p224
sg14
I5
sg15
S'bio16'
p225
sg17
S'Precipitation of Wettest Quarter'
p226
sg19
S'current'
p227
sg21
g4
sg23
S'../views/GTiff/clim.current.bio16.tif'
p228
sg25
S'climate'
p229
sg27
S'clim.current.bio16'
p230
sg29
S'Precipitation of Wettest Quarter Current Climate 1960-2000'
p231
sg31
g32
sg33
g34
sg35
S'clim.current.bio16.tif'
p232
sg37
S'clim'
p233
sg39
g40
sg41
I4326
sg42
S'current'
p234
ssS'bio17'
p235
(dp236
g8
S'2015-03-19 10:08:15'
p237
sg10
S'yes'
p238
sg12
S'current.bio17'
p239
sg14
I301
sg15
S'bio17'
p240
sg17
S'Precipitation of Driest Quarter'
p241
sg19
S'current'
p242
sg21
S'current'
p243
sg23
S'../views/GTiff/clim.current.bio17.tif'
p244
sg25
S'climate'
p245
sg27
S'clim.current.bio17'
p246
sg29
S'Precipitation of Driest Quarter Current Climate 1960-2000'
p247
sg31
g32
sg33
g34
sg35
S'clim.current.bio17.tif'
p248
sg37
S'clim'
p249
sg39
g40
sg41
I4326
sg42
S'current'
p250
ssS'bio18'
p251
(dp252
g8
S'2015-03-19 10:08:15'
p253
sg10
S'no'
p254
sg12
S'current.bio18'
p255
sg14
I315
sg15
S'bio18'
p256
sg17
S'Precipitation of Warmest Quarter'
p257
sg19
S'current'
p258
sg21
S'current'
p259
sg23
S'../views/GTiff/clim.current.bio18.tif'
p260
sg25
S'climate'
p261
sg27
S'clim.current.bio18'
p262
sg29
S'Precipitation of Warmest Quarter Current Climate 1960-2000'
p263
sg31
g32
sg33
g34
sg35
S'clim.current.bio18.tif'
p264
sg37
S'clim'
p265
sg39
g40
sg41
I4326
sg42
S'current'
p266
ssS'bio19'
p267
(dp268
g8
S'2015-03-19 10:08:15'
p269
sg10
S'yes'
p270
sg12
S'current.bio19'
p271
sg14
I84
sg15
S'bio19'
p272
sg17
S'Precipitation of Coldest Quarter'
p273
sg19
S'current'
p274
sg21
S'current'
p275
sg23
S'../views/GTiff/clim.current.bio19.tif'
p276
sg25
S'climate'
p277
sg27
S'clim.current.bio19'
p278
sg29
S'Precipitation of Coldest Quarter Current Climate 1960-2000'
p279
sg31
g32
sg33
g34
sg35
S'clim.current.bio19.tif'
p280
sg37
S'clim'
p281
sg39
g40
sg41
I4326
sg42
S'current'
p282
ssS'bio04'
p283
(dp284
g8
S'2015-03-19 10:08:15'
p285
sg10
S'yes'
p286
sg12
S'current.bio04'
p287
sg14
I292
sg15
S'bio04'
p288
sg17
S'Temperature Seasonality (standard deviation *100)'
p289
sg19
S'current'
p290
sg21
S'current'
p291
sg23
S'../views/GTiff/clim.current.bio04.tif'
p292
sg25
S'climate'
p293
sg27
S'clim.current.bio04'
p294
sg29
S'Temperature Seasonality (standard deviation *100) Current Climate 1960-2000'
p295
sg31
g32
sg33
g34
sg35
S'clim.current.bio04.tif'
p296
sg37
S'clim'
p297
sg39
g40
sg41
I4326
sg42
S'current'
p298
ssS'bio09'
p299
(dp300
g8
S'2015-03-19 10:08:15'
p301
sg10
S'yes'
p302
sg12
S'current.bio09'
p303
sg14
I128
sg15
S'bio09'
p304
sg17
S'Mean Temperature of Driest Quarter'
p305
sg19
S'current'
p306
sg21
S'current'
p307
sg23
S'../views/GTiff/clim.current.bio09.tif'
p308
sg25
S'climate'
p309
sg27
S'clim.current.bio09'
p310
sg29
S'Mean Temperature of Driest Quarter Current Climate 1960-2000'
p311
sg31
g32
sg33
g34
sg35
S'clim.current.bio09.tif'
p312
sg37
S'clim'
p313
sg39
g40
sg41
I4326
sg42
S'current'
p314
ssS'bio08'
p315
(dp316
g8
S'2015-03-19 10:08:15'
p317
sg10
S'no'
p318
sg12
S'current.bio08'
p319
sg14
I26
sg15
S'bio08'
p320
sg17
S'Mean Temperature of Wettest Quarter'
p321
sg19
S'current'
p322
sg21
S'current'
p323
sg23
S'../views/GTiff/clim.current.bio08.tif'
p324
sg25
S'climate'
p325
sg27
S'clim.current.bio08'
p326
sg29
S'Mean Temperature of Wettest Quarter Current Climate 1960-2000'
p327
sg31
g32
sg33
g34
sg35
S'clim.current.bio08.tif'
p328
sg37
S'clim'
p329
sg39
g40
sg41
I4326
sg42
S'current'
p330
sssS'he2670'
p331
(dp332
S'bio07'
p333
(dp334
g8
S'2015-03-19 10:08:15'
p335
sg10
S'no'
p336
sg12
S'he2670.bio07'
p337
sg14
I142
sg15
S'bio07'
p338
sg17
S'Temperature Annual Range (BIO5-BIO6)'
p339
sg19
S'26'
p340
sg21
S'he2670'
p341
sg23
S'../views/GTiff/clim.he2670.bio07.tif'
p342
sg25
S'climate'
p343
sg27
S'clim.he2670.bio07'
p344
sg29
S'Temperature Annual Range (BIO5-BIO6) HE RCP26 2070'
p345
sg31
g32
sg33
g34
sg35
S'clim.he2670.bio07.tif'
p346
sg37
S'clim'
p347
sg39
g40
sg41
I4326
sg42
S'2070'
p348
ssS'bio16'
p349
(dp350
g8
S'2015-03-19 10:08:15'
p351
sg10
S'yes'
p352
sg12
S'he2670.bio16'
p353
sg14
I186
sg15
S'bio16'
p354
sg17
S'Precipitation of Wettest Quarter'
p355
sg19
S'26'
p356
sg21
S'he2670'
p357
sg23
S'../views/GTiff/clim.he2670.bio16.tif'
p358
sg25
S'climate'
p359
sg27
S'clim.he2670.bio16'
p360
sg29
S'Precipitation of Wettest Quarter HE RCP26 2070'
p361
sg31
g32
sg33
g34
sg35
S'clim.he2670.bio16.tif'
p362
sg37
S'clim'
p363
sg39
g40
sg41
I4326
sg42
S'2070'
p364
ssS'bio06'
p365
(dp366
g8
S'2015-03-19 10:08:15'
p367
sg10
S'yes'
p368
sg12
S'he2670.bio06'
p369
sg14
I202
sg15
S'bio06'
p370
sg17
S'Min Temperature of Coldest Month'
p371
sg19
S'26'
p372
sg21
S'he2670'
p373
sg23
S'../views/GTiff/clim.he2670.bio06.tif'
p374
sg25
S'climate'
p375
sg27
S'clim.he2670.bio06'
p376
sg29
S'Min Temperature of Coldest Month HE RCP26 2070'
p377
sg31
g32
sg33
g34
sg35
S'clim.he2670.bio06.tif'
p378
sg37
S'clim'
p379
sg39
g40
sg41
I4326
sg42
S'2070'
p380
ssS'bio17'
p381
(dp382
g8
S'2015-03-19 10:08:15'
p383
sg10
S'yes'
p384
sg12
S'he2670.bio17'
p385
sg14
I308
sg15
S'bio17'
p386
sg17
S'Precipitation of Driest Quarter'
p387
sg19
S'26'
p388
sg21
S'he2670'
p389
sg23
S'../views/GTiff/clim.he2670.bio17.tif'
p390
sg25
S'climate'
p391
sg27
S'clim.he2670.bio17'
p392
sg29
S'Precipitation of Driest Quarter HE RCP26 2070'
p393
sg31
g32
sg33
g34
sg35
S'clim.he2670.bio17.tif'
p394
sg37
S'clim'
p395
sg39
g40
sg41
I4326
sg42
S'2070'
p396
ssS'bio12'
p397
(dp398
g8
S'2015-03-19 10:08:15'
p399
sg10
S'no'
p400
sg12
S'he2670.bio12'
p401
sg14
I176
sg15
S'bio12'
p402
sg17
S'Annual Precipitation'
p403
sg19
S'26'
p404
sg21
S'he2670'
p405
sg23
S'../views/GTiff/clim.he2670.bio12.tif'
p406
sg25
S'climate'
p407
sg27
S'clim.he2670.bio12'
p408
sg29
S'Annual Precipitation HE RCP26 2070'
p409
sg31
g32
sg33
g34
sg35
S'clim.he2670.bio12.tif'
p410
sg37
S'clim'
p411
sg39
g40
sg41
I4326
sg42
S'2070'
p412
ssS'bio10'
p413
(dp414
g8
S'2015-03-19 10:08:15'
p415
sg10
S'yes'
p416
sg12
S'he2670.bio10'
p417
sg14
I133
sg15
S'bio10'
p418
sg17
S'Mean Temperature of Warmest Quarter'
p419
sg19
S'26'
p420
sg21
S'he2670'
p421
sg23
S'../views/GTiff/clim.he2670.bio10.tif'
p422
sg25
S'climate'
p423
sg27
S'clim.he2670.bio10'
p424
sg29
S'Mean Temperature of Warmest Quarter HE RCP26 2070'
p425
sg31
g32
sg33
g34
sg35
S'clim.he2670.bio10.tif'
p426
sg37
S'clim'
p427
sg39
g40
sg41
I4326
sg42
S'2070'
p428
ssS'bio11'
p429
(dp430
g8
S'2015-03-19 10:08:15'
p431
sg10
S'yes'
p432
sg12
S'he2670.bio11'
p433
sg14
I122
sg15
S'bio11'
p434
sg17
S'Mean Temperature of Coldest Quarter'
p435
sg19
S'26'
p436
sg21
S'he2670'
p437
sg23
S'../views/GTiff/clim.he2670.bio11.tif'
p438
sg25
S'climate'
p439
sg27
S'clim.he2670.bio11'
p440
sg29
S'Mean Temperature of Coldest Quarter HE RCP26 2070'
p441
sg31
g32
sg33
g34
sg35
S'clim.he2670.bio11.tif'
p442
sg37
S'clim'
p443
sg39
g40
sg41
I4326
sg42
S'2070'
p444
ssS'bio05'
p445
(dp446
g8
S'2015-03-19 10:08:15'
p447
sg10
S'yes'
p448
sg12
S'he2670.bio05'
p449
sg14
I28
sg15
S'bio05'
p450
sg17
S'Max Temperature of Warmest Month'
p451
sg19
S'26'
p452
sg21
S'he2670'
p453
sg23
S'../views/GTiff/clim.he2670.bio05.tif'
p454
sg25
S'climate'
p455
sg27
S'clim.he2670.bio05'
p456
sg29
S'Max Temperature of Warmest Month HE RCP26 2070'
p457
sg31
g32
sg33
g34
sg35
S'clim.he2670.bio05.tif'
p458
sg37
S'clim'
p459
sg39
g40
sg41
I4326
sg42
S'2070'
p460
ssS'bio13'
p461
(dp462
g8
S'2015-03-19 10:08:15'
p463
sg10
S'yes'
p464
sg12
S'he2670.bio13'
p465
sg14
I194
sg15
S'bio13'
p466
sg17
S'Precipitation of Wettest Month'
p467
sg19
S'26'
p468
sg21
S'he2670'
p469
sg23
S'../views/GTiff/clim.he2670.bio13.tif'
p470
sg25
S'climate'
p471
sg27
S'clim.he2670.bio13'
p472
sg29
S'Precipitation of Wettest Month HE RCP26 2070'
p473
sg31
g32
sg33
g34
sg35
S'clim.he2670.bio13.tif'
p474
sg37
S'clim'
p475
sg39
g40
sg41
I4326
sg42
S'2070'
p476
ssS'bio03'
p477
(dp478
g8
S'2015-03-19 10:08:15'
p479
sg10
S'yes'
p480
sg12
S'he2670.bio03'
p481
sg14
I61
sg15
S'bio03'
p482
sg17
S'Isothermality (BIO2/BIO7) (* 100)'
p483
sg19
S'26'
p484
sg21
S'he2670'
p485
sg23
S'../views/GTiff/clim.he2670.bio03.tif'
p486
sg25
S'climate'
p487
sg27
S'clim.he2670.bio03'
p488
sg29
S'Isothermality (BIO2/BIO7) (* 100) HE RCP26 2070'
p489
sg31
g32
sg33
g34
sg35
S'clim.he2670.bio03.tif'
p490
sg37
S'clim'
p491
sg39
g40
sg41
I4326
sg42
S'2070'
p492
ssS'bio02'
p493
(dp494
g8
S'2015-03-19 10:08:15'
p495
sg10
S'yes'
p496
sg12
S'he2670.bio02'
p497
sg14
I81
sg15
S'bio02'
p498
sg17
S'Mean Diurnal Range (Mean of monthly (max temp - min temp))'
p499
sg19
S'26'
p500
sg21
S'he2670'
p501
sg23
S'../views/GTiff/clim.he2670.bio02.tif'
p502
sg25
S'climate'
p503
sg27
S'clim.he2670.bio02'
p504
sg29
S'Mean Diurnal Range (Mean of monthly (max temp - min temp)) HE RCP26 2070'
p505
sg31
g32
sg33
g34
sg35
S'clim.he2670.bio02.tif'
p506
sg37
S'clim'
p507
sg39
g40
sg41
I4326
sg42
S'2070'
p508
ssS'bio01'
p509
(dp510
g8
S'2015-03-19 10:08:15'
p511
sg10
S'no'
p512
sg12
S'he2670.bio01'
p513
sg14
I52
sg15
S'bio01'
p514
sg17
S'Annual Mean Temperature'
p515
sg19
S'26'
p516
sg21
S'he2670'
p517
sg23
S'../views/GTiff/clim.he2670.bio01.tif'
p518
sg25
S'climate'
p519
sg27
S'clim.he2670.bio01'
p520
sg29
S'Annual Mean Temperature HE RCP26 2070'
p521
sg31
g32
sg33
g34
sg35
S'clim.he2670.bio01.tif'
p522
sg37
S'clim'
p523
sg39
g40
sg41
I4326
sg42
S'2070'
p524
ssS'bio19'
p525
(dp526
g8
S'2015-03-19 10:08:15'
p527
sg10
S'yes'
p528
sg12
S'he2670.bio19'
p529
sg14
I256
sg15
S'bio19'
p530
sg17
S'Precipitation of Coldest Quarter'
p531
sg19
S'26'
p532
sg21
S'he2670'
p533
sg23
S'../views/GTiff/clim.he2670.bio19.tif'
p534
sg25
S'climate'
p535
sg27
S'clim.he2670.bio19'
p536
sg29
S'Precipitation of Coldest Quarter HE RCP26 2070'
p537
sg31
g32
sg33
g34
sg35
S'clim.he2670.bio19.tif'
p538
sg37
S'clim'
p539
sg39
g40
sg41
I4326
sg42
S'2070'
p540
ssS'bio18'
p541
(dp542
g8
S'2015-03-19 10:08:15'
p543
sg10
S'no'
p544
sg12
S'he2670.bio18'
p545
sg14
I188
sg15
S'bio18'
p546
sg17
S'Precipitation of Warmest Quarter'
p547
sg19
S'26'
p548
sg21
S'he2670'
p549
sg23
S'../views/GTiff/clim.he2670.bio18.tif'
p550
sg25
S'climate'
p551
sg27
S'clim.he2670.bio18'
p552
sg29
S'Precipitation of Warmest Quarter HE RCP26 2070'
p553
sg31
g32
sg33
g34
sg35
S'clim.he2670.bio18.tif'
p554
sg37
S'clim'
p555
sg39
g40
sg41
I4326
sg42
S'2070'
p556
ssS'bio14'
p557
(dp558
g8
S'2015-03-19 10:08:15'
p559
sg10
S'yes'
p560
sg12
S'he2670.bio14'
p561
sg14
I207
sg15
S'bio14'
p562
sg17
S'Precipitation of Driest Month'
p563
sg19
S'26'
p564
sg21
S'he2670'
p565
sg23
S'../views/GTiff/clim.he2670.bio14.tif'
p566
sg25
S'climate'
p567
sg27
S'clim.he2670.bio14'
p568
sg29
S'Precipitation of Driest Month HE RCP26 2070'
p569
sg31
g32
sg33
g34
sg35
S'clim.he2670.bio14.tif'
p570
sg37
S'clim'
p571
sg39
g40
sg41
I4326
sg42
S'2070'
p572
ssS'bio04'
p573
(dp574
g8
S'2015-03-19 10:08:15'
p575
sg10
S'yes'
p576
sg12
S'he2670.bio04'
p577
sg14
I228
sg15
S'bio04'
p578
sg17
S'Temperature Seasonality (standard deviation *100)'
p579
sg19
S'26'
p580
sg21
S'he2670'
p581
sg23
S'../views/GTiff/clim.he2670.bio04.tif'
p582
sg25
S'climate'
p583
sg27
S'clim.he2670.bio04'
p584
sg29
S'Temperature Seasonality (standard deviation *100) HE RCP26 2070'
p585
sg31
g32
sg33
g34
sg35
S'clim.he2670.bio04.tif'
p586
sg37
S'clim'
p587
sg39
g40
sg41
I4326
sg42
S'2070'
p588
ssS'bio08'
p589
(dp590
g8
S'2015-03-19 10:08:15'
p591
sg10
S'no'
p592
sg12
S'he2670.bio08'
p593
sg14
I18
sg15
S'bio08'
p594
sg17
S'Mean Temperature of Wettest Quarter'
p595
sg19
S'26'
p596
sg21
g331
sg23
S'../views/GTiff/clim.he2670.bio08.tif'
p597
sg25
S'climate'
p598
sg27
S'clim.he2670.bio08'
p599
sg29
S'Mean Temperature of Wettest Quarter HE RCP26 2070'
p600
sg31
g32
sg33
g34
sg35
S'clim.he2670.bio08.tif'
p601
sg37
S'clim'
p602
sg39
g40
sg41
I4326
sg42
S'2070'
p603
ssS'bio09'
p604
(dp605
g8
S'2015-03-19 10:08:15'
p606
sg10
S'yes'
p607
sg12
S'he2670.bio09'
p608
sg14
I156
sg15
S'bio09'
p609
sg17
S'Mean Temperature of Driest Quarter'
p610
sg19
S'26'
p611
sg21
S'he2670'
p612
sg23
S'../views/GTiff/clim.he2670.bio09.tif'
p613
sg25
S'climate'
p614
sg27
S'clim.he2670.bio09'
p615
sg29
S'Mean Temperature of Driest Quarter HE RCP26 2070'
p616
sg31
g32
sg33
g34
sg35
S'clim.he2670.bio09.tif'
p617
sg37
S'clim'
p618
sg39
g40
sg41
I4326
sg42
S'2070'
p619
ssS'bio15'
p620
(dp621
g8
S'2015-03-19 10:08:15'
p622
sg10
S'no'
p623
sg12
S'he2670.bio15'
p624
sg14
I70
sg15
S'bio15'
p625
sg17
S'Precipitation Seasonality (Coefficient of Variation)'
p626
sg19
S'26'
p627
sg21
S'he2670'
p628
sg23
S'../views/GTiff/clim.he2670.bio15.tif'
p629
sg25
S'climate'
p630
sg27
S'clim.he2670.bio15'
p631
sg29
S'Precipitation Seasonality (Coefficient of Variation) HE RCP26 2070'
p632
sg31
g32
sg33
g34
sg35
S'clim.he2670.bio15.tif'
p633
sg37
S'clim'
p634
sg39
g40
sg41
I4326
sg42
S'2070'
p635
sssS'he8550'
p636
(dp637
S'bio07'
p638
(dp639
g8
S'2015-03-19 10:08:15'
p640
sg10
S'no'
p641
sg12
S'he8550.bio07'
p642
sg14
I295
sg15
S'bio07'
p643
sg17
S'Temperature Annual Range (BIO5-BIO6)'
p644
sg19
S'85'
p645
sg21
S'he8550'
p646
sg23
S'../views/GTiff/clim.he8550.bio07.tif'
p647
sg25
S'climate'
p648
sg27
S'clim.he8550.bio07'
p649
sg29
S'Temperature Annual Range (BIO5-BIO6) HE RCP85 2050'
p650
sg31
g32
sg33
g34
sg35
S'clim.he8550.bio07.tif'
p651
sg37
S'clim'
p652
sg39
g40
sg41
I4326
sg42
S'2050'
p653
ssS'bio13'
p654
(dp655
g8
S'2015-03-19 10:08:15'
p656
sg10
S'yes'
p657
sg12
S'he8550.bio13'
p658
sg14
I300
sg15
S'bio13'
p659
sg17
S'Precipitation of Wettest Month'
p660
sg19
S'85'
p661
sg21
S'he8550'
p662
sg23
S'../views/GTiff/clim.he8550.bio13.tif'
p663
sg25
S'climate'
p664
sg27
S'clim.he8550.bio13'
p665
sg29
S'Precipitation of Wettest Month HE RCP85 2050'
p666
sg31
g32
sg33
g34
sg35
S'clim.he8550.bio13.tif'
p667
sg37
S'clim'
p668
sg39
g40
sg41
I4326
sg42
S'2050'
p669
ssS'bio16'
p670
(dp671
g8
S'2015-03-19 10:08:15'
p672
sg10
S'yes'
p673
sg12
S'he8550.bio16'
p674
sg14
I114
sg15
S'bio16'
p675
sg17
S'Precipitation of Wettest Quarter'
p676
sg19
S'85'
p677
sg21
S'he8550'
p678
sg23
S'../views/GTiff/clim.he8550.bio16.tif'
p679
sg25
S'climate'
p680
sg27
S'clim.he8550.bio16'
p681
sg29
S'Precipitation of Wettest Quarter HE RCP85 2050'
p682
sg31
g32
sg33
g34
sg35
S'clim.he8550.bio16.tif'
p683
sg37
S'clim'
p684
sg39
g40
sg41
I4326
sg42
S'2050'
p685
ssS'bio06'
p686
(dp687
g8
S'2015-03-19 10:08:15'
p688
sg10
S'yes'
p689
sg12
S'he8550.bio06'
p690
sg14
I332
sg15
S'bio06'
p691
sg17
S'Min Temperature of Coldest Month'
p692
sg19
S'85'
p693
sg21
S'he8550'
p694
sg23
S'../views/GTiff/clim.he8550.bio06.tif'
p695
sg25
S'climate'
p696
sg27
S'clim.he8550.bio06'
p697
sg29
S'Min Temperature of Coldest Month HE RCP85 2050'
p698
sg31
g32
sg33
g34
sg35
S'clim.he8550.bio06.tif'
p699
sg37
S'clim'
p700
sg39
g40
sg41
I4326
sg42
S'2050'
p701
ssS'bio05'
p702
(dp703
g8
S'2015-03-19 10:08:15'
p704
sg10
S'yes'
p705
sg12
S'he8550.bio05'
p706
sg14
I217
sg15
S'bio05'
p707
sg17
S'Max Temperature of Warmest Month'
p708
sg19
S'85'
p709
sg21
S'he8550'
p710
sg23
S'../views/GTiff/clim.he8550.bio05.tif'
p711
sg25
S'climate'
p712
sg27
S'clim.he8550.bio05'
p713
sg29
S'Max Temperature of Warmest Month HE RCP85 2050'
p714
sg31
g32
sg33
g34
sg35
S'clim.he8550.bio05.tif'
p715
sg37
S'clim'
p716
sg39
g40
sg41
I4326
sg42
S'2050'
p717
ssS'bio10'
p718
(dp719
g8
S'2015-03-19 10:08:15'
p720
sg10
S'yes'
p721
sg12
S'he8550.bio10'
p722
sg14
I103
sg15
S'bio10'
p723
sg17
S'Mean Temperature of Warmest Quarter'
p724
sg19
S'85'
p725
sg21
S'he8550'
p726
sg23
S'../views/GTiff/clim.he8550.bio10.tif'
p727
sg25
S'climate'
p728
sg27
S'clim.he8550.bio10'
p729
sg29
S'Mean Temperature of Warmest Quarter HE RCP85 2050'
p730
sg31
g32
sg33
g34
sg35
S'clim.he8550.bio10.tif'
p731
sg37
S'clim'
p732
sg39
g40
sg41
I4326
sg42
S'2050'
p733
ssS'bio11'
p734
(dp735
g8
S'2015-03-19 10:08:15'
p736
sg10
S'yes'
p737
sg12
S'he8550.bio11'
p738
sg14
I191
sg15
S'bio11'
p739
sg17
S'Mean Temperature of Coldest Quarter'
p740
sg19
S'85'
p741
sg21
S'he8550'
p742
sg23
S'../views/GTiff/clim.he8550.bio11.tif'
p743
sg25
S'climate'
p744
sg27
S'clim.he8550.bio11'
p745
sg29
S'Mean Temperature of Coldest Quarter HE RCP85 2050'
p746
sg31
g32
sg33
g34
sg35
S'clim.he8550.bio11.tif'
p747
sg37
S'clim'
p748
sg39
g40
sg41
I4326
sg42
S'2050'
p749
ssS'bio12'
p750
(dp751
g8
S'2015-03-19 10:08:15'
p752
sg10
S'no'
p753
sg12
S'he8550.bio12'
p754
sg14
I68
sg15
S'bio12'
p755
sg17
S'Annual Precipitation'
p756
sg19
S'85'
p757
sg21
S'he8550'
p758
sg23
S'../views/GTiff/clim.he8550.bio12.tif'
p759
sg25
S'climate'
p760
sg27
S'clim.he8550.bio12'
p761
sg29
S'Annual Precipitation HE RCP85 2050'
p762
sg31
g32
sg33
g34
sg35
S'clim.he8550.bio12.tif'
p763
sg37
S'clim'
p764
sg39
g40
sg41
I4326
sg42
S'2050'
p765
ssS'bio04'
p766
(dp767
g8
S'2015-03-19 10:08:15'
p768
sg10
S'yes'
p769
sg12
S'he8550.bio04'
p770
sg14
I118
sg15
S'bio04'
p771
sg17
S'Temperature Seasonality (standard deviation *100)'
p772
sg19
S'85'
p773
sg21
S'he8550'
p774
sg23
S'../views/GTiff/clim.he8550.bio04.tif'
p775
sg25
S'climate'
p776
sg27
S'clim.he8550.bio04'
p777
sg29
S'Temperature Seasonality (standard deviation *100) HE RCP85 2050'
p778
sg31
g32
sg33
g34
sg35
S'clim.he8550.bio04.tif'
p779
sg37
S'clim'
p780
sg39
g40
sg41
I4326
sg42
S'2050'
p781
ssS'bio14'
p782
(dp783
g8
S'2015-03-19 10:08:15'
p784
sg10
S'yes'
p785
sg12
S'he8550.bio14'
p786
sg14
I11
sg15
S'bio14'
p787
sg17
S'Precipitation of Driest Month'
p788
sg19
S'85'
p789
sg21
g636
sg23
S'../views/GTiff/clim.he8550.bio14.tif'
p790
sg25
S'climate'
p791
sg27
S'clim.he8550.bio14'
p792
sg29
S'Precipitation of Driest Month HE RCP85 2050'
p793
sg31
g32
sg33
g34
sg35
S'clim.he8550.bio14.tif'
p794
sg37
S'clim'
p795
sg39
g40
sg41
I4326
sg42
S'2050'
p796
ssS'bio02'
p797
(dp798
g8
S'2015-03-19 10:08:15'
p799
sg10
S'yes'
p800
sg12
S'he8550.bio02'
p801
sg14
I107
sg15
S'bio02'
p802
sg17
S'Mean Diurnal Range (Mean of monthly (max temp - min temp))'
p803
sg19
S'85'
p804
sg21
S'he8550'
p805
sg23
S'../views/GTiff/clim.he8550.bio02.tif'
p806
sg25
S'climate'
p807
sg27
S'clim.he8550.bio02'
p808
sg29
S'Mean Diurnal Range (Mean of monthly (max temp - min temp)) HE RCP85 2050'
p809
sg31
g32
sg33
g34
sg35
S'clim.he8550.bio02.tif'
p810
sg37
S'clim'
p811
sg39
g40
sg41
I4326
sg42
S'2050'
p812
ssS'bio01'
p813
(dp814
g8
S'2015-03-19 10:08:15'
p815
sg10
S'no'
p816
sg12
S'he8550.bio01'
p817
sg14
I57
sg15
S'bio01'
p818
sg17
S'Annual Mean Temperature'
p819
sg19
S'85'
p820
sg21
S'he8550'
p821
sg23
S'../views/GTiff/clim.he8550.bio01.tif'
p822
sg25
S'climate'
p823
sg27
S'clim.he8550.bio01'
p824
sg29
S'Annual Mean Temperature HE RCP85 2050'
p825
sg31
g32
sg33
g34
sg35
S'clim.he8550.bio01.tif'
p826
sg37
S'clim'
p827
sg39
g40
sg41
I4326
sg42
S'2050'
p828
ssS'bio17'
p829
(dp830
g8
S'2015-03-19 10:08:15'
p831
sg10
S'yes'
p832
sg12
S'he8550.bio17'
p833
sg14
I250
sg15
S'bio17'
p834
sg17
S'Precipitation of Driest Quarter'
p835
sg19
S'85'
p836
sg21
S'he8550'
p837
sg23
S'../views/GTiff/clim.he8550.bio17.tif'
p838
sg25
S'climate'
p839
sg27
S'clim.he8550.bio17'
p840
sg29
S'Precipitation of Driest Quarter HE RCP85 2050'
p841
sg31
g32
sg33
g34
sg35
S'clim.he8550.bio17.tif'
p842
sg37
S'clim'
p843
sg39
g40
sg41
I4326
sg42
S'2050'
p844
ssS'bio18'
p845
(dp846
g8
S'2015-03-19 10:08:15'
p847
sg10
S'no'
p848
sg12
S'he8550.bio18'
p849
sg14
I132
sg15
S'bio18'
p850
sg17
S'Precipitation of Warmest Quarter'
p851
sg19
S'85'
p852
sg21
S'he8550'
p853
sg23
S'../views/GTiff/clim.he8550.bio18.tif'
p854
sg25
S'climate'
p855
sg27
S'clim.he8550.bio18'
p856
sg29
S'Precipitation of Warmest Quarter HE RCP85 2050'
p857
sg31
g32
sg33
g34
sg35
S'clim.he8550.bio18.tif'
p858
sg37
S'clim'
p859
sg39
g40
sg41
I4326
sg42
S'2050'
p860
ssS'bio19'
p861
(dp862
g8
S'2015-03-19 10:08:15'
p863
sg10
S'yes'
p864
sg12
S'he8550.bio19'
p865
sg14
I22
sg15
S'bio19'
p866
sg17
S'Precipitation of Coldest Quarter'
p867
sg19
S'85'
p868
sg21
S'he8550'
p869
sg23
S'../views/GTiff/clim.he8550.bio19.tif'
p870
sg25
S'climate'
p871
sg27
S'clim.he8550.bio19'
p872
sg29
S'Precipitation of Coldest Quarter HE RCP85 2050'
p873
sg31
g32
sg33
g34
sg35
S'clim.he8550.bio19.tif'
p874
sg37
S'clim'
p875
sg39
g40
sg41
I4326
sg42
S'2050'
p876
ssS'bio08'
p877
(dp878
g8
S'2015-03-19 10:08:15'
p879
sg10
S'no'
p880
sg12
S'he8550.bio08'
p881
sg14
I322
sg15
S'bio08'
p882
sg17
S'Mean Temperature of Wettest Quarter'
p883
sg19
S'85'
p884
sg21
S'he8550'
p885
sg23
S'../views/GTiff/clim.he8550.bio08.tif'
p886
sg25
S'climate'
p887
sg27
S'clim.he8550.bio08'
p888
sg29
S'Mean Temperature of Wettest Quarter HE RCP85 2050'
p889
sg31
g32
sg33
g34
sg35
S'clim.he8550.bio08.tif'
p890
sg37
S'clim'
p891
sg39
g40
sg41
I4326
sg42
S'2050'
p892
ssS'bio03'
p893
(dp894
g8
S'2015-03-19 10:08:15'
p895
sg10
S'yes'
p896
sg12
S'he8550.bio03'
p897
sg14
I326
sg15
S'bio03'
p898
sg17
S'Isothermality (BIO2/BIO7) (* 100)'
p899
sg19
S'85'
p900
sg21
S'he8550'
p901
sg23
S'../views/GTiff/clim.he8550.bio03.tif'
p902
sg25
S'climate'
p903
sg27
S'clim.he8550.bio03'
p904
sg29
S'Isothermality (BIO2/BIO7) (* 100) HE RCP85 2050'
p905
sg31
g32
sg33
g34
sg35
S'clim.he8550.bio03.tif'
p906
sg37
S'clim'
p907
sg39
g40
sg41
I4326
sg42
S'2050'
p908
ssS'bio09'
p909
(dp910
g8
S'2015-03-19 10:08:15'
p911
sg10
S'yes'
p912
sg12
S'he8550.bio09'
p913
sg14
I120
sg15
S'bio09'
p914
sg17
S'Mean Temperature of Driest Quarter'
p915
sg19
S'85'
p916
sg21
S'he8550'
p917
sg23
S'../views/GTiff/clim.he8550.bio09.tif'
p918
sg25
S'climate'
p919
sg27
S'clim.he8550.bio09'
p920
sg29
S'Mean Temperature of Driest Quarter HE RCP85 2050'
p921
sg31
g32
sg33
g34
sg35
S'clim.he8550.bio09.tif'
p922
sg37
S'clim'
p923
sg39
g40
sg41
I4326
sg42
S'2050'
p924
ssS'bio15'
p925
(dp926
g8
S'2015-03-19 10:08:15'
p927
sg10
S'no'
p928
sg12
S'he8550.bio15'
p929
sg14
I108
sg15
S'bio15'
p930
sg17
S'Precipitation Seasonality (Coefficient of Variation)'
p931
sg19
S'85'
p932
sg21
S'he8550'
p933
sg23
S'../views/GTiff/clim.he8550.bio15.tif'
p934
sg25
S'climate'
p935
sg27
S'clim.he8550.bio15'
p936
sg29
S'Precipitation Seasonality (Coefficient of Variation) HE RCP85 2050'
p937
sg31
g32
sg33
g34
sg35
S'clim.he8550.bio15.tif'
p938
sg37
S'clim'
p939
sg39
g40
sg41
I4326
sg42
S'2050'
p940
sssS'he6070'
p941
(dp942
S'bio07'
p943
(dp944
g8
S'2015-03-19 10:08:15'
p945
sg10
S'no'
p946
sg12
S'he6070.bio07'
p947
sg14
I101
sg15
S'bio07'
p948
sg17
S'Temperature Annual Range (BIO5-BIO6)'
p949
sg19
S'60'
p950
sg21
S'he6070'
p951
sg23
S'../views/GTiff/clim.he6070.bio07.tif'
p952
sg25
S'climate'
p953
sg27
S'clim.he6070.bio07'
p954
sg29
S'Temperature Annual Range (BIO5-BIO6) HE RCP60 2070'
p955
sg31
g32
sg33
g34
sg35
S'clim.he6070.bio07.tif'
p956
sg37
S'clim'
p957
sg39
g40
sg41
I4326
sg42
S'2070'
p958
ssS'bio01'
p959
(dp960
g8
S'2015-03-19 10:08:15'
p961
sg10
S'no'
p962
sg12
S'he6070.bio01'
p963
sg14
I241
sg15
S'bio01'
p964
sg17
S'Annual Mean Temperature'
p965
sg19
S'60'
p966
sg21
S'he6070'
p967
sg23
S'../views/GTiff/clim.he6070.bio01.tif'
p968
sg25
S'climate'
p969
sg27
S'clim.he6070.bio01'
p970
sg29
S'Annual Mean Temperature HE RCP60 2070'
p971
sg31
g32
sg33
g34
sg35
S'clim.he6070.bio01.tif'
p972
sg37
S'clim'
p973
sg39
g40
sg41
I4326
sg42
S'2070'
p974
ssS'bio11'
p975
(dp976
g8
S'2015-03-19 10:08:15'
p977
sg10
S'yes'
p978
sg12
S'he6070.bio11'
p979
sg14
I288
sg15
S'bio11'
p980
sg17
S'Mean Temperature of Coldest Quarter'
p981
sg19
S'60'
p982
sg21
S'he6070'
p983
sg23
S'../views/GTiff/clim.he6070.bio11.tif'
p984
sg25
S'climate'
p985
sg27
S'clim.he6070.bio11'
p986
sg29
S'Mean Temperature of Coldest Quarter HE RCP60 2070'
p987
sg31
g32
sg33
g34
sg35
S'clim.he6070.bio11.tif'
p988
sg37
S'clim'
p989
sg39
g40
sg41
I4326
sg42
S'2070'
p990
ssS'bio09'
p991
(dp992
g8
S'2015-03-19 10:08:15'
p993
sg10
S'yes'
p994
sg12
S'he6070.bio09'
p995
sg14
I146
sg15
S'bio09'
p996
sg17
S'Mean Temperature of Driest Quarter'
p997
sg19
S'60'
p998
sg21
S'he6070'
p999
sg23
S'../views/GTiff/clim.he6070.bio09.tif'
p1000
sg25
S'climate'
p1001
sg27
S'clim.he6070.bio09'
p1002
sg29
S'Mean Temperature of Driest Quarter HE RCP60 2070'
p1003
sg31
g32
sg33
g34
sg35
S'clim.he6070.bio09.tif'
p1004
sg37
S'clim'
p1005
sg39
g40
sg41
I4326
sg42
S'2070'
p1006
ssS'bio17'
p1007
(dp1008
g8
S'2015-03-19 10:08:15'
p1009
sg10
S'yes'
p1010
sg12
S'he6070.bio17'
p1011
sg14
I184
sg15
S'bio17'
p1012
sg17
S'Precipitation of Driest Quarter'
p1013
sg19
S'60'
p1014
sg21
S'he6070'
p1015
sg23
S'../views/GTiff/clim.he6070.bio17.tif'
p1016
sg25
S'climate'
p1017
sg27
S'clim.he6070.bio17'
p1018
sg29
S'Precipitation of Driest Quarter HE RCP60 2070'
p1019
sg31
g32
sg33
g34
sg35
S'clim.he6070.bio17.tif'
p1020
sg37
S'clim'
p1021
sg39
g40
sg41
I4326
sg42
S'2070'
p1022
ssS'bio05'
p1023
(dp1024
g8
S'2015-03-19 10:08:15'
p1025
sg10
S'yes'
p1026
sg12
S'he6070.bio05'
p1027
sg14
I161
sg15
S'bio05'
p1028
sg17
S'Max Temperature of Warmest Month'
p1029
sg19
S'60'
p1030
sg21
S'he6070'
p1031
sg23
S'../views/GTiff/clim.he6070.bio05.tif'
p1032
sg25
S'climate'
p1033
sg27
S'clim.he6070.bio05'
p1034
sg29
S'Max Temperature of Warmest Month HE RCP60 2070'
p1035
sg31
g32
sg33
g34
sg35
S'clim.he6070.bio05.tif'
p1036
sg37
S'clim'
p1037
sg39
g40
sg41
I4326
sg42
S'2070'
p1038
ssS'bio10'
p1039
(dp1040
g8
S'2015-03-19 10:08:15'
p1041
sg10
S'yes'
p1042
sg12
S'he6070.bio10'
p1043
sg14
I82
sg15
S'bio10'
p1044
sg17
S'Mean Temperature of Warmest Quarter'
p1045
sg19
S'60'
p1046
sg21
S'he6070'
p1047
sg23
S'../views/GTiff/clim.he6070.bio10.tif'
p1048
sg25
S'climate'
p1049
sg27
S'clim.he6070.bio10'
p1050
sg29
S'Mean Temperature of Warmest Quarter HE RCP60 2070'
p1051
sg31
g32
sg33
g34
sg35
S'clim.he6070.bio10.tif'
p1052
sg37
S'clim'
p1053
sg39
g40
sg41
I4326
sg42
S'2070'
p1054
ssS'bio06'
p1055
(dp1056
g8
S'2015-03-19 10:08:15'
p1057
sg10
S'yes'
p1058
sg12
S'he6070.bio06'
p1059
sg14
I219
sg15
S'bio06'
p1060
sg17
S'Min Temperature of Coldest Month'
p1061
sg19
S'60'
p1062
sg21
S'he6070'
p1063
sg23
S'../views/GTiff/clim.he6070.bio06.tif'
p1064
sg25
S'climate'
p1065
sg27
S'clim.he6070.bio06'
p1066
sg29
S'Min Temperature of Coldest Month HE RCP60 2070'
p1067
sg31
g32
sg33
g34
sg35
S'clim.he6070.bio06.tif'
p1068
sg37
S'clim'
p1069
sg39
g40
sg41
I4326
sg42
S'2070'
p1070
ssS'bio12'
p1071
(dp1072
g8
S'2015-03-19 10:08:15'
p1073
sg10
S'no'
p1074
sg12
S'he6070.bio12'
p1075
sg14
I150
sg15
S'bio12'
p1076
sg17
S'Annual Precipitation'
p1077
sg19
S'60'
p1078
sg21
S'he6070'
p1079
sg23
S'../views/GTiff/clim.he6070.bio12.tif'
p1080
sg25
S'climate'
p1081
sg27
S'clim.he6070.bio12'
p1082
sg29
S'Annual Precipitation HE RCP60 2070'
p1083
sg31
g32
sg33
g34
sg35
S'clim.he6070.bio12.tif'
p1084
sg37
S'clim'
p1085
sg39
g40
sg41
I4326
sg42
S'2070'
p1086
ssS'bio13'
p1087
(dp1088
g8
S'2015-03-19 10:08:15'
p1089
sg10
S'yes'
p1090
sg12
S'he6070.bio13'
p1091
sg14
I59
sg15
S'bio13'
p1092
sg17
S'Precipitation of Wettest Month'
p1093
sg19
S'60'
p1094
sg21
S'he6070'
p1095
sg23
S'../views/GTiff/clim.he6070.bio13.tif'
p1096
sg25
S'climate'
p1097
sg27
S'clim.he6070.bio13'
p1098
sg29
S'Precipitation of Wettest Month HE RCP60 2070'
p1099
sg31
g32
sg33
g34
sg35
S'clim.he6070.bio13.tif'
p1100
sg37
S'clim'
p1101
sg39
g40
sg41
I4326
sg42
S'2070'
p1102
ssS'bio03'
p1103
(dp1104
g8
S'2015-03-19 10:08:15'
p1105
sg10
S'yes'
p1106
sg12
S'he6070.bio03'
p1107
sg14
I87
sg15
S'bio03'
p1108
sg17
S'Isothermality (BIO2/BIO7) (* 100)'
p1109
sg19
S'60'
p1110
sg21
S'he6070'
p1111
sg23
S'../views/GTiff/clim.he6070.bio03.tif'
p1112
sg25
S'climate'
p1113
sg27
S'clim.he6070.bio03'
p1114
sg29
S'Isothermality (BIO2/BIO7) (* 100) HE RCP60 2070'
p1115
sg31
g32
sg33
g34
sg35
S'clim.he6070.bio03.tif'
p1116
sg37
S'clim'
p1117
sg39
g40
sg41
I4326
sg42
S'2070'
p1118
ssS'bio15'
p1119
(dp1120
g8
S'2015-03-19 10:08:15'
p1121
sg10
S'no'
p1122
sg12
S'he6070.bio15'
p1123
sg14
I48
sg15
S'bio15'
p1124
sg17
S'Precipitation Seasonality (Coefficient of Variation)'
p1125
sg19
S'60'
p1126
sg21
S'he6070'
p1127
sg23
S'../views/GTiff/clim.he6070.bio15.tif'
p1128
sg25
S'climate'
p1129
sg27
S'clim.he6070.bio15'
p1130
sg29
S'Precipitation Seasonality (Coefficient of Variation) HE RCP60 2070'
p1131
sg31
g32
sg33
g34
sg35
S'clim.he6070.bio15.tif'
p1132
sg37
S'clim'
p1133
sg39
g40
sg41
I4326
sg42
S'2070'
p1134
ssS'bio16'
p1135
(dp1136
g8
S'2015-03-19 10:08:15'
p1137
sg10
S'yes'
p1138
sg12
S'he6070.bio16'
p1139
sg14
I110
sg15
S'bio16'
p1140
sg17
S'Precipitation of Wettest Quarter'
p1141
sg19
S'60'
p1142
sg21
S'he6070'
p1143
sg23
S'../views/GTiff/clim.he6070.bio16.tif'
p1144
sg25
S'climate'
p1145
sg27
S'clim.he6070.bio16'
p1146
sg29
S'Precipitation of Wettest Quarter HE RCP60 2070'
p1147
sg31
g32
sg33
g34
sg35
S'clim.he6070.bio16.tif'
p1148
sg37
S'clim'
p1149
sg39
g40
sg41
I4326
sg42
S'2070'
p1150
ssS'bio19'
p1151
(dp1152
g8
S'2015-03-19 10:08:15'
p1153
sg10
S'yes'
p1154
sg12
S'he6070.bio19'
p1155
sg14
I98
sg15
S'bio19'
p1156
sg17
S'Precipitation of Coldest Quarter'
p1157
sg19
S'60'
p1158
sg21
S'he6070'
p1159
sg23
S'../views/GTiff/clim.he6070.bio19.tif'
p1160
sg25
S'climate'
p1161
sg27
S'clim.he6070.bio19'
p1162
sg29
S'Precipitation of Coldest Quarter HE RCP60 2070'
p1163
sg31
g32
sg33
g34
sg35
S'clim.he6070.bio19.tif'
p1164
sg37
S'clim'
p1165
sg39
g40
sg41
I4326
sg42
S'2070'
p1166
ssS'bio18'
p1167
(dp1168
g8
S'2015-03-19 10:08:15'
p1169
sg10
S'no'
p1170
sg12
S'he6070.bio18'
p1171
sg14
I154
sg15
S'bio18'
p1172
sg17
S'Precipitation of Warmest Quarter'
p1173
sg19
S'60'
p1174
sg21
S'he6070'
p1175
sg23
S'../views/GTiff/clim.he6070.bio18.tif'
p1176
sg25
S'climate'
p1177
sg27
S'clim.he6070.bio18'
p1178
sg29
S'Precipitation of Warmest Quarter HE RCP60 2070'
p1179
sg31
g32
sg33
g34
sg35
S'clim.he6070.bio18.tif'
p1180
sg37
S'clim'
p1181
sg39
g40
sg41
I4326
sg42
S'2070'
p1182
ssS'bio14'
p1183
(dp1184
g8
S'2015-03-19 10:08:15'
p1185
sg10
S'yes'
p1186
sg12
S'he6070.bio14'
p1187
sg14
I25
sg15
S'bio14'
p1188
sg17
S'Precipitation of Driest Month'
p1189
sg19
S'60'
p1190
sg21
g941
sg23
S'../views/GTiff/clim.he6070.bio14.tif'
p1191
sg25
S'climate'
p1192
sg27
S'clim.he6070.bio14'
p1193
sg29
S'Precipitation of Driest Month HE RCP60 2070'
p1194
sg31
g32
sg33
g34
sg35
S'clim.he6070.bio14.tif'
p1195
sg37
S'clim'
p1196
sg39
g40
sg41
I4326
sg42
S'2070'
p1197
ssS'bio02'
p1198
(dp1199
g8
S'2015-03-19 10:08:15'
p1200
sg10
S'yes'
p1201
sg12
S'he6070.bio02'
p1202
sg14
I278
sg15
S'bio02'
p1203
sg17
S'Mean Diurnal Range (Mean of monthly (max temp - min temp))'
p1204
sg19
S'60'
p1205
sg21
S'he6070'
p1206
sg23
S'../views/GTiff/clim.he6070.bio02.tif'
p1207
sg25
S'climate'
p1208
sg27
S'clim.he6070.bio02'
p1209
sg29
S'Mean Diurnal Range (Mean of monthly (max temp - min temp)) HE RCP60 2070'
p1210
sg31
g32
sg33
g34
sg35
S'clim.he6070.bio02.tif'
p1211
sg37
S'clim'
p1212
sg39
g40
sg41
I4326
sg42
S'2070'
p1213
ssS'bio04'
p1214
(dp1215
g8
S'2015-03-19 10:08:15'
p1216
sg10
S'yes'
p1217
sg12
S'he6070.bio04'
p1218
sg14
I134
sg15
S'bio04'
p1219
sg17
S'Temperature Seasonality (standard deviation *100)'
p1220
sg19
S'60'
p1221
sg21
S'he6070'
p1222
sg23
S'../views/GTiff/clim.he6070.bio04.tif'
p1223
sg25
S'climate'
p1224
sg27
S'clim.he6070.bio04'
p1225
sg29
S'Temperature Seasonality (standard deviation *100) HE RCP60 2070'
p1226
sg31
g32
sg33
g34
sg35
S'clim.he6070.bio04.tif'
p1227
sg37
S'clim'
p1228
sg39
g40
sg41
I4326
sg42
S'2070'
p1229
ssS'bio08'
p1230
(dp1231
g8
S'2015-03-19 10:08:15'
p1232
sg10
S'no'
p1233
sg12
S'he6070.bio08'
p1234
sg14
I76
sg15
S'bio08'
p1235
sg17
S'Mean Temperature of Wettest Quarter'
p1236
sg19
S'60'
p1237
sg21
S'he6070'
p1238
sg23
S'../views/GTiff/clim.he6070.bio08.tif'
p1239
sg25
S'climate'
p1240
sg27
S'clim.he6070.bio08'
p1241
sg29
S'Mean Temperature of Wettest Quarter HE RCP60 2070'
p1242
sg31
g32
sg33
g34
sg35
S'clim.he6070.bio08.tif'
p1243
sg37
S'clim'
p1244
sg39
g40
sg41
I4326
sg42
S'2070'
p1245
sssS'he8570'
p1246
(dp1247
S'bio07'
p1248
(dp1249
g8
S'2015-03-19 10:08:15'
p1250
sg10
S'no'
p1251
sg12
S'he8570.bio07'
p1252
sg14
I153
sg15
S'bio07'
p1253
sg17
S'Temperature Annual Range (BIO5-BIO6)'
p1254
sg19
S'85'
p1255
sg21
S'he8570'
p1256
sg23
S'../views/GTiff/clim.he8570.bio07.tif'
p1257
sg25
S'climate'
p1258
sg27
S'clim.he8570.bio07'
p1259
sg29
S'Temperature Annual Range (BIO5-BIO6) HE RCP85 2070'
p1260
sg31
g32
sg33
g34
sg35
S'clim.he8570.bio07.tif'
p1261
sg37
S'clim'
p1262
sg39
g40
sg41
I4326
sg42
S'2070'
p1263
ssS'bio16'
p1264
(dp1265
g8
S'2015-03-19 10:08:15'
p1266
sg10
S'yes'
p1267
sg12
S'he8570.bio16'
p1268
sg14
I341
sg15
S'bio16'
p1269
sg17
S'Precipitation of Wettest Quarter'
p1270
sg19
S'85'
p1271
sg21
S'he8570'
p1272
sg23
S'../views/GTiff/clim.he8570.bio16.tif'
p1273
sg25
S'climate'
p1274
sg27
S'clim.he8570.bio16'
p1275
sg29
S'Precipitation of Wettest Quarter HE RCP85 2070'
p1276
sg31
g32
sg33
g34
sg35
S'clim.he8570.bio16.tif'
p1277
sg37
S'clim'
p1278
sg39
g40
sg41
I4326
sg42
S'2070'
p1279
ssS'bio11'
p1280
(dp1281
g8
S'2015-03-19 10:08:15'
p1282
sg10
S'yes'
p1283
sg12
S'he8570.bio11'
p1284
sg14
I177
sg15
S'bio11'
p1285
sg17
S'Mean Temperature of Coldest Quarter'
p1286
sg19
S'85'
p1287
sg21
S'he8570'
p1288
sg23
S'../views/GTiff/clim.he8570.bio11.tif'
p1289
sg25
S'climate'
p1290
sg27
S'clim.he8570.bio11'
p1291
sg29
S'Mean Temperature of Coldest Quarter HE RCP85 2070'
p1292
sg31
g32
sg33
g34
sg35
S'clim.he8570.bio11.tif'
p1293
sg37
S'clim'
p1294
sg39
g40
sg41
I4326
sg42
S'2070'
p1295
ssS'bio15'
p1296
(dp1297
g8
S'2015-03-19 10:08:15'
p1298
sg10
S'no'
p1299
sg12
S'he8570.bio15'
p1300
sg14
I255
sg15
S'bio15'
p1301
sg17
S'Precipitation Seasonality (Coefficient of Variation)'
p1302
sg19
S'85'
p1303
sg21
S'he8570'
p1304
sg23
S'../views/GTiff/clim.he8570.bio15.tif'
p1305
sg25
S'climate'
p1306
sg27
S'clim.he8570.bio15'
p1307
sg29
S'Precipitation Seasonality (Coefficient of Variation) HE RCP85 2070'
p1308
sg31
g32
sg33
g34
sg35
S'clim.he8570.bio15.tif'
p1309
sg37
S'clim'
p1310
sg39
g40
sg41
I4326
sg42
S'2070'
p1311
ssS'bio12'
p1312
(dp1313
g8
S'2015-03-19 10:08:15'
p1314
sg10
S'no'
p1315
sg12
S'he8570.bio12'
p1316
sg14
I197
sg15
S'bio12'
p1317
sg17
S'Annual Precipitation'
p1318
sg19
S'85'
p1319
sg21
S'he8570'
p1320
sg23
S'../views/GTiff/clim.he8570.bio12.tif'
p1321
sg25
S'climate'
p1322
sg27
S'clim.he8570.bio12'
p1323
sg29
S'Annual Precipitation HE RCP85 2070'
p1324
sg31
g32
sg33
g34
sg35
S'clim.he8570.bio12.tif'
p1325
sg37
S'clim'
p1326
sg39
g40
sg41
I4326
sg42
S'2070'
p1327
ssS'bio14'
p1328
(dp1329
g8
S'2015-03-19 10:08:15'
p1330
sg10
S'yes'
p1331
sg12
S'he8570.bio14'
p1332
sg14
I328
sg15
S'bio14'
p1333
sg17
S'Precipitation of Driest Month'
p1334
sg19
S'85'
p1335
sg21
S'he8570'
p1336
sg23
S'../views/GTiff/clim.he8570.bio14.tif'
p1337
sg25
S'climate'
p1338
sg27
S'clim.he8570.bio14'
p1339
sg29
S'Precipitation of Driest Month HE RCP85 2070'
p1340
sg31
g32
sg33
g34
sg35
S'clim.he8570.bio14.tif'
p1341
sg37
S'clim'
p1342
sg39
g40
sg41
I4326
sg42
S'2070'
p1343
ssS'bio10'
p1344
(dp1345
g8
S'2015-03-19 10:08:15'
p1346
sg10
S'yes'
p1347
sg12
S'he8570.bio10'
p1348
sg14
I139
sg15
S'bio10'
p1349
sg17
S'Mean Temperature of Warmest Quarter'
p1350
sg19
S'85'
p1351
sg21
S'he8570'
p1352
sg23
S'../views/GTiff/clim.he8570.bio10.tif'
p1353
sg25
S'climate'
p1354
sg27
S'clim.he8570.bio10'
p1355
sg29
S'Mean Temperature of Warmest Quarter HE RCP85 2070'
p1356
sg31
g32
sg33
g34
sg35
S'clim.he8570.bio10.tif'
p1357
sg37
S'clim'
p1358
sg39
g40
sg41
I4326
sg42
S'2070'
p1359
ssS'bio06'
p1360
(dp1361
g8
S'2015-03-19 10:08:15'
p1362
sg10
S'yes'
p1363
sg12
S'he8570.bio06'
p1364
sg14
I24
sg15
S'bio06'
p1365
sg17
S'Min Temperature of Coldest Month'
p1366
sg19
S'85'
p1367
sg21
S'he8570'
p1368
sg23
S'../views/GTiff/clim.he8570.bio06.tif'
p1369
sg25
S'climate'
p1370
sg27
S'clim.he8570.bio06'
p1371
sg29
S'Min Temperature of Coldest Month HE RCP85 2070'
p1372
sg31
g32
sg33
g34
sg35
S'clim.he8570.bio06.tif'
p1373
sg37
S'clim'
p1374
sg39
g40
sg41
I4326
sg42
S'2070'
p1375
ssS'bio05'
p1376
(dp1377
g8
S'2015-03-19 10:08:15'
p1378
sg10
S'yes'
p1379
sg12
S'he8570.bio05'
p1380
sg14
I51
sg15
S'bio05'
p1381
sg17
S'Max Temperature of Warmest Month'
p1382
sg19
S'85'
p1383
sg21
S'he8570'
p1384
sg23
S'../views/GTiff/clim.he8570.bio05.tif'
p1385
sg25
S'climate'
p1386
sg27
S'clim.he8570.bio05'
p1387
sg29
S'Max Temperature of Warmest Month HE RCP85 2070'
p1388
sg31
g32
sg33
g34
sg35
S'clim.he8570.bio05.tif'
p1389
sg37
S'clim'
p1390
sg39
g40
sg41
I4326
sg42
S'2070'
p1391
ssS'bio13'
p1392
(dp1393
g8
S'2015-03-19 10:08:15'
p1394
sg10
S'yes'
p1395
sg12
S'he8570.bio13'
p1396
sg14
I208
sg15
S'bio13'
p1397
sg17
S'Precipitation of Wettest Month'
p1398
sg19
S'85'
p1399
sg21
S'he8570'
p1400
sg23
S'../views/GTiff/clim.he8570.bio13.tif'
p1401
sg25
S'climate'
p1402
sg27
S'clim.he8570.bio13'
p1403
sg29
S'Precipitation of Wettest Month HE RCP85 2070'
p1404
sg31
g32
sg33
g34
sg35
S'clim.he8570.bio13.tif'
p1405
sg37
S'clim'
p1406
sg39
g40
sg41
I4326
sg42
S'2070'
p1407
ssS'bio03'
p1408
(dp1409
g8
S'2015-03-19 10:08:15'
p1410
sg10
S'yes'
p1411
sg12
S'he8570.bio03'
p1412
sg14
I282
sg15
S'bio03'
p1413
sg17
S'Isothermality (BIO2/BIO7) (* 100)'
p1414
sg19
S'85'
p1415
sg21
S'he8570'
p1416
sg23
S'../views/GTiff/clim.he8570.bio03.tif'
p1417
sg25
S'climate'
p1418
sg27
S'clim.he8570.bio03'
p1419
sg29
S'Isothermality (BIO2/BIO7) (* 100) HE RCP85 2070'
p1420
sg31
g32
sg33
g34
sg35
S'clim.he8570.bio03.tif'
p1421
sg37
S'clim'
p1422
sg39
g40
sg41
I4326
sg42
S'2070'
p1423
ssS'bio02'
p1424
(dp1425
g8
S'2015-03-19 10:08:15'
p1426
sg10
S'yes'
p1427
sg12
S'he8570.bio02'
p1428
sg14
I19
sg15
S'bio02'
p1429
sg17
S'Mean Diurnal Range (Mean of monthly (max temp - min temp))'
p1430
sg19
S'85'
p1431
sg21
g1246
sg23
S'../views/GTiff/clim.he8570.bio02.tif'
p1432
sg25
S'climate'
p1433
sg27
S'clim.he8570.bio02'
p1434
sg29
S'Mean Diurnal Range (Mean of monthly (max temp - min temp)) HE RCP85 2070'
p1435
sg31
g32
sg33
g34
sg35
S'clim.he8570.bio02.tif'
p1436
sg37
S'clim'
p1437
sg39
g40
sg41
I4326
sg42
S'2070'
p1438
ssS'bio01'
p1439
(dp1440
g8
S'2015-03-19 10:08:15'
p1441
sg10
S'no'
p1442
sg12
S'he8570.bio01'
p1443
sg14
I95
sg15
S'bio01'
p1444
sg17
S'Annual Mean Temperature'
p1445
sg19
S'85'
p1446
sg21
S'he8570'
p1447
sg23
S'../views/GTiff/clim.he8570.bio01.tif'
p1448
sg25
S'climate'
p1449
sg27
S'clim.he8570.bio01'
p1450
sg29
S'Annual Mean Temperature HE RCP85 2070'
p1451
sg31
g32
sg33
g34
sg35
S'clim.he8570.bio01.tif'
p1452
sg37
S'clim'
p1453
sg39
g40
sg41
I4326
sg42
S'2070'
p1454
ssS'bio17'
p1455
(dp1456
g8
S'2015-03-19 10:08:15'
p1457
sg10
S'yes'
p1458
sg12
S'he8570.bio17'
p1459
sg14
I35
sg15
S'bio17'
p1460
sg17
S'Precipitation of Driest Quarter'
p1461
sg19
S'85'
p1462
sg21
S'he8570'
p1463
sg23
S'../views/GTiff/clim.he8570.bio17.tif'
p1464
sg25
S'climate'
p1465
sg27
S'clim.he8570.bio17'
p1466
sg29
S'Precipitation of Driest Quarter HE RCP85 2070'
p1467
sg31
g32
sg33
g34
sg35
S'clim.he8570.bio17.tif'
p1468
sg37
S'clim'
p1469
sg39
g40
sg41
I4326
sg42
S'2070'
p1470
ssS'bio18'
p1471
(dp1472
g8
S'2015-03-19 10:08:15'
p1473
sg10
S'no'
p1474
sg12
S'he8570.bio18'
p1475
sg14
I235
sg15
S'bio18'
p1476
sg17
S'Precipitation of Warmest Quarter'
p1477
sg19
S'85'
p1478
sg21
S'he8570'
p1479
sg23
S'../views/GTiff/clim.he8570.bio18.tif'
p1480
sg25
S'climate'
p1481
sg27
S'clim.he8570.bio18'
p1482
sg29
S'Precipitation of Warmest Quarter HE RCP85 2070'
p1483
sg31
g32
sg33
g34
sg35
S'clim.he8570.bio18.tif'
p1484
sg37
S'clim'
p1485
sg39
g40
sg41
I4326
sg42
S'2070'
p1486
ssS'bio19'
p1487
(dp1488
g8
S'2015-03-19 10:08:15'
p1489
sg10
S'yes'
p1490
sg12
S'he8570.bio19'
p1491
sg14
I205
sg15
S'bio19'
p1492
sg17
S'Precipitation of Coldest Quarter'
p1493
sg19
S'85'
p1494
sg21
S'he8570'
p1495
sg23
S'../views/GTiff/clim.he8570.bio19.tif'
p1496
sg25
S'climate'
p1497
sg27
S'clim.he8570.bio19'
p1498
sg29
S'Precipitation of Coldest Quarter HE RCP85 2070'
p1499
sg31
g32
sg33
g34
sg35
S'clim.he8570.bio19.tif'
p1500
sg37
S'clim'
p1501
sg39
g40
sg41
I4326
sg42
S'2070'
p1502
ssS'bio04'
p1503
(dp1504
g8
S'2015-03-19 10:08:15'
p1505
sg10
S'yes'
p1506
sg12
S'he8570.bio04'
p1507
sg14
I309
sg15
S'bio04'
p1508
sg17
S'Temperature Seasonality (standard deviation *100)'
p1509
sg19
S'85'
p1510
sg21
S'he8570'
p1511
sg23
S'../views/GTiff/clim.he8570.bio04.tif'
p1512
sg25
S'climate'
p1513
sg27
S'clim.he8570.bio04'
p1514
sg29
S'Temperature Seasonality (standard deviation *100) HE RCP85 2070'
p1515
sg31
g32
sg33
g34
sg35
S'clim.he8570.bio04.tif'
p1516
sg37
S'clim'
p1517
sg39
g40
sg41
I4326
sg42
S'2070'
p1518
ssS'bio09'
p1519
(dp1520
g8
S'2015-03-19 10:08:15'
p1521
sg10
S'yes'
p1522
sg12
S'he8570.bio09'
p1523
sg14
I192
sg15
S'bio09'
p1524
sg17
S'Mean Temperature of Driest Quarter'
p1525
sg19
S'85'
p1526
sg21
S'he8570'
p1527
sg23
S'../views/GTiff/clim.he8570.bio09.tif'
p1528
sg25
S'climate'
p1529
sg27
S'clim.he8570.bio09'
p1530
sg29
S'Mean Temperature of Driest Quarter HE RCP85 2070'
p1531
sg31
g32
sg33
g34
sg35
S'clim.he8570.bio09.tif'
p1532
sg37
S'clim'
p1533
sg39
g40
sg41
I4326
sg42
S'2070'
p1534
ssS'bio08'
p1535
(dp1536
g8
S'2015-03-19 10:08:15'
p1537
sg10
S'no'
p1538
sg12
S'he8570.bio08'
p1539
sg14
I113
sg15
S'bio08'
p1540
sg17
S'Mean Temperature of Wettest Quarter'
p1541
sg19
S'85'
p1542
sg21
S'he8570'
p1543
sg23
S'../views/GTiff/clim.he8570.bio08.tif'
p1544
sg25
S'climate'
p1545
sg27
S'clim.he8570.bio08'
p1546
sg29
S'Mean Temperature of Wettest Quarter HE RCP85 2070'
p1547
sg31
g32
sg33
g34
sg35
S'clim.he8570.bio08.tif'
p1548
sg37
S'clim'
p1549
sg39
g40
sg41
I4326
sg42
S'2070'
p1550
sssS'he2650'
p1551
(dp1552
S'bio10'
p1553
(dp1554
g8
S'2015-03-19 10:08:15'
p1555
sg10
S'yes'
p1556
sg12
S'he2650.bio10'
p1557
sg14
I298
sg15
S'bio10'
p1558
sg17
S'Mean Temperature of Warmest Quarter'
p1559
sg19
S'26'
p1560
sg21
S'he2650'
p1561
sg23
S'../views/GTiff/clim.he2650.bio10.tif'
p1562
sg25
S'climate'
p1563
sg27
S'clim.he2650.bio10'
p1564
sg29
S'Mean Temperature of Warmest Quarter HE RCP26 2050'
p1565
sg31
g32
sg33
g34
sg35
S'clim.he2650.bio10.tif'
p1566
sg37
S'clim'
p1567
sg39
g40
sg41
I4326
sg42
S'2050'
p1568
ssS'bio16'
p1569
(dp1570
g8
S'2015-03-19 10:08:15'
p1571
sg10
S'yes'
p1572
sg12
S'he2650.bio16'
p1573
sg14
I324
sg15
S'bio16'
p1574
sg17
S'Precipitation of Wettest Quarter'
p1575
sg19
S'26'
p1576
sg21
S'he2650'
p1577
sg23
S'../views/GTiff/clim.he2650.bio16.tif'
p1578
sg25
S'climate'
p1579
sg27
S'clim.he2650.bio16'
p1580
sg29
S'Precipitation of Wettest Quarter HE RCP26 2050'
p1581
sg31
g32
sg33
g34
sg35
S'clim.he2650.bio16.tif'
p1582
sg37
S'clim'
p1583
sg39
g40
sg41
I4326
sg42
S'2050'
p1584
ssS'bio11'
p1585
(dp1586
g8
S'2015-03-19 10:08:15'
p1587
sg10
S'yes'
p1588
sg12
S'he2650.bio11'
p1589
sg14
I119
sg15
S'bio11'
p1590
sg17
S'Mean Temperature of Coldest Quarter'
p1591
sg19
S'26'
p1592
sg21
S'he2650'
p1593
sg23
S'../views/GTiff/clim.he2650.bio11.tif'
p1594
sg25
S'climate'
p1595
sg27
S'clim.he2650.bio11'
p1596
sg29
S'Mean Temperature of Coldest Quarter HE RCP26 2050'
p1597
sg31
g32
sg33
g34
sg35
S'clim.he2650.bio11.tif'
p1598
sg37
S'clim'
p1599
sg39
g40
sg41
I4326
sg42
S'2050'
p1600
ssS'bio09'
p1601
(dp1602
g8
S'2015-03-19 10:08:15'
p1603
sg10
S'yes'
p1604
sg12
S'he2650.bio09'
p1605
sg14
I277
sg15
S'bio09'
p1606
sg17
S'Mean Temperature of Driest Quarter'
p1607
sg19
S'26'
p1608
sg21
S'he2650'
p1609
sg23
S'../views/GTiff/clim.he2650.bio09.tif'
p1610
sg25
S'climate'
p1611
sg27
S'clim.he2650.bio09'
p1612
sg29
S'Mean Temperature of Driest Quarter HE RCP26 2050'
p1613
sg31
g32
sg33
g34
sg35
S'clim.he2650.bio09.tif'
p1614
sg37
S'clim'
p1615
sg39
g40
sg41
I4326
sg42
S'2050'
p1616
ssS'bio05'
p1617
(dp1618
g8
S'2015-03-19 10:08:15'
p1619
sg10
S'yes'
p1620
sg12
S'he2650.bio05'
p1621
sg14
I289
sg15
S'bio05'
p1622
sg17
S'Max Temperature of Warmest Month'
p1623
sg19
S'26'
p1624
sg21
S'he2650'
p1625
sg23
S'../views/GTiff/clim.he2650.bio05.tif'
p1626
sg25
S'climate'
p1627
sg27
S'clim.he2650.bio05'
p1628
sg29
S'Max Temperature of Warmest Month HE RCP26 2050'
p1629
sg31
g32
sg33
g34
sg35
S'clim.he2650.bio05.tif'
p1630
sg37
S'clim'
p1631
sg39
g40
sg41
I4326
sg42
S'2050'
p1632
ssS'bio07'
p1633
(dp1634
g8
S'2015-03-19 10:08:15'
p1635
sg10
S'no'
p1636
sg12
S'he2650.bio07'
p1637
sg14
I2
sg15
S'bio07'
p1638
sg17
S'Temperature Annual Range (BIO5-BIO6)'
p1639
sg19
S'26'
p1640
sg21
g1551
sg23
S'../views/GTiff/clim.he2650.bio07.tif'
p1641
sg25
S'climate'
p1642
sg27
S'clim.he2650.bio07'
p1643
sg29
S'Temperature Annual Range (BIO5-BIO6) HE RCP26 2050'
p1644
sg31
g32
sg33
g34
sg35
S'clim.he2650.bio07.tif'
p1645
sg37
S'clim'
p1646
sg39
g40
sg41
I4326
sg42
S'2050'
p1647
ssS'bio06'
p1648
(dp1649
g8
S'2015-03-19 10:08:15'
p1650
sg10
S'yes'
p1651
sg12
S'he2650.bio06'
p1652
sg14
I116
sg15
S'bio06'
p1653
sg17
S'Min Temperature of Coldest Month'
p1654
sg19
S'26'
p1655
sg21
S'he2650'
p1656
sg23
S'../views/GTiff/clim.he2650.bio06.tif'
p1657
sg25
S'climate'
p1658
sg27
S'clim.he2650.bio06'
p1659
sg29
S'Min Temperature of Coldest Month HE RCP26 2050'
p1660
sg31
g32
sg33
g34
sg35
S'clim.he2650.bio06.tif'
p1661
sg37
S'clim'
p1662
sg39
g40
sg41
I4326
sg42
S'2050'
p1663
ssS'bio12'
p1664
(dp1665
g8
S'2015-03-19 10:08:15'
p1666
sg10
S'no'
p1667
sg12
S'he2650.bio12'
p1668
sg14
I210
sg15
S'bio12'
p1669
sg17
S'Annual Precipitation'
p1670
sg19
S'26'
p1671
sg21
S'he2650'
p1672
sg23
S'../views/GTiff/clim.he2650.bio12.tif'
p1673
sg25
S'climate'
p1674
sg27
S'clim.he2650.bio12'
p1675
sg29
S'Annual Precipitation HE RCP26 2050'
p1676
sg31
g32
sg33
g34
sg35
S'clim.he2650.bio12.tif'
p1677
sg37
S'clim'
p1678
sg39
g40
sg41
I4326
sg42
S'2050'
p1679
ssS'bio13'
p1680
(dp1681
g8
S'2015-03-19 10:08:15'
p1682
sg10
S'yes'
p1683
sg12
S'he2650.bio13'
p1684
sg14
I175
sg15
S'bio13'
p1685
sg17
S'Precipitation of Wettest Month'
p1686
sg19
S'26'
p1687
sg21
S'he2650'
p1688
sg23
S'../views/GTiff/clim.he2650.bio13.tif'
p1689
sg25
S'climate'
p1690
sg27
S'clim.he2650.bio13'
p1691
sg29
S'Precipitation of Wettest Month HE RCP26 2050'
p1692
sg31
g32
sg33
g34
sg35
S'clim.he2650.bio13.tif'
p1693
sg37
S'clim'
p1694
sg39
g40
sg41
I4326
sg42
S'2050'
p1695
ssS'bio14'
p1696
(dp1697
g8
S'2015-03-19 10:08:15'
p1698
sg10
S'yes'
p1699
sg12
S'he2650.bio14'
p1700
sg14
I106
sg15
S'bio14'
p1701
sg17
S'Precipitation of Driest Month'
p1702
sg19
S'26'
p1703
sg21
S'he2650'
p1704
sg23
S'../views/GTiff/clim.he2650.bio14.tif'
p1705
sg25
S'climate'
p1706
sg27
S'clim.he2650.bio14'
p1707
sg29
S'Precipitation of Driest Month HE RCP26 2050'
p1708
sg31
g32
sg33
g34
sg35
S'clim.he2650.bio14.tif'
p1709
sg37
S'clim'
p1710
sg39
g40
sg41
I4326
sg42
S'2050'
p1711
ssS'bio15'
p1712
(dp1713
g8
S'2015-03-19 10:08:15'
p1714
sg10
S'no'
p1715
sg12
S'he2650.bio15'
p1716
sg14
I90
sg15
S'bio15'
p1717
sg17
S'Precipitation Seasonality (Coefficient of Variation)'
p1718
sg19
S'26'
p1719
sg21
S'he2650'
p1720
sg23
S'../views/GTiff/clim.he2650.bio15.tif'
p1721
sg25
S'climate'
p1722
sg27
S'clim.he2650.bio15'
p1723
sg29
S'Precipitation Seasonality (Coefficient of Variation) HE RCP26 2050'
p1724
sg31
g32
sg33
g34
sg35
S'clim.he2650.bio15.tif'
p1725
sg37
S'clim'
p1726
sg39
g40
sg41
I4326
sg42
S'2050'
p1727
ssS'bio01'
p1728
(dp1729
g8
S'2015-03-19 10:08:15'
p1730
sg10
S'no'
p1731
sg12
S'he2650.bio01'
p1732
sg14
I74
sg15
S'bio01'
p1733
sg17
S'Annual Mean Temperature'
p1734
sg19
S'26'
p1735
sg21
S'he2650'
p1736
sg23
S'../views/GTiff/clim.he2650.bio01.tif'
p1737
sg25
S'climate'
p1738
sg27
S'clim.he2650.bio01'
p1739
sg29
S'Annual Mean Temperature HE RCP26 2050'
p1740
sg31
g32
sg33
g34
sg35
S'clim.he2650.bio01.tif'
p1741
sg37
S'clim'
p1742
sg39
g40
sg41
I4326
sg42
S'2050'
p1743
ssS'bio17'
p1744
(dp1745
g8
S'2015-03-19 10:08:15'
p1746
sg10
S'yes'
p1747
sg12
S'he2650.bio17'
p1748
sg14
I249
sg15
S'bio17'
p1749
sg17
S'Precipitation of Driest Quarter'
p1750
sg19
S'26'
p1751
sg21
S'he2650'
p1752
sg23
S'../views/GTiff/clim.he2650.bio17.tif'
p1753
sg25
S'climate'
p1754
sg27
S'clim.he2650.bio17'
p1755
sg29
S'Precipitation of Driest Quarter HE RCP26 2050'
p1756
sg31
g32
sg33
g34
sg35
S'clim.he2650.bio17.tif'
p1757
sg37
S'clim'
p1758
sg39
g40
sg41
I4326
sg42
S'2050'
p1759
ssS'bio18'
p1760
(dp1761
g8
S'2015-03-19 10:08:15'
p1762
sg10
S'no'
p1763
sg12
S'he2650.bio18'
p1764
sg14
I303
sg15
S'bio18'
p1765
sg17
S'Precipitation of Warmest Quarter'
p1766
sg19
S'26'
p1767
sg21
S'he2650'
p1768
sg23
S'../views/GTiff/clim.he2650.bio18.tif'
p1769
sg25
S'climate'
p1770
sg27
S'clim.he2650.bio18'
p1771
sg29
S'Precipitation of Warmest Quarter HE RCP26 2050'
p1772
sg31
g32
sg33
g34
sg35
S'clim.he2650.bio18.tif'
p1773
sg37
S'clim'
p1774
sg39
g40
sg41
I4326
sg42
S'2050'
p1775
ssS'bio19'
p1776
(dp1777
g8
S'2015-03-19 10:08:15'
p1778
sg10
S'yes'
p1779
sg12
S'he2650.bio19'
p1780
sg14
I172
sg15
S'bio19'
p1781
sg17
S'Precipitation of Coldest Quarter'
p1782
sg19
S'26'
p1783
sg21
S'he2650'
p1784
sg23
S'../views/GTiff/clim.he2650.bio19.tif'
p1785
sg25
S'climate'
p1786
sg27
S'clim.he2650.bio19'
p1787
sg29
S'Precipitation of Coldest Quarter HE RCP26 2050'
p1788
sg31
g32
sg33
g34
sg35
S'clim.he2650.bio19.tif'
p1789
sg37
S'clim'
p1790
sg39
g40
sg41
I4326
sg42
S'2050'
p1791
ssS'bio08'
p1792
(dp1793
g8
S'2015-03-19 10:08:15'
p1794
sg10
S'no'
p1795
sg12
S'he2650.bio08'
p1796
sg14
I229
sg15
S'bio08'
p1797
sg17
S'Mean Temperature of Wettest Quarter'
p1798
sg19
S'26'
p1799
sg21
S'he2650'
p1800
sg23
S'../views/GTiff/clim.he2650.bio08.tif'
p1801
sg25
S'climate'
p1802
sg27
S'clim.he2650.bio08'
p1803
sg29
S'Mean Temperature of Wettest Quarter HE RCP26 2050'
p1804
sg31
g32
sg33
g34
sg35
S'clim.he2650.bio08.tif'
p1805
sg37
S'clim'
p1806
sg39
g40
sg41
I4326
sg42
S'2050'
p1807
ssS'bio03'
p1808
(dp1809
g8
S'2015-03-19 10:08:15'
p1810
sg10
S'yes'
p1811
sg12
S'he2650.bio03'
p1812
sg14
I316
sg15
S'bio03'
p1813
sg17
S'Isothermality (BIO2/BIO7) (* 100)'
p1814
sg19
S'26'
p1815
sg21
S'he2650'
p1816
sg23
S'../views/GTiff/clim.he2650.bio03.tif'
p1817
sg25
S'climate'
p1818
sg27
S'clim.he2650.bio03'
p1819
sg29
S'Isothermality (BIO2/BIO7) (* 100) HE RCP26 2050'
p1820
sg31
g32
sg33
g34
sg35
S'clim.he2650.bio03.tif'
p1821
sg37
S'clim'
p1822
sg39
g40
sg41
I4326
sg42
S'2050'
p1823
ssS'bio04'
p1824
(dp1825
g8
S'2015-03-19 10:08:15'
p1826
sg10
S'yes'
p1827
sg12
S'he2650.bio04'
p1828
sg14
I260
sg15
S'bio04'
p1829
sg17
S'Temperature Seasonality (standard deviation *100)'
p1830
sg19
S'26'
p1831
sg21
S'he2650'
p1832
sg23
S'../views/GTiff/clim.he2650.bio04.tif'
p1833
sg25
S'climate'
p1834
sg27
S'clim.he2650.bio04'
p1835
sg29
S'Temperature Seasonality (standard deviation *100) HE RCP26 2050'
p1836
sg31
g32
sg33
g34
sg35
S'clim.he2650.bio04.tif'
p1837
sg37
S'clim'
p1838
sg39
g40
sg41
I4326
sg42
S'2050'
p1839
ssS'bio02'
p1840
(dp1841
g8
S'2015-03-19 10:08:15'
p1842
sg10
S'yes'
p1843
sg12
S'he2650.bio02'
p1844
sg14
I92
sg15
S'bio02'
p1845
sg17
S'Mean Diurnal Range (Mean of monthly (max temp - min temp))'
p1846
sg19
S'26'
p1847
sg21
S'he2650'
p1848
sg23
S'../views/GTiff/clim.he2650.bio02.tif'
p1849
sg25
S'climate'
p1850
sg27
S'clim.he2650.bio02'
p1851
sg29
S'Mean Diurnal Range (Mean of monthly (max temp - min temp)) HE RCP26 2050'
p1852
sg31
g32
sg33
g34
sg35
S'clim.he2650.bio02.tif'
p1853
sg37
S'clim'
p1854
sg39
g40
sg41
I4326
sg42
S'2050'
p1855
sssS'he6050'
p1856
(dp1857
S'bio10'
p1858
(dp1859
g8
S'2015-03-19 10:08:15'
p1860
sg10
S'yes'
p1861
sg12
S'he6050.bio10'
p1862
sg14
I187
sg15
S'bio10'
p1863
sg17
S'Mean Temperature of Warmest Quarter'
p1864
sg19
S'60'
p1865
sg21
S'he6050'
p1866
sg23
S'../views/GTiff/clim.he6050.bio10.tif'
p1867
sg25
S'climate'
p1868
sg27
S'clim.he6050.bio10'
p1869
sg29
S'Mean Temperature of Warmest Quarter HE RCP60 2050'
p1870
sg31
g32
sg33
g34
sg35
S'clim.he6050.bio10.tif'
p1871
sg37
S'clim'
p1872
sg39
g40
sg41
I4326
sg42
S'2050'
p1873
ssS'bio19'
p1874
(dp1875
g8
S'2015-03-19 10:08:15'
p1876
sg10
S'yes'
p1877
sg12
S'he6050.bio19'
p1878
sg14
I286
sg15
S'bio19'
p1879
sg17
S'Precipitation of Coldest Quarter'
p1880
sg19
S'60'
p1881
sg21
S'he6050'
p1882
sg23
S'../views/GTiff/clim.he6050.bio19.tif'
p1883
sg25
S'climate'
p1884
sg27
S'clim.he6050.bio19'
p1885
sg29
S'Precipitation of Coldest Quarter HE RCP60 2050'
p1886
sg31
g32
sg33
g34
sg35
S'clim.he6050.bio19.tif'
p1887
sg37
S'clim'
p1888
sg39
g40
sg41
I4326
sg42
S'2050'
p1889
ssS'bio01'
p1890
(dp1891
g8
S'2015-03-19 10:08:15'
p1892
sg10
S'no'
p1893
sg12
S'he6050.bio01'
p1894
sg14
I253
sg15
S'bio01'
p1895
sg17
S'Annual Mean Temperature'
p1896
sg19
S'60'
p1897
sg21
S'he6050'
p1898
sg23
S'../views/GTiff/clim.he6050.bio01.tif'
p1899
sg25
S'climate'
p1900
sg27
S'clim.he6050.bio01'
p1901
sg29
S'Annual Mean Temperature HE RCP60 2050'
p1902
sg31
g32
sg33
g34
sg35
S'clim.he6050.bio01.tif'
p1903
sg37
S'clim'
p1904
sg39
g40
sg41
I4326
sg42
S'2050'
p1905
ssS'bio11'
p1906
(dp1907
g8
S'2015-03-19 10:08:15'
p1908
sg10
S'yes'
p1909
sg12
S'he6050.bio11'
p1910
sg14
I233
sg15
S'bio11'
p1911
sg17
S'Mean Temperature of Coldest Quarter'
p1912
sg19
S'60'
p1913
sg21
S'he6050'
p1914
sg23
S'../views/GTiff/clim.he6050.bio11.tif'
p1915
sg25
S'climate'
p1916
sg27
S'clim.he6050.bio11'
p1917
sg29
S'Mean Temperature of Coldest Quarter HE RCP60 2050'
p1918
sg31
g32
sg33
g34
sg35
S'clim.he6050.bio11.tif'
p1919
sg37
S'clim'
p1920
sg39
g40
sg41
I4326
sg42
S'2050'
p1921
ssS'bio04'
p1922
(dp1923
g8
S'2015-03-19 10:08:15'
p1924
sg10
S'yes'
p1925
sg12
S'he6050.bio04'
p1926
sg14
I321
sg15
S'bio04'
p1927
sg17
S'Temperature Seasonality (standard deviation *100)'
p1928
sg19
S'60'
p1929
sg21
S'he6050'
p1930
sg23
S'../views/GTiff/clim.he6050.bio04.tif'
p1931
sg25
S'climate'
p1932
sg27
S'clim.he6050.bio04'
p1933
sg29
S'Temperature Seasonality (standard deviation *100) HE RCP60 2050'
p1934
sg31
g32
sg33
g34
sg35
S'clim.he6050.bio04.tif'
p1935
sg37
S'clim'
p1936
sg39
g40
sg41
I4326
sg42
S'2050'
p1937
ssS'bio12'
p1938
(dp1939
g8
S'2015-03-19 10:08:15'
p1940
sg10
S'no'
p1941
sg12
S'he6050.bio12'
p1942
sg14
I280
sg15
S'bio12'
p1943
sg17
S'Annual Precipitation'
p1944
sg19
S'60'
p1945
sg21
S'he6050'
p1946
sg23
S'../views/GTiff/clim.he6050.bio12.tif'
p1947
sg25
S'climate'
p1948
sg27
S'clim.he6050.bio12'
p1949
sg29
S'Annual Precipitation HE RCP60 2050'
p1950
sg31
g32
sg33
g34
sg35
S'clim.he6050.bio12.tif'
p1951
sg37
S'clim'
p1952
sg39
g40
sg41
I4326
sg42
S'2050'
p1953
ssS'bio07'
p1954
(dp1955
g8
S'2015-03-19 10:08:15'
p1956
sg10
S'no'
p1957
sg12
S'he6050.bio07'
p1958
sg14
I131
sg15
S'bio07'
p1959
sg17
S'Temperature Annual Range (BIO5-BIO6)'
p1960
sg19
S'60'
p1961
sg21
S'he6050'
p1962
sg23
S'../views/GTiff/clim.he6050.bio07.tif'
p1963
sg25
S'climate'
p1964
sg27
S'clim.he6050.bio07'
p1965
sg29
S'Temperature Annual Range (BIO5-BIO6) HE RCP60 2050'
p1966
sg31
g32
sg33
g34
sg35
S'clim.he6050.bio07.tif'
p1967
sg37
S'clim'
p1968
sg39
g40
sg41
I4326
sg42
S'2050'
p1969
ssS'bio06'
p1970
(dp1971
g8
S'2015-03-19 10:08:15'
p1972
sg10
S'yes'
p1973
sg12
S'he6050.bio06'
p1974
sg14
I179
sg15
S'bio06'
p1975
sg17
S'Min Temperature of Coldest Month'
p1976
sg19
S'60'
p1977
sg21
S'he6050'
p1978
sg23
S'../views/GTiff/clim.he6050.bio06.tif'
p1979
sg25
S'climate'
p1980
sg27
S'clim.he6050.bio06'
p1981
sg29
S'Min Temperature of Coldest Month HE RCP60 2050'
p1982
sg31
g32
sg33
g34
sg35
S'clim.he6050.bio06.tif'
p1983
sg37
S'clim'
p1984
sg39
g40
sg41
I4326
sg42
S'2050'
p1985
ssS'bio05'
p1986
(dp1987
g8
S'2015-03-19 10:08:15'
p1988
sg10
S'yes'
p1989
sg12
S'he6050.bio05'
p1990
sg14
I273
sg15
S'bio05'
p1991
sg17
S'Max Temperature of Warmest Month'
p1992
sg19
S'60'
p1993
sg21
S'he6050'
p1994
sg23
S'../views/GTiff/clim.he6050.bio05.tif'
p1995
sg25
S'climate'
p1996
sg27
S'clim.he6050.bio05'
p1997
sg29
S'Max Temperature of Warmest Month HE RCP60 2050'
p1998
sg31
g32
sg33
g34
sg35
S'clim.he6050.bio05.tif'
p1999
sg37
S'clim'
p2000
sg39
g40
sg41
I4326
sg42
S'2050'
p2001
ssS'bio13'
p2002
(dp2003
g8
S'2015-03-19 10:08:15'
p2004
sg10
S'yes'
p2005
sg12
S'he6050.bio13'
p2006
sg14
I206
sg15
S'bio13'
p2007
sg17
S'Precipitation of Wettest Month'
p2008
sg19
S'60'
p2009
sg21
S'he6050'
p2010
sg23
S'../views/GTiff/clim.he6050.bio13.tif'
p2011
sg25
S'climate'
p2012
sg27
S'clim.he6050.bio13'
p2013
sg29
S'Precipitation of Wettest Month HE RCP60 2050'
p2014
sg31
g32
sg33
g34
sg35
S'clim.he6050.bio13.tif'
p2015
sg37
S'clim'
p2016
sg39
g40
sg41
I4326
sg42
S'2050'
p2017
ssS'bio14'
p2018
(dp2019
g8
S'2015-03-19 10:08:15'
p2020
sg10
S'yes'
p2021
sg12
S'he6050.bio14'
p2022
sg14
I47
sg15
S'bio14'
p2023
sg17
S'Precipitation of Driest Month'
p2024
sg19
S'60'
p2025
sg21
S'he6050'
p2026
sg23
S'../views/GTiff/clim.he6050.bio14.tif'
p2027
sg25
S'climate'
p2028
sg27
S'clim.he6050.bio14'
p2029
sg29
S'Precipitation of Driest Month HE RCP60 2050'
p2030
sg31
g32
sg33
g34
sg35
S'clim.he6050.bio14.tif'
p2031
sg37
S'clim'
p2032
sg39
g40
sg41
I4326
sg42
S'2050'
p2033
ssS'bio15'
p2034
(dp2035
g8
S'2015-03-19 10:08:15'
p2036
sg10
S'no'
p2037
sg12
S'he6050.bio15'
p2038
sg14
I60
sg15
S'bio15'
p2039
sg17
S'Precipitation Seasonality (Coefficient of Variation)'
p2040
sg19
S'60'
p2041
sg21
S'he6050'
p2042
sg23
S'../views/GTiff/clim.he6050.bio15.tif'
p2043
sg25
S'climate'
p2044
sg27
S'clim.he6050.bio15'
p2045
sg29
S'Precipitation Seasonality (Coefficient of Variation) HE RCP60 2050'
p2046
sg31
g32
sg33
g34
sg35
S'clim.he6050.bio15.tif'
p2047
sg37
S'clim'
p2048
sg39
g40
sg41
I4326
sg42
S'2050'
p2049
ssS'bio16'
p2050
(dp2051
g8
S'2015-03-19 10:08:15'
p2052
sg10
S'yes'
p2053
sg12
S'he6050.bio16'
p2054
sg14
I232
sg15
S'bio16'
p2055
sg17
S'Precipitation of Wettest Quarter'
p2056
sg19
S'60'
p2057
sg21
S'he6050'
p2058
sg23
S'../views/GTiff/clim.he6050.bio16.tif'
p2059
sg25
S'climate'
p2060
sg27
S'clim.he6050.bio16'
p2061
sg29
S'Precipitation of Wettest Quarter HE RCP60 2050'
p2062
sg31
g32
sg33
g34
sg35
S'clim.he6050.bio16.tif'
p2063
sg37
S'clim'
p2064
sg39
g40
sg41
I4326
sg42
S'2050'
p2065
ssS'bio17'
p2066
(dp2067
g8
S'2015-03-19 10:08:15'
p2068
sg10
S'yes'
p2069
sg12
S'he6050.bio17'
p2070
sg14
I157
sg15
S'bio17'
p2071
sg17
S'Precipitation of Driest Quarter'
p2072
sg19
S'60'
p2073
sg21
S'he6050'
p2074
sg23
S'../views/GTiff/clim.he6050.bio17.tif'
p2075
sg25
S'climate'
p2076
sg27
S'clim.he6050.bio17'
p2077
sg29
S'Precipitation of Driest Quarter HE RCP60 2050'
p2078
sg31
g32
sg33
g34
sg35
S'clim.he6050.bio17.tif'
p2079
sg37
S'clim'
p2080
sg39
g40
sg41
I4326
sg42
S'2050'
p2081
ssS'bio18'
p2082
(dp2083
g8
S'2015-03-19 10:08:15'
p2084
sg10
S'no'
p2085
sg12
S'he6050.bio18'
p2086
sg14
I91
sg15
S'bio18'
p2087
sg17
S'Precipitation of Warmest Quarter'
p2088
sg19
S'60'
p2089
sg21
S'he6050'
p2090
sg23
S'../views/GTiff/clim.he6050.bio18.tif'
p2091
sg25
S'climate'
p2092
sg27
S'clim.he6050.bio18'
p2093
sg29
S'Precipitation of Warmest Quarter HE RCP60 2050'
p2094
sg31
g32
sg33
g34
sg35
S'clim.he6050.bio18.tif'
p2095
sg37
S'clim'
p2096
sg39
g40
sg41
I4326
sg42
S'2050'
p2097
ssS'bio03'
p2098
(dp2099
g8
S'2015-03-19 10:08:15'
p2100
sg10
S'yes'
p2101
sg12
S'he6050.bio03'
p2102
sg14
I32
sg15
S'bio03'
p2103
sg17
S'Isothermality (BIO2/BIO7) (* 100)'
p2104
sg19
S'60'
p2105
sg21
g1856
sg23
S'../views/GTiff/clim.he6050.bio03.tif'
p2106
sg25
S'climate'
p2107
sg27
S'clim.he6050.bio03'
p2108
sg29
S'Isothermality (BIO2/BIO7) (* 100) HE RCP60 2050'
p2109
sg31
g32
sg33
g34
sg35
S'clim.he6050.bio03.tif'
p2110
sg37
S'clim'
p2111
sg39
g40
sg41
I4326
sg42
S'2050'
p2112
ssS'bio02'
p2113
(dp2114
g8
S'2015-03-19 10:08:15'
p2115
sg10
S'yes'
p2116
sg12
S'he6050.bio02'
p2117
sg14
I243
sg15
S'bio02'
p2118
sg17
S'Mean Diurnal Range (Mean of monthly (max temp - min temp))'
p2119
sg19
S'60'
p2120
sg21
S'he6050'
p2121
sg23
S'../views/GTiff/clim.he6050.bio02.tif'
p2122
sg25
S'climate'
p2123
sg27
S'clim.he6050.bio02'
p2124
sg29
S'Mean Diurnal Range (Mean of monthly (max temp - min temp)) HE RCP60 2050'
p2125
sg31
g32
sg33
g34
sg35
S'clim.he6050.bio02.tif'
p2126
sg37
S'clim'
p2127
sg39
g40
sg41
I4326
sg42
S'2050'
p2128
ssS'bio09'
p2129
(dp2130
g8
S'2015-03-19 10:08:15'
p2131
sg10
S'yes'
p2132
sg12
S'he6050.bio09'
p2133
sg14
I244
sg15
S'bio09'
p2134
sg17
S'Mean Temperature of Driest Quarter'
p2135
sg19
S'60'
p2136
sg21
S'he6050'
p2137
sg23
S'../views/GTiff/clim.he6050.bio09.tif'
p2138
sg25
S'climate'
p2139
sg27
S'clim.he6050.bio09'
p2140
sg29
S'Mean Temperature of Driest Quarter HE RCP60 2050'
p2141
sg31
g32
sg33
g34
sg35
S'clim.he6050.bio09.tif'
p2142
sg37
S'clim'
p2143
sg39
g40
sg41
I4326
sg42
S'2050'
p2144
ssS'bio08'
p2145
(dp2146
g8
S'2015-03-19 10:08:15'
p2147
sg10
S'no'
p2148
sg12
S'he6050.bio08'
p2149
sg14
I64
sg15
S'bio08'
p2150
sg17
S'Mean Temperature of Wettest Quarter'
p2151
sg19
S'60'
p2152
sg21
S'he6050'
p2153
sg23
S'../views/GTiff/clim.he6050.bio08.tif'
p2154
sg25
S'climate'
p2155
sg27
S'clim.he6050.bio08'
p2156
sg29
S'Mean Temperature of Wettest Quarter HE RCP60 2050'
p2157
sg31
g32
sg33
g34
sg35
S'clim.he6050.bio08.tif'
p2158
sg37
S'clim'
p2159
sg39
g40
sg41
I4326
sg42
S'2050'
p2160
sssS'gs4570'
p2161
(dp2162
S'bio07'
p2163
(dp2164
g8
S'2015-03-19 10:08:15'
p2165
sg10
S'no'
p2166
sg12
S'gs4570.bio07'
p2167
sg14
I67
sg15
S'bio07'
p2168
sg17
S'Temperature Annual Range (BIO5-BIO6)'
p2169
sg19
S'45'
p2170
sg21
S'gs4570'
p2171
sg23
S'../views/GTiff/clim.gs4570.bio07.tif'
p2172
sg25
S'climate'
p2173
sg27
S'clim.gs4570.bio07'
p2174
sg29
S'Temperature Annual Range (BIO5-BIO6) GS RCP45 2070'
p2175
sg31
g32
sg33
g34
sg35
S'clim.gs4570.bio07.tif'
p2176
sg37
S'clim'
p2177
sg39
g40
sg41
I4326
sg42
S'2070'
p2178
ssS'bio04'
p2179
(dp2180
g8
S'2015-03-19 10:08:15'
p2181
sg10
S'yes'
p2182
sg12
S'gs4570.bio04'
p2183
sg14
I291
sg15
S'bio04'
p2184
sg17
S'Temperature Seasonality (standard deviation *100)'
p2185
sg19
S'45'
p2186
sg21
S'gs4570'
p2187
sg23
S'../views/GTiff/clim.gs4570.bio04.tif'
p2188
sg25
S'climate'
p2189
sg27
S'clim.gs4570.bio04'
p2190
sg29
S'Temperature Seasonality (standard deviation *100) GS RCP45 2070'
p2191
sg31
g32
sg33
g34
sg35
S'clim.gs4570.bio04.tif'
p2192
sg37
S'clim'
p2193
sg39
g40
sg41
I4326
sg42
S'2070'
p2194
ssS'bio16'
p2195
(dp2196
g8
S'2015-03-19 10:08:15'
p2197
sg10
S'yes'
p2198
sg12
S'gs4570.bio16'
p2199
sg14
I294
sg15
S'bio16'
p2200
sg17
S'Precipitation of Wettest Quarter'
p2201
sg19
S'45'
p2202
sg21
S'gs4570'
p2203
sg23
S'../views/GTiff/clim.gs4570.bio16.tif'
p2204
sg25
S'climate'
p2205
sg27
S'clim.gs4570.bio16'
p2206
sg29
S'Precipitation of Wettest Quarter GS RCP45 2070'
p2207
sg31
g32
sg33
g34
sg35
S'clim.gs4570.bio16.tif'
p2208
sg37
S'clim'
p2209
sg39
g40
sg41
I4326
sg42
S'2070'
p2210
ssS'bio06'
p2211
(dp2212
g8
S'2015-03-19 10:08:15'
p2213
sg10
S'yes'
p2214
sg12
S'gs4570.bio06'
p2215
sg14
I272
sg15
S'bio06'
p2216
sg17
S'Min Temperature of Coldest Month'
p2217
sg19
S'45'
p2218
sg21
S'gs4570'
p2219
sg23
S'../views/GTiff/clim.gs4570.bio06.tif'
p2220
sg25
S'climate'
p2221
sg27
S'clim.gs4570.bio06'
p2222
sg29
S'Min Temperature of Coldest Month GS RCP45 2070'
p2223
sg31
g32
sg33
g34
sg35
S'clim.gs4570.bio06.tif'
p2224
sg37
S'clim'
p2225
sg39
g40
sg41
I4326
sg42
S'2070'
p2226
ssS'bio12'
p2227
(dp2228
g8
S'2015-03-19 10:08:15'
p2229
sg10
S'no'
p2230
sg12
S'gs4570.bio12'
p2231
sg14
I230
sg15
S'bio12'
p2232
sg17
S'Annual Precipitation'
p2233
sg19
S'45'
p2234
sg21
S'gs4570'
p2235
sg23
S'../views/GTiff/clim.gs4570.bio12.tif'
p2236
sg25
S'climate'
p2237
sg27
S'clim.gs4570.bio12'
p2238
sg29
S'Annual Precipitation GS RCP45 2070'
p2239
sg31
g32
sg33
g34
sg35
S'clim.gs4570.bio12.tif'
p2240
sg37
S'clim'
p2241
sg39
g40
sg41
I4326
sg42
S'2070'
p2242
ssS'bio14'
p2243
(dp2244
g8
S'2015-03-19 10:08:15'
p2245
sg10
S'yes'
p2246
sg12
S'gs4570.bio14'
p2247
sg14
I342
sg15
S'bio14'
p2248
sg17
S'Precipitation of Driest Month'
p2249
sg19
S'45'
p2250
sg21
S'gs4570'
p2251
sg23
S'../views/GTiff/clim.gs4570.bio14.tif'
p2252
sg25
S'climate'
p2253
sg27
S'clim.gs4570.bio14'
p2254
sg29
S'Precipitation of Driest Month GS RCP45 2070'
p2255
sg31
g32
sg33
g34
sg35
S'clim.gs4570.bio14.tif'
p2256
sg37
S'clim'
p2257
sg39
g40
sg41
I4326
sg42
S'2070'
p2258
ssS'bio10'
p2259
(dp2260
g8
S'2015-03-19 10:08:15'
p2261
sg10
S'yes'
p2262
sg12
S'gs4570.bio10'
p2263
sg14
I63
sg15
S'bio10'
p2264
sg17
S'Mean Temperature of Warmest Quarter'
p2265
sg19
S'45'
p2266
sg21
S'gs4570'
p2267
sg23
S'../views/GTiff/clim.gs4570.bio10.tif'
p2268
sg25
S'climate'
p2269
sg27
S'clim.gs4570.bio10'
p2270
sg29
S'Mean Temperature of Warmest Quarter GS RCP45 2070'
p2271
sg31
g32
sg33
g34
sg35
S'clim.gs4570.bio10.tif'
p2272
sg37
S'clim'
p2273
sg39
g40
sg41
I4326
sg42
S'2070'
p2274
ssS'bio11'
p2275
(dp2276
g8
S'2015-03-19 10:08:15'
p2277
sg10
S'yes'
p2278
sg12
S'gs4570.bio11'
p2279
sg14
I169
sg15
S'bio11'
p2280
sg17
S'Mean Temperature of Coldest Quarter'
p2281
sg19
S'45'
p2282
sg21
S'gs4570'
p2283
sg23
S'../views/GTiff/clim.gs4570.bio11.tif'
p2284
sg25
S'climate'
p2285
sg27
S'clim.gs4570.bio11'
p2286
sg29
S'Mean Temperature of Coldest Quarter GS RCP45 2070'
p2287
sg31
g32
sg33
g34
sg35
S'clim.gs4570.bio11.tif'
p2288
sg37
S'clim'
p2289
sg39
g40
sg41
I4326
sg42
S'2070'
p2290
ssS'bio05'
p2291
(dp2292
g8
S'2015-03-19 10:08:15'
p2293
sg10
S'yes'
p2294
sg12
S'gs4570.bio05'
p2295
sg14
I58
sg15
S'bio05'
p2296
sg17
S'Max Temperature of Warmest Month'
p2297
sg19
S'45'
p2298
sg21
S'gs4570'
p2299
sg23
S'../views/GTiff/clim.gs4570.bio05.tif'
p2300
sg25
S'climate'
p2301
sg27
S'clim.gs4570.bio05'
p2302
sg29
S'Max Temperature of Warmest Month GS RCP45 2070'
p2303
sg31
g32
sg33
g34
sg35
S'clim.gs4570.bio05.tif'
p2304
sg37
S'clim'
p2305
sg39
g40
sg41
I4326
sg42
S'2070'
p2306
ssS'bio13'
p2307
(dp2308
g8
S'2015-03-19 10:08:15'
p2309
sg10
S'yes'
p2310
sg12
S'gs4570.bio13'
p2311
sg14
I149
sg15
S'bio13'
p2312
sg17
S'Precipitation of Wettest Month'
p2313
sg19
S'45'
p2314
sg21
S'gs4570'
p2315
sg23
S'../views/GTiff/clim.gs4570.bio13.tif'
p2316
sg25
S'climate'
p2317
sg27
S'clim.gs4570.bio13'
p2318
sg29
S'Precipitation of Wettest Month GS RCP45 2070'
p2319
sg31
g32
sg33
g34
sg35
S'clim.gs4570.bio13.tif'
p2320
sg37
S'clim'
p2321
sg39
g40
sg41
I4326
sg42
S'2070'
p2322
ssS'bio03'
p2323
(dp2324
g8
S'2015-03-19 10:08:15'
p2325
sg10
S'yes'
p2326
sg12
S'gs4570.bio03'
p2327
sg14
I123
sg15
S'bio03'
p2328
sg17
S'Isothermality (BIO2/BIO7) (* 100)'
p2329
sg19
S'45'
p2330
sg21
S'gs4570'
p2331
sg23
S'../views/GTiff/clim.gs4570.bio03.tif'
p2332
sg25
S'climate'
p2333
sg27
S'clim.gs4570.bio03'
p2334
sg29
S'Isothermality (BIO2/BIO7) (* 100) GS RCP45 2070'
p2335
sg31
g32
sg33
g34
sg35
S'clim.gs4570.bio03.tif'
p2336
sg37
S'clim'
p2337
sg39
g40
sg41
I4326
sg42
S'2070'
p2338
ssS'bio15'
p2339
(dp2340
g8
S'2015-03-19 10:08:15'
p2341
sg10
S'no'
p2342
sg12
S'gs4570.bio15'
p2343
sg14
I72
sg15
S'bio15'
p2344
sg17
S'Precipitation Seasonality (Coefficient of Variation)'
p2345
sg19
S'45'
p2346
sg21
S'gs4570'
p2347
sg23
S'../views/GTiff/clim.gs4570.bio15.tif'
p2348
sg25
S'climate'
p2349
sg27
S'clim.gs4570.bio15'
p2350
sg29
S'Precipitation Seasonality (Coefficient of Variation) GS RCP45 2070'
p2351
sg31
g32
sg33
g34
sg35
S'clim.gs4570.bio15.tif'
p2352
sg37
S'clim'
p2353
sg39
g40
sg41
I4326
sg42
S'2070'
p2354
ssS'bio01'
p2355
(dp2356
g8
S'2015-03-19 10:08:15'
p2357
sg10
S'no'
p2358
sg12
S'gs4570.bio01'
p2359
sg14
I180
sg15
S'bio01'
p2360
sg17
S'Annual Mean Temperature'
p2361
sg19
S'45'
p2362
sg21
S'gs4570'
p2363
sg23
S'../views/GTiff/clim.gs4570.bio01.tif'
p2364
sg25
S'climate'
p2365
sg27
S'clim.gs4570.bio01'
p2366
sg29
S'Annual Mean Temperature GS RCP45 2070'
p2367
sg31
g32
sg33
g34
sg35
S'clim.gs4570.bio01.tif'
p2368
sg37
S'clim'
p2369
sg39
g40
sg41
I4326
sg42
S'2070'
p2370
ssS'bio17'
p2371
(dp2372
g8
S'2015-03-19 10:08:15'
p2373
sg10
S'yes'
p2374
sg12
S'gs4570.bio17'
p2375
sg14
I271
sg15
S'bio17'
p2376
sg17
S'Precipitation of Driest Quarter'
p2377
sg19
S'45'
p2378
sg21
S'gs4570'
p2379
sg23
S'../views/GTiff/clim.gs4570.bio17.tif'
p2380
sg25
S'climate'
p2381
sg27
S'clim.gs4570.bio17'
p2382
sg29
S'Precipitation of Driest Quarter GS RCP45 2070'
p2383
sg31
g32
sg33
g34
sg35
S'clim.gs4570.bio17.tif'
p2384
sg37
S'clim'
p2385
sg39
g40
sg41
I4326
sg42
S'2070'
p2386
ssS'bio18'
p2387
(dp2388
g8
S'2015-03-19 10:08:15'
p2389
sg10
S'no'
p2390
sg12
S'gs4570.bio18'
p2391
sg14
I3
sg15
S'bio18'
p2392
sg17
S'Precipitation of Warmest Quarter'
p2393
sg19
S'45'
p2394
sg21
g2161
sg23
S'../views/GTiff/clim.gs4570.bio18.tif'
p2395
sg25
S'climate'
p2396
sg27
S'clim.gs4570.bio18'
p2397
sg29
S'Precipitation of Warmest Quarter GS RCP45 2070'
p2398
sg31
g32
sg33
g34
sg35
S'clim.gs4570.bio18.tif'
p2399
sg37
S'clim'
p2400
sg39
g40
sg41
I4326
sg42
S'2070'
p2401
ssS'bio19'
p2402
(dp2403
g8
S'2015-03-19 10:08:15'
p2404
sg10
S'yes'
p2405
sg12
S'gs4570.bio19'
p2406
sg14
I317
sg15
S'bio19'
p2407
sg17
S'Precipitation of Coldest Quarter'
p2408
sg19
S'45'
p2409
sg21
S'gs4570'
p2410
sg23
S'../views/GTiff/clim.gs4570.bio19.tif'
p2411
sg25
S'climate'
p2412
sg27
S'clim.gs4570.bio19'
p2413
sg29
S'Precipitation of Coldest Quarter GS RCP45 2070'
p2414
sg31
g32
sg33
g34
sg35
S'clim.gs4570.bio19.tif'
p2415
sg37
S'clim'
p2416
sg39
g40
sg41
I4326
sg42
S'2070'
p2417
ssS'bio02'
p2418
(dp2419
g8
S'2015-03-19 10:08:15'
p2420
sg10
S'yes'
p2421
sg12
S'gs4570.bio02'
p2422
sg14
I231
sg15
S'bio02'
p2423
sg17
S'Mean Diurnal Range (Mean of monthly (max temp - min temp))'
p2424
sg19
S'45'
p2425
sg21
S'gs4570'
p2426
sg23
S'../views/GTiff/clim.gs4570.bio02.tif'
p2427
sg25
S'climate'
p2428
sg27
S'clim.gs4570.bio02'
p2429
sg29
S'Mean Diurnal Range (Mean of monthly (max temp - min temp)) GS RCP45 2070'
p2430
sg31
g32
sg33
g34
sg35
S'clim.gs4570.bio02.tif'
p2431
sg37
S'clim'
p2432
sg39
g40
sg41
I4326
sg42
S'2070'
p2433
ssS'bio09'
p2434
(dp2435
g8
S'2015-03-19 10:08:15'
p2436
sg10
S'yes'
p2437
sg12
S'gs4570.bio09'
p2438
sg14
I20
sg15
S'bio09'
p2439
sg17
S'Mean Temperature of Driest Quarter'
p2440
sg19
S'45'
p2441
sg21
S'gs4570'
p2442
sg23
S'../views/GTiff/clim.gs4570.bio09.tif'
p2443
sg25
S'climate'
p2444
sg27
S'clim.gs4570.bio09'
p2445
sg29
S'Mean Temperature of Driest Quarter GS RCP45 2070'
p2446
sg31
g32
sg33
g34
sg35
S'clim.gs4570.bio09.tif'
p2447
sg37
S'clim'
p2448
sg39
g40
sg41
I4326
sg42
S'2070'
p2449
ssS'bio08'
p2450
(dp2451
g8
S'2015-03-19 10:08:15'
p2452
sg10
S'no'
p2453
sg12
S'gs4570.bio08'
p2454
sg14
I43
sg15
S'bio08'
p2455
sg17
S'Mean Temperature of Wettest Quarter'
p2456
sg19
S'45'
p2457
sg21
S'gs4570'
p2458
sg23
S'../views/GTiff/clim.gs4570.bio08.tif'
p2459
sg25
S'climate'
p2460
sg27
S'clim.gs4570.bio08'
p2461
sg29
S'Mean Temperature of Wettest Quarter GS RCP45 2070'
p2462
sg31
g32
sg33
g34
sg35
S'clim.gs4570.bio08.tif'
p2463
sg37
S'clim'
p2464
sg39
g40
sg41
I4326
sg42
S'2070'
p2465
sssS'ac4570'
p2466
(dp2467
S'bio07'
p2468
(dp2469
g8
S'2015-03-19 10:08:15'
p2470
sg10
S'no'
p2471
sg12
S'ac4570.bio07'
p2472
sg14
I185
sg15
S'bio07'
p2473
sg17
S'Temperature Annual Range (BIO5-BIO6)'
p2474
sg19
S'45'
p2475
sg21
S'ac4570'
p2476
sg23
S'../views/GTiff/clim.ac4570.bio07.tif'
p2477
sg25
S'climate'
p2478
sg27
S'clim.ac4570.bio07'
p2479
sg29
S'Temperature Annual Range (BIO5-BIO6) AC RCP45 2070'
p2480
sg31
g32
sg33
g34
sg35
S'clim.ac4570.bio07.tif'
p2481
sg37
S'clim'
p2482
sg39
g40
sg41
I4326
sg42
S'2070'
p2483
ssS'bio16'
p2484
(dp2485
g8
S'2015-03-19 10:08:15'
p2486
sg10
S'yes'
p2487
sg12
S'ac4570.bio16'
p2488
sg14
I69
sg15
S'bio16'
p2489
sg17
S'Precipitation of Wettest Quarter'
p2490
sg19
S'45'
p2491
sg21
S'ac4570'
p2492
sg23
S'../views/GTiff/clim.ac4570.bio16.tif'
p2493
sg25
S'climate'
p2494
sg27
S'clim.ac4570.bio16'
p2495
sg29
S'Precipitation of Wettest Quarter AC RCP45 2070'
p2496
sg31
g32
sg33
g34
sg35
S'clim.ac4570.bio16.tif'
p2497
sg37
S'clim'
p2498
sg39
g40
sg41
I4326
sg42
S'2070'
p2499
ssS'bio11'
p2500
(dp2501
g8
S'2015-03-19 10:08:15'
p2502
sg10
S'yes'
p2503
sg12
S'ac4570.bio11'
p2504
sg14
I247
sg15
S'bio11'
p2505
sg17
S'Mean Temperature of Coldest Quarter'
p2506
sg19
S'45'
p2507
sg21
S'ac4570'
p2508
sg23
S'../views/GTiff/clim.ac4570.bio11.tif'
p2509
sg25
S'climate'
p2510
sg27
S'clim.ac4570.bio11'
p2511
sg29
S'Mean Temperature of Coldest Quarter AC RCP45 2070'
p2512
sg31
g32
sg33
g34
sg35
S'clim.ac4570.bio11.tif'
p2513
sg37
S'clim'
p2514
sg39
g40
sg41
I4326
sg42
S'2070'
p2515
ssS'bio17'
p2516
(dp2517
g8
S'2015-03-19 10:08:15'
p2518
sg10
S'yes'
p2519
sg12
S'ac4570.bio17'
p2520
sg14
I213
sg15
S'bio17'
p2521
sg17
S'Precipitation of Driest Quarter'
p2522
sg19
S'45'
p2523
sg21
S'ac4570'
p2524
sg23
S'../views/GTiff/clim.ac4570.bio17.tif'
p2525
sg25
S'climate'
p2526
sg27
S'clim.ac4570.bio17'
p2527
sg29
S'Precipitation of Driest Quarter AC RCP45 2070'
p2528
sg31
g32
sg33
g34
sg35
S'clim.ac4570.bio17.tif'
p2529
sg37
S'clim'
p2530
sg39
g40
sg41
I4326
sg42
S'2070'
p2531
ssS'bio15'
p2532
(dp2533
g8
S'2015-03-19 10:08:15'
p2534
sg10
S'no'
p2535
sg12
S'ac4570.bio15'
p2536
sg14
I240
sg15
S'bio15'
p2537
sg17
S'Precipitation Seasonality (Coefficient of Variation)'
p2538
sg19
S'45'
p2539
sg21
S'ac4570'
p2540
sg23
S'../views/GTiff/clim.ac4570.bio15.tif'
p2541
sg25
S'climate'
p2542
sg27
S'clim.ac4570.bio15'
p2543
sg29
S'Precipitation Seasonality (Coefficient of Variation) AC RCP45 2070'
p2544
sg31
g32
sg33
g34
sg35
S'clim.ac4570.bio15.tif'
p2545
sg37
S'clim'
p2546
sg39
g40
sg41
I4326
sg42
S'2070'
p2547
ssS'bio05'
p2548
(dp2549
g8
S'2015-03-19 10:08:15'
p2550
sg10
S'yes'
p2551
sg12
S'ac4570.bio05'
p2552
sg14
I221
sg15
S'bio05'
p2553
sg17
S'Max Temperature of Warmest Month'
p2554
sg19
S'45'
p2555
sg21
S'ac4570'
p2556
sg23
S'../views/GTiff/clim.ac4570.bio05.tif'
p2557
sg25
S'climate'
p2558
sg27
S'clim.ac4570.bio05'
p2559
sg29
S'Max Temperature of Warmest Month AC RCP45 2070'
p2560
sg31
g32
sg33
g34
sg35
S'clim.ac4570.bio05.tif'
p2561
sg37
S'clim'
p2562
sg39
g40
sg41
I4326
sg42
S'2070'
p2563
ssS'bio10'
p2564
(dp2565
g8
S'2015-03-19 10:08:15'
p2566
sg10
S'yes'
p2567
sg12
S'ac4570.bio10'
p2568
sg14
I102
sg15
S'bio10'
p2569
sg17
S'Mean Temperature of Warmest Quarter'
p2570
sg19
S'45'
p2571
sg21
S'ac4570'
p2572
sg23
S'../views/GTiff/clim.ac4570.bio10.tif'
p2573
sg25
S'climate'
p2574
sg27
S'clim.ac4570.bio10'
p2575
sg29
S'Mean Temperature of Warmest Quarter AC RCP45 2070'
p2576
sg31
g32
sg33
g34
sg35
S'clim.ac4570.bio10.tif'
p2577
sg37
S'clim'
p2578
sg39
g40
sg41
I4326
sg42
S'2070'
p2579
ssS'bio06'
p2580
(dp2581
g8
S'2015-03-19 10:08:15'
p2582
sg10
S'yes'
p2583
sg12
S'ac4570.bio06'
p2584
sg14
I31
sg15
S'bio06'
p2585
sg17
S'Min Temperature of Coldest Month'
p2586
sg19
S'45'
p2587
sg21
S'ac4570'
p2588
sg23
S'../views/GTiff/clim.ac4570.bio06.tif'
p2589
sg25
S'climate'
p2590
sg27
S'clim.ac4570.bio06'
p2591
sg29
S'Min Temperature of Coldest Month AC RCP45 2070'
p2592
sg31
g32
sg33
g34
sg35
S'clim.ac4570.bio06.tif'
p2593
sg37
S'clim'
p2594
sg39
g40
sg41
I4326
sg42
S'2070'
p2595
ssS'bio12'
p2596
(dp2597
g8
S'2015-03-19 10:08:15'
p2598
sg10
S'no'
p2599
sg12
S'ac4570.bio12'
p2600
sg14
I136
sg15
S'bio12'
p2601
sg17
S'Annual Precipitation'
p2602
sg19
S'45'
p2603
sg21
S'ac4570'
p2604
sg23
S'../views/GTiff/clim.ac4570.bio12.tif'
p2605
sg25
S'climate'
p2606
sg27
S'clim.ac4570.bio12'
p2607
sg29
S'Annual Precipitation AC RCP45 2070'
p2608
sg31
g32
sg33
g34
sg35
S'clim.ac4570.bio12.tif'
p2609
sg37
S'clim'
p2610
sg39
g40
sg41
I4326
sg42
S'2070'
p2611
ssS'bio13'
p2612
(dp2613
g8
S'2015-03-19 10:08:15'
p2614
sg10
S'yes'
p2615
sg12
S'ac4570.bio13'
p2616
sg14
I181
sg15
S'bio13'
p2617
sg17
S'Precipitation of Wettest Month'
p2618
sg19
S'45'
p2619
sg21
S'ac4570'
p2620
sg23
S'../views/GTiff/clim.ac4570.bio13.tif'
p2621
sg25
S'climate'
p2622
sg27
S'clim.ac4570.bio13'
p2623
sg29
S'Precipitation of Wettest Month AC RCP45 2070'
p2624
sg31
g32
sg33
g34
sg35
S'clim.ac4570.bio13.tif'
p2625
sg37
S'clim'
p2626
sg39
g40
sg41
I4326
sg42
S'2070'
p2627
ssS'bio03'
p2628
(dp2629
g8
S'2015-03-19 10:08:15'
p2630
sg10
S'yes'
p2631
sg12
S'ac4570.bio03'
p2632
sg14
I124
sg15
S'bio03'
p2633
sg17
S'Isothermality (BIO2/BIO7) (* 100)'
p2634
sg19
S'45'
p2635
sg21
S'ac4570'
p2636
sg23
S'../views/GTiff/clim.ac4570.bio03.tif'
p2637
sg25
S'climate'
p2638
sg27
S'clim.ac4570.bio03'
p2639
sg29
S'Isothermality (BIO2/BIO7) (* 100) AC RCP45 2070'
p2640
sg31
g32
sg33
g34
sg35
S'clim.ac4570.bio03.tif'
p2641
sg37
S'clim'
p2642
sg39
g40
sg41
I4326
sg42
S'2070'
p2643
ssS'bio02'
p2644
(dp2645
g8
S'2015-03-19 10:08:15'
p2646
sg10
S'yes'
p2647
sg12
S'ac4570.bio02'
p2648
sg14
I237
sg15
S'bio02'
p2649
sg17
S'Mean Diurnal Range (Mean of monthly (max temp - min temp))'
p2650
sg19
S'45'
p2651
sg21
S'ac4570'
p2652
sg23
S'../views/GTiff/clim.ac4570.bio02.tif'
p2653
sg25
S'climate'
p2654
sg27
S'clim.ac4570.bio02'
p2655
sg29
S'Mean Diurnal Range (Mean of monthly (max temp - min temp)) AC RCP45 2070'
p2656
sg31
g32
sg33
g34
sg35
S'clim.ac4570.bio02.tif'
p2657
sg37
S'clim'
p2658
sg39
g40
sg41
I4326
sg42
S'2070'
p2659
ssS'bio01'
p2660
(dp2661
g8
S'2015-03-19 10:08:15'
p2662
sg10
S'no'
p2663
sg12
S'ac4570.bio01'
p2664
sg14
I79
sg15
S'bio01'
p2665
sg17
S'Annual Mean Temperature'
p2666
sg19
S'45'
p2667
sg21
S'ac4570'
p2668
sg23
S'../views/GTiff/clim.ac4570.bio01.tif'
p2669
sg25
S'climate'
p2670
sg27
S'clim.ac4570.bio01'
p2671
sg29
S'Annual Mean Temperature AC RCP45 2070'
p2672
sg31
g32
sg33
g34
sg35
S'clim.ac4570.bio01.tif'
p2673
sg37
S'clim'
p2674
sg39
g40
sg41
I4326
sg42
S'2070'
p2675
ssS'bio19'
p2676
(dp2677
g8
S'2015-03-19 10:08:15'
p2678
sg10
S'yes'
p2679
sg12
S'ac4570.bio19'
p2680
sg14
I211
sg15
S'bio19'
p2681
sg17
S'Precipitation of Coldest Quarter'
p2682
sg19
S'45'
p2683
sg21
S'ac4570'
p2684
sg23
S'../views/GTiff/clim.ac4570.bio19.tif'
p2685
sg25
S'climate'
p2686
sg27
S'clim.ac4570.bio19'
p2687
sg29
S'Precipitation of Coldest Quarter AC RCP45 2070'
p2688
sg31
g32
sg33
g34
sg35
S'clim.ac4570.bio19.tif'
p2689
sg37
S'clim'
p2690
sg39
g40
sg41
I4326
sg42
S'2070'
p2691
ssS'bio18'
p2692
(dp2693
g8
S'2015-03-19 10:08:15'
p2694
sg10
S'no'
p2695
sg12
S'ac4570.bio18'
p2696
sg14
I93
sg15
S'bio18'
p2697
sg17
S'Precipitation of Warmest Quarter'
p2698
sg19
S'45'
p2699
sg21
S'ac4570'
p2700
sg23
S'../views/GTiff/clim.ac4570.bio18.tif'
p2701
sg25
S'climate'
p2702
sg27
S'clim.ac4570.bio18'
p2703
sg29
S'Precipitation of Warmest Quarter AC RCP45 2070'
p2704
sg31
g32
sg33
g34
sg35
S'clim.ac4570.bio18.tif'
p2705
sg37
S'clim'
p2706
sg39
g40
sg41
I4326
sg42
S'2070'
p2707
ssS'bio14'
p2708
(dp2709
g8
S'2015-03-19 10:08:15'
p2710
sg10
S'yes'
p2711
sg12
S'ac4570.bio14'
p2712
sg14
I137
sg15
S'bio14'
p2713
sg17
S'Precipitation of Driest Month'
p2714
sg19
S'45'
p2715
sg21
S'ac4570'
p2716
sg23
S'../views/GTiff/clim.ac4570.bio14.tif'
p2717
sg25
S'climate'
p2718
sg27
S'clim.ac4570.bio14'
p2719
sg29
S'Precipitation of Driest Month AC RCP45 2070'
p2720
sg31
g32
sg33
g34
sg35
S'clim.ac4570.bio14.tif'
p2721
sg37
S'clim'
p2722
sg39
g40
sg41
I4326
sg42
S'2070'
p2723
ssS'bio04'
p2724
(dp2725
g8
S'2015-03-19 10:08:15'
p2726
sg10
S'yes'
p2727
sg12
S'ac4570.bio04'
p2728
sg14
I327
sg15
S'bio04'
p2729
sg17
S'Temperature Seasonality (standard deviation *100)'
p2730
sg19
S'45'
p2731
sg21
S'ac4570'
p2732
sg23
S'../views/GTiff/clim.ac4570.bio04.tif'
p2733
sg25
S'climate'
p2734
sg27
S'clim.ac4570.bio04'
p2735
sg29
S'Temperature Seasonality (standard deviation *100) AC RCP45 2070'
p2736
sg31
g32
sg33
g34
sg35
S'clim.ac4570.bio04.tif'
p2737
sg37
S'clim'
p2738
sg39
g40
sg41
I4326
sg42
S'2070'
p2739
ssS'bio09'
p2740
(dp2741
g8
S'2015-03-19 10:08:15'
p2742
sg10
S'yes'
p2743
sg12
S'ac4570.bio09'
p2744
sg14
I23
sg15
S'bio09'
p2745
sg17
S'Mean Temperature of Driest Quarter'
p2746
sg19
S'45'
p2747
sg21
g2466
sg23
S'../views/GTiff/clim.ac4570.bio09.tif'
p2748
sg25
S'climate'
p2749
sg27
S'clim.ac4570.bio09'
p2750
sg29
S'Mean Temperature of Driest Quarter AC RCP45 2070'
p2751
sg31
g32
sg33
g34
sg35
S'clim.ac4570.bio09.tif'
p2752
sg37
S'clim'
p2753
sg39
g40
sg41
I4326
sg42
S'2070'
p2754
ssS'bio08'
p2755
(dp2756
g8
S'2015-03-19 10:08:15'
p2757
sg10
S'no'
p2758
sg12
S'ac4570.bio08'
p2759
sg14
I201
sg15
S'bio08'
p2760
sg17
S'Mean Temperature of Wettest Quarter'
p2761
sg19
S'45'
p2762
sg21
S'ac4570'
p2763
sg23
S'../views/GTiff/clim.ac4570.bio08.tif'
p2764
sg25
S'climate'
p2765
sg27
S'clim.ac4570.bio08'
p2766
sg29
S'Mean Temperature of Wettest Quarter AC RCP45 2070'
p2767
sg31
g32
sg33
g34
sg35
S'clim.ac4570.bio08.tif'
p2768
sg37
S'clim'
p2769
sg39
g40
sg41
I4326
sg42
S'2070'
p2770
sssS'gd4570'
p2771
(dp2772
S'bio07'
p2773
(dp2774
g8
S'2015-03-19 10:08:15'
p2775
sg10
S'no'
p2776
sg12
S'gd4570.bio07'
p2777
sg14
I283
sg15
S'bio07'
p2778
sg17
S'Temperature Annual Range (BIO5-BIO6)'
p2779
sg19
S'45'
p2780
sg21
S'gd4570'
p2781
sg23
S'../views/GTiff/clim.gd4570.bio07.tif'
p2782
sg25
S'climate'
p2783
sg27
S'clim.gd4570.bio07'
p2784
sg29
S'Temperature Annual Range (BIO5-BIO6) GD RCP45 2070'
p2785
sg31
g32
sg33
g34
sg35
S'clim.gd4570.bio07.tif'
p2786
sg37
S'clim'
p2787
sg39
g40
sg41
I4326
sg42
S'2070'
p2788
ssS'bio01'
p2789
(dp2790
g8
S'2015-03-19 10:08:15'
p2791
sg10
S'no'
p2792
sg12
S'gd4570.bio01'
p2793
sg14
I251
sg15
S'bio01'
p2794
sg17
S'Annual Mean Temperature'
p2795
sg19
S'45'
p2796
sg21
S'gd4570'
p2797
sg23
S'../views/GTiff/clim.gd4570.bio01.tif'
p2798
sg25
S'climate'
p2799
sg27
S'clim.gd4570.bio01'
p2800
sg29
S'Annual Mean Temperature GD RCP45 2070'
p2801
sg31
g32
sg33
g34
sg35
S'clim.gd4570.bio01.tif'
p2802
sg37
S'clim'
p2803
sg39
g40
sg41
I4326
sg42
S'2070'
p2804
ssS'bio06'
p2805
(dp2806
g8
S'2015-03-19 10:08:15'
p2807
sg10
S'yes'
p2808
sg12
S'gd4570.bio06'
p2809
sg14
I304
sg15
S'bio06'
p2810
sg17
S'Min Temperature of Coldest Month'
p2811
sg19
S'45'
p2812
sg21
S'gd4570'
p2813
sg23
S'../views/GTiff/clim.gd4570.bio06.tif'
p2814
sg25
S'climate'
p2815
sg27
S'clim.gd4570.bio06'
p2816
sg29
S'Min Temperature of Coldest Month GD RCP45 2070'
p2817
sg31
g32
sg33
g34
sg35
S'clim.gd4570.bio06.tif'
p2818
sg37
S'clim'
p2819
sg39
g40
sg41
I4326
sg42
S'2070'
p2820
ssS'bio12'
p2821
(dp2822
g8
S'2015-03-19 10:08:15'
p2823
sg10
S'no'
p2824
sg12
S'gd4570.bio12'
p2825
sg14
I312
sg15
S'bio12'
p2826
sg17
S'Annual Precipitation'
p2827
sg19
S'45'
p2828
sg21
S'gd4570'
p2829
sg23
S'../views/GTiff/clim.gd4570.bio12.tif'
p2830
sg25
S'climate'
p2831
sg27
S'clim.gd4570.bio12'
p2832
sg29
S'Annual Precipitation GD RCP45 2070'
p2833
sg31
g32
sg33
g34
sg35
S'clim.gd4570.bio12.tif'
p2834
sg37
S'clim'
p2835
sg39
g40
sg41
I4326
sg42
S'2070'
p2836
ssS'bio10'
p2837
(dp2838
g8
S'2015-03-19 10:08:15'
p2839
sg10
S'yes'
p2840
sg12
S'gd4570.bio10'
p2841
sg14
I170
sg15
S'bio10'
p2842
sg17
S'Mean Temperature of Warmest Quarter'
p2843
sg19
S'45'
p2844
sg21
S'gd4570'
p2845
sg23
S'../views/GTiff/clim.gd4570.bio10.tif'
p2846
sg25
S'climate'
p2847
sg27
S'clim.gd4570.bio10'
p2848
sg29
S'Mean Temperature of Warmest Quarter GD RCP45 2070'
p2849
sg31
g32
sg33
g34
sg35
S'clim.gd4570.bio10.tif'
p2850
sg37
S'clim'
p2851
sg39
g40
sg41
I4326
sg42
S'2070'
p2852
ssS'bio11'
p2853
(dp2854
g8
S'2015-03-19 10:08:15'
p2855
sg10
S'yes'
p2856
sg12
S'gd4570.bio11'
p2857
sg14
I21
sg15
S'bio11'
p2858
sg17
S'Mean Temperature of Coldest Quarter'
p2859
sg19
S'45'
p2860
sg21
S'gd4570'
p2861
sg23
S'../views/GTiff/clim.gd4570.bio11.tif'
p2862
sg25
S'climate'
p2863
sg27
S'clim.gd4570.bio11'
p2864
sg29
S'Mean Temperature of Coldest Quarter GD RCP45 2070'
p2865
sg31
g32
sg33
g34
sg35
S'clim.gd4570.bio11.tif'
p2866
sg37
S'clim'
p2867
sg39
g40
sg41
I4326
sg42
S'2070'
p2868
ssS'bio05'
p2869
(dp2870
g8
S'2015-03-19 10:08:15'
p2871
sg10
S'yes'
p2872
sg12
S'gd4570.bio05'
p2873
sg14
I34
sg15
S'bio05'
p2874
sg17
S'Max Temperature of Warmest Month'
p2875
sg19
S'45'
p2876
sg21
S'gd4570'
p2877
sg23
S'../views/GTiff/clim.gd4570.bio05.tif'
p2878
sg25
S'climate'
p2879
sg27
S'clim.gd4570.bio05'
p2880
sg29
S'Max Temperature of Warmest Month GD RCP45 2070'
p2881
sg31
g32
sg33
g34
sg35
S'clim.gd4570.bio05.tif'
p2882
sg37
S'clim'
p2883
sg39
g40
sg41
I4326
sg42
S'2070'
p2884
ssS'bio13'
p2885
(dp2886
g8
S'2015-03-19 10:08:15'
p2887
sg10
S'yes'
p2888
sg12
S'gd4570.bio13'
p2889
sg14
I55
sg15
S'bio13'
p2890
sg17
S'Precipitation of Wettest Month'
p2891
sg19
S'45'
p2892
sg21
S'gd4570'
p2893
sg23
S'../views/GTiff/clim.gd4570.bio13.tif'
p2894
sg25
S'climate'
p2895
sg27
S'clim.gd4570.bio13'
p2896
sg29
S'Precipitation of Wettest Month GD RCP45 2070'
p2897
sg31
g32
sg33
g34
sg35
S'clim.gd4570.bio13.tif'
p2898
sg37
S'clim'
p2899
sg39
g40
sg41
I4326
sg42
S'2070'
p2900
ssS'bio14'
p2901
(dp2902
g8
S'2015-03-19 10:08:15'
p2903
sg10
S'yes'
p2904
sg12
S'gd4570.bio14'
p2905
sg14
I266
sg15
S'bio14'
p2906
sg17
S'Precipitation of Driest Month'
p2907
sg19
S'45'
p2908
sg21
S'gd4570'
p2909
sg23
S'../views/GTiff/clim.gd4570.bio14.tif'
p2910
sg25
S'climate'
p2911
sg27
S'clim.gd4570.bio14'
p2912
sg29
S'Precipitation of Driest Month GD RCP45 2070'
p2913
sg31
g32
sg33
g34
sg35
S'clim.gd4570.bio14.tif'
p2914
sg37
S'clim'
p2915
sg39
g40
sg41
I4326
sg42
S'2070'
p2916
ssS'bio15'
p2917
(dp2918
g8
S'2015-03-19 10:08:15'
p2919
sg10
S'no'
p2920
sg12
S'gd4570.bio15'
p2921
sg14
I147
sg15
S'bio15'
p2922
sg17
S'Precipitation Seasonality (Coefficient of Variation)'
p2923
sg19
S'45'
p2924
sg21
S'gd4570'
p2925
sg23
S'../views/GTiff/clim.gd4570.bio15.tif'
p2926
sg25
S'climate'
p2927
sg27
S'clim.gd4570.bio15'
p2928
sg29
S'Precipitation Seasonality (Coefficient of Variation) GD RCP45 2070'
p2929
sg31
g32
sg33
g34
sg35
S'clim.gd4570.bio15.tif'
p2930
sg37
S'clim'
p2931
sg39
g40
sg41
I4326
sg42
S'2070'
p2932
ssS'bio16'
p2933
(dp2934
g8
S'2015-03-19 10:08:15'
p2935
sg10
S'yes'
p2936
sg12
S'gd4570.bio16'
p2937
sg14
I53
sg15
S'bio16'
p2938
sg17
S'Precipitation of Wettest Quarter'
p2939
sg19
S'45'
p2940
sg21
S'gd4570'
p2941
sg23
S'../views/GTiff/clim.gd4570.bio16.tif'
p2942
sg25
S'climate'
p2943
sg27
S'clim.gd4570.bio16'
p2944
sg29
S'Precipitation of Wettest Quarter GD RCP45 2070'
p2945
sg31
g32
sg33
g34
sg35
S'clim.gd4570.bio16.tif'
p2946
sg37
S'clim'
p2947
sg39
g40
sg41
I4326
sg42
S'2070'
p2948
ssS'bio17'
p2949
(dp2950
g8
S'2015-03-19 10:08:15'
p2951
sg10
S'yes'
p2952
sg12
S'gd4570.bio17'
p2953
sg14
I129
sg15
S'bio17'
p2954
sg17
S'Precipitation of Driest Quarter'
p2955
sg19
S'45'
p2956
sg21
S'gd4570'
p2957
sg23
S'../views/GTiff/clim.gd4570.bio17.tif'
p2958
sg25
S'climate'
p2959
sg27
S'clim.gd4570.bio17'
p2960
sg29
S'Precipitation of Driest Quarter GD RCP45 2070'
p2961
sg31
g32
sg33
g34
sg35
S'clim.gd4570.bio17.tif'
p2962
sg37
S'clim'
p2963
sg39
g40
sg41
I4326
sg42
S'2070'
p2964
ssS'bio18'
p2965
(dp2966
g8
S'2015-03-19 10:08:15'
p2967
sg10
S'no'
p2968
sg12
S'gd4570.bio18'
p2969
sg14
I4
sg15
S'bio18'
p2970
sg17
S'Precipitation of Warmest Quarter'
p2971
sg19
S'45'
p2972
sg21
g2771
sg23
S'../views/GTiff/clim.gd4570.bio18.tif'
p2973
sg25
S'climate'
p2974
sg27
S'clim.gd4570.bio18'
p2975
sg29
S'Precipitation of Warmest Quarter GD RCP45 2070'
p2976
sg31
g32
sg33
g34
sg35
S'clim.gd4570.bio18.tif'
p2977
sg37
S'clim'
p2978
sg39
g40
sg41
I4326
sg42
S'2070'
p2979
ssS'bio19'
p2980
(dp2981
g8
S'2015-03-19 10:08:15'
p2982
sg10
S'yes'
p2983
sg12
S'gd4570.bio19'
p2984
sg14
I6
sg15
S'bio19'
p2985
sg17
S'Precipitation of Coldest Quarter'
p2986
sg19
S'45'
p2987
sg21
S'gd4570'
p2988
sg23
S'../views/GTiff/clim.gd4570.bio19.tif'
p2989
sg25
S'climate'
p2990
sg27
S'clim.gd4570.bio19'
p2991
sg29
S'Precipitation of Coldest Quarter GD RCP45 2070'
p2992
sg31
g32
sg33
g34
sg35
S'clim.gd4570.bio19.tif'
p2993
sg37
S'clim'
p2994
sg39
g40
sg41
I4326
sg42
S'2070'
p2995
ssS'bio04'
p2996
(dp2997
g8
S'2015-03-19 10:08:15'
p2998
sg10
S'yes'
p2999
sg12
S'gd4570.bio04'
p3000
sg14
I245
sg15
S'bio04'
p3001
sg17
S'Temperature Seasonality (standard deviation *100)'
p3002
sg19
S'45'
p3003
sg21
S'gd4570'
p3004
sg23
S'../views/GTiff/clim.gd4570.bio04.tif'
p3005
sg25
S'climate'
p3006
sg27
S'clim.gd4570.bio04'
p3007
sg29
S'Temperature Seasonality (standard deviation *100) GD RCP45 2070'
p3008
sg31
g32
sg33
g34
sg35
S'clim.gd4570.bio04.tif'
p3009
sg37
S'clim'
p3010
sg39
g40
sg41
I4326
sg42
S'2070'
p3011
ssS'bio08'
p3012
(dp3013
g8
S'2015-03-19 10:08:15'
p3014
sg10
S'no'
p3015
sg12
S'gd4570.bio08'
p3016
sg14
I305
sg15
S'bio08'
p3017
sg17
S'Mean Temperature of Wettest Quarter'
p3018
sg19
S'45'
p3019
sg21
S'gd4570'
p3020
sg23
S'../views/GTiff/clim.gd4570.bio08.tif'
p3021
sg25
S'climate'
p3022
sg27
S'clim.gd4570.bio08'
p3023
sg29
S'Mean Temperature of Wettest Quarter GD RCP45 2070'
p3024
sg31
g32
sg33
g34
sg35
S'clim.gd4570.bio08.tif'
p3025
sg37
S'clim'
p3026
sg39
g40
sg41
I4326
sg42
S'2070'
p3027
ssS'bio03'
p3028
(dp3029
g8
S'2015-03-19 10:08:15'
p3030
sg10
S'yes'
p3031
sg12
S'gd4570.bio03'
p3032
sg14
I323
sg15
S'bio03'
p3033
sg17
S'Isothermality (BIO2/BIO7) (* 100)'
p3034
sg19
S'45'
p3035
sg21
S'gd4570'
p3036
sg23
S'../views/GTiff/clim.gd4570.bio03.tif'
p3037
sg25
S'climate'
p3038
sg27
S'clim.gd4570.bio03'
p3039
sg29
S'Isothermality (BIO2/BIO7) (* 100) GD RCP45 2070'
p3040
sg31
g32
sg33
g34
sg35
S'clim.gd4570.bio03.tif'
p3041
sg37
S'clim'
p3042
sg39
g40
sg41
I4326
sg42
S'2070'
p3043
ssS'bio09'
p3044
(dp3045
g8
S'2015-03-19 10:08:15'
p3046
sg10
S'yes'
p3047
sg12
S'gd4570.bio09'
p3048
sg14
I215
sg15
S'bio09'
p3049
sg17
S'Mean Temperature of Driest Quarter'
p3050
sg19
S'45'
p3051
sg21
S'gd4570'
p3052
sg23
S'../views/GTiff/clim.gd4570.bio09.tif'
p3053
sg25
S'climate'
p3054
sg27
S'clim.gd4570.bio09'
p3055
sg29
S'Mean Temperature of Driest Quarter GD RCP45 2070'
p3056
sg31
g32
sg33
g34
sg35
S'clim.gd4570.bio09.tif'
p3057
sg37
S'clim'
p3058
sg39
g40
sg41
I4326
sg42
S'2070'
p3059
ssS'bio02'
p3060
(dp3061
g8
S'2015-03-19 10:08:15'
p3062
sg10
S'yes'
p3063
sg12
S'gd4570.bio02'
p3064
sg14
I160
sg15
S'bio02'
p3065
sg17
S'Mean Diurnal Range (Mean of monthly (max temp - min temp))'
p3066
sg19
S'45'
p3067
sg21
S'gd4570'
p3068
sg23
S'../views/GTiff/clim.gd4570.bio02.tif'
p3069
sg25
S'climate'
p3070
sg27
S'clim.gd4570.bio02'
p3071
sg29
S'Mean Diurnal Range (Mean of monthly (max temp - min temp)) GD RCP45 2070'
p3072
sg31
g32
sg33
g34
sg35
S'clim.gd4570.bio02.tif'
p3073
sg37
S'clim'
p3074
sg39
g40
sg41
I4326
sg42
S'2070'
p3075
sssS'he4550'
p3076
(dp3077
S'bio07'
p3078
(dp3079
g8
S'2015-03-19 10:08:15'
p3080
sg10
S'no'
p3081
sg12
S'he4550.bio07'
p3082
sg14
I96
sg15
S'bio07'
p3083
sg17
S'Temperature Annual Range (BIO5-BIO6)'
p3084
sg19
S'45'
p3085
sg21
S'he4550'
p3086
sg23
S'../views/GTiff/clim.he4550.bio07.tif'
p3087
sg25
S'climate'
p3088
sg27
S'clim.he4550.bio07'
p3089
sg29
S'Temperature Annual Range (BIO5-BIO6) HE RCP45 2050'
p3090
sg31
g32
sg33
g34
sg35
S'clim.he4550.bio07.tif'
p3091
sg37
S'clim'
p3092
sg39
g40
sg41
I4326
sg42
S'2050'
p3093
ssS'bio04'
p3094
(dp3095
g8
S'2015-03-19 10:08:15'
p3096
sg10
S'yes'
p3097
sg12
S'he4550.bio04'
p3098
sg14
I265
sg15
S'bio04'
p3099
sg17
S'Temperature Seasonality (standard deviation *100)'
p3100
sg19
S'45'
p3101
sg21
S'he4550'
p3102
sg23
S'../views/GTiff/clim.he4550.bio04.tif'
p3103
sg25
S'climate'
p3104
sg27
S'clim.he4550.bio04'
p3105
sg29
S'Temperature Seasonality (standard deviation *100) HE RCP45 2050'
p3106
sg31
g32
sg33
g34
sg35
S'clim.he4550.bio04.tif'
p3107
sg37
S'clim'
p3108
sg39
g40
sg41
I4326
sg42
S'2050'
p3109
ssS'bio01'
p3110
(dp3111
g8
S'2015-03-19 10:08:15'
p3112
sg10
S'no'
p3113
sg12
S'he4550.bio01'
p3114
sg14
I333
sg15
S'bio01'
p3115
sg17
S'Annual Mean Temperature'
p3116
sg19
S'45'
p3117
sg21
S'he4550'
p3118
sg23
S'../views/GTiff/clim.he4550.bio01.tif'
p3119
sg25
S'climate'
p3120
sg27
S'clim.he4550.bio01'
p3121
sg29
S'Annual Mean Temperature HE RCP45 2050'
p3122
sg31
g32
sg33
g34
sg35
S'clim.he4550.bio01.tif'
p3123
sg37
S'clim'
p3124
sg39
g40
sg41
I4326
sg42
S'2050'
p3125
ssS'bio06'
p3126
(dp3127
g8
S'2015-03-19 10:08:15'
p3128
sg10
S'yes'
p3129
sg12
S'he4550.bio06'
p3130
sg14
I313
sg15
S'bio06'
p3131
sg17
S'Min Temperature of Coldest Month'
p3132
sg19
S'45'
p3133
sg21
S'he4550'
p3134
sg23
S'../views/GTiff/clim.he4550.bio06.tif'
p3135
sg25
S'climate'
p3136
sg27
S'clim.he4550.bio06'
p3137
sg29
S'Min Temperature of Coldest Month HE RCP45 2050'
p3138
sg31
g32
sg33
g34
sg35
S'clim.he4550.bio06.tif'
p3139
sg37
S'clim'
p3140
sg39
g40
sg41
I4326
sg42
S'2050'
p3141
ssS'bio05'
p3142
(dp3143
g8
S'2015-03-19 10:08:15'
p3144
sg10
S'yes'
p3145
sg12
S'he4550.bio05'
p3146
sg14
I310
sg15
S'bio05'
p3147
sg17
S'Max Temperature of Warmest Month'
p3148
sg19
S'45'
p3149
sg21
S'he4550'
p3150
sg23
S'../views/GTiff/clim.he4550.bio05.tif'
p3151
sg25
S'climate'
p3152
sg27
S'clim.he4550.bio05'
p3153
sg29
S'Max Temperature of Warmest Month HE RCP45 2050'
p3154
sg31
g32
sg33
g34
sg35
S'clim.he4550.bio05.tif'
p3155
sg37
S'clim'
p3156
sg39
g40
sg41
I4326
sg42
S'2050'
p3157
ssS'bio14'
p3158
(dp3159
g8
S'2015-03-19 10:08:15'
p3160
sg10
S'yes'
p3161
sg12
S'he4550.bio14'
p3162
sg14
I284
sg15
S'bio14'
p3163
sg17
S'Precipitation of Driest Month'
p3164
sg19
S'45'
p3165
sg21
S'he4550'
p3166
sg23
S'../views/GTiff/clim.he4550.bio14.tif'
p3167
sg25
S'climate'
p3168
sg27
S'clim.he4550.bio14'
p3169
sg29
S'Precipitation of Driest Month HE RCP45 2050'
p3170
sg31
g32
sg33
g34
sg35
S'clim.he4550.bio14.tif'
p3171
sg37
S'clim'
p3172
sg39
g40
sg41
I4326
sg42
S'2050'
p3173
ssS'bio10'
p3174
(dp3175
g8
S'2015-03-19 10:08:15'
p3176
sg10
S'yes'
p3177
sg12
S'he4550.bio10'
p3178
sg14
I44
sg15
S'bio10'
p3179
sg17
S'Mean Temperature of Warmest Quarter'
p3180
sg19
S'45'
p3181
sg21
S'he4550'
p3182
sg23
S'../views/GTiff/clim.he4550.bio10.tif'
p3183
sg25
S'climate'
p3184
sg27
S'clim.he4550.bio10'
p3185
sg29
S'Mean Temperature of Warmest Quarter HE RCP45 2050'
p3186
sg31
g32
sg33
g34
sg35
S'clim.he4550.bio10.tif'
p3187
sg37
S'clim'
p3188
sg39
g40
sg41
I4326
sg42
S'2050'
p3189
ssS'bio11'
p3190
(dp3191
g8
S'2015-03-19 10:08:15'
p3192
sg10
S'yes'
p3193
sg12
S'he4550.bio11'
p3194
sg14
I77
sg15
S'bio11'
p3195
sg17
S'Mean Temperature of Coldest Quarter'
p3196
sg19
S'45'
p3197
sg21
S'he4550'
p3198
sg23
S'../views/GTiff/clim.he4550.bio11.tif'
p3199
sg25
S'climate'
p3200
sg27
S'clim.he4550.bio11'
p3201
sg29
S'Mean Temperature of Coldest Quarter HE RCP45 2050'
p3202
sg31
g32
sg33
g34
sg35
S'clim.he4550.bio11.tif'
p3203
sg37
S'clim'
p3204
sg39
g40
sg41
I4326
sg42
S'2050'
p3205
ssS'bio12'
p3206
(dp3207
g8
S'2015-03-19 10:08:15'
p3208
sg10
S'no'
p3209
sg12
S'he4550.bio12'
p3210
sg14
I281
sg15
S'bio12'
p3211
sg17
S'Annual Precipitation'
p3212
sg19
S'45'
p3213
sg21
S'he4550'
p3214
sg23
S'../views/GTiff/clim.he4550.bio12.tif'
p3215
sg25
S'climate'
p3216
sg27
S'clim.he4550.bio12'
p3217
sg29
S'Annual Precipitation HE RCP45 2050'
p3218
sg31
g32
sg33
g34
sg35
S'clim.he4550.bio12.tif'
p3219
sg37
S'clim'
p3220
sg39
g40
sg41
I4326
sg42
S'2050'
p3221
ssS'bio13'
p3222
(dp3223
g8
S'2015-03-19 10:08:15'
p3224
sg10
S'yes'
p3225
sg12
S'he4550.bio13'
p3226
sg14
I56
sg15
S'bio13'
p3227
sg17
S'Precipitation of Wettest Month'
p3228
sg19
S'45'
p3229
sg21
S'he4550'
p3230
sg23
S'../views/GTiff/clim.he4550.bio13.tif'
p3231
sg25
S'climate'
p3232
sg27
S'clim.he4550.bio13'
p3233
sg29
S'Precipitation of Wettest Month HE RCP45 2050'
p3234
sg31
g32
sg33
g34
sg35
S'clim.he4550.bio13.tif'
p3235
sg37
S'clim'
p3236
sg39
g40
sg41
I4326
sg42
S'2050'
p3237
ssS'bio03'
p3238
(dp3239
g8
S'2015-03-19 10:08:15'
p3240
sg10
S'yes'
p3241
sg12
S'he4550.bio03'
p3242
sg14
I83
sg15
S'bio03'
p3243
sg17
S'Isothermality (BIO2/BIO7) (* 100)'
p3244
sg19
S'45'
p3245
sg21
S'he4550'
p3246
sg23
S'../views/GTiff/clim.he4550.bio03.tif'
p3247
sg25
S'climate'
p3248
sg27
S'clim.he4550.bio03'
p3249
sg29
S'Isothermality (BIO2/BIO7) (* 100) HE RCP45 2050'
p3250
sg31
g32
sg33
g34
sg35
S'clim.he4550.bio03.tif'
p3251
sg37
S'clim'
p3252
sg39
g40
sg41
I4326
sg42
S'2050'
p3253
ssS'bio15'
p3254
(dp3255
g8
S'2015-03-19 10:08:15'
p3256
sg10
S'no'
p3257
sg12
S'he4550.bio15'
p3258
sg14
I75
sg15
S'bio15'
p3259
sg17
S'Precipitation Seasonality (Coefficient of Variation)'
p3260
sg19
S'45'
p3261
sg21
S'he4550'
p3262
sg23
S'../views/GTiff/clim.he4550.bio15.tif'
p3263
sg25
S'climate'
p3264
sg27
S'clim.he4550.bio15'
p3265
sg29
S'Precipitation Seasonality (Coefficient of Variation) HE RCP45 2050'
p3266
sg31
g32
sg33
g34
sg35
S'clim.he4550.bio15.tif'
p3267
sg37
S'clim'
p3268
sg39
g40
sg41
I4326
sg42
S'2050'
p3269
ssS'bio16'
p3270
(dp3271
g8
S'2015-03-19 10:08:15'
p3272
sg10
S'yes'
p3273
sg12
S'he4550.bio16'
p3274
sg14
I49
sg15
S'bio16'
p3275
sg17
S'Precipitation of Wettest Quarter'
p3276
sg19
S'45'
p3277
sg21
S'he4550'
p3278
sg23
S'../views/GTiff/clim.he4550.bio16.tif'
p3279
sg25
S'climate'
p3280
sg27
S'clim.he4550.bio16'
p3281
sg29
S'Precipitation of Wettest Quarter HE RCP45 2050'
p3282
sg31
g32
sg33
g34
sg35
S'clim.he4550.bio16.tif'
p3283
sg37
S'clim'
p3284
sg39
g40
sg41
I4326
sg42
S'2050'
p3285
ssS'bio17'
p3286
(dp3287
g8
S'2015-03-19 10:08:15'
p3288
sg10
S'yes'
p3289
sg12
S'he4550.bio17'
p3290
sg14
I171
sg15
S'bio17'
p3291
sg17
S'Precipitation of Driest Quarter'
p3292
sg19
S'45'
p3293
sg21
S'he4550'
p3294
sg23
S'../views/GTiff/clim.he4550.bio17.tif'
p3295
sg25
S'climate'
p3296
sg27
S'clim.he4550.bio17'
p3297
sg29
S'Precipitation of Driest Quarter HE RCP45 2050'
p3298
sg31
g32
sg33
g34
sg35
S'clim.he4550.bio17.tif'
p3299
sg37
S'clim'
p3300
sg39
g40
sg41
I4326
sg42
S'2050'
p3301
ssS'bio18'
p3302
(dp3303
g8
S'2015-03-19 10:08:15'
p3304
sg10
S'no'
p3305
sg12
S'he4550.bio18'
p3306
sg14
I1
sg15
S'bio18'
p3307
sg17
S'Precipitation of Warmest Quarter'
p3308
sg19
S'45'
p3309
sg21
g3076
sg23
S'../views/GTiff/clim.he4550.bio18.tif'
p3310
sg25
S'climate'
p3311
sg27
S'clim.he4550.bio18'
p3312
sg29
S'Precipitation of Warmest Quarter HE RCP45 2050'
p3313
sg31
g32
sg33
g34
sg35
S'clim.he4550.bio18.tif'
p3314
sg37
g2
sg39
g40
sg41
I4326
sg42
S'2050'
p3315
ssS'bio19'
p3316
(dp3317
g8
S'2015-03-19 10:08:15'
p3318
sg10
S'yes'
p3319
sg12
S'he4550.bio19'
p3320
sg14
I268
sg15
S'bio19'
p3321
sg17
S'Precipitation of Coldest Quarter'
p3322
sg19
S'45'
p3323
sg21
S'he4550'
p3324
sg23
S'../views/GTiff/clim.he4550.bio19.tif'
p3325
sg25
S'climate'
p3326
sg27
S'clim.he4550.bio19'
p3327
sg29
S'Precipitation of Coldest Quarter HE RCP45 2050'
p3328
sg31
g32
sg33
g34
sg35
S'clim.he4550.bio19.tif'
p3329
sg37
S'clim'
p3330
sg39
g40
sg41
I4326
sg42
S'2050'
p3331
ssS'bio02'
p3332
(dp3333
g8
S'2015-03-19 10:08:15'
p3334
sg10
S'yes'
p3335
sg12
S'he4550.bio02'
p3336
sg14
I88
sg15
S'bio02'
p3337
sg17
S'Mean Diurnal Range (Mean of monthly (max temp - min temp))'
p3338
sg19
S'45'
p3339
sg21
S'he4550'
p3340
sg23
S'../views/GTiff/clim.he4550.bio02.tif'
p3341
sg25
S'climate'
p3342
sg27
S'clim.he4550.bio02'
p3343
sg29
S'Mean Diurnal Range (Mean of monthly (max temp - min temp)) HE RCP45 2050'
p3344
sg31
g32
sg33
g34
sg35
S'clim.he4550.bio02.tif'
p3345
sg37
S'clim'
p3346
sg39
g40
sg41
I4326
sg42
S'2050'
p3347
ssS'bio09'
p3348
(dp3349
g8
S'2015-03-19 10:08:15'
p3350
sg10
S'yes'
p3351
sg12
S'he4550.bio09'
p3352
sg14
I195
sg15
S'bio09'
p3353
sg17
S'Mean Temperature of Driest Quarter'
p3354
sg19
S'45'
p3355
sg21
S'he4550'
p3356
sg23
S'../views/GTiff/clim.he4550.bio09.tif'
p3357
sg25
S'climate'
p3358
sg27
S'clim.he4550.bio09'
p3359
sg29
S'Mean Temperature of Driest Quarter HE RCP45 2050'
p3360
sg31
g32
sg33
g34
sg35
S'clim.he4550.bio09.tif'
p3361
sg37
S'clim'
p3362
sg39
g40
sg41
I4326
sg42
S'2050'
p3363
ssS'bio08'
p3364
(dp3365
g8
S'2015-03-19 10:08:15'
p3366
sg10
S'no'
p3367
sg12
S'he4550.bio08'
p3368
sg14
I37
sg15
S'bio08'
p3369
sg17
S'Mean Temperature of Wettest Quarter'
p3370
sg19
S'45'
p3371
sg21
S'he4550'
p3372
sg23
S'../views/GTiff/clim.he4550.bio08.tif'
p3373
sg25
S'climate'
p3374
sg27
S'clim.he4550.bio08'
p3375
sg29
S'Mean Temperature of Wettest Quarter HE RCP45 2050'
p3376
sg31
g32
sg33
g34
sg35
S'clim.he4550.bio08.tif'
p3377
sg37
S'clim'
p3378
sg39
g40
sg41
I4326
sg42
S'2050'
p3379
sssS'gs4550'
p3380
(dp3381
S'bio07'
p3382
(dp3383
g8
S'2015-03-19 10:08:15'
p3384
sg10
S'no'
p3385
sg12
S'gs4550.bio07'
p3386
sg14
I285
sg15
S'bio07'
p3387
sg17
S'Temperature Annual Range (BIO5-BIO6)'
p3388
sg19
S'45'
p3389
sg21
S'gs4550'
p3390
sg23
S'../views/GTiff/clim.gs4550.bio07.tif'
p3391
sg25
S'climate'
p3392
sg27
S'clim.gs4550.bio07'
p3393
sg29
S'Temperature Annual Range (BIO5-BIO6) GS RCP45 2050'
p3394
sg31
g32
sg33
g34
sg35
S'clim.gs4550.bio07.tif'
p3395
sg37
S'clim'
p3396
sg39
g40
sg41
I4326
sg42
S'2050'
p3397
ssS'bio16'
p3398
(dp3399
g8
S'2015-03-19 10:08:15'
p3400
sg10
S'yes'
p3401
sg12
S'gs4550.bio16'
p3402
sg14
I159
sg15
S'bio16'
p3403
sg17
S'Precipitation of Wettest Quarter'
p3404
sg19
S'45'
p3405
sg21
S'gs4550'
p3406
sg23
S'../views/GTiff/clim.gs4550.bio16.tif'
p3407
sg25
S'climate'
p3408
sg27
S'clim.gs4550.bio16'
p3409
sg29
S'Precipitation of Wettest Quarter GS RCP45 2050'
p3410
sg31
g32
sg33
g34
sg35
S'clim.gs4550.bio16.tif'
p3411
sg37
S'clim'
p3412
sg39
g40
sg41
I4326
sg42
S'2050'
p3413
ssS'bio11'
p3414
(dp3415
g8
S'2015-03-19 10:08:15'
p3416
sg10
S'yes'
p3417
sg12
S'gs4550.bio11'
p3418
sg14
I329
sg15
S'bio11'
p3419
sg17
S'Mean Temperature of Coldest Quarter'
p3420
sg19
S'45'
p3421
sg21
S'gs4550'
p3422
sg23
S'../views/GTiff/clim.gs4550.bio11.tif'
p3423
sg25
S'climate'
p3424
sg27
S'clim.gs4550.bio11'
p3425
sg29
S'Mean Temperature of Coldest Quarter GS RCP45 2050'
p3426
sg31
g32
sg33
g34
sg35
S'clim.gs4550.bio11.tif'
p3427
sg37
S'clim'
p3428
sg39
g40
sg41
I4326
sg42
S'2050'
p3429
ssS'bio09'
p3430
(dp3431
g8
S'2015-03-19 10:08:15'
p3432
sg10
S'yes'
p3433
sg12
S'gs4550.bio09'
p3434
sg14
I209
sg15
S'bio09'
p3435
sg17
S'Mean Temperature of Driest Quarter'
p3436
sg19
S'45'
p3437
sg21
S'gs4550'
p3438
sg23
S'../views/GTiff/clim.gs4550.bio09.tif'
p3439
sg25
S'climate'
p3440
sg27
S'clim.gs4550.bio09'
p3441
sg29
S'Mean Temperature of Driest Quarter GS RCP45 2050'
p3442
sg31
g32
sg33
g34
sg35
S'clim.gs4550.bio09.tif'
p3443
sg37
S'clim'
p3444
sg39
g40
sg41
I4326
sg42
S'2050'
p3445
ssS'bio15'
p3446
(dp3447
g8
S'2015-03-19 10:08:15'
p3448
sg10
S'no'
p3449
sg12
S'gs4550.bio15'
p3450
sg14
I234
sg15
S'bio15'
p3451
sg17
S'Precipitation Seasonality (Coefficient of Variation)'
p3452
sg19
S'45'
p3453
sg21
S'gs4550'
p3454
sg23
S'../views/GTiff/clim.gs4550.bio15.tif'
p3455
sg25
S'climate'
p3456
sg27
S'clim.gs4550.bio15'
p3457
sg29
S'Precipitation Seasonality (Coefficient of Variation) GS RCP45 2050'
p3458
sg31
g32
sg33
g34
sg35
S'clim.gs4550.bio15.tif'
p3459
sg37
S'clim'
p3460
sg39
g40
sg41
I4326
sg42
S'2050'
p3461
ssS'bio12'
p3462
(dp3463
g8
S'2015-03-19 10:08:15'
p3464
sg10
S'no'
p3465
sg12
S'gs4550.bio12'
p3466
sg14
I225
sg15
S'bio12'
p3467
sg17
S'Annual Precipitation'
p3468
sg19
S'45'
p3469
sg21
S'gs4550'
p3470
sg23
S'../views/GTiff/clim.gs4550.bio12.tif'
p3471
sg25
S'climate'
p3472
sg27
S'clim.gs4550.bio12'
p3473
sg29
S'Annual Precipitation GS RCP45 2050'
p3474
sg31
g32
sg33
g34
sg35
S'clim.gs4550.bio12.tif'
p3475
sg37
S'clim'
p3476
sg39
g40
sg41
I4326
sg42
S'2050'
p3477
ssS'bio10'
p3478
(dp3479
g8
S'2015-03-19 10:08:15'
p3480
sg10
S'yes'
p3481
sg12
S'gs4550.bio10'
p3482
sg14
I109
sg15
S'bio10'
p3483
sg17
S'Mean Temperature of Warmest Quarter'
p3484
sg19
S'45'
p3485
sg21
S'gs4550'
p3486
sg23
S'../views/GTiff/clim.gs4550.bio10.tif'
p3487
sg25
S'climate'
p3488
sg27
S'clim.gs4550.bio10'
p3489
sg29
S'Mean Temperature of Warmest Quarter GS RCP45 2050'
p3490
sg31
g32
sg33
g34
sg35
S'clim.gs4550.bio10.tif'
p3491
sg37
S'clim'
p3492
sg39
g40
sg41
I4326
sg42
S'2050'
p3493
ssS'bio06'
p3494
(dp3495
g8
S'2015-03-19 10:08:15'
p3496
sg10
S'yes'
p3497
sg12
S'gs4550.bio06'
p3498
sg14
I144
sg15
S'bio06'
p3499
sg17
S'Min Temperature of Coldest Month'
p3500
sg19
S'45'
p3501
sg21
S'gs4550'
p3502
sg23
S'../views/GTiff/clim.gs4550.bio06.tif'
p3503
sg25
S'climate'
p3504
sg27
S'clim.gs4550.bio06'
p3505
sg29
S'Min Temperature of Coldest Month GS RCP45 2050'
p3506
sg31
g32
sg33
g34
sg35
S'clim.gs4550.bio06.tif'
p3507
sg37
S'clim'
p3508
sg39
g40
sg41
I4326
sg42
S'2050'
p3509
ssS'bio05'
p3510
(dp3511
g8
S'2015-03-19 10:08:15'
p3512
sg10
S'yes'
p3513
sg12
S'gs4550.bio05'
p3514
sg14
I220
sg15
S'bio05'
p3515
sg17
S'Max Temperature of Warmest Month'
p3516
sg19
S'45'
p3517
sg21
S'gs4550'
p3518
sg23
S'../views/GTiff/clim.gs4550.bio05.tif'
p3519
sg25
S'climate'
p3520
sg27
S'clim.gs4550.bio05'
p3521
sg29
S'Max Temperature of Warmest Month GS RCP45 2050'
p3522
sg31
g32
sg33
g34
sg35
S'clim.gs4550.bio05.tif'
p3523
sg37
S'clim'
p3524
sg39
g40
sg41
I4326
sg42
S'2050'
p3525
ssS'bio13'
p3526
(dp3527
g8
S'2015-03-19 10:08:15'
p3528
sg10
S'yes'
p3529
sg12
S'gs4550.bio13'
p3530
sg14
I117
sg15
S'bio13'
p3531
sg17
S'Precipitation of Wettest Month'
p3532
sg19
S'45'
p3533
sg21
S'gs4550'
p3534
sg23
S'../views/GTiff/clim.gs4550.bio13.tif'
p3535
sg25
S'climate'
p3536
sg27
S'clim.gs4550.bio13'
p3537
sg29
S'Precipitation of Wettest Month GS RCP45 2050'
p3538
sg31
g32
sg33
g34
sg35
S'clim.gs4550.bio13.tif'
p3539
sg37
S'clim'
p3540
sg39
g40
sg41
I4326
sg42
S'2050'
p3541
ssS'bio14'
p3542
(dp3543
g8
S'2015-03-19 10:08:15'
p3544
sg10
S'yes'
p3545
sg12
S'gs4550.bio14'
p3546
sg14
I135
sg15
S'bio14'
p3547
sg17
S'Precipitation of Driest Month'
p3548
sg19
S'45'
p3549
sg21
S'gs4550'
p3550
sg23
S'../views/GTiff/clim.gs4550.bio14.tif'
p3551
sg25
S'climate'
p3552
sg27
S'clim.gs4550.bio14'
p3553
sg29
S'Precipitation of Driest Month GS RCP45 2050'
p3554
sg31
g32
sg33
g34
sg35
S'clim.gs4550.bio14.tif'
p3555
sg37
S'clim'
p3556
sg39
g40
sg41
I4326
sg42
S'2050'
p3557
ssS'bio02'
p3558
(dp3559
g8
S'2015-03-19 10:08:15'
p3560
sg10
S'yes'
p3561
sg12
S'gs4550.bio02'
p3562
sg14
I86
sg15
S'bio02'
p3563
sg17
S'Mean Diurnal Range (Mean of monthly (max temp - min temp))'
p3564
sg19
S'45'
p3565
sg21
S'gs4550'
p3566
sg23
S'../views/GTiff/clim.gs4550.bio02.tif'
p3567
sg25
S'climate'
p3568
sg27
S'clim.gs4550.bio02'
p3569
sg29
S'Mean Diurnal Range (Mean of monthly (max temp - min temp)) GS RCP45 2050'
p3570
sg31
g32
sg33
g34
sg35
S'clim.gs4550.bio02.tif'
p3571
sg37
S'clim'
p3572
sg39
g40
sg41
I4326
sg42
S'2050'
p3573
ssS'bio01'
p3574
(dp3575
g8
S'2015-03-19 10:08:15'
p3576
sg10
S'no'
p3577
sg12
S'gs4550.bio01'
p3578
sg14
I97
sg15
S'bio01'
p3579
sg17
S'Annual Mean Temperature'
p3580
sg19
S'45'
p3581
sg21
S'gs4550'
p3582
sg23
S'../views/GTiff/clim.gs4550.bio01.tif'
p3583
sg25
S'climate'
p3584
sg27
S'clim.gs4550.bio01'
p3585
sg29
S'Annual Mean Temperature GS RCP45 2050'
p3586
sg31
g32
sg33
g34
sg35
S'clim.gs4550.bio01.tif'
p3587
sg37
S'clim'
p3588
sg39
g40
sg41
I4326
sg42
S'2050'
p3589
ssS'bio17'
p3590
(dp3591
g8
S'2015-03-19 10:08:15'
p3592
sg10
S'yes'
p3593
sg12
S'gs4550.bio17'
p3594
sg14
I54
sg15
S'bio17'
p3595
sg17
S'Precipitation of Driest Quarter'
p3596
sg19
S'45'
p3597
sg21
S'gs4550'
p3598
sg23
S'../views/GTiff/clim.gs4550.bio17.tif'
p3599
sg25
S'climate'
p3600
sg27
S'clim.gs4550.bio17'
p3601
sg29
S'Precipitation of Driest Quarter GS RCP45 2050'
p3602
sg31
g32
sg33
g34
sg35
S'clim.gs4550.bio17.tif'
p3603
sg37
S'clim'
p3604
sg39
g40
sg41
I4326
sg42
S'2050'
p3605
ssS'bio18'
p3606
(dp3607
g8
S'2015-03-19 10:08:15'
p3608
sg10
S'no'
p3609
sg12
S'gs4550.bio18'
p3610
sg14
I8
sg15
S'bio18'
p3611
sg17
S'Precipitation of Warmest Quarter'
p3612
sg19
S'45'
p3613
sg21
g3380
sg23
S'../views/GTiff/clim.gs4550.bio18.tif'
p3614
sg25
S'climate'
p3615
sg27
S'clim.gs4550.bio18'
p3616
sg29
S'Precipitation of Warmest Quarter GS RCP45 2050'
p3617
sg31
g32
sg33
g34
sg35
S'clim.gs4550.bio18.tif'
p3618
sg37
S'clim'
p3619
sg39
g40
sg41
I4326
sg42
S'2050'
p3620
ssS'bio19'
p3621
(dp3622
g8
S'2015-03-19 10:08:15'
p3623
sg10
S'yes'
p3624
sg12
S'gs4550.bio19'
p3625
sg14
I27
sg15
S'bio19'
p3626
sg17
S'Precipitation of Coldest Quarter'
p3627
sg19
S'45'
p3628
sg21
S'gs4550'
p3629
sg23
S'../views/GTiff/clim.gs4550.bio19.tif'
p3630
sg25
S'climate'
p3631
sg27
S'clim.gs4550.bio19'
p3632
sg29
S'Precipitation of Coldest Quarter GS RCP45 2050'
p3633
sg31
g32
sg33
g34
sg35
S'clim.gs4550.bio19.tif'
p3634
sg37
S'clim'
p3635
sg39
g40
sg41
I4326
sg42
S'2050'
p3636
ssS'bio03'
p3637
(dp3638
g8
S'2015-03-19 10:08:15'
p3639
sg10
S'yes'
p3640
sg12
S'gs4550.bio03'
p3641
sg14
I236
sg15
S'bio03'
p3642
sg17
S'Isothermality (BIO2/BIO7) (* 100)'
p3643
sg19
S'45'
p3644
sg21
S'gs4550'
p3645
sg23
S'../views/GTiff/clim.gs4550.bio03.tif'
p3646
sg25
S'climate'
p3647
sg27
S'clim.gs4550.bio03'
p3648
sg29
S'Isothermality (BIO2/BIO7) (* 100) GS RCP45 2050'
p3649
sg31
g32
sg33
g34
sg35
S'clim.gs4550.bio03.tif'
p3650
sg37
S'clim'
p3651
sg39
g40
sg41
I4326
sg42
S'2050'
p3652
ssS'bio04'
p3653
(dp3654
g8
S'2015-03-19 10:08:15'
p3655
sg10
S'yes'
p3656
sg12
S'gs4550.bio04'
p3657
sg14
I165
sg15
S'bio04'
p3658
sg17
S'Temperature Seasonality (standard deviation *100)'
p3659
sg19
S'45'
p3660
sg21
S'gs4550'
p3661
sg23
S'../views/GTiff/clim.gs4550.bio04.tif'
p3662
sg25
S'climate'
p3663
sg27
S'clim.gs4550.bio04'
p3664
sg29
S'Temperature Seasonality (standard deviation *100) GS RCP45 2050'
p3665
sg31
g32
sg33
g34
sg35
S'clim.gs4550.bio04.tif'
p3666
sg37
S'clim'
p3667
sg39
g40
sg41
I4326
sg42
S'2050'
p3668
ssS'bio08'
p3669
(dp3670
g8
S'2015-03-19 10:08:15'
p3671
sg10
S'no'
p3672
sg12
S'gs4550.bio08'
p3673
sg14
I40
sg15
S'bio08'
p3674
sg17
S'Mean Temperature of Wettest Quarter'
p3675
sg19
S'45'
p3676
sg21
S'gs4550'
p3677
sg23
S'../views/GTiff/clim.gs4550.bio08.tif'
p3678
sg25
S'climate'
p3679
sg27
S'clim.gs4550.bio08'
p3680
sg29
S'Mean Temperature of Wettest Quarter GS RCP45 2050'
p3681
sg31
g32
sg33
g34
sg35
S'clim.gs4550.bio08.tif'
p3682
sg37
S'clim'
p3683
sg39
g40
sg41
I4326
sg42
S'2050'
p3684
sssS'gd4550'
p3685
(dp3686
S'bio10'
p3687
(dp3688
g8
S'2015-03-19 10:08:15'
p3689
sg10
S'yes'
p3690
sg12
S'gd4550.bio10'
p3691
sg14
I274
sg15
S'bio10'
p3692
sg17
S'Mean Temperature of Warmest Quarter'
p3693
sg19
S'45'
p3694
sg21
S'gd4550'
p3695
sg23
S'../views/GTiff/clim.gd4550.bio10.tif'
p3696
sg25
S'climate'
p3697
sg27
S'clim.gd4550.bio10'
p3698
sg29
S'Mean Temperature of Warmest Quarter GD RCP45 2050'
p3699
sg31
g32
sg33
g34
sg35
S'clim.gd4550.bio10.tif'
p3700
sg37
S'clim'
p3701
sg39
g40
sg41
I4326
sg42
S'2050'
p3702
ssS'bio04'
p3703
(dp3704
g8
S'2015-03-19 10:08:15'
p3705
sg10
S'yes'
p3706
sg12
S'gd4550.bio04'
p3707
sg14
I339
sg15
S'bio04'
p3708
sg17
S'Temperature Seasonality (standard deviation *100)'
p3709
sg19
S'45'
p3710
sg21
S'gd4550'
p3711
sg23
S'../views/GTiff/clim.gd4550.bio04.tif'
p3712
sg25
S'climate'
p3713
sg27
S'clim.gd4550.bio04'
p3714
sg29
S'Temperature Seasonality (standard deviation *100) GD RCP45 2050'
p3715
sg31
g32
sg33
g34
sg35
S'clim.gd4550.bio04.tif'
p3716
sg37
S'clim'
p3717
sg39
g40
sg41
I4326
sg42
S'2050'
p3718
ssS'bio01'
p3719
(dp3720
g8
S'2015-03-19 10:08:15'
p3721
sg10
S'no'
p3722
sg12
S'gd4550.bio01'
p3723
sg14
I162
sg15
S'bio01'
p3724
sg17
S'Annual Mean Temperature'
p3725
sg19
S'45'
p3726
sg21
S'gd4550'
p3727
sg23
S'../views/GTiff/clim.gd4550.bio01.tif'
p3728
sg25
S'climate'
p3729
sg27
S'clim.gd4550.bio01'
p3730
sg29
S'Annual Mean Temperature GD RCP45 2050'
p3731
sg31
g32
sg33
g34
sg35
S'clim.gd4550.bio01.tif'
p3732
sg37
S'clim'
p3733
sg39
g40
sg41
I4326
sg42
S'2050'
p3734
ssS'bio11'
p3735
(dp3736
g8
S'2015-03-19 10:08:15'
p3737
sg10
S'yes'
p3738
sg12
S'gd4550.bio11'
p3739
sg14
I145
sg15
S'bio11'
p3740
sg17
S'Mean Temperature of Coldest Quarter'
p3741
sg19
S'45'
p3742
sg21
S'gd4550'
p3743
sg23
S'../views/GTiff/clim.gd4550.bio11.tif'
p3744
sg25
S'climate'
p3745
sg27
S'clim.gd4550.bio11'
p3746
sg29
S'Mean Temperature of Coldest Quarter GD RCP45 2050'
p3747
sg31
g32
sg33
g34
sg35
S'clim.gd4550.bio11.tif'
p3748
sg37
S'clim'
p3749
sg39
g40
sg41
I4326
sg42
S'2050'
p3750
ssS'bio12'
p3751
(dp3752
g8
S'2015-03-19 10:08:15'
p3753
sg10
S'no'
p3754
sg12
S'gd4550.bio12'
p3755
sg14
I269
sg15
S'bio12'
p3756
sg17
S'Annual Precipitation'
p3757
sg19
S'45'
p3758
sg21
S'gd4550'
p3759
sg23
S'../views/GTiff/clim.gd4550.bio12.tif'
p3760
sg25
S'climate'
p3761
sg27
S'clim.gd4550.bio12'
p3762
sg29
S'Annual Precipitation GD RCP45 2050'
p3763
sg31
g32
sg33
g34
sg35
S'clim.gd4550.bio12.tif'
p3764
sg37
S'clim'
p3765
sg39
g40
sg41
I4326
sg42
S'2050'
p3766
ssS'bio14'
p3767
(dp3768
g8
S'2015-03-19 10:08:15'
p3769
sg10
S'yes'
p3770
sg12
S'gd4550.bio14'
p3771
sg14
I297
sg15
S'bio14'
p3772
sg17
S'Precipitation of Driest Month'
p3773
sg19
S'45'
p3774
sg21
S'gd4550'
p3775
sg23
S'../views/GTiff/clim.gd4550.bio14.tif'
p3776
sg25
S'climate'
p3777
sg27
S'clim.gd4550.bio14'
p3778
sg29
S'Precipitation of Driest Month GD RCP45 2050'
p3779
sg31
g32
sg33
g34
sg35
S'clim.gd4550.bio14.tif'
p3780
sg37
S'clim'
p3781
sg39
g40
sg41
I4326
sg42
S'2050'
p3782
ssS'bio07'
p3783
(dp3784
g8
S'2015-03-19 10:08:15'
p3785
sg10
S'no'
p3786
sg12
S'gd4550.bio07'
p3787
sg14
I248
sg15
S'bio07'
p3788
sg17
S'Temperature Annual Range (BIO5-BIO6)'
p3789
sg19
S'45'
p3790
sg21
S'gd4550'
p3791
sg23
S'../views/GTiff/clim.gd4550.bio07.tif'
p3792
sg25
S'climate'
p3793
sg27
S'clim.gd4550.bio07'
p3794
sg29
S'Temperature Annual Range (BIO5-BIO6) GD RCP45 2050'
p3795
sg31
g32
sg33
g34
sg35
S'clim.gd4550.bio07.tif'
p3796
sg37
S'clim'
p3797
sg39
g40
sg41
I4326
sg42
S'2050'
p3798
ssS'bio06'
p3799
(dp3800
g8
S'2015-03-19 10:08:15'
p3801
sg10
S'yes'
p3802
sg12
S'gd4550.bio06'
p3803
sg14
I50
sg15
S'bio06'
p3804
sg17
S'Min Temperature of Coldest Month'
p3805
sg19
S'45'
p3806
sg21
S'gd4550'
p3807
sg23
S'../views/GTiff/clim.gd4550.bio06.tif'
p3808
sg25
S'climate'
p3809
sg27
S'clim.gd4550.bio06'
p3810
sg29
S'Min Temperature of Coldest Month GD RCP45 2050'
p3811
sg31
g32
sg33
g34
sg35
S'clim.gd4550.bio06.tif'
p3812
sg37
S'clim'
p3813
sg39
g40
sg41
I4326
sg42
S'2050'
p3814
ssS'bio05'
p3815
(dp3816
g8
S'2015-03-19 10:08:15'
p3817
sg10
S'yes'
p3818
sg12
S'gd4550.bio05'
p3819
sg14
I121
sg15
S'bio05'
p3820
sg17
S'Max Temperature of Warmest Month'
p3821
sg19
S'45'
p3822
sg21
S'gd4550'
p3823
sg23
S'../views/GTiff/clim.gd4550.bio05.tif'
p3824
sg25
S'climate'
p3825
sg27
S'clim.gd4550.bio05'
p3826
sg29
S'Max Temperature of Warmest Month GD RCP45 2050'
p3827
sg31
g32
sg33
g34
sg35
S'clim.gd4550.bio05.tif'
p3828
sg37
S'clim'
p3829
sg39
g40
sg41
I4326
sg42
S'2050'
p3830
ssS'bio13'
p3831
(dp3832
g8
S'2015-03-19 10:08:15'
p3833
sg10
S'yes'
p3834
sg12
S'gd4550.bio13'
p3835
sg14
I115
sg15
S'bio13'
p3836
sg17
S'Precipitation of Wettest Month'
p3837
sg19
S'45'
p3838
sg21
S'gd4550'
p3839
sg23
S'../views/GTiff/clim.gd4550.bio13.tif'
p3840
sg25
S'climate'
p3841
sg27
S'clim.gd4550.bio13'
p3842
sg29
S'Precipitation of Wettest Month GD RCP45 2050'
p3843
sg31
g32
sg33
g34
sg35
S'clim.gd4550.bio13.tif'
p3844
sg37
S'clim'
p3845
sg39
g40
sg41
I4326
sg42
S'2050'
p3846
ssS'bio03'
p3847
(dp3848
g8
S'2015-03-19 10:08:15'
p3849
sg10
S'yes'
p3850
sg12
S'gd4550.bio03'
p3851
sg14
I112
sg15
S'bio03'
p3852
sg17
S'Isothermality (BIO2/BIO7) (* 100)'
p3853
sg19
S'45'
p3854
sg21
S'gd4550'
p3855
sg23
S'../views/GTiff/clim.gd4550.bio03.tif'
p3856
sg25
S'climate'
p3857
sg27
S'clim.gd4550.bio03'
p3858
sg29
S'Isothermality (BIO2/BIO7) (* 100) GD RCP45 2050'
p3859
sg31
g32
sg33
g34
sg35
S'clim.gd4550.bio03.tif'
p3860
sg37
S'clim'
p3861
sg39
g40
sg41
I4326
sg42
S'2050'
p3862
ssS'bio15'
p3863
(dp3864
g8
S'2015-03-19 10:08:15'
p3865
sg10
S'no'
p3866
sg12
S'gd4550.bio15'
p3867
sg14
I94
sg15
S'bio15'
p3868
sg17
S'Precipitation Seasonality (Coefficient of Variation)'
p3869
sg19
S'45'
p3870
sg21
S'gd4550'
p3871
sg23
S'../views/GTiff/clim.gd4550.bio15.tif'
p3872
sg25
S'climate'
p3873
sg27
S'clim.gd4550.bio15'
p3874
sg29
S'Precipitation Seasonality (Coefficient of Variation) GD RCP45 2050'
p3875
sg31
g32
sg33
g34
sg35
S'clim.gd4550.bio15.tif'
p3876
sg37
S'clim'
p3877
sg39
g40
sg41
I4326
sg42
S'2050'
p3878
ssS'bio16'
p3879
(dp3880
g8
S'2015-03-19 10:08:15'
p3881
sg10
S'yes'
p3882
sg12
S'gd4550.bio16'
p3883
sg14
I36
sg15
S'bio16'
p3884
sg17
S'Precipitation of Wettest Quarter'
p3885
sg19
S'45'
p3886
sg21
g3685
sg23
S'../views/GTiff/clim.gd4550.bio16.tif'
p3887
sg25
S'climate'
p3888
sg27
S'clim.gd4550.bio16'
p3889
sg29
S'Precipitation of Wettest Quarter GD RCP45 2050'
p3890
sg31
g32
sg33
g34
sg35
S'clim.gd4550.bio16.tif'
p3891
sg37
S'clim'
p3892
sg39
g40
sg41
I4326
sg42
S'2050'
p3893
ssS'bio17'
p3894
(dp3895
g8
S'2015-03-19 10:08:15'
p3896
sg10
S'yes'
p3897
sg12
S'gd4550.bio17'
p3898
sg14
I238
sg15
S'bio17'
p3899
sg17
S'Precipitation of Driest Quarter'
p3900
sg19
S'45'
p3901
sg21
S'gd4550'
p3902
sg23
S'../views/GTiff/clim.gd4550.bio17.tif'
p3903
sg25
S'climate'
p3904
sg27
S'clim.gd4550.bio17'
p3905
sg29
S'Precipitation of Driest Quarter GD RCP45 2050'
p3906
sg31
g32
sg33
g34
sg35
S'clim.gd4550.bio17.tif'
p3907
sg37
S'clim'
p3908
sg39
g40
sg41
I4326
sg42
S'2050'
p3909
ssS'bio18'
p3910
(dp3911
g8
S'2015-03-19 10:08:15'
p3912
sg10
S'no'
p3913
sg12
S'gd4550.bio18'
p3914
sg14
I41
sg15
S'bio18'
p3915
sg17
S'Precipitation of Warmest Quarter'
p3916
sg19
S'45'
p3917
sg21
S'gd4550'
p3918
sg23
S'../views/GTiff/clim.gd4550.bio18.tif'
p3919
sg25
S'climate'
p3920
sg27
S'clim.gd4550.bio18'
p3921
sg29
S'Precipitation of Warmest Quarter GD RCP45 2050'
p3922
sg31
g32
sg33
g34
sg35
S'clim.gd4550.bio18.tif'
p3923
sg37
S'clim'
p3924
sg39
g40
sg41
I4326
sg42
S'2050'
p3925
ssS'bio19'
p3926
(dp3927
g8
S'2015-03-19 10:08:15'
p3928
sg10
S'yes'
p3929
sg12
S'gd4550.bio19'
p3930
sg14
I39
sg15
S'bio19'
p3931
sg17
S'Precipitation of Coldest Quarter'
p3932
sg19
S'45'
p3933
sg21
S'gd4550'
p3934
sg23
S'../views/GTiff/clim.gd4550.bio19.tif'
p3935
sg25
S'climate'
p3936
sg27
S'clim.gd4550.bio19'
p3937
sg29
S'Precipitation of Coldest Quarter GD RCP45 2050'
p3938
sg31
g32
sg33
g34
sg35
S'clim.gd4550.bio19.tif'
p3939
sg37
S'clim'
p3940
sg39
g40
sg41
I4326
sg42
S'2050'
p3941
ssS'bio02'
p3942
(dp3943
g8
S'2015-03-19 10:08:15'
p3944
sg10
S'yes'
p3945
sg12
S'gd4550.bio02'
p3946
sg14
I252
sg15
S'bio02'
p3947
sg17
S'Mean Diurnal Range (Mean of monthly (max temp - min temp))'
p3948
sg19
S'45'
p3949
sg21
S'gd4550'
p3950
sg23
S'../views/GTiff/clim.gd4550.bio02.tif'
p3951
sg25
S'climate'
p3952
sg27
S'clim.gd4550.bio02'
p3953
sg29
S'Mean Diurnal Range (Mean of monthly (max temp - min temp)) GD RCP45 2050'
p3954
sg31
g32
sg33
g34
sg35
S'clim.gd4550.bio02.tif'
p3955
sg37
S'clim'
p3956
sg39
g40
sg41
I4326
sg42
S'2050'
p3957
ssS'bio09'
p3958
(dp3959
g8
S'2015-03-19 10:08:15'
p3960
sg10
S'yes'
p3961
sg12
S'gd4550.bio09'
p3962
sg14
I299
sg15
S'bio09'
p3963
sg17
S'Mean Temperature of Driest Quarter'
p3964
sg19
S'45'
p3965
sg21
S'gd4550'
p3966
sg23
S'../views/GTiff/clim.gd4550.bio09.tif'
p3967
sg25
S'climate'
p3968
sg27
S'clim.gd4550.bio09'
p3969
sg29
S'Mean Temperature of Driest Quarter GD RCP45 2050'
p3970
sg31
g32
sg33
g34
sg35
S'clim.gd4550.bio09.tif'
p3971
sg37
S'clim'
p3972
sg39
g40
sg41
I4326
sg42
S'2050'
p3973
ssS'bio08'
p3974
(dp3975
g8
S'2015-03-19 10:08:15'
p3976
sg10
S'no'
p3977
sg12
S'gd4550.bio08'
p3978
sg14
I138
sg15
S'bio08'
p3979
sg17
S'Mean Temperature of Wettest Quarter'
p3980
sg19
S'45'
p3981
sg21
S'gd4550'
p3982
sg23
S'../views/GTiff/clim.gd4550.bio08.tif'
p3983
sg25
S'climate'
p3984
sg27
S'clim.gd4550.bio08'
p3985
sg29
S'Mean Temperature of Wettest Quarter GD RCP45 2050'
p3986
sg31
g32
sg33
g34
sg35
S'clim.gd4550.bio08.tif'
p3987
sg37
S'clim'
p3988
sg39
g40
sg41
I4326
sg42
S'2050'
p3989
sssS'ac4550'
p3990
(dp3991
S'bio07'
p3992
(dp3993
g8
S'2015-03-19 10:08:15'
p3994
sg10
S'no'
p3995
sg12
S'ac4550.bio07'
p3996
sg14
I334
sg15
S'bio07'
p3997
sg17
S'Temperature Annual Range (BIO5-BIO6)'
p3998
sg19
S'45'
p3999
sg21
S'ac4550'
p4000
sg23
S'../views/GTiff/clim.ac4550.bio07.tif'
p4001
sg25
S'climate'
p4002
sg27
S'clim.ac4550.bio07'
p4003
sg29
S'Temperature Annual Range (BIO5-BIO6) AC RCP45 2050'
p4004
sg31
g32
sg33
g34
sg35
S'clim.ac4550.bio07.tif'
p4005
sg37
S'clim'
p4006
sg39
g40
sg41
I4326
sg42
S'2050'
p4007
ssS'bio16'
p4008
(dp4009
g8
S'2015-03-19 10:08:15'
p4010
sg10
S'yes'
p4011
sg12
S'ac4550.bio16'
p4012
sg14
I224
sg15
S'bio16'
p4013
sg17
S'Precipitation of Wettest Quarter'
p4014
sg19
S'45'
p4015
sg21
S'ac4550'
p4016
sg23
S'../views/GTiff/clim.ac4550.bio16.tif'
p4017
sg25
S'climate'
p4018
sg27
S'clim.ac4550.bio16'
p4019
sg29
S'Precipitation of Wettest Quarter AC RCP45 2050'
p4020
sg31
g32
sg33
g34
sg35
S'clim.ac4550.bio16.tif'
p4021
sg37
S'clim'
p4022
sg39
g40
sg41
I4326
sg42
S'2050'
p4023
ssS'bio11'
p4024
(dp4025
g8
S'2015-03-19 10:08:15'
p4026
sg10
S'yes'
p4027
sg12
S'ac4550.bio11'
p4028
sg14
I330
sg15
S'bio11'
p4029
sg17
S'Mean Temperature of Coldest Quarter'
p4030
sg19
S'45'
p4031
sg21
S'ac4550'
p4032
sg23
S'../views/GTiff/clim.ac4550.bio11.tif'
p4033
sg25
S'climate'
p4034
sg27
S'clim.ac4550.bio11'
p4035
sg29
S'Mean Temperature of Coldest Quarter AC RCP45 2050'
p4036
sg31
g32
sg33
g34
sg35
S'clim.ac4550.bio11.tif'
p4037
sg37
S'clim'
p4038
sg39
g40
sg41
I4326
sg42
S'2050'
p4039
ssS'bio17'
p4040
(dp4041
g8
S'2015-03-19 10:08:15'
p4042
sg10
S'yes'
p4043
sg12
S'ac4550.bio17'
p4044
sg14
I337
sg15
S'bio17'
p4045
sg17
S'Precipitation of Driest Quarter'
p4046
sg19
S'45'
p4047
sg21
S'ac4550'
p4048
sg23
S'../views/GTiff/clim.ac4550.bio17.tif'
p4049
sg25
S'climate'
p4050
sg27
S'clim.ac4550.bio17'
p4051
sg29
S'Precipitation of Driest Quarter AC RCP45 2050'
p4052
sg31
g32
sg33
g34
sg35
S'clim.ac4550.bio17.tif'
p4053
sg37
S'clim'
p4054
sg39
g40
sg41
I4326
sg42
S'2050'
p4055
ssS'bio05'
p4056
(dp4057
g8
S'2015-03-19 10:08:15'
p4058
sg10
S'yes'
p4059
sg12
S'ac4550.bio05'
p4060
sg14
I275
sg15
S'bio05'
p4061
sg17
S'Max Temperature of Warmest Month'
p4062
sg19
S'45'
p4063
sg21
S'ac4550'
p4064
sg23
S'../views/GTiff/clim.ac4550.bio05.tif'
p4065
sg25
S'climate'
p4066
sg27
S'clim.ac4550.bio05'
p4067
sg29
S'Max Temperature of Warmest Month AC RCP45 2050'
p4068
sg31
g32
sg33
g34
sg35
S'clim.ac4550.bio05.tif'
p4069
sg37
S'clim'
p4070
sg39
g40
sg41
I4326
sg42
S'2050'
p4071
ssS'bio10'
p4072
(dp4073
g8
S'2015-03-19 10:08:15'
p4074
sg10
S'yes'
p4075
sg12
S'ac4550.bio10'
p4076
sg14
I212
sg15
S'bio10'
p4077
sg17
S'Mean Temperature of Warmest Quarter'
p4078
sg19
S'45'
p4079
sg21
S'ac4550'
p4080
sg23
S'../views/GTiff/clim.ac4550.bio10.tif'
p4081
sg25
S'climate'
p4082
sg27
S'clim.ac4550.bio10'
p4083
sg29
S'Mean Temperature of Warmest Quarter AC RCP45 2050'
p4084
sg31
g32
sg33
g34
sg35
S'clim.ac4550.bio10.tif'
p4085
sg37
S'clim'
p4086
sg39
g40
sg41
I4326
sg42
S'2050'
p4087
ssS'bio06'
p4088
(dp4089
g8
S'2015-03-19 10:08:15'
p4090
sg10
S'yes'
p4091
sg12
S'ac4550.bio06'
p4092
sg14
I246
sg15
S'bio06'
p4093
sg17
S'Min Temperature of Coldest Month'
p4094
sg19
S'45'
p4095
sg21
S'ac4550'
p4096
sg23
S'../views/GTiff/clim.ac4550.bio06.tif'
p4097
sg25
S'climate'
p4098
sg27
S'clim.ac4550.bio06'
p4099
sg29
S'Min Temperature of Coldest Month AC RCP45 2050'
p4100
sg31
g32
sg33
g34
sg35
S'clim.ac4550.bio06.tif'
p4101
sg37
S'clim'
p4102
sg39
g40
sg41
I4326
sg42
S'2050'
p4103
ssS'bio12'
p4104
(dp4105
g8
S'2015-03-19 10:08:15'
p4106
sg10
S'no'
p4107
sg12
S'ac4550.bio12'
p4108
sg14
I105
sg15
S'bio12'
p4109
sg17
S'Annual Precipitation'
p4110
sg19
S'45'
p4111
sg21
S'ac4550'
p4112
sg23
S'../views/GTiff/clim.ac4550.bio12.tif'
p4113
sg25
S'climate'
p4114
sg27
S'clim.ac4550.bio12'
p4115
sg29
S'Annual Precipitation AC RCP45 2050'
p4116
sg31
g32
sg33
g34
sg35
S'clim.ac4550.bio12.tif'
p4117
sg37
S'clim'
p4118
sg39
g40
sg41
I4326
sg42
S'2050'
p4119
ssS'bio13'
p4120
(dp4121
g8
S'2015-03-19 10:08:15'
p4122
sg10
S'yes'
p4123
sg12
S'ac4550.bio13'
p4124
sg14
I151
sg15
S'bio13'
p4125
sg17
S'Precipitation of Wettest Month'
p4126
sg19
S'45'
p4127
sg21
S'ac4550'
p4128
sg23
S'../views/GTiff/clim.ac4550.bio13.tif'
p4129
sg25
S'climate'
p4130
sg27
S'clim.ac4550.bio13'
p4131
sg29
S'Precipitation of Wettest Month AC RCP45 2050'
p4132
sg31
g32
sg33
g34
sg35
S'clim.ac4550.bio13.tif'
p4133
sg37
S'clim'
p4134
sg39
g40
sg41
I4326
sg42
S'2050'
p4135
ssS'bio03'
p4136
(dp4137
g8
S'2015-03-19 10:08:15'
p4138
sg10
S'yes'
p4139
sg12
S'ac4550.bio03'
p4140
sg14
I46
sg15
S'bio03'
p4141
sg17
S'Isothermality (BIO2/BIO7) (* 100)'
p4142
sg19
S'45'
p4143
sg21
S'ac4550'
p4144
sg23
S'../views/GTiff/clim.ac4550.bio03.tif'
p4145
sg25
S'climate'
p4146
sg27
S'clim.ac4550.bio03'
p4147
sg29
S'Isothermality (BIO2/BIO7) (* 100) AC RCP45 2050'
p4148
sg31
g32
sg33
g34
sg35
S'clim.ac4550.bio03.tif'
p4149
sg37
S'clim'
p4150
sg39
g40
sg41
I4326
sg42
S'2050'
p4151
ssS'bio15'
p4152
(dp4153
g8
S'2015-03-19 10:08:15'
p4154
sg10
S'no'
p4155
sg12
S'ac4550.bio15'
p4156
sg14
I80
sg15
S'bio15'
p4157
sg17
S'Precipitation Seasonality (Coefficient of Variation)'
p4158
sg19
S'45'
p4159
sg21
S'ac4550'
p4160
sg23
S'../views/GTiff/clim.ac4550.bio15.tif'
p4161
sg25
S'climate'
p4162
sg27
S'clim.ac4550.bio15'
p4163
sg29
S'Precipitation Seasonality (Coefficient of Variation) AC RCP45 2050'
p4164
sg31
g32
sg33
g34
sg35
S'clim.ac4550.bio15.tif'
p4165
sg37
S'clim'
p4166
sg39
g40
sg41
I4326
sg42
S'2050'
p4167
ssS'bio01'
p4168
(dp4169
g8
S'2015-03-19 10:08:15'
p4170
sg10
S'no'
p4171
sg12
S'ac4550.bio01'
p4172
sg14
I7
sg15
S'bio01'
p4173
sg17
S'Annual Mean Temperature'
p4174
sg19
S'45'
p4175
sg21
g3990
sg23
S'../views/GTiff/clim.ac4550.bio01.tif'
p4176
sg25
S'climate'
p4177
sg27
S'clim.ac4550.bio01'
p4178
sg29
S'Annual Mean Temperature AC RCP45 2050'
p4179
sg31
g32
sg33
g34
sg35
S'clim.ac4550.bio01.tif'
p4180
sg37
S'clim'
p4181
sg39
g40
sg41
I4326
sg42
S'2050'
p4182
ssS'bio19'
p4183
(dp4184
g8
S'2015-03-19 10:08:15'
p4185
sg10
S'yes'
p4186
sg12
S'ac4550.bio19'
p4187
sg14
I318
sg15
S'bio19'
p4188
sg17
S'Precipitation of Coldest Quarter'
p4189
sg19
S'45'
p4190
sg21
S'ac4550'
p4191
sg23
S'../views/GTiff/clim.ac4550.bio19.tif'
p4192
sg25
S'climate'
p4193
sg27
S'clim.ac4550.bio19'
p4194
sg29
S'Precipitation of Coldest Quarter AC RCP45 2050'
p4195
sg31
g32
sg33
g34
sg35
S'clim.ac4550.bio19.tif'
p4196
sg37
S'clim'
p4197
sg39
g40
sg41
I4326
sg42
S'2050'
p4198
ssS'bio18'
p4199
(dp4200
g8
S'2015-03-19 10:08:15'
p4201
sg10
S'no'
p4202
sg12
S'ac4550.bio18'
p4203
sg14
I155
sg15
S'bio18'
p4204
sg17
S'Precipitation of Warmest Quarter'
p4205
sg19
S'45'
p4206
sg21
S'ac4550'
p4207
sg23
S'../views/GTiff/clim.ac4550.bio18.tif'
p4208
sg25
S'climate'
p4209
sg27
S'clim.ac4550.bio18'
p4210
sg29
S'Precipitation of Warmest Quarter AC RCP45 2050'
p4211
sg31
g32
sg33
g34
sg35
S'clim.ac4550.bio18.tif'
p4212
sg37
S'clim'
p4213
sg39
g40
sg41
I4326
sg42
S'2050'
p4214
ssS'bio14'
p4215
(dp4216
g8
S'2015-03-19 10:08:15'
p4217
sg10
S'yes'
p4218
sg12
S'ac4550.bio14'
p4219
sg14
I163
sg15
S'bio14'
p4220
sg17
S'Precipitation of Driest Month'
p4221
sg19
S'45'
p4222
sg21
S'ac4550'
p4223
sg23
S'../views/GTiff/clim.ac4550.bio14.tif'
p4224
sg25
S'climate'
p4225
sg27
S'clim.ac4550.bio14'
p4226
sg29
S'Precipitation of Driest Month AC RCP45 2050'
p4227
sg31
g32
sg33
g34
sg35
S'clim.ac4550.bio14.tif'
p4228
sg37
S'clim'
p4229
sg39
g40
sg41
I4326
sg42
S'2050'
p4230
ssS'bio04'
p4231
(dp4232
g8
S'2015-03-19 10:08:15'
p4233
sg10
S'yes'
p4234
sg12
S'ac4550.bio04'
p4235
sg14
I325
sg15
S'bio04'
p4236
sg17
S'Temperature Seasonality (standard deviation *100)'
p4237
sg19
S'45'
p4238
sg21
S'ac4550'
p4239
sg23
S'../views/GTiff/clim.ac4550.bio04.tif'
p4240
sg25
S'climate'
p4241
sg27
S'clim.ac4550.bio04'
p4242
sg29
S'Temperature Seasonality (standard deviation *100) AC RCP45 2050'
p4243
sg31
g32
sg33
g34
sg35
S'clim.ac4550.bio04.tif'
p4244
sg37
S'clim'
p4245
sg39
g40
sg41
I4326
sg42
S'2050'
p4246
ssS'bio08'
p4247
(dp4248
g8
S'2015-03-19 10:08:15'
p4249
sg10
S'no'
p4250
sg12
S'ac4550.bio08'
p4251
sg14
I293
sg15
S'bio08'
p4252
sg17
S'Mean Temperature of Wettest Quarter'
p4253
sg19
S'45'
p4254
sg21
S'ac4550'
p4255
sg23
S'../views/GTiff/clim.ac4550.bio08.tif'
p4256
sg25
S'climate'
p4257
sg27
S'clim.ac4550.bio08'
p4258
sg29
S'Mean Temperature of Wettest Quarter AC RCP45 2050'
p4259
sg31
g32
sg33
g34
sg35
S'clim.ac4550.bio08.tif'
p4260
sg37
S'clim'
p4261
sg39
g40
sg41
I4326
sg42
S'2050'
p4262
ssS'bio09'
p4263
(dp4264
g8
S'2015-03-19 10:08:15'
p4265
sg10
S'yes'
p4266
sg12
S'ac4550.bio09'
p4267
sg14
I178
sg15
S'bio09'
p4268
sg17
S'Mean Temperature of Driest Quarter'
p4269
sg19
S'45'
p4270
sg21
S'ac4550'
p4271
sg23
S'../views/GTiff/clim.ac4550.bio09.tif'
p4272
sg25
S'climate'
p4273
sg27
S'clim.ac4550.bio09'
p4274
sg29
S'Mean Temperature of Driest Quarter AC RCP45 2050'
p4275
sg31
g32
sg33
g34
sg35
S'clim.ac4550.bio09.tif'
p4276
sg37
S'clim'
p4277
sg39
g40
sg41
I4326
sg42
S'2050'
p4278
ssS'bio02'
p4279
(dp4280
g8
S'2015-03-19 10:08:15'
p4281
sg10
S'yes'
p4282
sg12
S'ac4550.bio02'
p4283
sg14
I261
sg15
S'bio02'
p4284
sg17
S'Mean Diurnal Range (Mean of monthly (max temp - min temp))'
p4285
sg19
S'45'
p4286
sg21
S'ac4550'
p4287
sg23
S'../views/GTiff/clim.ac4550.bio02.tif'
p4288
sg25
S'climate'
p4289
sg27
S'clim.ac4550.bio02'
p4290
sg29
S'Mean Diurnal Range (Mean of monthly (max temp - min temp)) AC RCP45 2050'
p4291
sg31
g32
sg33
g34
sg35
S'clim.ac4550.bio02.tif'
p4292
sg37
S'clim'
p4293
sg39
g40
sg41
I4326
sg42
S'2050'
p4294
sssS'he4570'
p4295
(dp4296
S'bio10'
p4297
(dp4298
g8
S'2015-03-19 10:08:15'
p4299
sg10
S'yes'
p4300
sg12
S'he4570.bio10'
p4301
sg14
I276
sg15
S'bio10'
p4302
sg17
S'Mean Temperature of Warmest Quarter'
p4303
sg19
S'45'
p4304
sg21
S'he4570'
p4305
sg23
S'../views/GTiff/clim.he4570.bio10.tif'
p4306
sg25
S'climate'
p4307
sg27
S'clim.he4570.bio10'
p4308
sg29
S'Mean Temperature of Warmest Quarter HE RCP45 2070'
p4309
sg31
g32
sg33
g34
sg35
S'clim.he4570.bio10.tif'
p4310
sg37
S'clim'
p4311
sg39
g40
sg41
I4326
sg42
S'2070'
p4312
ssS'bio19'
p4313
(dp4314
g8
S'2015-03-19 10:08:15'
p4315
sg10
S'yes'
p4316
sg12
S'he4570.bio19'
p4317
sg14
I203
sg15
S'bio19'
p4318
sg17
S'Precipitation of Coldest Quarter'
p4319
sg19
S'45'
p4320
sg21
S'he4570'
p4321
sg23
S'../views/GTiff/clim.he4570.bio19.tif'
p4322
sg25
S'climate'
p4323
sg27
S'clim.he4570.bio19'
p4324
sg29
S'Precipitation of Coldest Quarter HE RCP45 2070'
p4325
sg31
g32
sg33
g34
sg35
S'clim.he4570.bio19.tif'
p4326
sg37
S'clim'
p4327
sg39
g40
sg41
I4326
sg42
S'2070'
p4328
ssS'bio16'
p4329
(dp4330
g8
S'2015-03-19 10:08:15'
p4331
sg10
S'yes'
p4332
sg12
S'he4570.bio16'
p4333
sg14
I340
sg15
S'bio16'
p4334
sg17
S'Precipitation of Wettest Quarter'
p4335
sg19
S'45'
p4336
sg21
S'he4570'
p4337
sg23
S'../views/GTiff/clim.he4570.bio16.tif'
p4338
sg25
S'climate'
p4339
sg27
S'clim.he4570.bio16'
p4340
sg29
S'Precipitation of Wettest Quarter HE RCP45 2070'
p4341
sg31
g32
sg33
g34
sg35
S'clim.he4570.bio16.tif'
p4342
sg37
S'clim'
p4343
sg39
g40
sg41
I4326
sg42
S'2070'
p4344
ssS'bio06'
p4345
(dp4346
g8
S'2015-03-19 10:08:15'
p4347
sg10
S'yes'
p4348
sg12
S'he4570.bio06'
p4349
sg14
I148
sg15
S'bio06'
p4350
sg17
S'Min Temperature of Coldest Month'
p4351
sg19
S'45'
p4352
sg21
S'he4570'
p4353
sg23
S'../views/GTiff/clim.he4570.bio06.tif'
p4354
sg25
S'climate'
p4355
sg27
S'clim.he4570.bio06'
p4356
sg29
S'Min Temperature of Coldest Month HE RCP45 2070'
p4357
sg31
g32
sg33
g34
sg35
S'clim.he4570.bio06.tif'
p4358
sg37
S'clim'
p4359
sg39
g40
sg41
I4326
sg42
S'2070'
p4360
ssS'bio09'
p4361
(dp4362
g8
S'2015-03-19 10:08:15'
p4363
sg10
S'yes'
p4364
sg12
S'he4570.bio09'
p4365
sg14
I242
sg15
S'bio09'
p4366
sg17
S'Mean Temperature of Driest Quarter'
p4367
sg19
S'45'
p4368
sg21
S'he4570'
p4369
sg23
S'../views/GTiff/clim.he4570.bio09.tif'
p4370
sg25
S'climate'
p4371
sg27
S'clim.he4570.bio09'
p4372
sg29
S'Mean Temperature of Driest Quarter HE RCP45 2070'
p4373
sg31
g32
sg33
g34
sg35
S'clim.he4570.bio09.tif'
p4374
sg37
S'clim'
p4375
sg39
g40
sg41
I4326
sg42
S'2070'
p4376
ssS'bio15'
p4377
(dp4378
g8
S'2015-03-19 10:08:15'
p4379
sg10
S'no'
p4380
sg12
S'he4570.bio15'
p4381
sg14
I314
sg15
S'bio15'
p4382
sg17
S'Precipitation Seasonality (Coefficient of Variation)'
p4383
sg19
S'45'
p4384
sg21
S'he4570'
p4385
sg23
S'../views/GTiff/clim.he4570.bio15.tif'
p4386
sg25
S'climate'
p4387
sg27
S'clim.he4570.bio15'
p4388
sg29
S'Precipitation Seasonality (Coefficient of Variation) HE RCP45 2070'
p4389
sg31
g32
sg33
g34
sg35
S'clim.he4570.bio15.tif'
p4390
sg37
S'clim'
p4391
sg39
g40
sg41
I4326
sg42
S'2070'
p4392
ssS'bio12'
p4393
(dp4394
g8
S'2015-03-19 10:08:15'
p4395
sg10
S'no'
p4396
sg12
S'he4570.bio12'
p4397
sg14
I214
sg15
S'bio12'
p4398
sg17
S'Annual Precipitation'
p4399
sg19
S'45'
p4400
sg21
S'he4570'
p4401
sg23
S'../views/GTiff/clim.he4570.bio12.tif'
p4402
sg25
S'climate'
p4403
sg27
S'clim.he4570.bio12'
p4404
sg29
S'Annual Precipitation HE RCP45 2070'
p4405
sg31
g32
sg33
g34
sg35
S'clim.he4570.bio12.tif'
p4406
sg37
S'clim'
p4407
sg39
g40
sg41
I4326
sg42
S'2070'
p4408
ssS'bio07'
p4409
(dp4410
g8
S'2015-03-19 10:08:15'
p4411
sg10
S'no'
p4412
sg12
S'he4570.bio07'
p4413
sg14
I222
sg15
S'bio07'
p4414
sg17
S'Temperature Annual Range (BIO5-BIO6)'
p4415
sg19
S'45'
p4416
sg21
S'he4570'
p4417
sg23
S'../views/GTiff/clim.he4570.bio07.tif'
p4418
sg25
S'climate'
p4419
sg27
S'clim.he4570.bio07'
p4420
sg29
S'Temperature Annual Range (BIO5-BIO6) HE RCP45 2070'
p4421
sg31
g32
sg33
g34
sg35
S'clim.he4570.bio07.tif'
p4422
sg37
S'clim'
p4423
sg39
g40
sg41
I4326
sg42
S'2070'
p4424
ssS'bio11'
p4425
(dp4426
g8
S'2015-03-19 10:08:15'
p4427
sg10
S'yes'
p4428
sg12
S'he4570.bio11'
p4429
sg14
I45
sg15
S'bio11'
p4430
sg17
S'Mean Temperature of Coldest Quarter'
p4431
sg19
S'45'
p4432
sg21
S'he4570'
p4433
sg23
S'../views/GTiff/clim.he4570.bio11.tif'
p4434
sg25
S'climate'
p4435
sg27
S'clim.he4570.bio11'
p4436
sg29
S'Mean Temperature of Coldest Quarter HE RCP45 2070'
p4437
sg31
g32
sg33
g34
sg35
S'clim.he4570.bio11.tif'
p4438
sg37
S'clim'
p4439
sg39
g40
sg41
I4326
sg42
S'2070'
p4440
ssS'bio05'
p4441
(dp4442
g8
S'2015-03-19 10:08:15'
p4443
sg10
S'yes'
p4444
sg12
S'he4570.bio05'
p4445
sg14
I141
sg15
S'bio05'
p4446
sg17
S'Max Temperature of Warmest Month'
p4447
sg19
S'45'
p4448
sg21
S'he4570'
p4449
sg23
S'../views/GTiff/clim.he4570.bio05.tif'
p4450
sg25
S'climate'
p4451
sg27
S'clim.he4570.bio05'
p4452
sg29
S'Max Temperature of Warmest Month HE RCP45 2070'
p4453
sg31
g32
sg33
g34
sg35
S'clim.he4570.bio05.tif'
p4454
sg37
S'clim'
p4455
sg39
g40
sg41
I4326
sg42
S'2070'
p4456
ssS'bio13'
p4457
(dp4458
g8
S'2015-03-19 10:08:15'
p4459
sg10
S'yes'
p4460
sg12
S'he4570.bio13'
p4461
sg14
I13
sg15
S'bio13'
p4462
sg17
S'Precipitation of Wettest Month'
p4463
sg19
S'45'
p4464
sg21
g4295
sg23
S'../views/GTiff/clim.he4570.bio13.tif'
p4465
sg25
S'climate'
p4466
sg27
S'clim.he4570.bio13'
p4467
sg29
S'Precipitation of Wettest Month HE RCP45 2070'
p4468
sg31
g32
sg33
g34
sg35
S'clim.he4570.bio13.tif'
p4469
sg37
S'clim'
p4470
sg39
g40
sg41
I4326
sg42
S'2070'
p4471
ssS'bio03'
p4472
(dp4473
g8
S'2015-03-19 10:08:15'
p4474
sg10
S'yes'
p4475
sg12
S'he4570.bio03'
p4476
sg14
I89
sg15
S'bio03'
p4477
sg17
S'Isothermality (BIO2/BIO7) (* 100)'
p4478
sg19
S'45'
p4479
sg21
S'he4570'
p4480
sg23
S'../views/GTiff/clim.he4570.bio03.tif'
p4481
sg25
S'climate'
p4482
sg27
S'clim.he4570.bio03'
p4483
sg29
S'Isothermality (BIO2/BIO7) (* 100) HE RCP45 2070'
p4484
sg31
g32
sg33
g34
sg35
S'clim.he4570.bio03.tif'
p4485
sg37
S'clim'
p4486
sg39
g40
sg41
I4326
sg42
S'2070'
p4487
ssS'bio02'
p4488
(dp4489
g8
S'2015-03-19 10:08:15'
p4490
sg10
S'yes'
p4491
sg12
S'he4570.bio02'
p4492
sg14
I158
sg15
S'bio02'
p4493
sg17
S'Mean Diurnal Range (Mean of monthly (max temp - min temp))'
p4494
sg19
S'45'
p4495
sg21
S'he4570'
p4496
sg23
S'../views/GTiff/clim.he4570.bio02.tif'
p4497
sg25
S'climate'
p4498
sg27
S'clim.he4570.bio02'
p4499
sg29
S'Mean Diurnal Range (Mean of monthly (max temp - min temp)) HE RCP45 2070'
p4500
sg31
g32
sg33
g34
sg35
S'clim.he4570.bio02.tif'
p4501
sg37
S'clim'
p4502
sg39
g40
sg41
I4326
sg42
S'2070'
p4503
ssS'bio01'
p4504
(dp4505
g8
S'2015-03-19 10:08:15'
p4506
sg10
S'no'
p4507
sg12
S'he4570.bio01'
p4508
sg14
I174
sg15
S'bio01'
p4509
sg17
S'Annual Mean Temperature'
p4510
sg19
S'45'
p4511
sg21
S'he4570'
p4512
sg23
S'../views/GTiff/clim.he4570.bio01.tif'
p4513
sg25
S'climate'
p4514
sg27
S'clim.he4570.bio01'
p4515
sg29
S'Annual Mean Temperature HE RCP45 2070'
p4516
sg31
g32
sg33
g34
sg35
S'clim.he4570.bio01.tif'
p4517
sg37
S'clim'
p4518
sg39
g40
sg41
I4326
sg42
S'2070'
p4519
ssS'bio17'
p4520
(dp4521
g8
S'2015-03-19 10:08:15'
p4522
sg10
S'yes'
p4523
sg12
S'he4570.bio17'
p4524
sg14
I73
sg15
S'bio17'
p4525
sg17
S'Precipitation of Driest Quarter'
p4526
sg19
S'45'
p4527
sg21
S'he4570'
p4528
sg23
S'../views/GTiff/clim.he4570.bio17.tif'
p4529
sg25
S'climate'
p4530
sg27
S'clim.he4570.bio17'
p4531
sg29
S'Precipitation of Driest Quarter HE RCP45 2070'
p4532
sg31
g32
sg33
g34
sg35
S'clim.he4570.bio17.tif'
p4533
sg37
S'clim'
p4534
sg39
g40
sg41
I4326
sg42
S'2070'
p4535
ssS'bio18'
p4536
(dp4537
g8
S'2015-03-19 10:08:15'
p4538
sg10
S'no'
p4539
sg12
S'he4570.bio18'
p4540
sg14
I99
sg15
S'bio18'
p4541
sg17
S'Precipitation of Warmest Quarter'
p4542
sg19
S'45'
p4543
sg21
S'he4570'
p4544
sg23
S'../views/GTiff/clim.he4570.bio18.tif'
p4545
sg25
S'climate'
p4546
sg27
S'clim.he4570.bio18'
p4547
sg29
S'Precipitation of Warmest Quarter HE RCP45 2070'
p4548
sg31
g32
sg33
g34
sg35
S'clim.he4570.bio18.tif'
p4549
sg37
S'clim'
p4550
sg39
g40
sg41
I4326
sg42
S'2070'
p4551
ssS'bio14'
p4552
(dp4553
g8
S'2015-03-19 10:08:15'
p4554
sg10
S'yes'
p4555
sg12
S'he4570.bio14'
p4556
sg14
I167
sg15
S'bio14'
p4557
sg17
S'Precipitation of Driest Month'
p4558
sg19
S'45'
p4559
sg21
S'he4570'
p4560
sg23
S'../views/GTiff/clim.he4570.bio14.tif'
p4561
sg25
S'climate'
p4562
sg27
S'clim.he4570.bio14'
p4563
sg29
S'Precipitation of Driest Month HE RCP45 2070'
p4564
sg31
g32
sg33
g34
sg35
S'clim.he4570.bio14.tif'
p4565
sg37
S'clim'
p4566
sg39
g40
sg41
I4326
sg42
S'2070'
p4567
ssS'bio04'
p4568
(dp4569
g8
S'2015-03-19 10:08:15'
p4570
sg10
S'yes'
p4571
sg12
S'he4570.bio04'
p4572
sg14
I227
sg15
S'bio04'
p4573
sg17
S'Temperature Seasonality (standard deviation *100)'
p4574
sg19
S'45'
p4575
sg21
S'he4570'
p4576
sg23
S'../views/GTiff/clim.he4570.bio04.tif'
p4577
sg25
S'climate'
p4578
sg27
S'clim.he4570.bio04'
p4579
sg29
S'Temperature Seasonality (standard deviation *100) HE RCP45 2070'
p4580
sg31
g32
sg33
g34
sg35
S'clim.he4570.bio04.tif'
p4581
sg37
S'clim'
p4582
sg39
g40
sg41
I4326
sg42
S'2070'
p4583
ssS'bio08'
p4584
(dp4585
g8
S'2015-03-19 10:08:15'
p4586
sg10
S'no'
p4587
sg12
S'he4570.bio08'
p4588
sg14
I204
sg15
S'bio08'
p4589
sg17
S'Mean Temperature of Wettest Quarter'
p4590
sg19
S'45'
p4591
sg21
S'he4570'
p4592
sg23
S'../views/GTiff/clim.he4570.bio08.tif'
p4593
sg25
S'climate'
p4594
sg27
S'clim.he4570.bio08'
p4595
sg29
S'Mean Temperature of Wettest Quarter HE RCP45 2070'
p4596
sg31
g32
sg33
g34
sg35
S'clim.he4570.bio08.tif'
p4597
sg37
S'clim'
p4598
sg39
g40
sg41
I4326
sg42
S'2070'
p4599
ssssS'agclim'
p4600
(dp4601
S'he8550'
p4602
(dp4603
S'bio06'
p4604
(dp4605
g8
S'2015-03-19 10:08:15'
p4606
sg10
S'no'
p4607
sg12
S'he8550.bio06'
p4608
sg14
I264
sg15
S'bio06'
p4609
sg17
S'Min Temperature of Coldest Month'
p4610
sg19
S'85'
p4611
sg21
S'he8550'
p4612
sg23
S'../views/GTiff/agclim.he8550.bio06.tif'
p4613
sg25
S'agclimate'
p4614
sg27
S'agclim.he8550.bio06'
p4615
sg29
S'Min Temperature of Coldest Month'
p4616
sg31
g32
sg33
g34
sg35
S'agclim.he8550.bio06.tif'
p4617
sg37
S'agclim'
p4618
sg39
g40
sg41
I4326
sg42
S'2050'
p4619
ssS'bio12'
p4620
(dp4621
g8
S'2015-03-19 10:08:15'
p4622
sg10
S'no'
p4623
sg12
S'he8550.bio12'
p4624
sg14
I12
sg15
S'bio12'
p4625
sg17
S'Annual Precipitation'
p4626
sg19
S'85'
p4627
sg21
g4602
sg23
S'../views/GTiff/agclim.he8550.bio12.tif'
p4628
sg25
S'agclimate'
p4629
sg27
S'agclim.he8550.bio12'
p4630
sg29
S'Annual Precipitation'
p4631
sg31
g32
sg33
g34
sg35
S'agclim.he8550.bio12.tif'
p4632
sg37
S'agclim'
p4633
sg39
g40
sg41
I4326
sg42
S'2050'
p4634
ssS'gdd5'
p4635
(dp4636
g8
S'2015-03-19 10:08:15'
p4637
sg10
S'no'
p4638
sg12
S'he8550.gdd5'
p4639
sg14
I182
sg15
S'gdd5'
p4640
sg17
S'Growing Degree Days 5C Baseline'
p4641
sg19
S'85'
p4642
sg21
S'he8550'
p4643
sg23
S'../views/GTiff/agclim.he8550.gdd5.tif'
p4644
sg25
S'agclimate'
p4645
sg27
S'agclim.he8550.gdd5'
p4646
sg29
S'Growing Degree Days 5C Baseline'
p4647
sg31
g32
sg33
g34
sg35
S'agclim.he8550.gdd5.tif'
p4648
sg37
S'agclim'
p4649
sg39
g40
sg41
I4326
sg42
S'2050'
p4650
ssS'aridity'
p4651
(dp4652
g8
S'2015-03-19 10:08:15'
p4653
sg10
S'no'
p4654
sg12
S'he8550.aridity'
p4655
sg14
I199
sg15
S'aridity'
p4656
sg17
S'CRU Metric of Mean Annual Aridity'
p4657
sg19
S'85'
p4658
sg21
S'he8550'
p4659
sg23
S'../views/GTiff/agclim.he8550.aridity.tif'
p4660
sg25
S'agclimate'
p4661
sg27
S'agclim.he8550.aridity'
p4662
sg29
S'CRU Metric of Mean Annual Aridity'
p4663
sg31
g32
sg33
g34
sg35
S'agclim.he8550.aridity.tif'
p4664
sg37
S'agclim'
p4665
sg39
g40
sg41
I4326
sg42
S'2050'
p4666
ssS'petmn'
p4667
(dp4668
g8
S'2015-03-19 10:08:15'
p4669
sg10
S'no'
p4670
sg12
S'he8550.petmn'
p4671
sg14
I306
sg15
S'petmn'
p4672
sg17
S'CRU Mean Annual Evapotranspiration'
p4673
sg19
S'85'
p4674
sg21
S'he8550'
p4675
sg23
S'../views/GTiff/agclim.he8550.petmn.tif'
p4676
sg25
S'agclimate'
p4677
sg27
S'agclim.he8550.petmn'
p4678
sg29
S'CRU Mean Annual Evapotranspiration'
p4679
sg31
g32
sg33
g34
sg35
S'agclim.he8550.petmn.tif'
p4680
sg37
S'agclim'
p4681
sg39
g40
sg41
I4326
sg42
S'2050'
p4682
sssS'he2670'
p4683
(dp4684
S'bio06'
p4685
(dp4686
g8
S'2015-03-19 10:08:15'
p4687
sg10
S'no'
p4688
sg12
S'he2670.bio06'
p4689
sg14
I29
sg15
S'bio06'
p4690
sg17
S'Min Temperature of Coldest Month'
p4691
sg19
S'26'
p4692
sg21
g4683
sg23
S'../views/GTiff/agclim.he2670.bio06.tif'
p4693
sg25
S'agclimate'
p4694
sg27
S'agclim.he2670.bio06'
p4695
sg29
S'Min Temperature of Coldest Month'
p4696
sg31
g32
sg33
g34
sg35
S'agclim.he2670.bio06.tif'
p4697
sg37
S'agclim'
p4698
sg39
g40
sg41
I4326
sg42
S'2070'
p4699
ssS'bio12'
p4700
(dp4701
g8
S'2015-03-19 10:08:15'
p4702
sg10
S'no'
p4703
sg12
S'he2670.bio12'
p4704
sg14
I216
sg15
S'bio12'
p4705
sg17
S'Annual Precipitation'
p4706
sg19
S'26'
p4707
sg21
S'he2670'
p4708
sg23
S'../views/GTiff/agclim.he2670.bio12.tif'
p4709
sg25
S'agclimate'
p4710
sg27
S'agclim.he2670.bio12'
p4711
sg29
S'Annual Precipitation'
p4712
sg31
g32
sg33
g34
sg35
S'agclim.he2670.bio12.tif'
p4713
sg37
S'agclim'
p4714
sg39
g40
sg41
I4326
sg42
S'2070'
p4715
ssS'gdd5'
p4716
(dp4717
g8
S'2015-03-19 10:08:15'
p4718
sg10
S'no'
p4719
sg12
S'he2670.gdd5'
p4720
sg14
I140
sg15
S'gdd5'
p4721
sg17
S'Growing Degree Days 5C Baseline'
p4722
sg19
S'26'
p4723
sg21
S'he2670'
p4724
sg23
S'../views/GTiff/agclim.he2670.gdd5.tif'
p4725
sg25
S'agclimate'
p4726
sg27
S'agclim.he2670.gdd5'
p4727
sg29
S'Growing Degree Days 5C Baseline'
p4728
sg31
g32
sg33
g34
sg35
S'agclim.he2670.gdd5.tif'
p4729
sg37
S'agclim'
p4730
sg39
g40
sg41
I4326
sg42
S'2070'
p4731
ssS'aridity'
p4732
(dp4733
g8
S'2015-03-19 10:08:15'
p4734
sg10
S'no'
p4735
sg12
S'he2670.aridity'
p4736
sg14
I258
sg15
S'aridity'
p4737
sg17
S'CRU Metric of Mean Annual Aridity'
p4738
sg19
S'26'
p4739
sg21
S'he2670'
p4740
sg23
S'../views/GTiff/agclim.he2670.aridity.tif'
p4741
sg25
S'agclimate'
p4742
sg27
S'agclim.he2670.aridity'
p4743
sg29
S'CRU Metric of Mean Annual Aridity'
p4744
sg31
g32
sg33
g34
sg35
S'agclim.he2670.aridity.tif'
p4745
sg37
S'agclim'
p4746
sg39
g40
sg41
I4326
sg42
S'2070'
p4747
ssS'petmn'
p4748
(dp4749
g8
S'2015-03-19 10:08:15'
p4750
sg10
S'no'
p4751
sg12
S'he2670.petmn'
p4752
sg14
I189
sg15
S'petmn'
p4753
sg17
S'CRU Mean Annual Evapotranspiration'
p4754
sg19
S'26'
p4755
sg21
S'he2670'
p4756
sg23
S'../views/GTiff/agclim.he2670.petmn.tif'
p4757
sg25
S'agclimate'
p4758
sg27
S'agclim.he2670.petmn'
p4759
sg29
S'CRU Mean Annual Evapotranspiration'
p4760
sg31
g32
sg33
g34
sg35
S'agclim.he2670.petmn.tif'
p4761
sg37
S'agclim'
p4762
sg39
g40
sg41
I4326
sg42
S'2070'
p4763
sssS'he8570'
p4764
(dp4765
S'bio06'
p4766
(dp4767
g8
S'2015-03-19 10:08:15'
p4768
sg10
S'no'
p4769
sg12
S'he8570.bio06'
p4770
sg14
I66
sg15
S'bio06'
p4771
sg17
S'Min Temperature of Coldest Month'
p4772
sg19
S'85'
p4773
sg21
g4764
sg23
S'../views/GTiff/agclim.he8570.bio06.tif'
p4774
sg25
S'agclimate'
p4775
sg27
S'agclim.he8570.bio06'
p4776
sg29
S'Min Temperature of Coldest Month'
p4777
sg31
g32
sg33
g34
sg35
S'agclim.he8570.bio06.tif'
p4778
sg37
S'agclim'
p4779
sg39
g40
sg41
I4326
sg42
S'2070'
p4780
ssS'bio12'
p4781
(dp4782
g8
S'2015-03-19 10:08:15'
p4783
sg10
S'no'
p4784
sg12
S'he8570.bio12'
p4785
sg14
I198
sg15
S'bio12'
p4786
sg17
S'Annual Precipitation'
p4787
sg19
S'85'
p4788
sg21
S'he8570'
p4789
sg23
S'../views/GTiff/agclim.he8570.bio12.tif'
p4790
sg25
S'agclimate'
p4791
sg27
S'agclim.he8570.bio12'
p4792
sg29
S'Annual Precipitation'
p4793
sg31
g32
sg33
g34
sg35
S'agclim.he8570.bio12.tif'
p4794
sg37
S'agclim'
p4795
sg39
g40
sg41
I4326
sg42
S'2070'
p4796
ssS'gdd5'
p4797
(dp4798
g8
S'2015-03-19 10:08:15'
p4799
sg10
S'no'
p4800
sg12
S'he8570.gdd5'
p4801
sg14
I196
sg15
S'gdd5'
p4802
sg17
S'Growing Degree Days 5C Baseline'
p4803
sg19
S'85'
p4804
sg21
S'he8570'
p4805
sg23
S'../views/GTiff/agclim.he8570.gdd5.tif'
p4806
sg25
S'agclimate'
p4807
sg27
S'agclim.he8570.gdd5'
p4808
sg29
S'Growing Degree Days 5C Baseline'
p4809
sg31
g32
sg33
g34
sg35
S'agclim.he8570.gdd5.tif'
p4810
sg37
S'agclim'
p4811
sg39
g40
sg41
I4326
sg42
S'2070'
p4812
ssS'aridity'
p4813
(dp4814
g8
S'2015-03-19 10:08:15'
p4815
sg10
S'no'
p4816
sg12
S'he8570.aridity'
p4817
sg14
I200
sg15
S'aridity'
p4818
sg17
S'CRU Metric of Mean Annual Aridity'
p4819
sg19
S'85'
p4820
sg21
S'he8570'
p4821
sg23
S'../views/GTiff/agclim.he8570.aridity.tif'
p4822
sg25
S'agclimate'
p4823
sg27
S'agclim.he8570.aridity'
p4824
sg29
S'CRU Metric of Mean Annual Aridity'
p4825
sg31
g32
sg33
g34
sg35
S'agclim.he8570.aridity.tif'
p4826
sg37
S'agclim'
p4827
sg39
g40
sg41
I4326
sg42
S'2070'
p4828
ssS'petmn'
p4829
(dp4830
g8
S'2015-03-19 10:08:15'
p4831
sg10
S'no'
p4832
sg12
S'he8570.petmn'
p4833
sg14
I259
sg15
S'petmn'
p4834
sg17
S'CRU Mean Annual Evapotranspiration'
p4835
sg19
S'85'
p4836
sg21
S'he8570'
p4837
sg23
S'../views/GTiff/agclim.he8570.petmn.tif'
p4838
sg25
S'agclimate'
p4839
sg27
S'agclim.he8570.petmn'
p4840
sg29
S'CRU Mean Annual Evapotranspiration'
p4841
sg31
g32
sg33
g34
sg35
S'agclim.he8570.petmn.tif'
p4842
sg37
S'agclim'
p4843
sg39
g40
sg41
I4326
sg42
S'2070'
p4844
sssS'he2650'
p4845
(dp4846
S'bio06'
p4847
(dp4848
g8
S'2015-03-19 10:08:15'
p4849
sg10
S'no'
p4850
sg12
S'he2650.bio06'
p4851
sg14
I30
sg15
S'bio06'
p4852
sg17
S'Min Temperature of Coldest Month'
p4853
sg19
S'26'
p4854
sg21
g4845
sg23
S'../views/GTiff/agclim.he2650.bio06.tif'
p4855
sg25
S'agclimate'
p4856
sg27
S'agclim.he2650.bio06'
p4857
sg29
S'Min Temperature of Coldest Month'
p4858
sg31
g32
sg33
g34
sg35
S'agclim.he2650.bio06.tif'
p4859
sg37
S'agclim'
p4860
sg39
g40
sg41
I4326
sg42
S'2050'
p4861
ssS'bio12'
p4862
(dp4863
g8
S'2015-03-19 10:08:15'
p4864
sg10
S'no'
p4865
sg12
S'he2650.bio12'
p4866
sg14
I223
sg15
S'bio12'
p4867
sg17
S'Annual Precipitation'
p4868
sg19
S'26'
p4869
sg21
S'he2650'
p4870
sg23
S'../views/GTiff/agclim.he2650.bio12.tif'
p4871
sg25
S'agclimate'
p4872
sg27
S'agclim.he2650.bio12'
p4873
sg29
S'Annual Precipitation'
p4874
sg31
g32
sg33
g34
sg35
S'agclim.he2650.bio12.tif'
p4875
sg37
S'agclim'
p4876
sg39
g40
sg41
I4326
sg42
S'2050'
p4877
ssS'gdd5'
p4878
(dp4879
g8
S'2015-03-19 10:08:15'
p4880
sg10
S'no'
p4881
sg12
S'he2650.gdd5'
p4882
sg14
I65
sg15
S'gdd5'
p4883
sg17
S'Growing Degree Days 5C Baseline'
p4884
sg19
S'26'
p4885
sg21
S'he2650'
p4886
sg23
S'../views/GTiff/agclim.he2650.gdd5.tif'
p4887
sg25
S'agclimate'
p4888
sg27
S'agclim.he2650.gdd5'
p4889
sg29
S'Growing Degree Days 5C Baseline'
p4890
sg31
g32
sg33
g34
sg35
S'agclim.he2650.gdd5.tif'
p4891
sg37
S'agclim'
p4892
sg39
g40
sg41
I4326
sg42
S'2050'
p4893
ssS'aridity'
p4894
(dp4895
g8
S'2015-03-19 10:08:15'
p4896
sg10
S'no'
p4897
sg12
S'he2650.aridity'
p4898
sg14
I335
sg15
S'aridity'
p4899
sg17
S'CRU Metric of Mean Annual Aridity'
p4900
sg19
S'26'
p4901
sg21
S'he2650'
p4902
sg23
S'../views/GTiff/agclim.he2650.aridity.tif'
p4903
sg25
S'agclimate'
p4904
sg27
S'agclim.he2650.aridity'
p4905
sg29
S'CRU Metric of Mean Annual Aridity'
p4906
sg31
g32
sg33
g34
sg35
S'agclim.he2650.aridity.tif'
p4907
sg37
S'agclim'
p4908
sg39
g40
sg41
I4326
sg42
S'2050'
p4909
ssS'petmn'
p4910
(dp4911
g8
S'2015-03-19 10:08:15'
p4912
sg10
S'no'
p4913
sg12
S'he2650.petmn'
p4914
sg14
I307
sg15
S'petmn'
p4915
sg17
S'CRU Mean Annual Evapotranspiration'
p4916
sg19
S'26'
p4917
sg21
S'he2650'
p4918
sg23
S'../views/GTiff/agclim.he2650.petmn.tif'
p4919
sg25
S'agclimate'
p4920
sg27
S'agclim.he2650.petmn'
p4921
sg29
S'CRU Mean Annual Evapotranspiration'
p4922
sg31
g32
sg33
g34
sg35
S'agclim.he2650.petmn.tif'
p4923
sg37
S'agclim'
p4924
sg39
g40
sg41
I4326
sg42
S'2050'
p4925
sssS'current'
p4926
(dp4927
S'bio06'
p4928
(dp4929
g8
S'2015-03-19 10:08:15'
p4930
sg10
S'no'
p4931
sg12
S'current.bio06'
p4932
sg14
I38
sg15
S'bio06'
p4933
sg17
S'Min Temperature of Coldest Month'
p4934
sg19
S'current'
p4935
sg21
S'current'
p4936
sg23
S'../views/GTiff/agclim.current.bio06.tif'
p4937
sg25
S'agclimate'
p4938
sg27
S'agclim.current.bio06'
p4939
sg29
S'Min Temperature of Coldest Month'
p4940
sg31
g32
sg33
g34
sg35
S'agclim.current.bio06.tif'
p4941
sg37
S'agclim'
p4942
sg39
g40
sg41
I4326
sg42
S'current'
p4943
ssS'bio12'
p4944
(dp4945
g8
S'2015-03-19 10:08:15'
p4946
sg10
S'no'
p4947
sg12
S'current.bio12'
p4948
sg14
I338
sg15
S'bio12'
p4949
sg17
S'Annual Precipitation'
p4950
sg19
S'current'
p4951
sg21
S'current'
p4952
sg23
S'../views/GTiff/agclim.current.bio12.tif'
p4953
sg25
S'agclimate'
p4954
sg27
S'agclim.current.bio12'
p4955
sg29
S'Annual Precipitation'
p4956
sg31
g32
sg33
g34
sg35
S'agclim.current.bio12.tif'
p4957
sg37
S'agclim'
p4958
sg39
g40
sg41
I4326
sg42
S'current'
p4959
ssS'gdd5'
p4960
(dp4961
g8
S'2015-03-19 10:08:15'
p4962
sg10
S'no'
p4963
sg12
S'current.gdd5'
p4964
sg14
I33
sg15
S'gdd5'
p4965
sg17
S'Growing Degree Days 5C Baseline'
p4966
sg19
S'current'
p4967
sg21
g4926
sg23
S'../views/GTiff/agclim.current.gdd5.tif'
p4968
sg25
S'agclimate'
p4969
sg27
S'agclim.current.gdd5'
p4970
sg29
S'Growing Degree Days 5C Baseline'
p4971
sg31
g32
sg33
g34
sg35
S'agclim.current.gdd5.tif'
p4972
sg37
S'agclim'
p4973
sg39
g40
sg41
I4326
sg42
S'current'
p4974
ssS'aridity'
p4975
(dp4976
g8
S'2015-03-19 10:08:15'
p4977
sg10
S'no'
p4978
sg12
S'current.aridity'
p4979
sg14
I71
sg15
S'aridity'
p4980
sg17
S'CRU Metric of Mean Annual Aridity'
p4981
sg19
S'current'
p4982
sg21
S'current'
p4983
sg23
S'../views/GTiff/agclim.current.aridity.tif'
p4984
sg25
S'agclimate'
p4985
sg27
S'agclim.current.aridity'
p4986
sg29
S'CRU Metric of Mean Annual Aridity'
p4987
sg31
g32
sg33
g34
sg35
S'agclim.current.aridity.tif'
p4988
sg37
S'agclim'
p4989
sg39
g40
sg41
I4326
sg42
S'current'
p4990
ssS'petmn'
p4991
(dp4992
g8
S'2015-03-19 10:08:15'
p4993
sg10
S'no'
p4994
sg12
S'current.petmn'
p4995
sg14
I267
sg15
S'petmn'
p4996
sg17
S'CRU Mean Annual Evapotranspiration'
p4997
sg19
S'current'
p4998
sg21
S'current'
p4999
sg23
S'../views/GTiff/agclim.current.petmn.tif'
p5000
sg25
S'agclimate'
p5001
sg27
S'agclim.current.petmn'
p5002
sg29
S'CRU Mean Annual Evapotranspiration'
p5003
sg31
g32
sg33
g34
sg35
S'agclim.current.petmn.tif'
p5004
sg37
S'agclim'
p5005
sg39
g40
sg41
I4326
sg42
S'current'
p5006
sssS'he6050'
p5007
(dp5008
S'bio06'
p5009
(dp5010
g8
S'2015-03-19 10:08:15'
p5011
sg10
S'no'
p5012
sg12
S'he6050.bio06'
p5013
sg14
I173
sg15
S'bio06'
p5014
sg17
S'Min Temperature of Coldest Month'
p5015
sg19
S'60'
p5016
sg21
S'he6050'
p5017
sg23
S'../views/GTiff/agclim.he6050.bio06.tif'
p5018
sg25
S'agclimate'
p5019
sg27
S'agclim.he6050.bio06'
p5020
sg29
S'Min Temperature of Coldest Month'
p5021
sg31
g32
sg33
g34
sg35
S'agclim.he6050.bio06.tif'
p5022
sg37
S'agclim'
p5023
sg39
g40
sg41
I4326
sg42
S'2050'
p5024
ssS'bio12'
p5025
(dp5026
g8
S'2015-03-19 10:08:15'
p5027
sg10
S'no'
p5028
sg12
S'he6050.bio12'
p5029
sg14
I302
sg15
S'bio12'
p5030
sg17
S'Annual Precipitation'
p5031
sg19
S'60'
p5032
sg21
S'he6050'
p5033
sg23
S'../views/GTiff/agclim.he6050.bio12.tif'
p5034
sg25
S'agclimate'
p5035
sg27
S'agclim.he6050.bio12'
p5036
sg29
S'Annual Precipitation'
p5037
sg31
g32
sg33
g34
sg35
S'agclim.he6050.bio12.tif'
p5038
sg37
S'agclim'
p5039
sg39
g40
sg41
I4326
sg42
S'2050'
p5040
ssS'gdd5'
p5041
(dp5042
g8
S'2015-03-19 10:08:15'
p5043
sg10
S'no'
p5044
sg12
S'he6050.gdd5'
p5045
sg14
I152
sg15
S'gdd5'
p5046
sg17
S'Growing Degree Days 5C Baseline'
p5047
sg19
S'60'
p5048
sg21
S'he6050'
p5049
sg23
S'../views/GTiff/agclim.he6050.gdd5.tif'
p5050
sg25
S'agclimate'
p5051
sg27
S'agclim.he6050.gdd5'
p5052
sg29
S'Growing Degree Days 5C Baseline'
p5053
sg31
g32
sg33
g34
sg35
S'agclim.he6050.gdd5.tif'
p5054
sg37
S'agclim'
p5055
sg39
g40
sg41
I4326
sg42
S'2050'
p5056
ssS'aridity'
p5057
(dp5058
g8
S'2015-03-19 10:08:15'
p5059
sg10
S'no'
p5060
sg12
S'he6050.aridity'
p5061
sg14
I85
sg15
S'aridity'
p5062
sg17
S'CRU Metric of Mean Annual Aridity'
p5063
sg19
S'60'
p5064
sg21
g5007
sg23
S'../views/GTiff/agclim.he6050.aridity.tif'
p5065
sg25
S'agclimate'
p5066
sg27
S'agclim.he6050.aridity'
p5067
sg29
S'CRU Metric of Mean Annual Aridity'
p5068
sg31
g32
sg33
g34
sg35
S'agclim.he6050.aridity.tif'
p5069
sg37
S'agclim'
p5070
sg39
g40
sg41
I4326
sg42
S'2050'
p5071
ssS'petmn'
p5072
(dp5073
g8
S'2015-03-19 10:08:15'
p5074
sg10
S'no'
p5075
sg12
S'he6050.petmn'
p5076
sg14
I263
sg15
S'petmn'
p5077
sg17
S'CRU Mean Annual Evapotranspiration'
p5078
sg19
S'60'
p5079
sg21
S'he6050'
p5080
sg23
S'../views/GTiff/agclim.he6050.petmn.tif'
p5081
sg25
S'agclimate'
p5082
sg27
S'agclim.he6050.petmn'
p5083
sg29
S'CRU Mean Annual Evapotranspiration'
p5084
sg31
g32
sg33
g34
sg35
S'agclim.he6050.petmn.tif'
p5085
sg37
S'agclim'
p5086
sg39
g40
sg41
I4326
sg42
S'2050'
p5087
sssS'he4550'
p5088
(dp5089
S'bio06'
p5090
(dp5091
g8
S'2015-03-19 10:08:15'
p5092
sg10
S'no'
p5093
sg12
S'he4550.bio06'
p5094
sg14
I168
sg15
S'bio06'
p5095
sg17
S'Min Temperature of Coldest Month'
p5096
sg19
S'45'
p5097
sg21
S'he4550'
p5098
sg23
S'../views/GTiff/agclim.he4550.bio06.tif'
p5099
sg25
S'agclimate'
p5100
sg27
S'agclim.he4550.bio06'
p5101
sg29
S'Min Temperature of Coldest Month'
p5102
sg31
g32
sg33
g34
sg35
S'agclim.he4550.bio06.tif'
p5103
sg37
S'agclim'
p5104
sg39
g40
sg41
I4326
sg42
S'2050'
p5105
ssS'bio12'
p5106
(dp5107
g8
S'2015-03-19 10:08:15'
p5108
sg10
S'no'
p5109
sg12
S'he4550.bio12'
p5110
sg14
I78
sg15
S'bio12'
p5111
sg17
S'Annual Precipitation'
p5112
sg19
S'45'
p5113
sg21
g5088
sg23
S'../views/GTiff/agclim.he4550.bio12.tif'
p5114
sg25
S'agclimate'
p5115
sg27
S'agclim.he4550.bio12'
p5116
sg29
S'Annual Precipitation'
p5117
sg31
g32
sg33
g34
sg35
S'agclim.he4550.bio12.tif'
p5118
sg37
S'agclim'
p5119
sg39
g40
sg41
I4326
sg42
S'2050'
p5120
ssS'gdd5'
p5121
(dp5122
g8
S'2015-03-19 10:08:15'
p5123
sg10
S'no'
p5124
sg12
S'he4550.gdd5'
p5125
sg14
I218
sg15
S'gdd5'
p5126
sg17
S'Growing Degree Days 5C Baseline'
p5127
sg19
S'45'
p5128
sg21
S'he4550'
p5129
sg23
S'../views/GTiff/agclim.he4550.gdd5.tif'
p5130
sg25
S'agclimate'
p5131
sg27
S'agclim.he4550.gdd5'
p5132
sg29
S'Growing Degree Days 5C Baseline'
p5133
sg31
g32
sg33
g34
sg35
S'agclim.he4550.gdd5.tif'
p5134
sg37
S'agclim'
p5135
sg39
g40
sg41
I4326
sg42
S'2050'
p5136
ssS'aridity'
p5137
(dp5138
g8
S'2015-03-19 10:08:15'
p5139
sg10
S'no'
p5140
sg12
S'he4550.aridity'
p5141
sg14
I331
sg15
S'aridity'
p5142
sg17
S'CRU Metric of Mean Annual Aridity'
p5143
sg19
S'45'
p5144
sg21
S'he4550'
p5145
sg23
S'../views/GTiff/agclim.he4550.aridity.tif'
p5146
sg25
S'agclimate'
p5147
sg27
S'agclim.he4550.aridity'
p5148
sg29
S'CRU Metric of Mean Annual Aridity'
p5149
sg31
g32
sg33
g34
sg35
S'agclim.he4550.aridity.tif'
p5150
sg37
S'agclim'
p5151
sg39
g40
sg41
I4326
sg42
S'2050'
p5152
ssS'petmn'
p5153
(dp5154
g8
S'2015-03-19 10:08:15'
p5155
sg10
S'no'
p5156
sg12
S'he4550.petmn'
p5157
sg14
I166
sg15
S'petmn'
p5158
sg17
S'CRU Mean Annual Evapotranspiration'
p5159
sg19
S'45'
p5160
sg21
S'he4550'
p5161
sg23
S'../views/GTiff/agclim.he4550.petmn.tif'
p5162
sg25
S'agclimate'
p5163
sg27
S'agclim.he4550.petmn'
p5164
sg29
S'CRU Mean Annual Evapotranspiration'
p5165
sg31
g32
sg33
g34
sg35
S'agclim.he4550.petmn.tif'
p5166
sg37
S'agclim'
p5167
sg39
g40
sg41
I4326
sg42
S'2050'
p5168
sssS'he6070'
p5169
(dp5170
S'bio06'
p5171
(dp5172
g8
S'2015-03-19 10:08:15'
p5173
sg10
S'no'
p5174
sg12
S'he6070.bio06'
p5175
sg14
I9
sg15
S'bio06'
p5176
sg17
S'Min Temperature of Coldest Month'
p5177
sg19
S'60'
p5178
sg21
g5169
sg23
S'../views/GTiff/agclim.he6070.bio06.tif'
p5179
sg25
S'agclimate'
p5180
sg27
S'agclim.he6070.bio06'
p5181
sg29
S'Min Temperature of Coldest Month'
p5182
sg31
g32
sg33
g34
sg35
S'agclim.he6070.bio06.tif'
p5183
sg37
g4600
sg39
g40
sg41
I4326
sg42
S'2070'
p5184
ssS'bio12'
p5185
(dp5186
g8
S'2015-03-19 10:08:15'
p5187
sg10
S'no'
p5188
sg12
S'he6070.bio12'
p5189
sg14
I16
sg15
S'bio12'
p5190
sg17
S'Annual Precipitation'
p5191
sg19
S'60'
p5192
sg21
S'he6070'
p5193
sg23
S'../views/GTiff/agclim.he6070.bio12.tif'
p5194
sg25
S'agclimate'
p5195
sg27
S'agclim.he6070.bio12'
p5196
sg29
S'Annual Precipitation'
p5197
sg31
g32
sg33
g34
sg35
S'agclim.he6070.bio12.tif'
p5198
sg37
S'agclim'
p5199
sg39
g40
sg41
I4326
sg42
S'2070'
p5200
ssS'gdd5'
p5201
(dp5202
g8
S'2015-03-19 10:08:15'
p5203
sg10
S'no'
p5204
sg12
S'he6070.gdd5'
p5205
sg14
I254
sg15
S'gdd5'
p5206
sg17
S'Growing Degree Days 5C Baseline'
p5207
sg19
S'60'
p5208
sg21
S'he6070'
p5209
sg23
S'../views/GTiff/agclim.he6070.gdd5.tif'
p5210
sg25
S'agclimate'
p5211
sg27
S'agclim.he6070.gdd5'
p5212
sg29
S'Growing Degree Days 5C Baseline'
p5213
sg31
g32
sg33
g34
sg35
S'agclim.he6070.gdd5.tif'
p5214
sg37
S'agclim'
p5215
sg39
g40
sg41
I4326
sg42
S'2070'
p5216
ssS'aridity'
p5217
(dp5218
g8
S'2015-03-19 10:08:15'
p5219
sg10
S'no'
p5220
sg12
S'he6070.aridity'
p5221
sg14
I190
sg15
S'aridity'
p5222
sg17
S'CRU Metric of Mean Annual Aridity'
p5223
sg19
S'60'
p5224
sg21
S'he6070'
p5225
sg23
S'../views/GTiff/agclim.he6070.aridity.tif'
p5226
sg25
S'agclimate'
p5227
sg27
S'agclim.he6070.aridity'
p5228
sg29
S'CRU Metric of Mean Annual Aridity'
p5229
sg31
g32
sg33
g34
sg35
S'agclim.he6070.aridity.tif'
p5230
sg37
S'agclim'
p5231
sg39
g40
sg41
I4326
sg42
S'2070'
p5232
ssS'petmn'
p5233
(dp5234
g8
S'2015-03-19 10:08:15'
p5235
sg10
S'no'
p5236
sg12
S'he6070.petmn'
p5237
sg14
I183
sg15
S'petmn'
p5238
sg17
S'CRU Mean Annual Evapotranspiration'
p5239
sg19
S'60'
p5240
sg21
S'he6070'
p5241
sg23
S'../views/GTiff/agclim.he6070.petmn.tif'
p5242
sg25
S'agclimate'
p5243
sg27
S'agclim.he6070.petmn'
p5244
sg29
S'CRU Mean Annual Evapotranspiration'
p5245
sg31
g32
sg33
g34
sg35
S'agclim.he6070.petmn.tif'
p5246
sg37
S'agclim'
p5247
sg39
g40
sg41
I4326
sg42
S'2070'
p5248
sssS'he4570'
p5249
(dp5250
S'bio06'
p5251
(dp5252
g8
S'2015-03-19 10:08:15'
p5253
sg10
S'no'
p5254
sg12
S'he4570.bio06'
p5255
sg14
I279
sg15
S'bio06'
p5256
sg17
S'Min Temperature of Coldest Month'
p5257
sg19
S'45'
p5258
sg21
S'he4570'
p5259
sg23
S'../views/GTiff/agclim.he4570.bio06.tif'
p5260
sg25
S'agclimate'
p5261
sg27
S'agclim.he4570.bio06'
p5262
sg29
S'Min Temperature of Coldest Month'
p5263
sg31
g32
sg33
g34
sg35
S'agclim.he4570.bio06.tif'
p5264
sg37
S'agclim'
p5265
sg39
g40
sg41
I4326
sg42
S'2070'
p5266
ssS'bio12'
p5267
(dp5268
g8
S'2015-03-19 10:08:15'
p5269
sg10
S'no'
p5270
sg12
S'he4570.bio12'
p5271
sg14
I130
sg15
S'bio12'
p5272
sg17
S'Annual Precipitation'
p5273
sg19
S'45'
p5274
sg21
S'he4570'
p5275
sg23
S'../views/GTiff/agclim.he4570.bio12.tif'
p5276
sg25
S'agclimate'
p5277
sg27
S'agclim.he4570.bio12'
p5278
sg29
S'Annual Precipitation'
p5279
sg31
g32
sg33
g34
sg35
S'agclim.he4570.bio12.tif'
p5280
sg37
S'agclim'
p5281
sg39
g40
sg41
I4326
sg42
S'2070'
p5282
ssS'gdd5'
p5283
(dp5284
g8
S'2015-03-19 10:08:15'
p5285
sg10
S'no'
p5286
sg12
S'he4570.gdd5'
p5287
sg14
I319
sg15
S'gdd5'
p5288
sg17
S'Growing Degree Days 5C Baseline'
p5289
sg19
S'45'
p5290
sg21
S'he4570'
p5291
sg23
S'../views/GTiff/agclim.he4570.gdd5.tif'
p5292
sg25
S'agclimate'
p5293
sg27
S'agclim.he4570.gdd5'
p5294
sg29
S'Growing Degree Days 5C Baseline'
p5295
sg31
g32
sg33
g34
sg35
S'agclim.he4570.gdd5.tif'
p5296
sg37
S'agclim'
p5297
sg39
g40
sg41
I4326
sg42
S'2070'
p5298
ssS'aridity'
p5299
(dp5300
g8
S'2015-03-19 10:08:15'
p5301
sg10
S'no'
p5302
sg12
S'he4570.aridity'
p5303
sg14
I17
sg15
S'aridity'
p5304
sg17
S'CRU Metric of Mean Annual Aridity'
p5305
sg19
S'45'
p5306
sg21
g5249
sg23
S'../views/GTiff/agclim.he4570.aridity.tif'
p5307
sg25
S'agclimate'
p5308
sg27
S'agclim.he4570.aridity'
p5309
sg29
S'CRU Metric of Mean Annual Aridity'
p5310
sg31
g32
sg33
g34
sg35
S'agclim.he4570.aridity.tif'
p5311
sg37
S'agclim'
p5312
sg39
g40
sg41
I4326
sg42
S'2070'
p5313
ssS'petmn'
p5314
(dp5315
g8
S'2015-03-19 10:08:15'
p5316
sg10
S'no'
p5317
sg12
S'he4570.petmn'
p5318
sg14
I111
sg15
S'petmn'
p5319
sg17
S'CRU Mean Annual Evapotranspiration'
p5320
sg19
S'45'
p5321
sg21
S'he4570'
p5322
sg23
S'../views/GTiff/agclim.he4570.petmn.tif'
p5323
sg25
S'agclimate'
p5324
sg27
S'agclim.he4570.petmn'
p5325
sg29
S'CRU Mean Annual Evapotranspiration'
p5326
sg31
g32
sg33
g34
sg35
S'agclim.he4570.petmn.tif'
p5327
sg37
S'agclim'
p5328
sg39
g40
sg41
I4326
sg42
S'2070'
p5329
ssssS'spat'
p5330
(dp5331
S'svd'
p5332
(dp5333
S'pc2'
p5334
(dp5335
g8
S'2015-03-19 10:08:15'
p5336
sg10
S'no'
p5337
sg12
S'svd.pc2'
p5338
sg14
I126
sg15
S'pc2'
p5339
sg17
S'PC Axis 2 of Distance Matrix'
p5340
sg19
S'current'
p5341
sg21
S'svd'
p5342
sg23
S'../views/GTiff/spat.svd.pc2.tif'
p5343
sg25
S'spatial'
p5344
sg27
S'spat.svd.pc2'
p5345
sg29
S'PC Axis 2 of Distance Matrix spatial'
p5346
sg31
g32
sg33
g34
sg35
S'spat.svd.pc2.tif'
p5347
sg37
S'spat'
p5348
sg39
g40
sg41
I4326
sg42
S'current'
p5349
ssS'pc3'
p5350
(dp5351
g8
S'2015-03-19 10:08:15'
p5352
sg10
S'no'
p5353
sg12
S'svd.pc3'
p5354
sg14
I0
sg15
S'pc3'
p5355
sg17
S'PC Axis 3 of Distance Matrix'
p5356
sg19
S'current'
p5357
sg21
g5332
sg23
S'../views/GTiff/spat.svd.pc3.tif'
p5358
sg25
S'spatial'
p5359
sg27
S'spat.svd.pc3'
p5360
sg29
S'PC Axis 3 of Distance Matrix spatial'
p5361
sg31
g32
sg33
g34
sg35
S'spat.svd.pc3.tif'
p5362
sg37
g5330
sg39
g40
sg41
I4326
sg42
S'current'
p5363
ssS'pc1'
p5364
(dp5365
g8
S'2015-03-19 10:08:15'
p5366
sg10
S'no'
p5367
sg12
S'svd.pc1'
p5368
sg14
I226
sg15
S'pc1'
p5369
sg17
S'PC Axis 1 of Distance Matrix'
p5370
sg19
S'current'
p5371
sg21
S'svd'
p5372
sg23
S'../views/GTiff/spat.svd.pc1.tif'
p5373
sg25
S'spatial'
p5374
sg27
S'spat.svd.pc1'
p5375
sg29
S'PC Axis 1 of Distance Matrix spatial'
p5376
sg31
g32
sg33
g34
sg35
S'spat.svd.pc1.tif'
p5377
sg37
S'spat'
p5378
sg39
g40
sg41
I4326
sg42
S'current'
p5379
ssssS'env'
p5380
(dp5381
S'hwsd'
p5382
(dp5383
S't_gravel'
p5384
(dp5385
g8
S'2015-03-19 10:08:15'
p5386
sg10
S'no'
p5387
sg12
S'hwsd.t_gravel'
p5388
sg14
I290
sg15
S't_gravel'
p5389
sg17
S'HWSD topsoil gravel'
p5390
sg19
S'current'
p5391
sg21
S'hwsd'
p5392
sg23
S'../views/GTiff/env.hwsd.t_gravel.tif'
p5393
sg25
S'environmental'
p5394
sg27
S'env.hwsd.t_gravel'
p5395
sg29
S'Harmonized World Soil Database topsoil gravel (% vol.)'
p5396
sg31
g32
sg33
g34
sg35
S'env.hwsd.t_gravel.tif'
p5397
sg37
S'env'
p5398
sg39
g40
sg41
I4326
sg42
S'current'
p5399
ssS't_caco3'
p5400
(dp5401
g8
S'2015-03-19 10:08:15'
p5402
sg10
S'yes'
p5403
sg12
S'hwsd.t_caco3'
p5404
sg14
I320
sg15
S't_caco3'
p5405
sg17
S'HWSD topsoil CACO3'
p5406
sg19
S'current'
p5407
sg21
S'hwsd'
p5408
sg23
S'../views/GTiff/env.hwsd.t_caco3.tif'
p5409
sg25
S'environmental'
p5410
sg27
S'env.hwsd.t_caco3'
p5411
sg29
S'Harmonized World Soil Database topsoil CACO3 (% weight)'
p5412
sg31
g32
sg33
g34
sg35
S'env.hwsd.t_caco3.tif'
p5413
sg37
S'env'
p5414
sg39
g40
sg41
I4326
sg42
S'current'
p5415
ssS't_ph'
p5416
(dp5417
g8
S'2015-03-19 10:08:15'
p5418
sg10
S'no'
p5419
sg12
S'hwsd.t_ph'
p5420
sg14
I164
sg15
S't_ph'
p5421
sg17
S'HWSD topsoil pH'
p5422
sg19
S'current'
p5423
sg21
S'hwsd'
p5424
sg23
S'../views/GTiff/env.hwsd.t_ph.tif'
p5425
sg25
S'environmental'
p5426
sg27
S'env.hwsd.t_ph'
p5427
sg29
S'Harmonized World Soil Database topsoil pH (log[H+])'
p5428
sg31
g32
sg33
g34
sg35
S'env.hwsd.t_ph.tif'
p5429
sg37
S'env'
p5430
sg39
g40
sg41
I4326
sg42
S'current'
p5431
ssS't_sand'
p5432
(dp5433
g8
S'2015-03-19 10:08:15'
p5434
sg10
S'no'
p5435
sg12
S'hwsd.t_sand'
p5436
sg14
I270
sg15
S't_sand'
p5437
sg17
S'HWSD topsoil sand'
p5438
sg19
S'current'
p5439
sg21
S'hwsd'
p5440
sg23
S'../views/GTiff/env.hwsd.t_sand.tif'
p5441
sg25
S'environmental'
p5442
sg27
S'env.hwsd.t_sand'
p5443
sg29
S'Harmonized World Soil Database topsoil sand (% frac.)'
p5444
sg31
g32
sg33
g34
sg35
S'env.hwsd.t_sand.tif'
p5445
sg37
S'env'
p5446
sg39
g40
sg41
I4326
sg42
S'current'
p5447
ssS't_ece'
p5448
(dp5449
g8
S'2015-03-19 10:08:15'
p5450
sg10
S'no'
p5451
sg12
S'hwsd.t_ece'
p5452
sg14
I14
sg15
S't_ece'
p5453
sg17
S'HWSD topsoil ECE'
p5454
sg19
S'current'
p5455
sg21
S'hwsd'
p5456
sg23
S'../views/GTiff/env.hwsd.t_ece.tif'
p5457
sg25
S'environmental'
p5458
sg27
S'env.hwsd.t_ece'
p5459
sg29
S'Harmonized World Soil Database topsoil ECE (salinity dS/m)'
p5460
sg31
g32
sg33
g34
sg35
S'env.hwsd.t_ece.tif'
p5461
sg37
S'env'
p5462
sg39
g40
sg41
I4326
sg42
S'current'
p5463
ssS't_silt'
p5464
(dp5465
g8
S'2015-03-19 10:08:15'
p5466
sg10
S'no'
p5467
sg12
S'hwsd.t_silt'
p5468
sg14
I143
sg15
S't_silt'
p5469
sg17
S'HWSD topsoil silt'
p5470
sg19
S'current'
p5471
sg21
S'hwsd'
p5472
sg23
S'../views/GTiff/env.hwsd.t_silt.tif'
p5473
sg25
S'environmental'
p5474
sg27
S'env.hwsd.t_silt'
p5475
sg29
S'Harmonized World Soil Database topsoil silt (% frac.)'
p5476
sg31
g32
sg33
g34
sg35
S'env.hwsd.t_silt.tif'
p5477
sg37
S'env'
p5478
sg39
g40
sg41
I4326
sg42
S'current'
p5479
ssS't_clay'
p5480
(dp5481
g8
S'2015-03-19 10:08:15'
p5482
sg10
S'no'
p5483
sg12
S'hwsd.t_clay'
p5484
sg14
I100
sg15
S't_clay'
p5485
sg17
S'HWSD topsoil clay'
p5486
sg19
S'current'
p5487
sg21
S'hwsd'
p5488
sg23
S'../views/GTiff/env.hwsd.t_clay.tif'
p5489
sg25
S'environmental'
p5490
sg27
S'env.hwsd.t_clay'
p5491
sg29
S'Harmonized World Soil Database topsoil clay (% frac.)'
p5492
sg31
g32
sg33
g34
sg35
S'env.hwsd.t_clay.tif'
p5493
sg37
S'env'
p5494
sg39
g40
sg41
I4326
sg42
S'current'
p5495
ssS't_caso4'
p5496
(dp5497
g8
S'2015-03-19 10:08:15'
p5498
sg10
S'yes'
p5499
sg12
S'hwsd.t_caso4'
p5500
sg14
I10
sg15
S't_caso4'
p5501
sg17
S'HWSD topsoil CASO4'
p5502
sg19
S'current'
p5503
sg21
g5382
sg23
S'../views/GTiff/env.hwsd.t_caso4.tif'
p5504
sg25
S'environmental'
p5505
sg27
S'env.hwsd.t_caso4'
p5506
sg29
S'Harmonized World Soil Database topsoil CASO4 (% weight)'
p5507
sg31
g32
sg33
g34
sg35
S'env.hwsd.t_caso4.tif'
p5508
sg37
g5380
sg39
g40
sg41
I4326
sg42
S'current'
p5509
ssS't_cecsoil'
p5510
(dp5511
g8
S'2015-03-19 10:08:15'
p5512
sg10
S'yes'
p5513
sg12
S'hwsd.t_cecsoil'
p5514
sg14
I262
sg15
S't_cecsoil'
p5515
sg17
S'HWSD topsoil CECsoil'
p5516
sg19
S'current'
p5517
sg21
S'hwsd'
p5518
sg23
S'../views/GTiff/env.hwsd.t_cecsoil.tif'
p5519
sg25
S'environmental'
p5520
sg27
S'env.hwsd.t_cecsoil'
p5521
sg29
S'Harmonized World Soil Database topsoil CECsoil (cmol/kg)'
p5522
sg31
g32
sg33
g34
sg35
S'env.hwsd.t_cecsoil.tif'
p5523
sg37
S'env'
p5524
sg39
g40
sg41
I4326
sg42
S'current'
p5525
ssS't_oc'
p5526
(dp5527
g8
S'2015-03-19 10:08:15'
p5528
sg10
S'no'
p5529
sg12
S'hwsd.t_oc'
p5530
sg14
I343
sg15
S't_oc'
p5531
sg17
S'HWSD topsoil oc'
p5532
sg19
S'current'
p5533
sg21
S'hwsd'
p5534
sg23
S'../views/GTiff/env.hwsd.t_oc.tif'
p5535
sg25
S'environmental'
p5536
sg27
S'env.hwsd.t_oc'
p5537
sg29
S'Harmonized World Soil Database topsoil organic carbon (% weight)'
p5538
sg31
g32
sg33
g34
sg35
S'env.hwsd.t_oc.tif'
p5539
sg37
S'env'
p5540
sg39
g40
sg41
I4326
sg42
S'current'
p5541
sssS'gmted2010'
p5542
(dp5543
S'elev_mean'
p5544
(dp5545
g8
S'2015-03-19 10:08:15'
p5546
sg10
S'no'
p5547
sg12
S'gmted2010.elev_mean'
p5548
sg14
I104
sg15
S'elev_mean'
p5549
sg17
S'USGS GMTED2010 Mean Elevation'
p5550
sg19
S'current'
p5551
sg21
g5542
sg23
S'../views/GTiff/env.gmted2010.elev_mean.tif'
p5552
sg25
S'environmental'
p5553
sg27
S'env.gmted2010.elev_mean'
p5554
sg29
S'USGS GMTED2010 Mean Elevation'
p5555
sg31
g32
sg33
g34
sg35
S'env.gmted2010.elev_mean.tif'
p5556
sg37
S'env'
p5557
sg39
g40
sg41
I4326
sg42
S'current'
p5558
ssss.