(dp1
S'clim'
p2
(dp3
S'he8550'
p4
(dp5
S'bio10'
p6
(dp7
S'created_at'
p8
S'2015-03-16 22:08:29'
p9
sS'envLayerType'
p10
S'he8550.bio10'
p11
sS'Name'
p12
I329
sS'typeCode'
p13
S'bio10'
p14
sS'typeCodeDescription'
p15
S'Mean Temperature of Warmest Quarter'
p16
sS'RCP'
p17
S'85'
p18
sS'bioclim'
p19
S'he8550'
p20
sS'filePath'
p21
S'../views/GTiff/clim.he8550.bio10.tif'
p22
sS'filterType'
p23
S'climate'
p24
sS'fullname'
p25
S'clim.he8550.bio10'
p26
sS'layerDescription'
p27
S'Mean Temperature of Warmest Quarter HE RCP85 2050'
p28
sS'dataFormat'
p29
S'GTiff'
p30
sS'units'
p31
S'dd'
p32
sS'title'
p33
S'clim.he8550.bio10.tif'
p34
sS'model'
p35
S'clim'
p36
sS'resolution'
p37
S'30'
p38
sS'epsgCode'
p39
I4326
sS'projectionDate'
p40
S'2050'
p41
ssS'bio16'
p42
(dp43
g8
S'2015-03-16 22:08:29'
p44
sg10
S'he8550.bio16'
p45
sg12
I262
sg13
S'bio16'
p46
sg15
S'Precipitation of Wettest Quarter'
p47
sg17
S'85'
p48
sg19
S'he8550'
p49
sg21
S'../views/GTiff/clim.he8550.bio16.tif'
p50
sg23
S'climate'
p51
sg25
S'clim.he8550.bio16'
p52
sg27
S'Precipitation of Wettest Quarter HE RCP85 2050'
p53
sg29
g30
sg31
g32
sg33
S'clim.he8550.bio16.tif'
p54
sg35
S'clim'
p55
sg37
g38
sg39
I4326
sg40
S'2050'
p56
ssS'bio06'
p57
(dp58
g8
S'2015-03-16 22:08:29'
p59
sg10
S'he8550.bio06'
p60
sg12
I233
sg13
S'bio06'
p61
sg15
S'Min Temperature of Coldest Month'
p62
sg17
S'85'
p63
sg19
S'he8550'
p64
sg21
S'../views/GTiff/clim.he8550.bio06.tif'
p65
sg23
S'climate'
p66
sg25
S'clim.he8550.bio06'
p67
sg27
S'Min Temperature of Coldest Month HE RCP85 2050'
p68
sg29
g30
sg31
g32
sg33
S'clim.he8550.bio06.tif'
p69
sg35
S'clim'
p70
sg37
g38
sg39
I4326
sg40
S'2050'
p71
ssS'bio17'
p72
(dp73
g8
S'2015-03-16 22:08:29'
p74
sg10
S'he8550.bio17'
p75
sg12
I234
sg13
S'bio17'
p76
sg15
S'Precipitation of Driest Quarter'
p77
sg17
S'85'
p78
sg19
S'he8550'
p79
sg21
S'../views/GTiff/clim.he8550.bio17.tif'
p80
sg23
S'climate'
p81
sg25
S'clim.he8550.bio17'
p82
sg27
S'Precipitation of Driest Quarter HE RCP85 2050'
p83
sg29
g30
sg31
g32
sg33
S'clim.he8550.bio17.tif'
p84
sg35
S'clim'
p85
sg37
g38
sg39
I4326
sg40
S'2050'
p86
ssS'bio15'
p87
(dp88
g8
S'2015-03-16 22:08:29'
p89
sg10
S'he8550.bio15'
p90
sg12
I342
sg13
S'bio15'
p91
sg15
S'Precipitation Seasonality (Coefficient of Variation)'
p92
sg17
S'85'
p93
sg19
S'he8550'
p94
sg21
S'../views/GTiff/clim.he8550.bio15.tif'
p95
sg23
S'climate'
p96
sg25
S'clim.he8550.bio15'
p97
sg27
S'Precipitation Seasonality (Coefficient of Variation) HE RCP85 2050'
p98
sg29
g30
sg31
g32
sg33
S'clim.he8550.bio15.tif'
p99
sg35
S'clim'
p100
sg37
g38
sg39
I4326
sg40
S'2050'
p101
ssS'bio05'
p102
(dp103
g8
S'2015-03-16 22:08:29'
p104
sg10
S'he8550.bio05'
p105
sg12
I341
sg13
S'bio05'
p106
sg15
S'Max Temperature of Warmest Month'
p107
sg17
S'85'
p108
sg19
S'he8550'
p109
sg21
S'../views/GTiff/clim.he8550.bio05.tif'
p110
sg23
S'climate'
p111
sg25
S'clim.he8550.bio05'
p112
sg27
S'Max Temperature of Warmest Month HE RCP85 2050'
p113
sg29
g30
sg31
g32
sg33
S'clim.he8550.bio05.tif'
p114
sg35
S'clim'
p115
sg37
g38
sg39
I4326
sg40
S'2050'
p116
ssS'bio07'
p117
(dp118
g8
S'2015-03-16 22:08:29'
p119
sg10
S'he8550.bio07'
p120
sg12
I287
sg13
S'bio07'
p121
sg15
S'Temperature Annual Range (BIO5-BIO6)'
p122
sg17
S'85'
p123
sg19
S'he8550'
p124
sg21
S'../views/GTiff/clim.he8550.bio07.tif'
p125
sg23
S'climate'
p126
sg25
S'clim.he8550.bio07'
p127
sg27
S'Temperature Annual Range (BIO5-BIO6) HE RCP85 2050'
p128
sg29
g30
sg31
g32
sg33
S'clim.he8550.bio07.tif'
p129
sg35
S'clim'
p130
sg37
g38
sg39
I4326
sg40
S'2050'
p131
ssS'bio11'
p132
(dp133
g8
S'2015-03-16 22:08:29'
p134
sg10
S'he8550.bio11'
p135
sg12
I226
sg13
S'bio11'
p136
sg15
S'Mean Temperature of Coldest Quarter'
p137
sg17
S'85'
p138
sg19
S'he8550'
p139
sg21
S'../views/GTiff/clim.he8550.bio11.tif'
p140
sg23
S'climate'
p141
sg25
S'clim.he8550.bio11'
p142
sg27
S'Mean Temperature of Coldest Quarter HE RCP85 2050'
p143
sg29
g30
sg31
g32
sg33
S'clim.he8550.bio11.tif'
p144
sg35
S'clim'
p145
sg37
g38
sg39
I4326
sg40
S'2050'
p146
ssS'bio12'
p147
(dp148
g8
S'2015-03-16 22:08:29'
p149
sg10
S'he8550.bio12'
p150
sg12
I161
sg13
S'bio12'
p151
sg15
S'Annual Precipitation'
p152
sg17
S'85'
p153
sg19
S'he8550'
p154
sg21
S'../views/GTiff/clim.he8550.bio12.tif'
p155
sg23
S'climate'
p156
sg25
S'clim.he8550.bio12'
p157
sg27
S'Annual Precipitation HE RCP85 2050'
p158
sg29
g30
sg31
g32
sg33
S'clim.he8550.bio12.tif'
p159
sg35
S'clim'
p160
sg37
g38
sg39
I4326
sg40
S'2050'
p161
ssS'bio13'
p162
(dp163
g8
S'2015-03-16 22:08:29'
p164
sg10
S'he8550.bio13'
p165
sg12
I147
sg13
S'bio13'
p166
sg15
S'Precipitation of Wettest Month'
p167
sg17
S'85'
p168
sg19
S'he8550'
p169
sg21
S'../views/GTiff/clim.he8550.bio13.tif'
p170
sg23
S'climate'
p171
sg25
S'clim.he8550.bio13'
p172
sg27
S'Precipitation of Wettest Month HE RCP85 2050'
p173
sg29
g30
sg31
g32
sg33
S'clim.he8550.bio13.tif'
p174
sg35
S'clim'
p175
sg37
g38
sg39
I4326
sg40
S'2050'
p176
ssS'bio03'
p177
(dp178
g8
S'2015-03-16 22:08:29'
p179
sg10
S'he8550.bio03'
p180
sg12
I112
sg13
S'bio03'
p181
sg15
S'Isothermality (BIO2/BIO7) (* 100)'
p182
sg17
S'85'
p183
sg19
S'he8550'
p184
sg21
S'../views/GTiff/clim.he8550.bio03.tif'
p185
sg23
S'climate'
p186
sg25
S'clim.he8550.bio03'
p187
sg27
S'Isothermality (BIO2/BIO7) (* 100) HE RCP85 2050'
p188
sg29
g30
sg31
g32
sg33
S'clim.he8550.bio03.tif'
p189
sg35
S'clim'
p190
sg37
g38
sg39
I4326
sg40
S'2050'
p191
ssS'bio02'
p192
(dp193
g8
S'2015-03-16 22:08:29'
p194
sg10
S'he8550.bio02'
p195
sg12
I108
sg13
S'bio02'
p196
sg15
S'Mean Diurnal Range (Mean of monthly (max temp - min temp))'
p197
sg17
S'85'
p198
sg19
S'he8550'
p199
sg21
S'../views/GTiff/clim.he8550.bio02.tif'
p200
sg23
S'climate'
p201
sg25
S'clim.he8550.bio02'
p202
sg27
S'Mean Diurnal Range (Mean of monthly (max temp - min temp)) HE RCP85 2050'
p203
sg29
g30
sg31
g32
sg33
S'clim.he8550.bio02.tif'
p204
sg35
S'clim'
p205
sg37
g38
sg39
I4326
sg40
S'2050'
p206
ssS'bio01'
p207
(dp208
g8
S'2015-03-16 22:08:29'
p209
sg10
S'he8550.bio01'
p210
sg12
I4
sg13
S'bio01'
p211
sg15
S'Annual Mean Temperature'
p212
sg17
S'85'
p213
sg19
g4
sg21
S'../views/GTiff/clim.he8550.bio01.tif'
p214
sg23
S'climate'
p215
sg25
S'clim.he8550.bio01'
p216
sg27
S'Annual Mean Temperature HE RCP85 2050'
p217
sg29
g30
sg31
g32
sg33
S'clim.he8550.bio01.tif'
p218
sg35
S'clim'
p219
sg37
g38
sg39
I4326
sg40
S'2050'
p220
ssS'bio19'
p221
(dp222
g8
S'2015-03-16 22:08:29'
p223
sg10
S'he8550.bio19'
p224
sg12
I142
sg13
S'bio19'
p225
sg15
S'Precipitation of Coldest Quarter'
p226
sg17
S'85'
p227
sg19
S'he8550'
p228
sg21
S'../views/GTiff/clim.he8550.bio19.tif'
p229
sg23
S'climate'
p230
sg25
S'clim.he8550.bio19'
p231
sg27
S'Precipitation of Coldest Quarter HE RCP85 2050'
p232
sg29
g30
sg31
g32
sg33
S'clim.he8550.bio19.tif'
p233
sg35
S'clim'
p234
sg37
g38
sg39
I4326
sg40
S'2050'
p235
ssS'bio18'
p236
(dp237
g8
S'2015-03-16 22:08:29'
p238
sg10
S'he8550.bio18'
p239
sg12
I125
sg13
S'bio18'
p240
sg15
S'Precipitation of Warmest Quarter'
p241
sg17
S'85'
p242
sg19
S'he8550'
p243
sg21
S'../views/GTiff/clim.he8550.bio18.tif'
p244
sg23
S'climate'
p245
sg25
S'clim.he8550.bio18'
p246
sg27
S'Precipitation of Warmest Quarter HE RCP85 2050'
p247
sg29
g30
sg31
g32
sg33
S'clim.he8550.bio18.tif'
p248
sg35
S'clim'
p249
sg37
g38
sg39
I4326
sg40
S'2050'
p250
ssS'bio14'
p251
(dp252
g8
S'2015-03-16 22:08:29'
p253
sg10
S'he8550.bio14'
p254
sg12
I79
sg13
S'bio14'
p255
sg15
S'Precipitation of Driest Month'
p256
sg17
S'85'
p257
sg19
S'he8550'
p258
sg21
S'../views/GTiff/clim.he8550.bio14.tif'
p259
sg23
S'climate'
p260
sg25
S'clim.he8550.bio14'
p261
sg27
S'Precipitation of Driest Month HE RCP85 2050'
p262
sg29
g30
sg31
g32
sg33
S'clim.he8550.bio14.tif'
p263
sg35
S'clim'
p264
sg37
g38
sg39
I4326
sg40
S'2050'
p265
ssS'bio04'
p266
(dp267
g8
S'2015-03-16 22:08:29'
p268
sg10
S'he8550.bio04'
p269
sg12
I174
sg13
S'bio04'
p270
sg15
S'Temperature Seasonality (standard deviation *100)'
p271
sg17
S'85'
p272
sg19
S'he8550'
p273
sg21
S'../views/GTiff/clim.he8550.bio04.tif'
p274
sg23
S'climate'
p275
sg25
S'clim.he8550.bio04'
p276
sg27
S'Temperature Seasonality (standard deviation *100) HE RCP85 2050'
p277
sg29
g30
sg31
g32
sg33
S'clim.he8550.bio04.tif'
p278
sg35
S'clim'
p279
sg37
g38
sg39
I4326
sg40
S'2050'
p280
ssS'bio09'
p281
(dp282
g8
S'2015-03-16 22:08:29'
p283
sg10
S'he8550.bio09'
p284
sg12
I101
sg13
S'bio09'
p285
sg15
S'Mean Temperature of Driest Quarter'
p286
sg17
S'85'
p287
sg19
S'he8550'
p288
sg21
S'../views/GTiff/clim.he8550.bio09.tif'
p289
sg23
S'climate'
p290
sg25
S'clim.he8550.bio09'
p291
sg27
S'Mean Temperature of Driest Quarter HE RCP85 2050'
p292
sg29
g30
sg31
g32
sg33
S'clim.he8550.bio09.tif'
p293
sg35
S'clim'
p294
sg37
g38
sg39
I4326
sg40
S'2050'
p295
ssS'bio08'
p296
(dp297
g8
S'2015-03-16 22:08:29'
p298
sg10
S'he8550.bio08'
p299
sg12
I245
sg13
S'bio08'
p300
sg15
S'Mean Temperature of Wettest Quarter'
p301
sg17
S'85'
p302
sg19
S'he8550'
p303
sg21
S'../views/GTiff/clim.he8550.bio08.tif'
p304
sg23
S'climate'
p305
sg25
S'clim.he8550.bio08'
p306
sg27
S'Mean Temperature of Wettest Quarter HE RCP85 2050'
p307
sg29
g30
sg31
g32
sg33
S'clim.he8550.bio08.tif'
p308
sg35
S'clim'
p309
sg37
g38
sg39
I4326
sg40
S'2050'
p310
sssS'he2670'
p311
(dp312
S'bio10'
p313
(dp314
g8
S'2015-03-16 22:08:29'
p315
sg10
S'he2670.bio10'
p316
sg12
I115
sg13
S'bio10'
p317
sg15
S'Mean Temperature of Warmest Quarter'
p318
sg17
S'26'
p319
sg19
S'he2670'
p320
sg21
S'../views/GTiff/clim.he2670.bio10.tif'
p321
sg23
S'climate'
p322
sg25
S'clim.he2670.bio10'
p323
sg27
S'Mean Temperature of Warmest Quarter HE RCP26 2070'
p324
sg29
g30
sg31
g32
sg33
S'clim.he2670.bio10.tif'
p325
sg35
S'clim'
p326
sg37
g38
sg39
I4326
sg40
S'2070'
p327
ssS'bio01'
p328
(dp329
g8
S'2015-03-16 22:08:29'
p330
sg10
S'he2670.bio01'
p331
sg12
I305
sg13
S'bio01'
p332
sg15
S'Annual Mean Temperature'
p333
sg17
S'26'
p334
sg19
S'he2670'
p335
sg21
S'../views/GTiff/clim.he2670.bio01.tif'
p336
sg23
S'climate'
p337
sg25
S'clim.he2670.bio01'
p338
sg27
S'Annual Mean Temperature HE RCP26 2070'
p339
sg29
g30
sg31
g32
sg33
S'clim.he2670.bio01.tif'
p340
sg35
S'clim'
p341
sg37
g38
sg39
I4326
sg40
S'2070'
p342
ssS'bio11'
p343
(dp344
g8
S'2015-03-16 22:08:29'
p345
sg10
S'he2670.bio11'
p346
sg12
I338
sg13
S'bio11'
p347
sg15
S'Mean Temperature of Coldest Quarter'
p348
sg17
S'26'
p349
sg19
S'he2670'
p350
sg21
S'../views/GTiff/clim.he2670.bio11.tif'
p351
sg23
S'climate'
p352
sg25
S'clim.he2670.bio11'
p353
sg27
S'Mean Temperature of Coldest Quarter HE RCP26 2070'
p354
sg29
g30
sg31
g32
sg33
S'clim.he2670.bio11.tif'
p355
sg35
S'clim'
p356
sg37
g38
sg39
I4326
sg40
S'2070'
p357
ssS'bio15'
p358
(dp359
g8
S'2015-03-16 22:08:29'
p360
sg10
S'he2670.bio15'
p361
sg12
I317
sg13
S'bio15'
p362
sg15
S'Precipitation Seasonality (Coefficient of Variation)'
p363
sg17
S'26'
p364
sg19
S'he2670'
p365
sg21
S'../views/GTiff/clim.he2670.bio15.tif'
p366
sg23
S'climate'
p367
sg25
S'clim.he2670.bio15'
p368
sg27
S'Precipitation Seasonality (Coefficient of Variation) HE RCP26 2070'
p369
sg29
g30
sg31
g32
sg33
S'clim.he2670.bio15.tif'
p370
sg35
S'clim'
p371
sg37
g38
sg39
I4326
sg40
S'2070'
p372
ssS'bio12'
p373
(dp374
g8
S'2015-03-16 22:08:29'
p375
sg10
S'he2670.bio12'
p376
sg12
I288
sg13
S'bio12'
p377
sg15
S'Annual Precipitation'
p378
sg17
S'26'
p379
sg19
S'he2670'
p380
sg21
S'../views/GTiff/clim.he2670.bio12.tif'
p381
sg23
S'climate'
p382
sg25
S'clim.he2670.bio12'
p383
sg27
S'Annual Precipitation HE RCP26 2070'
p384
sg29
g30
sg31
g32
sg33
S'clim.he2670.bio12.tif'
p385
sg35
S'clim'
p386
sg37
g38
sg39
I4326
sg40
S'2070'
p387
ssS'bio07'
p388
(dp389
g8
S'2015-03-16 22:08:29'
p390
sg10
S'he2670.bio07'
p391
sg12
I93
sg13
S'bio07'
p392
sg15
S'Temperature Annual Range (BIO5-BIO6)'
p393
sg17
S'26'
p394
sg19
S'he2670'
p395
sg21
S'../views/GTiff/clim.he2670.bio07.tif'
p396
sg23
S'climate'
p397
sg25
S'clim.he2670.bio07'
p398
sg27
S'Temperature Annual Range (BIO5-BIO6) HE RCP26 2070'
p399
sg29
g30
sg31
g32
sg33
S'clim.he2670.bio07.tif'
p400
sg35
S'clim'
p401
sg37
g38
sg39
I4326
sg40
S'2070'
p402
ssS'bio06'
p403
(dp404
g8
S'2015-03-16 22:08:29'
p405
sg10
S'he2670.bio06'
p406
sg12
I332
sg13
S'bio06'
p407
sg15
S'Min Temperature of Coldest Month'
p408
sg17
S'26'
p409
sg19
S'he2670'
p410
sg21
S'../views/GTiff/clim.he2670.bio06.tif'
p411
sg23
S'climate'
p412
sg25
S'clim.he2670.bio06'
p413
sg27
S'Min Temperature of Coldest Month HE RCP26 2070'
p414
sg29
g30
sg31
g32
sg33
S'clim.he2670.bio06.tif'
p415
sg35
S'clim'
p416
sg37
g38
sg39
I4326
sg40
S'2070'
p417
ssS'bio05'
p418
(dp419
g8
S'2015-03-16 22:08:29'
p420
sg10
S'he2670.bio05'
p421
sg12
I255
sg13
S'bio05'
p422
sg15
S'Max Temperature of Warmest Month'
p423
sg17
S'26'
p424
sg19
S'he2670'
p425
sg21
S'../views/GTiff/clim.he2670.bio05.tif'
p426
sg23
S'climate'
p427
sg25
S'clim.he2670.bio05'
p428
sg27
S'Max Temperature of Warmest Month HE RCP26 2070'
p429
sg29
g30
sg31
g32
sg33
S'clim.he2670.bio05.tif'
p430
sg35
S'clim'
p431
sg37
g38
sg39
I4326
sg40
S'2070'
p432
ssS'bio13'
p433
(dp434
g8
S'2015-03-16 22:08:29'
p435
sg10
S'he2670.bio13'
p436
sg12
I242
sg13
S'bio13'
p437
sg15
S'Precipitation of Wettest Month'
p438
sg17
S'26'
p439
sg19
S'he2670'
p440
sg21
S'../views/GTiff/clim.he2670.bio13.tif'
p441
sg23
S'climate'
p442
sg25
S'clim.he2670.bio13'
p443
sg27
S'Precipitation of Wettest Month HE RCP26 2070'
p444
sg29
g30
sg31
g32
sg33
S'clim.he2670.bio13.tif'
p445
sg35
S'clim'
p446
sg37
g38
sg39
I4326
sg40
S'2070'
p447
ssS'bio14'
p448
(dp449
g8
S'2015-03-16 22:08:29'
p450
sg10
S'he2670.bio14'
p451
sg12
I74
sg13
S'bio14'
p452
sg15
S'Precipitation of Driest Month'
p453
sg17
S'26'
p454
sg19
S'he2670'
p455
sg21
S'../views/GTiff/clim.he2670.bio14.tif'
p456
sg23
S'climate'
p457
sg25
S'clim.he2670.bio14'
p458
sg27
S'Precipitation of Driest Month HE RCP26 2070'
p459
sg29
g30
sg31
g32
sg33
S'clim.he2670.bio14.tif'
p460
sg35
S'clim'
p461
sg37
g38
sg39
I4326
sg40
S'2070'
p462
ssS'bio02'
p463
(dp464
g8
S'2015-03-16 22:08:29'
p465
sg10
S'he2670.bio02'
p466
sg12
I61
sg13
S'bio02'
p467
sg15
S'Mean Diurnal Range (Mean of monthly (max temp - min temp))'
p468
sg17
S'26'
p469
sg19
S'he2670'
p470
sg21
S'../views/GTiff/clim.he2670.bio02.tif'
p471
sg23
S'climate'
p472
sg25
S'clim.he2670.bio02'
p473
sg27
S'Mean Diurnal Range (Mean of monthly (max temp - min temp)) HE RCP26 2070'
p474
sg29
g30
sg31
g32
sg33
S'clim.he2670.bio02.tif'
p475
sg35
S'clim'
p476
sg37
g38
sg39
I4326
sg40
S'2070'
p477
ssS'bio16'
p478
(dp479
g8
S'2015-03-16 22:08:29'
p480
sg10
S'he2670.bio16'
p481
sg12
I295
sg13
S'bio16'
p482
sg15
S'Precipitation of Wettest Quarter'
p483
sg17
S'26'
p484
sg19
S'he2670'
p485
sg21
S'../views/GTiff/clim.he2670.bio16.tif'
p486
sg23
S'climate'
p487
sg25
S'clim.he2670.bio16'
p488
sg27
S'Precipitation of Wettest Quarter HE RCP26 2070'
p489
sg29
g30
sg31
g32
sg33
S'clim.he2670.bio16.tif'
p490
sg35
S'clim'
p491
sg37
g38
sg39
I4326
sg40
S'2070'
p492
ssS'bio17'
p493
(dp494
g8
S'2015-03-16 22:08:29'
p495
sg10
S'he2670.bio17'
p496
sg12
I314
sg13
S'bio17'
p497
sg15
S'Precipitation of Driest Quarter'
p498
sg17
S'26'
p499
sg19
S'he2670'
p500
sg21
S'../views/GTiff/clim.he2670.bio17.tif'
p501
sg23
S'climate'
p502
sg25
S'clim.he2670.bio17'
p503
sg27
S'Precipitation of Driest Quarter HE RCP26 2070'
p504
sg29
g30
sg31
g32
sg33
S'clim.he2670.bio17.tif'
p505
sg35
S'clim'
p506
sg37
g38
sg39
I4326
sg40
S'2070'
p507
ssS'bio18'
p508
(dp509
g8
S'2015-03-16 22:08:29'
p510
sg10
S'he2670.bio18'
p511
sg12
I300
sg13
S'bio18'
p512
sg15
S'Precipitation of Warmest Quarter'
p513
sg17
S'26'
p514
sg19
S'he2670'
p515
sg21
S'../views/GTiff/clim.he2670.bio18.tif'
p516
sg23
S'climate'
p517
sg25
S'clim.he2670.bio18'
p518
sg27
S'Precipitation of Warmest Quarter HE RCP26 2070'
p519
sg29
g30
sg31
g32
sg33
S'clim.he2670.bio18.tif'
p520
sg35
S'clim'
p521
sg37
g38
sg39
I4326
sg40
S'2070'
p522
ssS'bio19'
p523
(dp524
g8
S'2015-03-16 22:08:29'
p525
sg10
S'he2670.bio19'
p526
sg12
I109
sg13
S'bio19'
p527
sg15
S'Precipitation of Coldest Quarter'
p528
sg17
S'26'
p529
sg19
S'he2670'
p530
sg21
S'../views/GTiff/clim.he2670.bio19.tif'
p531
sg23
S'climate'
p532
sg25
S'clim.he2670.bio19'
p533
sg27
S'Precipitation of Coldest Quarter HE RCP26 2070'
p534
sg29
g30
sg31
g32
sg33
S'clim.he2670.bio19.tif'
p535
sg35
S'clim'
p536
sg37
g38
sg39
I4326
sg40
S'2070'
p537
ssS'bio04'
p538
(dp539
g8
S'2015-03-16 22:08:29'
p540
sg10
S'he2670.bio04'
p541
sg12
I335
sg13
S'bio04'
p542
sg15
S'Temperature Seasonality (standard deviation *100)'
p543
sg17
S'26'
p544
sg19
S'he2670'
p545
sg21
S'../views/GTiff/clim.he2670.bio04.tif'
p546
sg23
S'climate'
p547
sg25
S'clim.he2670.bio04'
p548
sg27
S'Temperature Seasonality (standard deviation *100) HE RCP26 2070'
p549
sg29
g30
sg31
g32
sg33
S'clim.he2670.bio04.tif'
p550
sg35
S'clim'
p551
sg37
g38
sg39
I4326
sg40
S'2070'
p552
ssS'bio03'
p553
(dp554
g8
S'2015-03-16 22:08:29'
p555
sg10
S'he2670.bio03'
p556
sg12
I132
sg13
S'bio03'
p557
sg15
S'Isothermality (BIO2/BIO7) (* 100)'
p558
sg17
S'26'
p559
sg19
S'he2670'
p560
sg21
S'../views/GTiff/clim.he2670.bio03.tif'
p561
sg23
S'climate'
p562
sg25
S'clim.he2670.bio03'
p563
sg27
S'Isothermality (BIO2/BIO7) (* 100) HE RCP26 2070'
p564
sg29
g30
sg31
g32
sg33
S'clim.he2670.bio03.tif'
p565
sg35
S'clim'
p566
sg37
g38
sg39
I4326
sg40
S'2070'
p567
ssS'bio09'
p568
(dp569
g8
S'2015-03-16 22:08:29'
p570
sg10
S'he2670.bio09'
p571
sg12
I11
sg13
S'bio09'
p572
sg15
S'Mean Temperature of Driest Quarter'
p573
sg17
S'26'
p574
sg19
g311
sg21
S'../views/GTiff/clim.he2670.bio09.tif'
p575
sg23
S'climate'
p576
sg25
S'clim.he2670.bio09'
p577
sg27
S'Mean Temperature of Driest Quarter HE RCP26 2070'
p578
sg29
g30
sg31
g32
sg33
S'clim.he2670.bio09.tif'
p579
sg35
S'clim'
p580
sg37
g38
sg39
I4326
sg40
S'2070'
p581
ssS'bio08'
p582
(dp583
g8
S'2015-03-16 22:08:29'
p584
sg10
S'he2670.bio08'
p585
sg12
I117
sg13
S'bio08'
p586
sg15
S'Mean Temperature of Wettest Quarter'
p587
sg17
S'26'
p588
sg19
S'he2670'
p589
sg21
S'../views/GTiff/clim.he2670.bio08.tif'
p590
sg23
S'climate'
p591
sg25
S'clim.he2670.bio08'
p592
sg27
S'Mean Temperature of Wettest Quarter HE RCP26 2070'
p593
sg29
g30
sg31
g32
sg33
S'clim.he2670.bio08.tif'
p594
sg35
S'clim'
p595
sg37
g38
sg39
I4326
sg40
S'2070'
p596
sssS'ac4550'
p597
(dp598
S'bio10'
p599
(dp600
g8
S'2015-03-16 22:08:29'
p601
sg10
S'ac4550.bio10'
p602
sg12
I252
sg13
S'bio10'
p603
sg15
S'Mean Temperature of Warmest Quarter'
p604
sg17
S'45'
p605
sg19
S'ac4550'
p606
sg21
S'../views/GTiff/clim.ac4550.bio10.tif'
p607
sg23
S'climate'
p608
sg25
S'clim.ac4550.bio10'
p609
sg27
S'Mean Temperature of Warmest Quarter AC RCP45 2050'
p610
sg29
g30
sg31
g32
sg33
S'clim.ac4550.bio10.tif'
p611
sg35
S'clim'
p612
sg37
g38
sg39
I4326
sg40
S'2050'
p613
ssS'bio19'
p614
(dp615
g8
S'2015-03-16 22:08:29'
p616
sg10
S'ac4550.bio19'
p617
sg12
I186
sg13
S'bio19'
p618
sg15
S'Precipitation of Coldest Quarter'
p619
sg17
S'45'
p620
sg19
S'ac4550'
p621
sg21
S'../views/GTiff/clim.ac4550.bio19.tif'
p622
sg23
S'climate'
p623
sg25
S'clim.ac4550.bio19'
p624
sg27
S'Precipitation of Coldest Quarter AC RCP45 2050'
p625
sg29
g30
sg31
g32
sg33
S'clim.ac4550.bio19.tif'
p626
sg35
S'clim'
p627
sg37
g38
sg39
I4326
sg40
S'2050'
p628
ssS'bio13'
p629
(dp630
g8
S'2015-03-16 22:08:29'
p631
sg10
S'ac4550.bio13'
p632
sg12
I250
sg13
S'bio13'
p633
sg15
S'Precipitation of Wettest Month'
p634
sg17
S'45'
p635
sg19
S'ac4550'
p636
sg21
S'../views/GTiff/clim.ac4550.bio13.tif'
p637
sg23
S'climate'
p638
sg25
S'clim.ac4550.bio13'
p639
sg27
S'Precipitation of Wettest Month AC RCP45 2050'
p640
sg29
g30
sg31
g32
sg33
S'clim.ac4550.bio13.tif'
p641
sg35
S'clim'
p642
sg37
g38
sg39
I4326
sg40
S'2050'
p643
ssS'bio06'
p644
(dp645
g8
S'2015-03-16 22:08:29'
p646
sg10
S'ac4550.bio06'
p647
sg12
I311
sg13
S'bio06'
p648
sg15
S'Min Temperature of Coldest Month'
p649
sg17
S'45'
p650
sg19
S'ac4550'
p651
sg21
S'../views/GTiff/clim.ac4550.bio06.tif'
p652
sg23
S'climate'
p653
sg25
S'clim.ac4550.bio06'
p654
sg27
S'Min Temperature of Coldest Month AC RCP45 2050'
p655
sg29
g30
sg31
g32
sg33
S'clim.ac4550.bio06.tif'
p656
sg35
S'clim'
p657
sg37
g38
sg39
I4326
sg40
S'2050'
p658
ssS'bio16'
p659
(dp660
g8
S'2015-03-16 22:08:29'
p661
sg10
S'ac4550.bio16'
p662
sg12
I343
sg13
S'bio16'
p663
sg15
S'Precipitation of Wettest Quarter'
p664
sg17
S'45'
p665
sg19
S'ac4550'
p666
sg21
S'../views/GTiff/clim.ac4550.bio16.tif'
p667
sg23
S'climate'
p668
sg25
S'clim.ac4550.bio16'
p669
sg27
S'Precipitation of Wettest Quarter AC RCP45 2050'
p670
sg29
g30
sg31
g32
sg33
S'clim.ac4550.bio16.tif'
p671
sg35
S'clim'
p672
sg37
g38
sg39
I4326
sg40
S'2050'
p673
ssS'bio12'
p674
(dp675
g8
S'2015-03-16 22:08:29'
p676
sg10
S'ac4550.bio12'
p677
sg12
I200
sg13
S'bio12'
p678
sg15
S'Annual Precipitation'
p679
sg17
S'45'
p680
sg19
S'ac4550'
p681
sg21
S'../views/GTiff/clim.ac4550.bio12.tif'
p682
sg23
S'climate'
p683
sg25
S'clim.ac4550.bio12'
p684
sg27
S'Annual Precipitation AC RCP45 2050'
p685
sg29
g30
sg31
g32
sg33
S'clim.ac4550.bio12.tif'
p686
sg35
S'clim'
p687
sg37
g38
sg39
I4326
sg40
S'2050'
p688
ssS'bio07'
p689
(dp690
g8
S'2015-03-16 22:08:29'
p691
sg10
S'ac4550.bio07'
p692
sg12
I239
sg13
S'bio07'
p693
sg15
S'Temperature Annual Range (BIO5-BIO6)'
p694
sg17
S'45'
p695
sg19
S'ac4550'
p696
sg21
S'../views/GTiff/clim.ac4550.bio07.tif'
p697
sg23
S'climate'
p698
sg25
S'clim.ac4550.bio07'
p699
sg27
S'Temperature Annual Range (BIO5-BIO6) AC RCP45 2050'
p700
sg29
g30
sg31
g32
sg33
S'clim.ac4550.bio07.tif'
p701
sg35
S'clim'
p702
sg37
g38
sg39
I4326
sg40
S'2050'
p703
ssS'bio11'
p704
(dp705
g8
S'2015-03-16 22:08:29'
p706
sg10
S'ac4550.bio11'
p707
sg12
I68
sg13
S'bio11'
p708
sg15
S'Mean Temperature of Coldest Quarter'
p709
sg17
S'45'
p710
sg19
S'ac4550'
p711
sg21
S'../views/GTiff/clim.ac4550.bio11.tif'
p712
sg23
S'climate'
p713
sg25
S'clim.ac4550.bio11'
p714
sg27
S'Mean Temperature of Coldest Quarter AC RCP45 2050'
p715
sg29
g30
sg31
g32
sg33
S'clim.ac4550.bio11.tif'
p716
sg35
S'clim'
p717
sg37
g38
sg39
I4326
sg40
S'2050'
p718
ssS'bio05'
p719
(dp720
g8
S'2015-03-16 22:08:29'
p721
sg10
S'ac4550.bio05'
p722
sg12
I16
sg13
S'bio05'
p723
sg15
S'Max Temperature of Warmest Month'
p724
sg17
S'45'
p725
sg19
g597
sg21
S'../views/GTiff/clim.ac4550.bio05.tif'
p726
sg23
S'climate'
p727
sg25
S'clim.ac4550.bio05'
p728
sg27
S'Max Temperature of Warmest Month AC RCP45 2050'
p729
sg29
g30
sg31
g32
sg33
S'clim.ac4550.bio05.tif'
p730
sg35
S'clim'
p731
sg37
g38
sg39
I4326
sg40
S'2050'
p732
ssS'bio04'
p733
(dp734
g8
S'2015-03-16 22:08:29'
p735
sg10
S'ac4550.bio04'
p736
sg12
I110
sg13
S'bio04'
p737
sg15
S'Temperature Seasonality (standard deviation *100)'
p738
sg17
S'45'
p739
sg19
S'ac4550'
p740
sg21
S'../views/GTiff/clim.ac4550.bio04.tif'
p741
sg23
S'climate'
p742
sg25
S'clim.ac4550.bio04'
p743
sg27
S'Temperature Seasonality (standard deviation *100) AC RCP45 2050'
p744
sg29
g30
sg31
g32
sg33
S'clim.ac4550.bio04.tif'
p745
sg35
S'clim'
p746
sg37
g38
sg39
I4326
sg40
S'2050'
p747
ssS'bio14'
p748
(dp749
g8
S'2015-03-16 22:08:29'
p750
sg10
S'ac4550.bio14'
p751
sg12
I106
sg13
S'bio14'
p752
sg15
S'Precipitation of Driest Month'
p753
sg17
S'45'
p754
sg19
S'ac4550'
p755
sg21
S'../views/GTiff/clim.ac4550.bio14.tif'
p756
sg23
S'climate'
p757
sg25
S'clim.ac4550.bio14'
p758
sg27
S'Precipitation of Driest Month AC RCP45 2050'
p759
sg29
g30
sg31
g32
sg33
S'clim.ac4550.bio14.tif'
p760
sg35
S'clim'
p761
sg37
g38
sg39
I4326
sg40
S'2050'
p762
ssS'bio15'
p763
(dp764
g8
S'2015-03-16 22:08:29'
p765
sg10
S'ac4550.bio15'
p766
sg12
I70
sg13
S'bio15'
p767
sg15
S'Precipitation Seasonality (Coefficient of Variation)'
p768
sg17
S'45'
p769
sg19
S'ac4550'
p770
sg21
S'../views/GTiff/clim.ac4550.bio15.tif'
p771
sg23
S'climate'
p772
sg25
S'clim.ac4550.bio15'
p773
sg27
S'Precipitation Seasonality (Coefficient of Variation) AC RCP45 2050'
p774
sg29
g30
sg31
g32
sg33
S'clim.ac4550.bio15.tif'
p775
sg35
S'clim'
p776
sg37
g38
sg39
I4326
sg40
S'2050'
p777
ssS'bio01'
p778
(dp779
g8
S'2015-03-16 22:08:29'
p780
sg10
S'ac4550.bio01'
p781
sg12
I333
sg13
S'bio01'
p782
sg15
S'Annual Mean Temperature'
p783
sg17
S'45'
p784
sg19
S'ac4550'
p785
sg21
S'../views/GTiff/clim.ac4550.bio01.tif'
p786
sg23
S'climate'
p787
sg25
S'clim.ac4550.bio01'
p788
sg27
S'Annual Mean Temperature AC RCP45 2050'
p789
sg29
g30
sg31
g32
sg33
S'clim.ac4550.bio01.tif'
p790
sg35
S'clim'
p791
sg37
g38
sg39
I4326
sg40
S'2050'
p792
ssS'bio17'
p793
(dp794
g8
S'2015-03-16 22:08:29'
p795
sg10
S'ac4550.bio17'
p796
sg12
I169
sg13
S'bio17'
p797
sg15
S'Precipitation of Driest Quarter'
p798
sg17
S'45'
p799
sg19
S'ac4550'
p800
sg21
S'../views/GTiff/clim.ac4550.bio17.tif'
p801
sg23
S'climate'
p802
sg25
S'clim.ac4550.bio17'
p803
sg27
S'Precipitation of Driest Quarter AC RCP45 2050'
p804
sg29
g30
sg31
g32
sg33
S'clim.ac4550.bio17.tif'
p805
sg35
S'clim'
p806
sg37
g38
sg39
I4326
sg40
S'2050'
p807
ssS'bio18'
p808
(dp809
g8
S'2015-03-16 22:08:29'
p810
sg10
S'ac4550.bio18'
p811
sg12
I72
sg13
S'bio18'
p812
sg15
S'Precipitation of Warmest Quarter'
p813
sg17
S'45'
p814
sg19
S'ac4550'
p815
sg21
S'../views/GTiff/clim.ac4550.bio18.tif'
p816
sg23
S'climate'
p817
sg25
S'clim.ac4550.bio18'
p818
sg27
S'Precipitation of Warmest Quarter AC RCP45 2050'
p819
sg29
g30
sg31
g32
sg33
S'clim.ac4550.bio18.tif'
p820
sg35
S'clim'
p821
sg37
g38
sg39
I4326
sg40
S'2050'
p822
ssS'bio03'
p823
(dp824
g8
S'2015-03-16 22:08:29'
p825
sg10
S'ac4550.bio03'
p826
sg12
I114
sg13
S'bio03'
p827
sg15
S'Isothermality (BIO2/BIO7) (* 100)'
p828
sg17
S'45'
p829
sg19
S'ac4550'
p830
sg21
S'../views/GTiff/clim.ac4550.bio03.tif'
p831
sg23
S'climate'
p832
sg25
S'clim.ac4550.bio03'
p833
sg27
S'Isothermality (BIO2/BIO7) (* 100) AC RCP45 2050'
p834
sg29
g30
sg31
g32
sg33
S'clim.ac4550.bio03.tif'
p835
sg35
S'clim'
p836
sg37
g38
sg39
I4326
sg40
S'2050'
p837
ssS'bio02'
p838
(dp839
g8
S'2015-03-16 22:08:29'
p840
sg10
S'ac4550.bio02'
p841
sg12
I276
sg13
S'bio02'
p842
sg15
S'Mean Diurnal Range (Mean of monthly (max temp - min temp))'
p843
sg17
S'45'
p844
sg19
S'ac4550'
p845
sg21
S'../views/GTiff/clim.ac4550.bio02.tif'
p846
sg23
S'climate'
p847
sg25
S'clim.ac4550.bio02'
p848
sg27
S'Mean Diurnal Range (Mean of monthly (max temp - min temp)) AC RCP45 2050'
p849
sg29
g30
sg31
g32
sg33
S'clim.ac4550.bio02.tif'
p850
sg35
S'clim'
p851
sg37
g38
sg39
I4326
sg40
S'2050'
p852
ssS'bio09'
p853
(dp854
g8
S'2015-03-16 22:08:29'
p855
sg10
S'ac4550.bio09'
p856
sg12
I164
sg13
S'bio09'
p857
sg15
S'Mean Temperature of Driest Quarter'
p858
sg17
S'45'
p859
sg19
S'ac4550'
p860
sg21
S'../views/GTiff/clim.ac4550.bio09.tif'
p861
sg23
S'climate'
p862
sg25
S'clim.ac4550.bio09'
p863
sg27
S'Mean Temperature of Driest Quarter AC RCP45 2050'
p864
sg29
g30
sg31
g32
sg33
S'clim.ac4550.bio09.tif'
p865
sg35
S'clim'
p866
sg37
g38
sg39
I4326
sg40
S'2050'
p867
ssS'bio08'
p868
(dp869
g8
S'2015-03-16 22:08:29'
p870
sg10
S'ac4550.bio08'
p871
sg12
I209
sg13
S'bio08'
p872
sg15
S'Mean Temperature of Wettest Quarter'
p873
sg17
S'45'
p874
sg19
S'ac4550'
p875
sg21
S'../views/GTiff/clim.ac4550.bio08.tif'
p876
sg23
S'climate'
p877
sg25
S'clim.ac4550.bio08'
p878
sg27
S'Mean Temperature of Wettest Quarter AC RCP45 2050'
p879
sg29
g30
sg31
g32
sg33
S'clim.ac4550.bio08.tif'
p880
sg35
S'clim'
p881
sg37
g38
sg39
I4326
sg40
S'2050'
p882
sssS'he8570'
p883
(dp884
S'bio07'
p885
(dp886
g8
S'2015-03-16 22:08:29'
p887
sg10
S'he8570.bio07'
p888
sg12
I251
sg13
S'bio07'
p889
sg15
S'Temperature Annual Range (BIO5-BIO6)'
p890
sg17
S'85'
p891
sg19
S'he8570'
p892
sg21
S'../views/GTiff/clim.he8570.bio07.tif'
p893
sg23
S'climate'
p894
sg25
S'clim.he8570.bio07'
p895
sg27
S'Temperature Annual Range (BIO5-BIO6) HE RCP85 2070'
p896
sg29
g30
sg31
g32
sg33
S'clim.he8570.bio07.tif'
p897
sg35
S'clim'
p898
sg37
g38
sg39
I4326
sg40
S'2070'
p899
ssS'bio16'
p900
(dp901
g8
S'2015-03-16 22:08:29'
p902
sg10
S'he8570.bio16'
p903
sg12
I229
sg13
S'bio16'
p904
sg15
S'Precipitation of Wettest Quarter'
p905
sg17
S'85'
p906
sg19
S'he8570'
p907
sg21
S'../views/GTiff/clim.he8570.bio16.tif'
p908
sg23
S'climate'
p909
sg25
S'clim.he8570.bio16'
p910
sg27
S'Precipitation of Wettest Quarter HE RCP85 2070'
p911
sg29
g30
sg31
g32
sg33
S'clim.he8570.bio16.tif'
p912
sg35
S'clim'
p913
sg37
g38
sg39
I4326
sg40
S'2070'
p914
ssS'bio06'
p915
(dp916
g8
S'2015-03-16 22:08:29'
p917
sg10
S'he8570.bio06'
p918
sg12
I331
sg13
S'bio06'
p919
sg15
S'Min Temperature of Coldest Month'
p920
sg17
S'85'
p921
sg19
S'he8570'
p922
sg21
S'../views/GTiff/clim.he8570.bio06.tif'
p923
sg23
S'climate'
p924
sg25
S'clim.he8570.bio06'
p925
sg27
S'Min Temperature of Coldest Month HE RCP85 2070'
p926
sg29
g30
sg31
g32
sg33
S'clim.he8570.bio06.tif'
p927
sg35
S'clim'
p928
sg37
g38
sg39
I4326
sg40
S'2070'
p929
ssS'bio15'
p930
(dp931
g8
S'2015-03-16 22:08:29'
p932
sg10
S'he8570.bio15'
p933
sg12
I171
sg13
S'bio15'
p934
sg15
S'Precipitation Seasonality (Coefficient of Variation)'
p935
sg17
S'85'
p936
sg19
S'he8570'
p937
sg21
S'../views/GTiff/clim.he8570.bio15.tif'
p938
sg23
S'climate'
p939
sg25
S'clim.he8570.bio15'
p940
sg27
S'Precipitation Seasonality (Coefficient of Variation) HE RCP85 2070'
p941
sg29
g30
sg31
g32
sg33
S'clim.he8570.bio15.tif'
p942
sg35
S'clim'
p943
sg37
g38
sg39
I4326
sg40
S'2070'
p944
ssS'bio12'
p945
(dp946
g8
S'2015-03-16 22:08:29'
p947
sg10
S'he8570.bio12'
p948
sg12
I105
sg13
S'bio12'
p949
sg15
S'Annual Precipitation'
p950
sg17
S'85'
p951
sg19
S'he8570'
p952
sg21
S'../views/GTiff/clim.he8570.bio12.tif'
p953
sg23
S'climate'
p954
sg25
S'clim.he8570.bio12'
p955
sg27
S'Annual Precipitation HE RCP85 2070'
p956
sg29
g30
sg31
g32
sg33
S'clim.he8570.bio12.tif'
p957
sg35
S'clim'
p958
sg37
g38
sg39
I4326
sg40
S'2070'
p959
ssS'bio14'
p960
(dp961
g8
S'2015-03-16 22:08:29'
p962
sg10
S'he8570.bio14'
p963
sg12
I259
sg13
S'bio14'
p964
sg15
S'Precipitation of Driest Month'
p965
sg17
S'85'
p966
sg19
S'he8570'
p967
sg21
S'../views/GTiff/clim.he8570.bio14.tif'
p968
sg23
S'climate'
p969
sg25
S'clim.he8570.bio14'
p970
sg27
S'Precipitation of Driest Month HE RCP85 2070'
p971
sg29
g30
sg31
g32
sg33
S'clim.he8570.bio14.tif'
p972
sg35
S'clim'
p973
sg37
g38
sg39
I4326
sg40
S'2070'
p974
ssS'bio10'
p975
(dp976
g8
S'2015-03-16 22:08:29'
p977
sg10
S'he8570.bio10'
p978
sg12
I235
sg13
S'bio10'
p979
sg15
S'Mean Temperature of Warmest Quarter'
p980
sg17
S'85'
p981
sg19
S'he8570'
p982
sg21
S'../views/GTiff/clim.he8570.bio10.tif'
p983
sg23
S'climate'
p984
sg25
S'clim.he8570.bio10'
p985
sg27
S'Mean Temperature of Warmest Quarter HE RCP85 2070'
p986
sg29
g30
sg31
g32
sg33
S'clim.he8570.bio10.tif'
p987
sg35
S'clim'
p988
sg37
g38
sg39
I4326
sg40
S'2070'
p989
ssS'bio11'
p990
(dp991
g8
S'2015-03-16 22:08:29'
p992
sg10
S'he8570.bio11'
p993
sg12
I322
sg13
S'bio11'
p994
sg15
S'Mean Temperature of Coldest Quarter'
p995
sg17
S'85'
p996
sg19
S'he8570'
p997
sg21
S'../views/GTiff/clim.he8570.bio11.tif'
p998
sg23
S'climate'
p999
sg25
S'clim.he8570.bio11'
p1000
sg27
S'Mean Temperature of Coldest Quarter HE RCP85 2070'
p1001
sg29
g30
sg31
g32
sg33
S'clim.he8570.bio11.tif'
p1002
sg35
S'clim'
p1003
sg37
g38
sg39
I4326
sg40
S'2070'
p1004
ssS'bio05'
p1005
(dp1006
g8
S'2015-03-16 22:08:29'
p1007
sg10
S'he8570.bio05'
p1008
sg12
I57
sg13
S'bio05'
p1009
sg15
S'Max Temperature of Warmest Month'
p1010
sg17
S'85'
p1011
sg19
S'he8570'
p1012
sg21
S'../views/GTiff/clim.he8570.bio05.tif'
p1013
sg23
S'climate'
p1014
sg25
S'clim.he8570.bio05'
p1015
sg27
S'Max Temperature of Warmest Month HE RCP85 2070'
p1016
sg29
g30
sg31
g32
sg33
S'clim.he8570.bio05.tif'
p1017
sg35
S'clim'
p1018
sg37
g38
sg39
I4326
sg40
S'2070'
p1019
ssS'bio13'
p1020
(dp1021
g8
S'2015-03-16 22:08:29'
p1022
sg10
S'he8570.bio13'
p1023
sg12
I172
sg13
S'bio13'
p1024
sg15
S'Precipitation of Wettest Month'
p1025
sg17
S'85'
p1026
sg19
S'he8570'
p1027
sg21
S'../views/GTiff/clim.he8570.bio13.tif'
p1028
sg23
S'climate'
p1029
sg25
S'clim.he8570.bio13'
p1030
sg27
S'Precipitation of Wettest Month HE RCP85 2070'
p1031
sg29
g30
sg31
g32
sg33
S'clim.he8570.bio13.tif'
p1032
sg35
S'clim'
p1033
sg37
g38
sg39
I4326
sg40
S'2070'
p1034
ssS'bio03'
p1035
(dp1036
g8
S'2015-03-16 22:08:29'
p1037
sg10
S'he8570.bio03'
p1038
sg12
I2
sg13
S'bio03'
p1039
sg15
S'Isothermality (BIO2/BIO7) (* 100)'
p1040
sg17
S'85'
p1041
sg19
g883
sg21
S'../views/GTiff/clim.he8570.bio03.tif'
p1042
sg23
S'climate'
p1043
sg25
S'clim.he8570.bio03'
p1044
sg27
S'Isothermality (BIO2/BIO7) (* 100) HE RCP85 2070'
p1045
sg29
g30
sg31
g32
sg33
S'clim.he8570.bio03.tif'
p1046
sg35
S'clim'
p1047
sg37
g38
sg39
I4326
sg40
S'2070'
p1048
ssS'bio02'
p1049
(dp1050
g8
S'2015-03-16 22:08:29'
p1051
sg10
S'he8570.bio02'
p1052
sg12
I100
sg13
S'bio02'
p1053
sg15
S'Mean Diurnal Range (Mean of monthly (max temp - min temp))'
p1054
sg17
S'85'
p1055
sg19
S'he8570'
p1056
sg21
S'../views/GTiff/clim.he8570.bio02.tif'
p1057
sg23
S'climate'
p1058
sg25
S'clim.he8570.bio02'
p1059
sg27
S'Mean Diurnal Range (Mean of monthly (max temp - min temp)) HE RCP85 2070'
p1060
sg29
g30
sg31
g32
sg33
S'clim.he8570.bio02.tif'
p1061
sg35
S'clim'
p1062
sg37
g38
sg39
I4326
sg40
S'2070'
p1063
ssS'bio01'
p1064
(dp1065
g8
S'2015-03-16 22:08:29'
p1066
sg10
S'he8570.bio01'
p1067
sg12
I12
sg13
S'bio01'
p1068
sg15
S'Annual Mean Temperature'
p1069
sg17
S'85'
p1070
sg19
S'he8570'
p1071
sg21
S'../views/GTiff/clim.he8570.bio01.tif'
p1072
sg23
S'climate'
p1073
sg25
S'clim.he8570.bio01'
p1074
sg27
S'Annual Mean Temperature HE RCP85 2070'
p1075
sg29
g30
sg31
g32
sg33
S'clim.he8570.bio01.tif'
p1076
sg35
S'clim'
p1077
sg37
g38
sg39
I4326
sg40
S'2070'
p1078
ssS'bio17'
p1079
(dp1080
g8
S'2015-03-16 22:08:29'
p1081
sg10
S'he8570.bio17'
p1082
sg12
I85
sg13
S'bio17'
p1083
sg15
S'Precipitation of Driest Quarter'
p1084
sg17
S'85'
p1085
sg19
S'he8570'
p1086
sg21
S'../views/GTiff/clim.he8570.bio17.tif'
p1087
sg23
S'climate'
p1088
sg25
S'clim.he8570.bio17'
p1089
sg27
S'Precipitation of Driest Quarter HE RCP85 2070'
p1090
sg29
g30
sg31
g32
sg33
S'clim.he8570.bio17.tif'
p1091
sg35
S'clim'
p1092
sg37
g38
sg39
I4326
sg40
S'2070'
p1093
ssS'bio18'
p1094
(dp1095
g8
S'2015-03-16 22:08:29'
p1096
sg10
S'he8570.bio18'
p1097
sg12
I81
sg13
S'bio18'
p1098
sg15
S'Precipitation of Warmest Quarter'
p1099
sg17
S'85'
p1100
sg19
S'he8570'
p1101
sg21
S'../views/GTiff/clim.he8570.bio18.tif'
p1102
sg23
S'climate'
p1103
sg25
S'clim.he8570.bio18'
p1104
sg27
S'Precipitation of Warmest Quarter HE RCP85 2070'
p1105
sg29
g30
sg31
g32
sg33
S'clim.he8570.bio18.tif'
p1106
sg35
S'clim'
p1107
sg37
g38
sg39
I4326
sg40
S'2070'
p1108
ssS'bio19'
p1109
(dp1110
g8
S'2015-03-16 22:08:29'
p1111
sg10
S'he8570.bio19'
p1112
sg12
I13
sg13
S'bio19'
p1113
sg15
S'Precipitation of Coldest Quarter'
p1114
sg17
S'85'
p1115
sg19
S'he8570'
p1116
sg21
S'../views/GTiff/clim.he8570.bio19.tif'
p1117
sg23
S'climate'
p1118
sg25
S'clim.he8570.bio19'
p1119
sg27
S'Precipitation of Coldest Quarter HE RCP85 2070'
p1120
sg29
g30
sg31
g32
sg33
S'clim.he8570.bio19.tif'
p1121
sg35
S'clim'
p1122
sg37
g38
sg39
I4326
sg40
S'2070'
p1123
ssS'bio04'
p1124
(dp1125
g8
S'2015-03-16 22:08:29'
p1126
sg10
S'he8570.bio04'
p1127
sg12
I203
sg13
S'bio04'
p1128
sg15
S'Temperature Seasonality (standard deviation *100)'
p1129
sg17
S'85'
p1130
sg19
S'he8570'
p1131
sg21
S'../views/GTiff/clim.he8570.bio04.tif'
p1132
sg23
S'climate'
p1133
sg25
S'clim.he8570.bio04'
p1134
sg27
S'Temperature Seasonality (standard deviation *100) HE RCP85 2070'
p1135
sg29
g30
sg31
g32
sg33
S'clim.he8570.bio04.tif'
p1136
sg35
S'clim'
p1137
sg37
g38
sg39
I4326
sg40
S'2070'
p1138
ssS'bio09'
p1139
(dp1140
g8
S'2015-03-16 22:08:29'
p1141
sg10
S'he8570.bio09'
p1142
sg12
I77
sg13
S'bio09'
p1143
sg15
S'Mean Temperature of Driest Quarter'
p1144
sg17
S'85'
p1145
sg19
S'he8570'
p1146
sg21
S'../views/GTiff/clim.he8570.bio09.tif'
p1147
sg23
S'climate'
p1148
sg25
S'clim.he8570.bio09'
p1149
sg27
S'Mean Temperature of Driest Quarter HE RCP85 2070'
p1150
sg29
g30
sg31
g32
sg33
S'clim.he8570.bio09.tif'
p1151
sg35
S'clim'
p1152
sg37
g38
sg39
I4326
sg40
S'2070'
p1153
ssS'bio08'
p1154
(dp1155
g8
S'2015-03-16 22:08:29'
p1156
sg10
S'he8570.bio08'
p1157
sg12
I22
sg13
S'bio08'
p1158
sg15
S'Mean Temperature of Wettest Quarter'
p1159
sg17
S'85'
p1160
sg19
S'he8570'
p1161
sg21
S'../views/GTiff/clim.he8570.bio08.tif'
p1162
sg23
S'climate'
p1163
sg25
S'clim.he8570.bio08'
p1164
sg27
S'Mean Temperature of Wettest Quarter HE RCP85 2070'
p1165
sg29
g30
sg31
g32
sg33
S'clim.he8570.bio08.tif'
p1166
sg35
S'clim'
p1167
sg37
g38
sg39
I4326
sg40
S'2070'
p1168
sssS'he2650'
p1169
(dp1170
S'bio07'
p1171
(dp1172
g8
S'2015-03-16 22:08:29'
p1173
sg10
S'he2650.bio07'
p1174
sg12
I268
sg13
S'bio07'
p1175
sg15
S'Temperature Annual Range (BIO5-BIO6)'
p1176
sg17
S'26'
p1177
sg19
S'he2650'
p1178
sg21
S'../views/GTiff/clim.he2650.bio07.tif'
p1179
sg23
S'climate'
p1180
sg25
S'clim.he2650.bio07'
p1181
sg27
S'Temperature Annual Range (BIO5-BIO6) HE RCP26 2050'
p1182
sg29
g30
sg31
g32
sg33
S'clim.he2650.bio07.tif'
p1183
sg35
S'clim'
p1184
sg37
g38
sg39
I4326
sg40
S'2050'
p1185
ssS'bio16'
p1186
(dp1187
g8
S'2015-03-16 22:08:29'
p1188
sg10
S'he2650.bio16'
p1189
sg12
I191
sg13
S'bio16'
p1190
sg15
S'Precipitation of Wettest Quarter'
p1191
sg17
S'26'
p1192
sg19
S'he2650'
p1193
sg21
S'../views/GTiff/clim.he2650.bio16.tif'
p1194
sg23
S'climate'
p1195
sg25
S'clim.he2650.bio16'
p1196
sg27
S'Precipitation of Wettest Quarter HE RCP26 2050'
p1197
sg29
g30
sg31
g32
sg33
S'clim.he2650.bio16.tif'
p1198
sg35
S'clim'
p1199
sg37
g38
sg39
I4326
sg40
S'2050'
p1200
ssS'bio06'
p1201
(dp1202
g8
S'2015-03-16 22:08:29'
p1203
sg10
S'he2650.bio06'
p1204
sg12
I182
sg13
S'bio06'
p1205
sg15
S'Min Temperature of Coldest Month'
p1206
sg17
S'26'
p1207
sg19
S'he2650'
p1208
sg21
S'../views/GTiff/clim.he2650.bio06.tif'
p1209
sg23
S'climate'
p1210
sg25
S'clim.he2650.bio06'
p1211
sg27
S'Min Temperature of Coldest Month HE RCP26 2050'
p1212
sg29
g30
sg31
g32
sg33
S'clim.he2650.bio06.tif'
p1213
sg35
S'clim'
p1214
sg37
g38
sg39
I4326
sg40
S'2050'
p1215
ssS'bio12'
p1216
(dp1217
g8
S'2015-03-16 22:08:29'
p1218
sg10
S'he2650.bio12'
p1219
sg12
I50
sg13
S'bio12'
p1220
sg15
S'Annual Precipitation'
p1221
sg17
S'26'
p1222
sg19
S'he2650'
p1223
sg21
S'../views/GTiff/clim.he2650.bio12.tif'
p1224
sg23
S'climate'
p1225
sg25
S'clim.he2650.bio12'
p1226
sg27
S'Annual Precipitation HE RCP26 2050'
p1227
sg29
g30
sg31
g32
sg33
S'clim.he2650.bio12.tif'
p1228
sg35
S'clim'
p1229
sg37
g38
sg39
I4326
sg40
S'2050'
p1230
ssS'bio10'
p1231
(dp1232
g8
S'2015-03-16 22:08:29'
p1233
sg10
S'he2650.bio10'
p1234
sg12
I111
sg13
S'bio10'
p1235
sg15
S'Mean Temperature of Warmest Quarter'
p1236
sg17
S'26'
p1237
sg19
S'he2650'
p1238
sg21
S'../views/GTiff/clim.he2650.bio10.tif'
p1239
sg23
S'climate'
p1240
sg25
S'clim.he2650.bio10'
p1241
sg27
S'Mean Temperature of Warmest Quarter HE RCP26 2050'
p1242
sg29
g30
sg31
g32
sg33
S'clim.he2650.bio10.tif'
p1243
sg35
S'clim'
p1244
sg37
g38
sg39
I4326
sg40
S'2050'
p1245
ssS'bio11'
p1246
(dp1247
g8
S'2015-03-16 22:08:29'
p1248
sg10
S'he2650.bio11'
p1249
sg12
I75
sg13
S'bio11'
p1250
sg15
S'Mean Temperature of Coldest Quarter'
p1251
sg17
S'26'
p1252
sg19
S'he2650'
p1253
sg21
S'../views/GTiff/clim.he2650.bio11.tif'
p1254
sg23
S'climate'
p1255
sg25
S'clim.he2650.bio11'
p1256
sg27
S'Mean Temperature of Coldest Quarter HE RCP26 2050'
p1257
sg29
g30
sg31
g32
sg33
S'clim.he2650.bio11.tif'
p1258
sg35
S'clim'
p1259
sg37
g38
sg39
I4326
sg40
S'2050'
p1260
ssS'bio05'
p1261
(dp1262
g8
S'2015-03-16 22:08:29'
p1263
sg10
S'he2650.bio05'
p1264
sg12
I20
sg13
S'bio05'
p1265
sg15
S'Max Temperature of Warmest Month'
p1266
sg17
S'26'
p1267
sg19
g1169
sg21
S'../views/GTiff/clim.he2650.bio05.tif'
p1268
sg23
S'climate'
p1269
sg25
S'clim.he2650.bio05'
p1270
sg27
S'Max Temperature of Warmest Month HE RCP26 2050'
p1271
sg29
g30
sg31
g32
sg33
S'clim.he2650.bio05.tif'
p1272
sg35
S'clim'
p1273
sg37
g38
sg39
I4326
sg40
S'2050'
p1274
ssS'bio13'
p1275
(dp1276
g8
S'2015-03-16 22:08:29'
p1277
sg10
S'he2650.bio13'
p1278
sg12
I196
sg13
S'bio13'
p1279
sg15
S'Precipitation of Wettest Month'
p1280
sg17
S'26'
p1281
sg19
S'he2650'
p1282
sg21
S'../views/GTiff/clim.he2650.bio13.tif'
p1283
sg23
S'climate'
p1284
sg25
S'clim.he2650.bio13'
p1285
sg27
S'Precipitation of Wettest Month HE RCP26 2050'
p1286
sg29
g30
sg31
g32
sg33
S'clim.he2650.bio13.tif'
p1287
sg35
S'clim'
p1288
sg37
g38
sg39
I4326
sg40
S'2050'
p1289
ssS'bio14'
p1290
(dp1291
g8
S'2015-03-16 22:08:29'
p1292
sg10
S'he2650.bio14'
p1293
sg12
I246
sg13
S'bio14'
p1294
sg15
S'Precipitation of Driest Month'
p1295
sg17
S'26'
p1296
sg19
S'he2650'
p1297
sg21
S'../views/GTiff/clim.he2650.bio14.tif'
p1298
sg23
S'climate'
p1299
sg25
S'clim.he2650.bio14'
p1300
sg27
S'Precipitation of Driest Month HE RCP26 2050'
p1301
sg29
g30
sg31
g32
sg33
S'clim.he2650.bio14.tif'
p1302
sg35
S'clim'
p1303
sg37
g38
sg39
I4326
sg40
S'2050'
p1304
ssS'bio15'
p1305
(dp1306
g8
S'2015-03-16 22:08:29'
p1307
sg10
S'he2650.bio15'
p1308
sg12
I62
sg13
S'bio15'
p1309
sg15
S'Precipitation Seasonality (Coefficient of Variation)'
p1310
sg17
S'26'
p1311
sg19
S'he2650'
p1312
sg21
S'../views/GTiff/clim.he2650.bio15.tif'
p1313
sg23
S'climate'
p1314
sg25
S'clim.he2650.bio15'
p1315
sg27
S'Precipitation Seasonality (Coefficient of Variation) HE RCP26 2050'
p1316
sg29
g30
sg31
g32
sg33
S'clim.he2650.bio15.tif'
p1317
sg35
S'clim'
p1318
sg37
g38
sg39
I4326
sg40
S'2050'
p1319
ssS'bio01'
p1320
(dp1321
g8
S'2015-03-16 22:08:29'
p1322
sg10
S'he2650.bio01'
p1323
sg12
I73
sg13
S'bio01'
p1324
sg15
S'Annual Mean Temperature'
p1325
sg17
S'26'
p1326
sg19
S'he2650'
p1327
sg21
S'../views/GTiff/clim.he2650.bio01.tif'
p1328
sg23
S'climate'
p1329
sg25
S'clim.he2650.bio01'
p1330
sg27
S'Annual Mean Temperature HE RCP26 2050'
p1331
sg29
g30
sg31
g32
sg33
S'clim.he2650.bio01.tif'
p1332
sg35
S'clim'
p1333
sg37
g38
sg39
I4326
sg40
S'2050'
p1334
ssS'bio17'
p1335
(dp1336
g8
S'2015-03-16 22:08:29'
p1337
sg10
S'he2650.bio17'
p1338
sg12
I39
sg13
S'bio17'
p1339
sg15
S'Precipitation of Driest Quarter'
p1340
sg17
S'26'
p1341
sg19
S'he2650'
p1342
sg21
S'../views/GTiff/clim.he2650.bio17.tif'
p1343
sg23
S'climate'
p1344
sg25
S'clim.he2650.bio17'
p1345
sg27
S'Precipitation of Driest Quarter HE RCP26 2050'
p1346
sg29
g30
sg31
g32
sg33
S'clim.he2650.bio17.tif'
p1347
sg35
S'clim'
p1348
sg37
g38
sg39
I4326
sg40
S'2050'
p1349
ssS'bio18'
p1350
(dp1351
g8
S'2015-03-16 22:08:29'
p1352
sg10
S'he2650.bio18'
p1353
sg12
I165
sg13
S'bio18'
p1354
sg15
S'Precipitation of Warmest Quarter'
p1355
sg17
S'26'
p1356
sg19
S'he2650'
p1357
sg21
S'../views/GTiff/clim.he2650.bio18.tif'
p1358
sg23
S'climate'
p1359
sg25
S'clim.he2650.bio18'
p1360
sg27
S'Precipitation of Warmest Quarter HE RCP26 2050'
p1361
sg29
g30
sg31
g32
sg33
S'clim.he2650.bio18.tif'
p1362
sg35
S'clim'
p1363
sg37
g38
sg39
I4326
sg40
S'2050'
p1364
ssS'bio19'
p1365
(dp1366
g8
S'2015-03-16 22:08:29'
p1367
sg10
S'he2650.bio19'
p1368
sg12
I89
sg13
S'bio19'
p1369
sg15
S'Precipitation of Coldest Quarter'
p1370
sg17
S'26'
p1371
sg19
S'he2650'
p1372
sg21
S'../views/GTiff/clim.he2650.bio19.tif'
p1373
sg23
S'climate'
p1374
sg25
S'clim.he2650.bio19'
p1375
sg27
S'Precipitation of Coldest Quarter HE RCP26 2050'
p1376
sg29
g30
sg31
g32
sg33
S'clim.he2650.bio19.tif'
p1377
sg35
S'clim'
p1378
sg37
g38
sg39
I4326
sg40
S'2050'
p1379
ssS'bio04'
p1380
(dp1381
g8
S'2015-03-16 22:08:29'
p1382
sg10
S'he2650.bio04'
p1383
sg12
I318
sg13
S'bio04'
p1384
sg15
S'Temperature Seasonality (standard deviation *100)'
p1385
sg17
S'26'
p1386
sg19
S'he2650'
p1387
sg21
S'../views/GTiff/clim.he2650.bio04.tif'
p1388
sg23
S'climate'
p1389
sg25
S'clim.he2650.bio04'
p1390
sg27
S'Temperature Seasonality (standard deviation *100) HE RCP26 2050'
p1391
sg29
g30
sg31
g32
sg33
S'clim.he2650.bio04.tif'
p1392
sg35
S'clim'
p1393
sg37
g38
sg39
I4326
sg40
S'2050'
p1394
ssS'bio08'
p1395
(dp1396
g8
S'2015-03-16 22:08:29'
p1397
sg10
S'he2650.bio08'
p1398
sg12
I136
sg13
S'bio08'
p1399
sg15
S'Mean Temperature of Wettest Quarter'
p1400
sg17
S'26'
p1401
sg19
S'he2650'
p1402
sg21
S'../views/GTiff/clim.he2650.bio08.tif'
p1403
sg23
S'climate'
p1404
sg25
S'clim.he2650.bio08'
p1405
sg27
S'Mean Temperature of Wettest Quarter HE RCP26 2050'
p1406
sg29
g30
sg31
g32
sg33
S'clim.he2650.bio08.tif'
p1407
sg35
S'clim'
p1408
sg37
g38
sg39
I4326
sg40
S'2050'
p1409
ssS'bio03'
p1410
(dp1411
g8
S'2015-03-16 22:08:29'
p1412
sg10
S'he2650.bio03'
p1413
sg12
I304
sg13
S'bio03'
p1414
sg15
S'Isothermality (BIO2/BIO7) (* 100)'
p1415
sg17
S'26'
p1416
sg19
S'he2650'
p1417
sg21
S'../views/GTiff/clim.he2650.bio03.tif'
p1418
sg23
S'climate'
p1419
sg25
S'clim.he2650.bio03'
p1420
sg27
S'Isothermality (BIO2/BIO7) (* 100) HE RCP26 2050'
p1421
sg29
g30
sg31
g32
sg33
S'clim.he2650.bio03.tif'
p1422
sg35
S'clim'
p1423
sg37
g38
sg39
I4326
sg40
S'2050'
p1424
ssS'bio09'
p1425
(dp1426
g8
S'2015-03-16 22:08:29'
p1427
sg10
S'he2650.bio09'
p1428
sg12
I150
sg13
S'bio09'
p1429
sg15
S'Mean Temperature of Driest Quarter'
p1430
sg17
S'26'
p1431
sg19
S'he2650'
p1432
sg21
S'../views/GTiff/clim.he2650.bio09.tif'
p1433
sg23
S'climate'
p1434
sg25
S'clim.he2650.bio09'
p1435
sg27
S'Mean Temperature of Driest Quarter HE RCP26 2050'
p1436
sg29
g30
sg31
g32
sg33
S'clim.he2650.bio09.tif'
p1437
sg35
S'clim'
p1438
sg37
g38
sg39
I4326
sg40
S'2050'
p1439
ssS'bio02'
p1440
(dp1441
g8
S'2015-03-16 22:08:29'
p1442
sg10
S'he2650.bio02'
p1443
sg12
I99
sg13
S'bio02'
p1444
sg15
S'Mean Diurnal Range (Mean of monthly (max temp - min temp))'
p1445
sg17
S'26'
p1446
sg19
S'he2650'
p1447
sg21
S'../views/GTiff/clim.he2650.bio02.tif'
p1448
sg23
S'climate'
p1449
sg25
S'clim.he2650.bio02'
p1450
sg27
S'Mean Diurnal Range (Mean of monthly (max temp - min temp)) HE RCP26 2050'
p1451
sg29
g30
sg31
g32
sg33
S'clim.he2650.bio02.tif'
p1452
sg35
S'clim'
p1453
sg37
g38
sg39
I4326
sg40
S'2050'
p1454
sssS'ac4570'
p1455
(dp1456
S'bio10'
p1457
(dp1458
g8
S'2015-03-16 22:08:29'
p1459
sg10
S'ac4570.bio10'
p1460
sg12
I218
sg13
S'bio10'
p1461
sg15
S'Mean Temperature of Warmest Quarter'
p1462
sg17
S'45'
p1463
sg19
S'ac4570'
p1464
sg21
S'../views/GTiff/clim.ac4570.bio10.tif'
p1465
sg23
S'climate'
p1466
sg25
S'clim.ac4570.bio10'
p1467
sg27
S'Mean Temperature of Warmest Quarter AC RCP45 2070'
p1468
sg29
g30
sg31
g32
sg33
S'clim.ac4570.bio10.tif'
p1469
sg35
S'clim'
p1470
sg37
g38
sg39
I4326
sg40
S'2070'
p1471
ssS'bio04'
p1472
(dp1473
g8
S'2015-03-16 22:08:29'
p1474
sg10
S'ac4570.bio04'
p1475
sg12
I326
sg13
S'bio04'
p1476
sg15
S'Temperature Seasonality (standard deviation *100)'
p1477
sg17
S'45'
p1478
sg19
S'ac4570'
p1479
sg21
S'../views/GTiff/clim.ac4570.bio04.tif'
p1480
sg23
S'climate'
p1481
sg25
S'clim.ac4570.bio04'
p1482
sg27
S'Temperature Seasonality (standard deviation *100) AC RCP45 2070'
p1483
sg29
g30
sg31
g32
sg33
S'clim.ac4570.bio04.tif'
p1484
sg35
S'clim'
p1485
sg37
g38
sg39
I4326
sg40
S'2070'
p1486
ssS'bio16'
p1487
(dp1488
g8
S'2015-03-16 22:08:29'
p1489
sg10
S'ac4570.bio16'
p1490
sg12
I328
sg13
S'bio16'
p1491
sg15
S'Precipitation of Wettest Quarter'
p1492
sg17
S'45'
p1493
sg19
S'ac4570'
p1494
sg21
S'../views/GTiff/clim.ac4570.bio16.tif'
p1495
sg23
S'climate'
p1496
sg25
S'clim.ac4570.bio16'
p1497
sg27
S'Precipitation of Wettest Quarter AC RCP45 2070'
p1498
sg29
g30
sg31
g32
sg33
S'clim.ac4570.bio16.tif'
p1499
sg35
S'clim'
p1500
sg37
g38
sg39
I4326
sg40
S'2070'
p1501
ssS'bio06'
p1502
(dp1503
g8
S'2015-03-16 22:08:29'
p1504
sg10
S'ac4570.bio06'
p1505
sg12
I236
sg13
S'bio06'
p1506
sg15
S'Min Temperature of Coldest Month'
p1507
sg17
S'45'
p1508
sg19
S'ac4570'
p1509
sg21
S'../views/GTiff/clim.ac4570.bio06.tif'
p1510
sg23
S'climate'
p1511
sg25
S'clim.ac4570.bio06'
p1512
sg27
S'Min Temperature of Coldest Month AC RCP45 2070'
p1513
sg29
g30
sg31
g32
sg33
S'clim.ac4570.bio06.tif'
p1514
sg35
S'clim'
p1515
sg37
g38
sg39
I4326
sg40
S'2070'
p1516
ssS'bio05'
p1517
(dp1518
g8
S'2015-03-16 22:08:29'
p1519
sg10
S'ac4570.bio05'
p1520
sg12
I63
sg13
S'bio05'
p1521
sg15
S'Max Temperature of Warmest Month'
p1522
sg17
S'45'
p1523
sg19
S'ac4570'
p1524
sg21
S'../views/GTiff/clim.ac4570.bio05.tif'
p1525
sg23
S'climate'
p1526
sg25
S'clim.ac4570.bio05'
p1527
sg27
S'Max Temperature of Warmest Month AC RCP45 2070'
p1528
sg29
g30
sg31
g32
sg33
S'clim.ac4570.bio05.tif'
p1529
sg35
S'clim'
p1530
sg37
g38
sg39
I4326
sg40
S'2070'
p1531
ssS'bio07'
p1532
(dp1533
g8
S'2015-03-16 22:08:29'
p1534
sg10
S'ac4570.bio07'
p1535
sg12
I60
sg13
S'bio07'
p1536
sg15
S'Temperature Annual Range (BIO5-BIO6)'
p1537
sg17
S'45'
p1538
sg19
S'ac4570'
p1539
sg21
S'../views/GTiff/clim.ac4570.bio07.tif'
p1540
sg23
S'climate'
p1541
sg25
S'clim.ac4570.bio07'
p1542
sg27
S'Temperature Annual Range (BIO5-BIO6) AC RCP45 2070'
p1543
sg29
g30
sg31
g32
sg33
S'clim.ac4570.bio07.tif'
p1544
sg35
S'clim'
p1545
sg37
g38
sg39
I4326
sg40
S'2070'
p1546
ssS'bio11'
p1547
(dp1548
g8
S'2015-03-16 22:08:29'
p1549
sg10
S'ac4570.bio11'
p1550
sg12
I47
sg13
S'bio11'
p1551
sg15
S'Mean Temperature of Coldest Quarter'
p1552
sg17
S'45'
p1553
sg19
S'ac4570'
p1554
sg21
S'../views/GTiff/clim.ac4570.bio11.tif'
p1555
sg23
S'climate'
p1556
sg25
S'clim.ac4570.bio11'
p1557
sg27
S'Mean Temperature of Coldest Quarter AC RCP45 2070'
p1558
sg29
g30
sg31
g32
sg33
S'clim.ac4570.bio11.tif'
p1559
sg35
S'clim'
p1560
sg37
g38
sg39
I4326
sg40
S'2070'
p1561
ssS'bio12'
p1562
(dp1563
g8
S'2015-03-16 22:08:29'
p1564
sg10
S'ac4570.bio12'
p1565
sg12
I36
sg13
S'bio12'
p1566
sg15
S'Annual Precipitation'
p1567
sg17
S'45'
p1568
sg19
S'ac4570'
p1569
sg21
S'../views/GTiff/clim.ac4570.bio12.tif'
p1570
sg23
S'climate'
p1571
sg25
S'clim.ac4570.bio12'
p1572
sg27
S'Annual Precipitation AC RCP45 2070'
p1573
sg29
g30
sg31
g32
sg33
S'clim.ac4570.bio12.tif'
p1574
sg35
S'clim'
p1575
sg37
g38
sg39
I4326
sg40
S'2070'
p1576
ssS'bio13'
p1577
(dp1578
g8
S'2015-03-16 22:08:29'
p1579
sg10
S'ac4570.bio13'
p1580
sg12
I69
sg13
S'bio13'
p1581
sg15
S'Precipitation of Wettest Month'
p1582
sg17
S'45'
p1583
sg19
S'ac4570'
p1584
sg21
S'../views/GTiff/clim.ac4570.bio13.tif'
p1585
sg23
S'climate'
p1586
sg25
S'clim.ac4570.bio13'
p1587
sg27
S'Precipitation of Wettest Month AC RCP45 2070'
p1588
sg29
g30
sg31
g32
sg33
S'clim.ac4570.bio13.tif'
p1589
sg35
S'clim'
p1590
sg37
g38
sg39
I4326
sg40
S'2070'
p1591
ssS'bio14'
p1592
(dp1593
g8
S'2015-03-16 22:08:29'
p1594
sg10
S'ac4570.bio14'
p1595
sg12
I274
sg13
S'bio14'
p1596
sg15
S'Precipitation of Driest Month'
p1597
sg17
S'45'
p1598
sg19
S'ac4570'
p1599
sg21
S'../views/GTiff/clim.ac4570.bio14.tif'
p1600
sg23
S'climate'
p1601
sg25
S'clim.ac4570.bio14'
p1602
sg27
S'Precipitation of Driest Month AC RCP45 2070'
p1603
sg29
g30
sg31
g32
sg33
S'clim.ac4570.bio14.tif'
p1604
sg35
S'clim'
p1605
sg37
g38
sg39
I4326
sg40
S'2070'
p1606
ssS'bio15'
p1607
(dp1608
g8
S'2015-03-16 22:08:29'
p1609
sg10
S'ac4570.bio15'
p1610
sg12
I92
sg13
S'bio15'
p1611
sg15
S'Precipitation Seasonality (Coefficient of Variation)'
p1612
sg17
S'45'
p1613
sg19
S'ac4570'
p1614
sg21
S'../views/GTiff/clim.ac4570.bio15.tif'
p1615
sg23
S'climate'
p1616
sg25
S'clim.ac4570.bio15'
p1617
sg27
S'Precipitation Seasonality (Coefficient of Variation) AC RCP45 2070'
p1618
sg29
g30
sg31
g32
sg33
S'clim.ac4570.bio15.tif'
p1619
sg35
S'clim'
p1620
sg37
g38
sg39
I4326
sg40
S'2070'
p1621
ssS'bio01'
p1622
(dp1623
g8
S'2015-03-16 22:08:29'
p1624
sg10
S'ac4570.bio01'
p1625
sg12
I184
sg13
S'bio01'
p1626
sg15
S'Annual Mean Temperature'
p1627
sg17
S'45'
p1628
sg19
S'ac4570'
p1629
sg21
S'../views/GTiff/clim.ac4570.bio01.tif'
p1630
sg23
S'climate'
p1631
sg25
S'clim.ac4570.bio01'
p1632
sg27
S'Annual Mean Temperature AC RCP45 2070'
p1633
sg29
g30
sg31
g32
sg33
S'clim.ac4570.bio01.tif'
p1634
sg35
S'clim'
p1635
sg37
g38
sg39
I4326
sg40
S'2070'
p1636
ssS'bio17'
p1637
(dp1638
g8
S'2015-03-16 22:08:29'
p1639
sg10
S'ac4570.bio17'
p1640
sg12
I94
sg13
S'bio17'
p1641
sg15
S'Precipitation of Driest Quarter'
p1642
sg17
S'45'
p1643
sg19
S'ac4570'
p1644
sg21
S'../views/GTiff/clim.ac4570.bio17.tif'
p1645
sg23
S'climate'
p1646
sg25
S'clim.ac4570.bio17'
p1647
sg27
S'Precipitation of Driest Quarter AC RCP45 2070'
p1648
sg29
g30
sg31
g32
sg33
S'clim.ac4570.bio17.tif'
p1649
sg35
S'clim'
p1650
sg37
g38
sg39
I4326
sg40
S'2070'
p1651
ssS'bio18'
p1652
(dp1653
g8
S'2015-03-16 22:08:29'
p1654
sg10
S'ac4570.bio18'
p1655
sg12
I21
sg13
S'bio18'
p1656
sg15
S'Precipitation of Warmest Quarter'
p1657
sg17
S'45'
p1658
sg19
g1455
sg21
S'../views/GTiff/clim.ac4570.bio18.tif'
p1659
sg23
S'climate'
p1660
sg25
S'clim.ac4570.bio18'
p1661
sg27
S'Precipitation of Warmest Quarter AC RCP45 2070'
p1662
sg29
g30
sg31
g32
sg33
S'clim.ac4570.bio18.tif'
p1663
sg35
S'clim'
p1664
sg37
g38
sg39
I4326
sg40
S'2070'
p1665
ssS'bio19'
p1666
(dp1667
g8
S'2015-03-16 22:08:29'
p1668
sg10
S'ac4570.bio19'
p1669
sg12
I148
sg13
S'bio19'
p1670
sg15
S'Precipitation of Coldest Quarter'
p1671
sg17
S'45'
p1672
sg19
S'ac4570'
p1673
sg21
S'../views/GTiff/clim.ac4570.bio19.tif'
p1674
sg23
S'climate'
p1675
sg25
S'clim.ac4570.bio19'
p1676
sg27
S'Precipitation of Coldest Quarter AC RCP45 2070'
p1677
sg29
g30
sg31
g32
sg33
S'clim.ac4570.bio19.tif'
p1678
sg35
S'clim'
p1679
sg37
g38
sg39
I4326
sg40
S'2070'
p1680
ssS'bio02'
p1681
(dp1682
g8
S'2015-03-16 22:08:29'
p1683
sg10
S'ac4570.bio02'
p1684
sg12
I286
sg13
S'bio02'
p1685
sg15
S'Mean Diurnal Range (Mean of monthly (max temp - min temp))'
p1686
sg17
S'45'
p1687
sg19
S'ac4570'
p1688
sg21
S'../views/GTiff/clim.ac4570.bio02.tif'
p1689
sg23
S'climate'
p1690
sg25
S'clim.ac4570.bio02'
p1691
sg27
S'Mean Diurnal Range (Mean of monthly (max temp - min temp)) AC RCP45 2070'
p1692
sg29
g30
sg31
g32
sg33
S'clim.ac4570.bio02.tif'
p1693
sg35
S'clim'
p1694
sg37
g38
sg39
I4326
sg40
S'2070'
p1695
ssS'bio03'
p1696
(dp1697
g8
S'2015-03-16 22:08:29'
p1698
sg10
S'ac4570.bio03'
p1699
sg12
I308
sg13
S'bio03'
p1700
sg15
S'Isothermality (BIO2/BIO7) (* 100)'
p1701
sg17
S'45'
p1702
sg19
S'ac4570'
p1703
sg21
S'../views/GTiff/clim.ac4570.bio03.tif'
p1704
sg23
S'climate'
p1705
sg25
S'clim.ac4570.bio03'
p1706
sg27
S'Isothermality (BIO2/BIO7) (* 100) AC RCP45 2070'
p1707
sg29
g30
sg31
g32
sg33
S'clim.ac4570.bio03.tif'
p1708
sg35
S'clim'
p1709
sg37
g38
sg39
I4326
sg40
S'2070'
p1710
ssS'bio09'
p1711
(dp1712
g8
S'2015-03-16 22:08:29'
p1713
sg10
S'ac4570.bio09'
p1714
sg12
I146
sg13
S'bio09'
p1715
sg15
S'Mean Temperature of Driest Quarter'
p1716
sg17
S'45'
p1717
sg19
S'ac4570'
p1718
sg21
S'../views/GTiff/clim.ac4570.bio09.tif'
p1719
sg23
S'climate'
p1720
sg25
S'clim.ac4570.bio09'
p1721
sg27
S'Mean Temperature of Driest Quarter AC RCP45 2070'
p1722
sg29
g30
sg31
g32
sg33
S'clim.ac4570.bio09.tif'
p1723
sg35
S'clim'
p1724
sg37
g38
sg39
I4326
sg40
S'2070'
p1725
ssS'bio08'
p1726
(dp1727
g8
S'2015-03-16 22:08:29'
p1728
sg10
S'ac4570.bio08'
p1729
sg12
I176
sg13
S'bio08'
p1730
sg15
S'Mean Temperature of Wettest Quarter'
p1731
sg17
S'45'
p1732
sg19
S'ac4570'
p1733
sg21
S'../views/GTiff/clim.ac4570.bio08.tif'
p1734
sg23
S'climate'
p1735
sg25
S'clim.ac4570.bio08'
p1736
sg27
S'Mean Temperature of Wettest Quarter AC RCP45 2070'
p1737
sg29
g30
sg31
g32
sg33
S'clim.ac4570.bio08.tif'
p1738
sg35
S'clim'
p1739
sg37
g38
sg39
I4326
sg40
S'2070'
p1740
sssS'gs4570'
p1741
(dp1742
S'bio10'
p1743
(dp1744
g8
S'2015-03-16 22:08:29'
p1745
sg10
S'gs4570.bio10'
p1746
sg12
I224
sg13
S'bio10'
p1747
sg15
S'Mean Temperature of Warmest Quarter'
p1748
sg17
S'45'
p1749
sg19
S'gs4570'
p1750
sg21
S'../views/GTiff/clim.gs4570.bio10.tif'
p1751
sg23
S'climate'
p1752
sg25
S'clim.gs4570.bio10'
p1753
sg27
S'Mean Temperature of Warmest Quarter GS RCP45 2070'
p1754
sg29
g30
sg31
g32
sg33
S'clim.gs4570.bio10.tif'
p1755
sg35
S'clim'
p1756
sg37
g38
sg39
I4326
sg40
S'2070'
p1757
ssS'bio16'
p1758
(dp1759
g8
S'2015-03-16 22:08:29'
p1760
sg10
S'gs4570.bio16'
p1761
sg12
I163
sg13
S'bio16'
p1762
sg15
S'Precipitation of Wettest Quarter'
p1763
sg17
S'45'
p1764
sg19
S'gs4570'
p1765
sg21
S'../views/GTiff/clim.gs4570.bio16.tif'
p1766
sg23
S'climate'
p1767
sg25
S'clim.gs4570.bio16'
p1768
sg27
S'Precipitation of Wettest Quarter GS RCP45 2070'
p1769
sg29
g30
sg31
g32
sg33
S'clim.gs4570.bio16.tif'
p1770
sg35
S'clim'
p1771
sg37
g38
sg39
I4326
sg40
S'2070'
p1772
ssS'bio11'
p1773
(dp1774
g8
S'2015-03-16 22:08:29'
p1775
sg10
S'gs4570.bio11'
p1776
sg12
I152
sg13
S'bio11'
p1777
sg15
S'Mean Temperature of Coldest Quarter'
p1778
sg17
S'45'
p1779
sg19
S'gs4570'
p1780
sg21
S'../views/GTiff/clim.gs4570.bio11.tif'
p1781
sg23
S'climate'
p1782
sg25
S'clim.gs4570.bio11'
p1783
sg27
S'Mean Temperature of Coldest Quarter GS RCP45 2070'
p1784
sg29
g30
sg31
g32
sg33
S'clim.gs4570.bio11.tif'
p1785
sg35
S'clim'
p1786
sg37
g38
sg39
I4326
sg40
S'2070'
p1787
ssS'bio09'
p1788
(dp1789
g8
S'2015-03-16 22:08:29'
p1790
sg10
S'gs4570.bio09'
p1791
sg12
I278
sg13
S'bio09'
p1792
sg15
S'Mean Temperature of Driest Quarter'
p1793
sg17
S'45'
p1794
sg19
S'gs4570'
p1795
sg21
S'../views/GTiff/clim.gs4570.bio09.tif'
p1796
sg23
S'climate'
p1797
sg25
S'clim.gs4570.bio09'
p1798
sg27
S'Mean Temperature of Driest Quarter GS RCP45 2070'
p1799
sg29
g30
sg31
g32
sg33
S'clim.gs4570.bio09.tif'
p1800
sg35
S'clim'
p1801
sg37
g38
sg39
I4326
sg40
S'2070'
p1802
ssS'bio05'
p1803
(dp1804
g8
S'2015-03-16 22:08:29'
p1805
sg10
S'gs4570.bio05'
p1806
sg12
I316
sg13
S'bio05'
p1807
sg15
S'Max Temperature of Warmest Month'
p1808
sg17
S'45'
p1809
sg19
S'gs4570'
p1810
sg21
S'../views/GTiff/clim.gs4570.bio05.tif'
p1811
sg23
S'climate'
p1812
sg25
S'clim.gs4570.bio05'
p1813
sg27
S'Max Temperature of Warmest Month GS RCP45 2070'
p1814
sg29
g30
sg31
g32
sg33
S'clim.gs4570.bio05.tif'
p1815
sg35
S'clim'
p1816
sg37
g38
sg39
I4326
sg40
S'2070'
p1817
ssS'bio07'
p1818
(dp1819
g8
S'2015-03-16 22:08:29'
p1820
sg10
S'gs4570.bio07'
p1821
sg12
I90
sg13
S'bio07'
p1822
sg15
S'Temperature Annual Range (BIO5-BIO6)'
p1823
sg17
S'45'
p1824
sg19
S'gs4570'
p1825
sg21
S'../views/GTiff/clim.gs4570.bio07.tif'
p1826
sg23
S'climate'
p1827
sg25
S'clim.gs4570.bio07'
p1828
sg27
S'Temperature Annual Range (BIO5-BIO6) GS RCP45 2070'
p1829
sg29
g30
sg31
g32
sg33
S'clim.gs4570.bio07.tif'
p1830
sg35
S'clim'
p1831
sg37
g38
sg39
I4326
sg40
S'2070'
p1832
ssS'bio06'
p1833
(dp1834
g8
S'2015-03-16 22:08:29'
p1835
sg10
S'gs4570.bio06'
p1836
sg12
I38
sg13
S'bio06'
p1837
sg15
S'Min Temperature of Coldest Month'
p1838
sg17
S'45'
p1839
sg19
S'gs4570'
p1840
sg21
S'../views/GTiff/clim.gs4570.bio06.tif'
p1841
sg23
S'climate'
p1842
sg25
S'clim.gs4570.bio06'
p1843
sg27
S'Min Temperature of Coldest Month GS RCP45 2070'
p1844
sg29
g30
sg31
g32
sg33
S'clim.gs4570.bio06.tif'
p1845
sg35
S'clim'
p1846
sg37
g38
sg39
I4326
sg40
S'2070'
p1847
ssS'bio12'
p1848
(dp1849
g8
S'2015-03-16 22:08:29'
p1850
sg10
S'gs4570.bio12'
p1851
sg12
I166
sg13
S'bio12'
p1852
sg15
S'Annual Precipitation'
p1853
sg17
S'45'
p1854
sg19
S'gs4570'
p1855
sg21
S'../views/GTiff/clim.gs4570.bio12.tif'
p1856
sg23
S'climate'
p1857
sg25
S'clim.gs4570.bio12'
p1858
sg27
S'Annual Precipitation GS RCP45 2070'
p1859
sg29
g30
sg31
g32
sg33
S'clim.gs4570.bio12.tif'
p1860
sg35
S'clim'
p1861
sg37
g38
sg39
I4326
sg40
S'2070'
p1862
ssS'bio13'
p1863
(dp1864
g8
S'2015-03-16 22:08:29'
p1865
sg10
S'gs4570.bio13'
p1866
sg12
I14
sg13
S'bio13'
p1867
sg15
S'Precipitation of Wettest Month'
p1868
sg17
S'45'
p1869
sg19
S'gs4570'
p1870
sg21
S'../views/GTiff/clim.gs4570.bio13.tif'
p1871
sg23
S'climate'
p1872
sg25
S'clim.gs4570.bio13'
p1873
sg27
S'Precipitation of Wettest Month GS RCP45 2070'
p1874
sg29
g30
sg31
g32
sg33
S'clim.gs4570.bio13.tif'
p1875
sg35
S'clim'
p1876
sg37
g38
sg39
I4326
sg40
S'2070'
p1877
ssS'bio14'
p1878
(dp1879
g8
S'2015-03-16 22:08:29'
p1880
sg10
S'gs4570.bio14'
p1881
sg12
I7
sg13
S'bio14'
p1882
sg15
S'Precipitation of Driest Month'
p1883
sg17
S'45'
p1884
sg19
S'gs4570'
p1885
sg21
S'../views/GTiff/clim.gs4570.bio14.tif'
p1886
sg23
S'climate'
p1887
sg25
S'clim.gs4570.bio14'
p1888
sg27
S'Precipitation of Driest Month GS RCP45 2070'
p1889
sg29
g30
sg31
g32
sg33
S'clim.gs4570.bio14.tif'
p1890
sg35
S'clim'
p1891
sg37
g38
sg39
I4326
sg40
S'2070'
p1892
ssS'bio15'
p1893
(dp1894
g8
S'2015-03-16 22:08:29'
p1895
sg10
S'gs4570.bio15'
p1896
sg12
I212
sg13
S'bio15'
p1897
sg15
S'Precipitation Seasonality (Coefficient of Variation)'
p1898
sg17
S'45'
p1899
sg19
S'gs4570'
p1900
sg21
S'../views/GTiff/clim.gs4570.bio15.tif'
p1901
sg23
S'climate'
p1902
sg25
S'clim.gs4570.bio15'
p1903
sg27
S'Precipitation Seasonality (Coefficient of Variation) GS RCP45 2070'
p1904
sg29
g30
sg31
g32
sg33
S'clim.gs4570.bio15.tif'
p1905
sg35
S'clim'
p1906
sg37
g38
sg39
I4326
sg40
S'2070'
p1907
ssS'bio01'
p1908
(dp1909
g8
S'2015-03-16 22:08:29'
p1910
sg10
S'gs4570.bio01'
p1911
sg12
I17
sg13
S'bio01'
p1912
sg15
S'Annual Mean Temperature'
p1913
sg17
S'45'
p1914
sg19
S'gs4570'
p1915
sg21
S'../views/GTiff/clim.gs4570.bio01.tif'
p1916
sg23
S'climate'
p1917
sg25
S'clim.gs4570.bio01'
p1918
sg27
S'Annual Mean Temperature GS RCP45 2070'
p1919
sg29
g30
sg31
g32
sg33
S'clim.gs4570.bio01.tif'
p1920
sg35
S'clim'
p1921
sg37
g38
sg39
I4326
sg40
S'2070'
p1922
ssS'bio17'
p1923
(dp1924
g8
S'2015-03-16 22:08:29'
p1925
sg10
S'gs4570.bio17'
p1926
sg12
I325
sg13
S'bio17'
p1927
sg15
S'Precipitation of Driest Quarter'
p1928
sg17
S'45'
p1929
sg19
S'gs4570'
p1930
sg21
S'../views/GTiff/clim.gs4570.bio17.tif'
p1931
sg23
S'climate'
p1932
sg25
S'clim.gs4570.bio17'
p1933
sg27
S'Precipitation of Driest Quarter GS RCP45 2070'
p1934
sg29
g30
sg31
g32
sg33
S'clim.gs4570.bio17.tif'
p1935
sg35
S'clim'
p1936
sg37
g38
sg39
I4326
sg40
S'2070'
p1937
ssS'bio18'
p1938
(dp1939
g8
S'2015-03-16 22:08:29'
p1940
sg10
S'gs4570.bio18'
p1941
sg12
I95
sg13
S'bio18'
p1942
sg15
S'Precipitation of Warmest Quarter'
p1943
sg17
S'45'
p1944
sg19
S'gs4570'
p1945
sg21
S'../views/GTiff/clim.gs4570.bio18.tif'
p1946
sg23
S'climate'
p1947
sg25
S'clim.gs4570.bio18'
p1948
sg27
S'Precipitation of Warmest Quarter GS RCP45 2070'
p1949
sg29
g30
sg31
g32
sg33
S'clim.gs4570.bio18.tif'
p1950
sg35
S'clim'
p1951
sg37
g38
sg39
I4326
sg40
S'2070'
p1952
ssS'bio19'
p1953
(dp1954
g8
S'2015-03-16 22:08:29'
p1955
sg10
S'gs4570.bio19'
p1956
sg12
I3
sg13
S'bio19'
p1957
sg15
S'Precipitation of Coldest Quarter'
p1958
sg17
S'45'
p1959
sg19
g1741
sg21
S'../views/GTiff/clim.gs4570.bio19.tif'
p1960
sg23
S'climate'
p1961
sg25
S'clim.gs4570.bio19'
p1962
sg27
S'Precipitation of Coldest Quarter GS RCP45 2070'
p1963
sg29
g30
sg31
g32
sg33
S'clim.gs4570.bio19.tif'
p1964
sg35
S'clim'
p1965
sg37
g38
sg39
I4326
sg40
S'2070'
p1966
ssS'bio02'
p1967
(dp1968
g8
S'2015-03-16 22:08:29'
p1969
sg10
S'gs4570.bio02'
p1970
sg12
I243
sg13
S'bio02'
p1971
sg15
S'Mean Diurnal Range (Mean of monthly (max temp - min temp))'
p1972
sg17
S'45'
p1973
sg19
S'gs4570'
p1974
sg21
S'../views/GTiff/clim.gs4570.bio02.tif'
p1975
sg23
S'climate'
p1976
sg25
S'clim.gs4570.bio02'
p1977
sg27
S'Mean Diurnal Range (Mean of monthly (max temp - min temp)) GS RCP45 2070'
p1978
sg29
g30
sg31
g32
sg33
S'clim.gs4570.bio02.tif'
p1979
sg35
S'clim'
p1980
sg37
g38
sg39
I4326
sg40
S'2070'
p1981
ssS'bio03'
p1982
(dp1983
g8
S'2015-03-16 22:08:29'
p1984
sg10
S'gs4570.bio03'
p1985
sg12
I339
sg13
S'bio03'
p1986
sg15
S'Isothermality (BIO2/BIO7) (* 100)'
p1987
sg17
S'45'
p1988
sg19
S'gs4570'
p1989
sg21
S'../views/GTiff/clim.gs4570.bio03.tif'
p1990
sg23
S'climate'
p1991
sg25
S'clim.gs4570.bio03'
p1992
sg27
S'Isothermality (BIO2/BIO7) (* 100) GS RCP45 2070'
p1993
sg29
g30
sg31
g32
sg33
S'clim.gs4570.bio03.tif'
p1994
sg35
S'clim'
p1995
sg37
g38
sg39
I4326
sg40
S'2070'
p1996
ssS'bio04'
p1997
(dp1998
g8
S'2015-03-16 22:08:29'
p1999
sg10
S'gs4570.bio04'
p2000
sg12
I66
sg13
S'bio04'
p2001
sg15
S'Temperature Seasonality (standard deviation *100)'
p2002
sg17
S'45'
p2003
sg19
S'gs4570'
p2004
sg21
S'../views/GTiff/clim.gs4570.bio04.tif'
p2005
sg23
S'climate'
p2006
sg25
S'clim.gs4570.bio04'
p2007
sg27
S'Temperature Seasonality (standard deviation *100) GS RCP45 2070'
p2008
sg29
g30
sg31
g32
sg33
S'clim.gs4570.bio04.tif'
p2009
sg35
S'clim'
p2010
sg37
g38
sg39
I4326
sg40
S'2070'
p2011
ssS'bio08'
p2012
(dp2013
g8
S'2015-03-16 22:08:29'
p2014
sg10
S'gs4570.bio08'
p2015
sg12
I46
sg13
S'bio08'
p2016
sg15
S'Mean Temperature of Wettest Quarter'
p2017
sg17
S'45'
p2018
sg19
S'gs4570'
p2019
sg21
S'../views/GTiff/clim.gs4570.bio08.tif'
p2020
sg23
S'climate'
p2021
sg25
S'clim.gs4570.bio08'
p2022
sg27
S'Mean Temperature of Wettest Quarter GS RCP45 2070'
p2023
sg29
g30
sg31
g32
sg33
S'clim.gs4570.bio08.tif'
p2024
sg35
S'clim'
p2025
sg37
g38
sg39
I4326
sg40
S'2070'
p2026
sssS'he6050'
p2027
(dp2028
S'bio10'
p2029
(dp2030
g8
S'2015-03-16 22:08:29'
p2031
sg10
S'he6050.bio10'
p2032
sg12
I303
sg13
S'bio10'
p2033
sg15
S'Mean Temperature of Warmest Quarter'
p2034
sg17
S'60'
p2035
sg19
S'he6050'
p2036
sg21
S'../views/GTiff/clim.he6050.bio10.tif'
p2037
sg23
S'climate'
p2038
sg25
S'clim.he6050.bio10'
p2039
sg27
S'Mean Temperature of Warmest Quarter HE RCP60 2050'
p2040
sg29
g30
sg31
g32
sg33
S'clim.he6050.bio10.tif'
p2041
sg35
S'clim'
p2042
sg37
g38
sg39
I4326
sg40
S'2050'
p2043
ssS'bio16'
p2044
(dp2045
g8
S'2015-03-16 22:08:29'
p2046
sg10
S'he6050.bio16'
p2047
sg12
I86
sg13
S'bio16'
p2048
sg15
S'Precipitation of Wettest Quarter'
p2049
sg17
S'60'
p2050
sg19
S'he6050'
p2051
sg21
S'../views/GTiff/clim.he6050.bio16.tif'
p2052
sg23
S'climate'
p2053
sg25
S'clim.he6050.bio16'
p2054
sg27
S'Precipitation of Wettest Quarter HE RCP60 2050'
p2055
sg29
g30
sg31
g32
sg33
S'clim.he6050.bio16.tif'
p2056
sg35
S'clim'
p2057
sg37
g38
sg39
I4326
sg40
S'2050'
p2058
ssS'bio06'
p2059
(dp2060
g8
S'2015-03-16 22:08:29'
p2061
sg10
S'he6050.bio06'
p2062
sg12
I320
sg13
S'bio06'
p2063
sg15
S'Min Temperature of Coldest Month'
p2064
sg17
S'60'
p2065
sg19
S'he6050'
p2066
sg21
S'../views/GTiff/clim.he6050.bio06.tif'
p2067
sg23
S'climate'
p2068
sg25
S'clim.he6050.bio06'
p2069
sg27
S'Min Temperature of Coldest Month HE RCP60 2050'
p2070
sg29
g30
sg31
g32
sg33
S'clim.he6050.bio06.tif'
p2071
sg35
S'clim'
p2072
sg37
g38
sg39
I4326
sg40
S'2050'
p2073
ssS'bio05'
p2074
(dp2075
g8
S'2015-03-16 22:08:29'
p2076
sg10
S'he6050.bio05'
p2077
sg12
I336
sg13
S'bio05'
p2078
sg15
S'Max Temperature of Warmest Month'
p2079
sg17
S'60'
p2080
sg19
S'he6050'
p2081
sg21
S'../views/GTiff/clim.he6050.bio05.tif'
p2082
sg23
S'climate'
p2083
sg25
S'clim.he6050.bio05'
p2084
sg27
S'Max Temperature of Warmest Month HE RCP60 2050'
p2085
sg29
g30
sg31
g32
sg33
S'clim.he6050.bio05.tif'
p2086
sg35
S'clim'
p2087
sg37
g38
sg39
I4326
sg40
S'2050'
p2088
ssS'bio14'
p2089
(dp2090
g8
S'2015-03-16 22:08:29'
p2091
sg10
S'he6050.bio14'
p2092
sg12
I198
sg13
S'bio14'
p2093
sg15
S'Precipitation of Driest Month'
p2094
sg17
S'60'
p2095
sg19
S'he6050'
p2096
sg21
S'../views/GTiff/clim.he6050.bio14.tif'
p2097
sg23
S'climate'
p2098
sg25
S'clim.he6050.bio14'
p2099
sg27
S'Precipitation of Driest Month HE RCP60 2050'
p2100
sg29
g30
sg31
g32
sg33
S'clim.he6050.bio14.tif'
p2101
sg35
S'clim'
p2102
sg37
g38
sg39
I4326
sg40
S'2050'
p2103
ssS'bio07'
p2104
(dp2105
g8
S'2015-03-16 22:08:29'
p2106
sg10
S'he6050.bio07'
p2107
sg12
I52
sg13
S'bio07'
p2108
sg15
S'Temperature Annual Range (BIO5-BIO6)'
p2109
sg17
S'60'
p2110
sg19
S'he6050'
p2111
sg21
S'../views/GTiff/clim.he6050.bio07.tif'
p2112
sg23
S'climate'
p2113
sg25
S'clim.he6050.bio07'
p2114
sg27
S'Temperature Annual Range (BIO5-BIO6) HE RCP60 2050'
p2115
sg29
g30
sg31
g32
sg33
S'clim.he6050.bio07.tif'
p2116
sg35
S'clim'
p2117
sg37
g38
sg39
I4326
sg40
S'2050'
p2118
ssS'bio11'
p2119
(dp2120
g8
S'2015-03-16 22:08:29'
p2121
sg10
S'he6050.bio11'
p2122
sg12
I230
sg13
S'bio11'
p2123
sg15
S'Mean Temperature of Coldest Quarter'
p2124
sg17
S'60'
p2125
sg19
S'he6050'
p2126
sg21
S'../views/GTiff/clim.he6050.bio11.tif'
p2127
sg23
S'climate'
p2128
sg25
S'clim.he6050.bio11'
p2129
sg27
S'Mean Temperature of Coldest Quarter HE RCP60 2050'
p2130
sg29
g30
sg31
g32
sg33
S'clim.he6050.bio11.tif'
p2131
sg35
S'clim'
p2132
sg37
g38
sg39
I4326
sg40
S'2050'
p2133
ssS'bio12'
p2134
(dp2135
g8
S'2015-03-16 22:08:29'
p2136
sg10
S'he6050.bio12'
p2137
sg12
I0
sg13
S'bio12'
p2138
sg15
S'Annual Precipitation'
p2139
sg17
S'60'
p2140
sg19
g2027
sg21
S'../views/GTiff/clim.he6050.bio12.tif'
p2141
sg23
S'climate'
p2142
sg25
S'clim.he6050.bio12'
p2143
sg27
S'Annual Precipitation HE RCP60 2050'
p2144
sg29
g30
sg31
g32
sg33
S'clim.he6050.bio12.tif'
p2145
sg35
g2
sg37
g38
sg39
I4326
sg40
S'2050'
p2146
ssS'bio13'
p2147
(dp2148
g8
S'2015-03-16 22:08:29'
p2149
sg10
S'he6050.bio13'
p2150
sg12
I98
sg13
S'bio13'
p2151
sg15
S'Precipitation of Wettest Month'
p2152
sg17
S'60'
p2153
sg19
S'he6050'
p2154
sg21
S'../views/GTiff/clim.he6050.bio13.tif'
p2155
sg23
S'climate'
p2156
sg25
S'clim.he6050.bio13'
p2157
sg27
S'Precipitation of Wettest Month HE RCP60 2050'
p2158
sg29
g30
sg31
g32
sg33
S'clim.he6050.bio13.tif'
p2159
sg35
S'clim'
p2160
sg37
g38
sg39
I4326
sg40
S'2050'
p2161
ssS'bio03'
p2162
(dp2163
g8
S'2015-03-16 22:08:29'
p2164
sg10
S'he6050.bio03'
p2165
sg12
I64
sg13
S'bio03'
p2166
sg15
S'Isothermality (BIO2/BIO7) (* 100)'
p2167
sg17
S'60'
p2168
sg19
S'he6050'
p2169
sg21
S'../views/GTiff/clim.he6050.bio03.tif'
p2170
sg23
S'climate'
p2171
sg25
S'clim.he6050.bio03'
p2172
sg27
S'Isothermality (BIO2/BIO7) (* 100) HE RCP60 2050'
p2173
sg29
g30
sg31
g32
sg33
S'clim.he6050.bio03.tif'
p2174
sg35
S'clim'
p2175
sg37
g38
sg39
I4326
sg40
S'2050'
p2176
ssS'bio02'
p2177
(dp2178
g8
S'2015-03-16 22:08:29'
p2179
sg10
S'he6050.bio02'
p2180
sg12
I32
sg13
S'bio02'
p2181
sg15
S'Mean Diurnal Range (Mean of monthly (max temp - min temp))'
p2182
sg17
S'60'
p2183
sg19
S'he6050'
p2184
sg21
S'../views/GTiff/clim.he6050.bio02.tif'
p2185
sg23
S'climate'
p2186
sg25
S'clim.he6050.bio02'
p2187
sg27
S'Mean Diurnal Range (Mean of monthly (max temp - min temp)) HE RCP60 2050'
p2188
sg29
g30
sg31
g32
sg33
S'clim.he6050.bio02.tif'
p2189
sg35
S'clim'
p2190
sg37
g38
sg39
I4326
sg40
S'2050'
p2191
ssS'bio01'
p2192
(dp2193
g8
S'2015-03-16 22:08:29'
p2194
sg10
S'he6050.bio01'
p2195
sg12
I28
sg13
S'bio01'
p2196
sg15
S'Annual Mean Temperature'
p2197
sg17
S'60'
p2198
sg19
S'he6050'
p2199
sg21
S'../views/GTiff/clim.he6050.bio01.tif'
p2200
sg23
S'climate'
p2201
sg25
S'clim.he6050.bio01'
p2202
sg27
S'Annual Mean Temperature HE RCP60 2050'
p2203
sg29
g30
sg31
g32
sg33
S'clim.he6050.bio01.tif'
p2204
sg35
S'clim'
p2205
sg37
g38
sg39
I4326
sg40
S'2050'
p2206
ssS'bio17'
p2207
(dp2208
g8
S'2015-03-16 22:08:29'
p2209
sg10
S'he6050.bio17'
p2210
sg12
I19
sg13
S'bio17'
p2211
sg15
S'Precipitation of Driest Quarter'
p2212
sg17
S'60'
p2213
sg19
S'he6050'
p2214
sg21
S'../views/GTiff/clim.he6050.bio17.tif'
p2215
sg23
S'climate'
p2216
sg25
S'clim.he6050.bio17'
p2217
sg27
S'Precipitation of Driest Quarter HE RCP60 2050'
p2218
sg29
g30
sg31
g32
sg33
S'clim.he6050.bio17.tif'
p2219
sg35
S'clim'
p2220
sg37
g38
sg39
I4326
sg40
S'2050'
p2221
ssS'bio18'
p2222
(dp2223
g8
S'2015-03-16 22:08:29'
p2224
sg10
S'he6050.bio18'
p2225
sg12
I301
sg13
S'bio18'
p2226
sg15
S'Precipitation of Warmest Quarter'
p2227
sg17
S'60'
p2228
sg19
S'he6050'
p2229
sg21
S'../views/GTiff/clim.he6050.bio18.tif'
p2230
sg23
S'climate'
p2231
sg25
S'clim.he6050.bio18'
p2232
sg27
S'Precipitation of Warmest Quarter HE RCP60 2050'
p2233
sg29
g30
sg31
g32
sg33
S'clim.he6050.bio18.tif'
p2234
sg35
S'clim'
p2235
sg37
g38
sg39
I4326
sg40
S'2050'
p2236
ssS'bio19'
p2237
(dp2238
g8
S'2015-03-16 22:08:29'
p2239
sg10
S'he6050.bio19'
p2240
sg12
I107
sg13
S'bio19'
p2241
sg15
S'Precipitation of Coldest Quarter'
p2242
sg17
S'60'
p2243
sg19
S'he6050'
p2244
sg21
S'../views/GTiff/clim.he6050.bio19.tif'
p2245
sg23
S'climate'
p2246
sg25
S'clim.he6050.bio19'
p2247
sg27
S'Precipitation of Coldest Quarter HE RCP60 2050'
p2248
sg29
g30
sg31
g32
sg33
S'clim.he6050.bio19.tif'
p2249
sg35
S'clim'
p2250
sg37
g38
sg39
I4326
sg40
S'2050'
p2251
ssS'bio04'
p2252
(dp2253
g8
S'2015-03-16 22:08:29'
p2254
sg10
S'he6050.bio04'
p2255
sg12
I123
sg13
S'bio04'
p2256
sg15
S'Temperature Seasonality (standard deviation *100)'
p2257
sg17
S'60'
p2258
sg19
S'he6050'
p2259
sg21
S'../views/GTiff/clim.he6050.bio04.tif'
p2260
sg23
S'climate'
p2261
sg25
S'clim.he6050.bio04'
p2262
sg27
S'Temperature Seasonality (standard deviation *100) HE RCP60 2050'
p2263
sg29
g30
sg31
g32
sg33
S'clim.he6050.bio04.tif'
p2264
sg35
S'clim'
p2265
sg37
g38
sg39
I4326
sg40
S'2050'
p2266
ssS'bio08'
p2267
(dp2268
g8
S'2015-03-16 22:08:29'
p2269
sg10
S'he6050.bio08'
p2270
sg12
I215
sg13
S'bio08'
p2271
sg15
S'Mean Temperature of Wettest Quarter'
p2272
sg17
S'60'
p2273
sg19
S'he6050'
p2274
sg21
S'../views/GTiff/clim.he6050.bio08.tif'
p2275
sg23
S'climate'
p2276
sg25
S'clim.he6050.bio08'
p2277
sg27
S'Mean Temperature of Wettest Quarter HE RCP60 2050'
p2278
sg29
g30
sg31
g32
sg33
S'clim.he6050.bio08.tif'
p2279
sg35
S'clim'
p2280
sg37
g38
sg39
I4326
sg40
S'2050'
p2281
ssS'bio09'
p2282
(dp2283
g8
S'2015-03-16 22:08:29'
p2284
sg10
S'he6050.bio09'
p2285
sg12
I97
sg13
S'bio09'
p2286
sg15
S'Mean Temperature of Driest Quarter'
p2287
sg17
S'60'
p2288
sg19
S'he6050'
p2289
sg21
S'../views/GTiff/clim.he6050.bio09.tif'
p2290
sg23
S'climate'
p2291
sg25
S'clim.he6050.bio09'
p2292
sg27
S'Mean Temperature of Driest Quarter HE RCP60 2050'
p2293
sg29
g30
sg31
g32
sg33
S'clim.he6050.bio09.tif'
p2294
sg35
S'clim'
p2295
sg37
g38
sg39
I4326
sg40
S'2050'
p2296
ssS'bio15'
p2297
(dp2298
g8
S'2015-03-16 22:08:29'
p2299
sg10
S'he6050.bio15'
p2300
sg12
I120
sg13
S'bio15'
p2301
sg15
S'Precipitation Seasonality (Coefficient of Variation)'
p2302
sg17
S'60'
p2303
sg19
S'he6050'
p2304
sg21
S'../views/GTiff/clim.he6050.bio15.tif'
p2305
sg23
S'climate'
p2306
sg25
S'clim.he6050.bio15'
p2307
sg27
S'Precipitation Seasonality (Coefficient of Variation) HE RCP60 2050'
p2308
sg29
g30
sg31
g32
sg33
S'clim.he6050.bio15.tif'
p2309
sg35
S'clim'
p2310
sg37
g38
sg39
I4326
sg40
S'2050'
p2311
sssS'gd4570'
p2312
(dp2313
S'bio10'
p2314
(dp2315
g8
S'2015-03-16 22:08:29'
p2316
sg10
S'gd4570.bio10'
p2317
sg12
I121
sg13
S'bio10'
p2318
sg15
S'Mean Temperature of Warmest Quarter'
p2319
sg17
S'45'
p2320
sg19
S'gd4570'
p2321
sg21
S'../views/GTiff/clim.gd4570.bio10.tif'
p2322
sg23
S'climate'
p2323
sg25
S'clim.gd4570.bio10'
p2324
sg27
S'Mean Temperature of Warmest Quarter GD RCP45 2070'
p2325
sg29
g30
sg31
g32
sg33
S'clim.gd4570.bio10.tif'
p2326
sg35
S'clim'
p2327
sg37
g38
sg39
I4326
sg40
S'2070'
p2328
ssS'bio19'
p2329
(dp2330
g8
S'2015-03-16 22:08:29'
p2331
sg10
S'gd4570.bio19'
p2332
sg12
I307
sg13
S'bio19'
p2333
sg15
S'Precipitation of Coldest Quarter'
p2334
sg17
S'45'
p2335
sg19
S'gd4570'
p2336
sg21
S'../views/GTiff/clim.gd4570.bio19.tif'
p2337
sg23
S'climate'
p2338
sg25
S'clim.gd4570.bio19'
p2339
sg27
S'Precipitation of Coldest Quarter GD RCP45 2070'
p2340
sg29
g30
sg31
g32
sg33
S'clim.gd4570.bio19.tif'
p2341
sg35
S'clim'
p2342
sg37
g38
sg39
I4326
sg40
S'2070'
p2343
ssS'bio01'
p2344
(dp2345
g8
S'2015-03-16 22:08:29'
p2346
sg10
S'gd4570.bio01'
p2347
sg12
I275
sg13
S'bio01'
p2348
sg15
S'Annual Mean Temperature'
p2349
sg17
S'45'
p2350
sg19
S'gd4570'
p2351
sg21
S'../views/GTiff/clim.gd4570.bio01.tif'
p2352
sg23
S'climate'
p2353
sg25
S'clim.gd4570.bio01'
p2354
sg27
S'Annual Mean Temperature GD RCP45 2070'
p2355
sg29
g30
sg31
g32
sg33
S'clim.gd4570.bio01.tif'
p2356
sg35
S'clim'
p2357
sg37
g38
sg39
I4326
sg40
S'2070'
p2358
ssS'bio06'
p2359
(dp2360
g8
S'2015-03-16 22:08:29'
p2361
sg10
S'gd4570.bio06'
p2362
sg12
I298
sg13
S'bio06'
p2363
sg15
S'Min Temperature of Coldest Month'
p2364
sg17
S'45'
p2365
sg19
S'gd4570'
p2366
sg21
S'../views/GTiff/clim.gd4570.bio06.tif'
p2367
sg23
S'climate'
p2368
sg25
S'clim.gd4570.bio06'
p2369
sg27
S'Min Temperature of Coldest Month GD RCP45 2070'
p2370
sg29
g30
sg31
g32
sg33
S'clim.gd4570.bio06.tif'
p2371
sg35
S'clim'
p2372
sg37
g38
sg39
I4326
sg40
S'2070'
p2373
ssS'bio15'
p2374
(dp2375
g8
S'2015-03-16 22:08:29'
p2376
sg10
S'gd4570.bio15'
p2377
sg12
I158
sg13
S'bio15'
p2378
sg15
S'Precipitation Seasonality (Coefficient of Variation)'
p2379
sg17
S'45'
p2380
sg19
S'gd4570'
p2381
sg21
S'../views/GTiff/clim.gd4570.bio15.tif'
p2382
sg23
S'climate'
p2383
sg25
S'clim.gd4570.bio15'
p2384
sg27
S'Precipitation Seasonality (Coefficient of Variation) GD RCP45 2070'
p2385
sg29
g30
sg31
g32
sg33
S'clim.gd4570.bio15.tif'
p2386
sg35
S'clim'
p2387
sg37
g38
sg39
I4326
sg40
S'2070'
p2388
ssS'bio13'
p2389
(dp2390
g8
S'2015-03-16 22:08:29'
p2391
sg10
S'gd4570.bio13'
p2392
sg12
I284
sg13
S'bio13'
p2393
sg15
S'Precipitation of Wettest Month'
p2394
sg17
S'45'
p2395
sg19
S'gd4570'
p2396
sg21
S'../views/GTiff/clim.gd4570.bio13.tif'
p2397
sg23
S'climate'
p2398
sg25
S'clim.gd4570.bio13'
p2399
sg27
S'Precipitation of Wettest Month GD RCP45 2070'
p2400
sg29
g30
sg31
g32
sg33
S'clim.gd4570.bio13.tif'
p2401
sg35
S'clim'
p2402
sg37
g38
sg39
I4326
sg40
S'2070'
p2403
ssS'bio12'
p2404
(dp2405
g8
S'2015-03-16 22:08:29'
p2406
sg10
S'gd4570.bio12'
p2407
sg12
I334
sg13
S'bio12'
p2408
sg15
S'Annual Precipitation'
p2409
sg17
S'45'
p2410
sg19
S'gd4570'
p2411
sg21
S'../views/GTiff/clim.gd4570.bio12.tif'
p2412
sg23
S'climate'
p2413
sg25
S'clim.gd4570.bio12'
p2414
sg27
S'Annual Precipitation GD RCP45 2070'
p2415
sg29
g30
sg31
g32
sg33
S'clim.gd4570.bio12.tif'
p2416
sg35
S'clim'
p2417
sg37
g38
sg39
I4326
sg40
S'2070'
p2418
ssS'bio07'
p2419
(dp2420
g8
S'2015-03-16 22:08:29'
p2421
sg10
S'gd4570.bio07'
p2422
sg12
I54
sg13
S'bio07'
p2423
sg15
S'Temperature Annual Range (BIO5-BIO6)'
p2424
sg17
S'45'
p2425
sg19
S'gd4570'
p2426
sg21
S'../views/GTiff/clim.gd4570.bio07.tif'
p2427
sg23
S'climate'
p2428
sg25
S'clim.gd4570.bio07'
p2429
sg27
S'Temperature Annual Range (BIO5-BIO6) GD RCP45 2070'
p2430
sg29
g30
sg31
g32
sg33
S'clim.gd4570.bio07.tif'
p2431
sg35
S'clim'
p2432
sg37
g38
sg39
I4326
sg40
S'2070'
p2433
ssS'bio11'
p2434
(dp2435
g8
S'2015-03-16 22:08:29'
p2436
sg10
S'gd4570.bio11'
p2437
sg12
I48
sg13
S'bio11'
p2438
sg15
S'Mean Temperature of Coldest Quarter'
p2439
sg17
S'45'
p2440
sg19
S'gd4570'
p2441
sg21
S'../views/GTiff/clim.gd4570.bio11.tif'
p2442
sg23
S'climate'
p2443
sg25
S'clim.gd4570.bio11'
p2444
sg27
S'Mean Temperature of Coldest Quarter GD RCP45 2070'
p2445
sg29
g30
sg31
g32
sg33
S'clim.gd4570.bio11.tif'
p2446
sg35
S'clim'
p2447
sg37
g38
sg39
I4326
sg40
S'2070'
p2448
ssS'bio05'
p2449
(dp2450
g8
S'2015-03-16 22:08:29'
p2451
sg10
S'gd4570.bio05'
p2452
sg12
I124
sg13
S'bio05'
p2453
sg15
S'Max Temperature of Warmest Month'
p2454
sg17
S'45'
p2455
sg19
S'gd4570'
p2456
sg21
S'../views/GTiff/clim.gd4570.bio05.tif'
p2457
sg23
S'climate'
p2458
sg25
S'clim.gd4570.bio05'
p2459
sg27
S'Max Temperature of Warmest Month GD RCP45 2070'
p2460
sg29
g30
sg31
g32
sg33
S'clim.gd4570.bio05.tif'
p2461
sg35
S'clim'
p2462
sg37
g38
sg39
I4326
sg40
S'2070'
p2463
ssS'bio04'
p2464
(dp2465
g8
S'2015-03-16 22:08:29'
p2466
sg10
S'gd4570.bio04'
p2467
sg12
I55
sg13
S'bio04'
p2468
sg15
S'Temperature Seasonality (standard deviation *100)'
p2469
sg17
S'45'
p2470
sg19
S'gd4570'
p2471
sg21
S'../views/GTiff/clim.gd4570.bio04.tif'
p2472
sg23
S'climate'
p2473
sg25
S'clim.gd4570.bio04'
p2474
sg27
S'Temperature Seasonality (standard deviation *100) GD RCP45 2070'
p2475
sg29
g30
sg31
g32
sg33
S'clim.gd4570.bio04.tif'
p2476
sg35
S'clim'
p2477
sg37
g38
sg39
I4326
sg40
S'2070'
p2478
ssS'bio03'
p2479
(dp2480
g8
S'2015-03-16 22:08:29'
p2481
sg10
S'gd4570.bio03'
p2482
sg12
I138
sg13
S'bio03'
p2483
sg15
S'Isothermality (BIO2/BIO7) (* 100)'
p2484
sg17
S'45'
p2485
sg19
S'gd4570'
p2486
sg21
S'../views/GTiff/clim.gd4570.bio03.tif'
p2487
sg23
S'climate'
p2488
sg25
S'clim.gd4570.bio03'
p2489
sg27
S'Isothermality (BIO2/BIO7) (* 100) GD RCP45 2070'
p2490
sg29
g30
sg31
g32
sg33
S'clim.gd4570.bio03.tif'
p2491
sg35
S'clim'
p2492
sg37
g38
sg39
I4326
sg40
S'2070'
p2493
ssS'bio02'
p2494
(dp2495
g8
S'2015-03-16 22:08:29'
p2496
sg10
S'gd4570.bio02'
p2497
sg12
I143
sg13
S'bio02'
p2498
sg15
S'Mean Diurnal Range (Mean of monthly (max temp - min temp))'
p2499
sg17
S'45'
p2500
sg19
S'gd4570'
p2501
sg21
S'../views/GTiff/clim.gd4570.bio02.tif'
p2502
sg23
S'climate'
p2503
sg25
S'clim.gd4570.bio02'
p2504
sg27
S'Mean Diurnal Range (Mean of monthly (max temp - min temp)) GD RCP45 2070'
p2505
sg29
g30
sg31
g32
sg33
S'clim.gd4570.bio02.tif'
p2506
sg35
S'clim'
p2507
sg37
g38
sg39
I4326
sg40
S'2070'
p2508
ssS'bio16'
p2509
(dp2510
g8
S'2015-03-16 22:08:29'
p2511
sg10
S'gd4570.bio16'
p2512
sg12
I185
sg13
S'bio16'
p2513
sg15
S'Precipitation of Wettest Quarter'
p2514
sg17
S'45'
p2515
sg19
S'gd4570'
p2516
sg21
S'../views/GTiff/clim.gd4570.bio16.tif'
p2517
sg23
S'climate'
p2518
sg25
S'clim.gd4570.bio16'
p2519
sg27
S'Precipitation of Wettest Quarter GD RCP45 2070'
p2520
sg29
g30
sg31
g32
sg33
S'clim.gd4570.bio16.tif'
p2521
sg35
S'clim'
p2522
sg37
g38
sg39
I4326
sg40
S'2070'
p2523
ssS'bio17'
p2524
(dp2525
g8
S'2015-03-16 22:08:29'
p2526
sg10
S'gd4570.bio17'
p2527
sg12
I8
sg13
S'bio17'
p2528
sg15
S'Precipitation of Driest Quarter'
p2529
sg17
S'45'
p2530
sg19
g2312
sg21
S'../views/GTiff/clim.gd4570.bio17.tif'
p2531
sg23
S'climate'
p2532
sg25
S'clim.gd4570.bio17'
p2533
sg27
S'Precipitation of Driest Quarter GD RCP45 2070'
p2534
sg29
g30
sg31
g32
sg33
S'clim.gd4570.bio17.tif'
p2535
sg35
S'clim'
p2536
sg37
g38
sg39
I4326
sg40
S'2070'
p2537
ssS'bio18'
p2538
(dp2539
g8
S'2015-03-16 22:08:29'
p2540
sg10
S'gd4570.bio18'
p2541
sg12
I260
sg13
S'bio18'
p2542
sg15
S'Precipitation of Warmest Quarter'
p2543
sg17
S'45'
p2544
sg19
S'gd4570'
p2545
sg21
S'../views/GTiff/clim.gd4570.bio18.tif'
p2546
sg23
S'climate'
p2547
sg25
S'clim.gd4570.bio18'
p2548
sg27
S'Precipitation of Warmest Quarter GD RCP45 2070'
p2549
sg29
g30
sg31
g32
sg33
S'clim.gd4570.bio18.tif'
p2550
sg35
S'clim'
p2551
sg37
g38
sg39
I4326
sg40
S'2070'
p2552
ssS'bio14'
p2553
(dp2554
g8
S'2015-03-16 22:08:29'
p2555
sg10
S'gd4570.bio14'
p2556
sg12
I228
sg13
S'bio14'
p2557
sg15
S'Precipitation of Driest Month'
p2558
sg17
S'45'
p2559
sg19
S'gd4570'
p2560
sg21
S'../views/GTiff/clim.gd4570.bio14.tif'
p2561
sg23
S'climate'
p2562
sg25
S'clim.gd4570.bio14'
p2563
sg27
S'Precipitation of Driest Month GD RCP45 2070'
p2564
sg29
g30
sg31
g32
sg33
S'clim.gd4570.bio14.tif'
p2565
sg35
S'clim'
p2566
sg37
g38
sg39
I4326
sg40
S'2070'
p2567
ssS'bio09'
p2568
(dp2569
g8
S'2015-03-16 22:08:29'
p2570
sg10
S'gd4570.bio09'
p2571
sg12
I188
sg13
S'bio09'
p2572
sg15
S'Mean Temperature of Driest Quarter'
p2573
sg17
S'45'
p2574
sg19
S'gd4570'
p2575
sg21
S'../views/GTiff/clim.gd4570.bio09.tif'
p2576
sg23
S'climate'
p2577
sg25
S'clim.gd4570.bio09'
p2578
sg27
S'Mean Temperature of Driest Quarter GD RCP45 2070'
p2579
sg29
g30
sg31
g32
sg33
S'clim.gd4570.bio09.tif'
p2580
sg35
S'clim'
p2581
sg37
g38
sg39
I4326
sg40
S'2070'
p2582
ssS'bio08'
p2583
(dp2584
g8
S'2015-03-16 22:08:29'
p2585
sg10
S'gd4570.bio08'
p2586
sg12
I65
sg13
S'bio08'
p2587
sg15
S'Mean Temperature of Wettest Quarter'
p2588
sg17
S'45'
p2589
sg19
S'gd4570'
p2590
sg21
S'../views/GTiff/clim.gd4570.bio08.tif'
p2591
sg23
S'climate'
p2592
sg25
S'clim.gd4570.bio08'
p2593
sg27
S'Mean Temperature of Wettest Quarter GD RCP45 2070'
p2594
sg29
g30
sg31
g32
sg33
S'clim.gd4570.bio08.tif'
p2595
sg35
S'clim'
p2596
sg37
g38
sg39
I4326
sg40
S'2070'
p2597
sssS'he4550'
p2598
(dp2599
S'bio07'
p2600
(dp2601
g8
S'2015-03-16 22:08:29'
p2602
sg10
S'he4550.bio07'
p2603
sg12
I189
sg13
S'bio07'
p2604
sg15
S'Temperature Annual Range (BIO5-BIO6)'
p2605
sg17
S'45'
p2606
sg19
S'he4550'
p2607
sg21
S'../views/GTiff/clim.he4550.bio07.tif'
p2608
sg23
S'climate'
p2609
sg25
S'clim.he4550.bio07'
p2610
sg27
S'Temperature Annual Range (BIO5-BIO6) HE RCP45 2050'
p2611
sg29
g30
sg31
g32
sg33
S'clim.he4550.bio07.tif'
p2612
sg35
S'clim'
p2613
sg37
g38
sg39
I4326
sg40
S'2050'
p2614
ssS'bio13'
p2615
(dp2616
g8
S'2015-03-16 22:08:29'
p2617
sg10
S'he4550.bio13'
p2618
sg12
I279
sg13
S'bio13'
p2619
sg15
S'Precipitation of Wettest Month'
p2620
sg17
S'45'
p2621
sg19
S'he4550'
p2622
sg21
S'../views/GTiff/clim.he4550.bio13.tif'
p2623
sg23
S'climate'
p2624
sg25
S'clim.he4550.bio13'
p2625
sg27
S'Precipitation of Wettest Month HE RCP45 2050'
p2626
sg29
g30
sg31
g32
sg33
S'clim.he4550.bio13.tif'
p2627
sg35
S'clim'
p2628
sg37
g38
sg39
I4326
sg40
S'2050'
p2629
ssS'bio06'
p2630
(dp2631
g8
S'2015-03-16 22:08:29'
p2632
sg10
S'he4550.bio06'
p2633
sg12
I266
sg13
S'bio06'
p2634
sg15
S'Min Temperature of Coldest Month'
p2635
sg17
S'45'
p2636
sg19
S'he4550'
p2637
sg21
S'../views/GTiff/clim.he4550.bio06.tif'
p2638
sg23
S'climate'
p2639
sg25
S'clim.he4550.bio06'
p2640
sg27
S'Min Temperature of Coldest Month HE RCP45 2050'
p2641
sg29
g30
sg31
g32
sg33
S'clim.he4550.bio06.tif'
p2642
sg35
S'clim'
p2643
sg37
g38
sg39
I4326
sg40
S'2050'
p2644
ssS'bio16'
p2645
(dp2646
g8
S'2015-03-16 22:08:29'
p2647
sg10
S'he4550.bio16'
p2648
sg12
I294
sg13
S'bio16'
p2649
sg15
S'Precipitation of Wettest Quarter'
p2650
sg17
S'45'
p2651
sg19
S'he4550'
p2652
sg21
S'../views/GTiff/clim.he4550.bio16.tif'
p2653
sg23
S'climate'
p2654
sg25
S'clim.he4550.bio16'
p2655
sg27
S'Precipitation of Wettest Quarter HE RCP45 2050'
p2656
sg29
g30
sg31
g32
sg33
S'clim.he4550.bio16.tif'
p2657
sg35
S'clim'
p2658
sg37
g38
sg39
I4326
sg40
S'2050'
p2659
ssS'bio12'
p2660
(dp2661
g8
S'2015-03-16 22:08:29'
p2662
sg10
S'he4550.bio12'
p2663
sg12
I280
sg13
S'bio12'
p2664
sg15
S'Annual Precipitation'
p2665
sg17
S'45'
p2666
sg19
S'he4550'
p2667
sg21
S'../views/GTiff/clim.he4550.bio12.tif'
p2668
sg23
S'climate'
p2669
sg25
S'clim.he4550.bio12'
p2670
sg27
S'Annual Precipitation HE RCP45 2050'
p2671
sg29
g30
sg31
g32
sg33
S'clim.he4550.bio12.tif'
p2672
sg35
S'clim'
p2673
sg37
g38
sg39
I4326
sg40
S'2050'
p2674
ssS'bio10'
p2675
(dp2676
g8
S'2015-03-16 22:08:29'
p2677
sg10
S'he4550.bio10'
p2678
sg12
I76
sg13
S'bio10'
p2679
sg15
S'Mean Temperature of Warmest Quarter'
p2680
sg17
S'45'
p2681
sg19
S'he4550'
p2682
sg21
S'../views/GTiff/clim.he4550.bio10.tif'
p2683
sg23
S'climate'
p2684
sg25
S'clim.he4550.bio10'
p2685
sg27
S'Mean Temperature of Warmest Quarter HE RCP45 2050'
p2686
sg29
g30
sg31
g32
sg33
S'clim.he4550.bio10.tif'
p2687
sg35
S'clim'
p2688
sg37
g38
sg39
I4326
sg40
S'2050'
p2689
ssS'bio11'
p2690
(dp2691
g8
S'2015-03-16 22:08:29'
p2692
sg10
S'he4550.bio11'
p2693
sg12
I23
sg13
S'bio11'
p2694
sg15
S'Mean Temperature of Coldest Quarter'
p2695
sg17
S'45'
p2696
sg19
S'he4550'
p2697
sg21
S'../views/GTiff/clim.he4550.bio11.tif'
p2698
sg23
S'climate'
p2699
sg25
S'clim.he4550.bio11'
p2700
sg27
S'Mean Temperature of Coldest Quarter HE RCP45 2050'
p2701
sg29
g30
sg31
g32
sg33
S'clim.he4550.bio11.tif'
p2702
sg35
S'clim'
p2703
sg37
g38
sg39
I4326
sg40
S'2050'
p2704
ssS'bio05'
p2705
(dp2706
g8
S'2015-03-16 22:08:29'
p2707
sg10
S'he4550.bio05'
p2708
sg12
I206
sg13
S'bio05'
p2709
sg15
S'Max Temperature of Warmest Month'
p2710
sg17
S'45'
p2711
sg19
S'he4550'
p2712
sg21
S'../views/GTiff/clim.he4550.bio05.tif'
p2713
sg23
S'climate'
p2714
sg25
S'clim.he4550.bio05'
p2715
sg27
S'Max Temperature of Warmest Month HE RCP45 2050'
p2716
sg29
g30
sg31
g32
sg33
S'clim.he4550.bio05.tif'
p2717
sg35
S'clim'
p2718
sg37
g38
sg39
I4326
sg40
S'2050'
p2719
ssS'bio04'
p2720
(dp2721
g8
S'2015-03-16 22:08:29'
p2722
sg10
S'he4550.bio04'
p2723
sg12
I9
sg13
S'bio04'
p2724
sg15
S'Temperature Seasonality (standard deviation *100)'
p2725
sg17
S'45'
p2726
sg19
g2598
sg21
S'../views/GTiff/clim.he4550.bio04.tif'
p2727
sg23
S'climate'
p2728
sg25
S'clim.he4550.bio04'
p2729
sg27
S'Temperature Seasonality (standard deviation *100) HE RCP45 2050'
p2730
sg29
g30
sg31
g32
sg33
S'clim.he4550.bio04.tif'
p2731
sg35
S'clim'
p2732
sg37
g38
sg39
I4326
sg40
S'2050'
p2733
ssS'bio14'
p2734
(dp2735
g8
S'2015-03-16 22:08:29'
p2736
sg10
S'he4550.bio14'
p2737
sg12
I122
sg13
S'bio14'
p2738
sg15
S'Precipitation of Driest Month'
p2739
sg17
S'45'
p2740
sg19
S'he4550'
p2741
sg21
S'../views/GTiff/clim.he4550.bio14.tif'
p2742
sg23
S'climate'
p2743
sg25
S'clim.he4550.bio14'
p2744
sg27
S'Precipitation of Driest Month HE RCP45 2050'
p2745
sg29
g30
sg31
g32
sg33
S'clim.he4550.bio14.tif'
p2746
sg35
S'clim'
p2747
sg37
g38
sg39
I4326
sg40
S'2050'
p2748
ssS'bio15'
p2749
(dp2750
g8
S'2015-03-16 22:08:29'
p2751
sg10
S'he4550.bio15'
p2752
sg12
I238
sg13
S'bio15'
p2753
sg15
S'Precipitation Seasonality (Coefficient of Variation)'
p2754
sg17
S'45'
p2755
sg19
S'he4550'
p2756
sg21
S'../views/GTiff/clim.he4550.bio15.tif'
p2757
sg23
S'climate'
p2758
sg25
S'clim.he4550.bio15'
p2759
sg27
S'Precipitation Seasonality (Coefficient of Variation) HE RCP45 2050'
p2760
sg29
g30
sg31
g32
sg33
S'clim.he4550.bio15.tif'
p2761
sg35
S'clim'
p2762
sg37
g38
sg39
I4326
sg40
S'2050'
p2763
ssS'bio01'
p2764
(dp2765
g8
S'2015-03-16 22:08:29'
p2766
sg10
S'he4550.bio01'
p2767
sg12
I153
sg13
S'bio01'
p2768
sg15
S'Annual Mean Temperature'
p2769
sg17
S'45'
p2770
sg19
S'he4550'
p2771
sg21
S'../views/GTiff/clim.he4550.bio01.tif'
p2772
sg23
S'climate'
p2773
sg25
S'clim.he4550.bio01'
p2774
sg27
S'Annual Mean Temperature HE RCP45 2050'
p2775
sg29
g30
sg31
g32
sg33
S'clim.he4550.bio01.tif'
p2776
sg35
S'clim'
p2777
sg37
g38
sg39
I4326
sg40
S'2050'
p2778
ssS'bio17'
p2779
(dp2780
g8
S'2015-03-16 22:08:29'
p2781
sg10
S'he4550.bio17'
p2782
sg12
I131
sg13
S'bio17'
p2783
sg15
S'Precipitation of Driest Quarter'
p2784
sg17
S'45'
p2785
sg19
S'he4550'
p2786
sg21
S'../views/GTiff/clim.he4550.bio17.tif'
p2787
sg23
S'climate'
p2788
sg25
S'clim.he4550.bio17'
p2789
sg27
S'Precipitation of Driest Quarter HE RCP45 2050'
p2790
sg29
g30
sg31
g32
sg33
S'clim.he4550.bio17.tif'
p2791
sg35
S'clim'
p2792
sg37
g38
sg39
I4326
sg40
S'2050'
p2793
ssS'bio18'
p2794
(dp2795
g8
S'2015-03-16 22:08:29'
p2796
sg10
S'he4550.bio18'
p2797
sg12
I227
sg13
S'bio18'
p2798
sg15
S'Precipitation of Warmest Quarter'
p2799
sg17
S'45'
p2800
sg19
S'he4550'
p2801
sg21
S'../views/GTiff/clim.he4550.bio18.tif'
p2802
sg23
S'climate'
p2803
sg25
S'clim.he4550.bio18'
p2804
sg27
S'Precipitation of Warmest Quarter HE RCP45 2050'
p2805
sg29
g30
sg31
g32
sg33
S'clim.he4550.bio18.tif'
p2806
sg35
S'clim'
p2807
sg37
g38
sg39
I4326
sg40
S'2050'
p2808
ssS'bio19'
p2809
(dp2810
g8
S'2015-03-16 22:08:29'
p2811
sg10
S'he4550.bio19'
p2812
sg12
I187
sg13
S'bio19'
p2813
sg15
S'Precipitation of Coldest Quarter'
p2814
sg17
S'45'
p2815
sg19
S'he4550'
p2816
sg21
S'../views/GTiff/clim.he4550.bio19.tif'
p2817
sg23
S'climate'
p2818
sg25
S'clim.he4550.bio19'
p2819
sg27
S'Precipitation of Coldest Quarter HE RCP45 2050'
p2820
sg29
g30
sg31
g32
sg33
S'clim.he4550.bio19.tif'
p2821
sg35
S'clim'
p2822
sg37
g38
sg39
I4326
sg40
S'2050'
p2823
ssS'bio02'
p2824
(dp2825
g8
S'2015-03-16 22:08:29'
p2826
sg10
S'he4550.bio02'
p2827
sg12
I299
sg13
S'bio02'
p2828
sg15
S'Mean Diurnal Range (Mean of monthly (max temp - min temp))'
p2829
sg17
S'45'
p2830
sg19
S'he4550'
p2831
sg21
S'../views/GTiff/clim.he4550.bio02.tif'
p2832
sg23
S'climate'
p2833
sg25
S'clim.he4550.bio02'
p2834
sg27
S'Mean Diurnal Range (Mean of monthly (max temp - min temp)) HE RCP45 2050'
p2835
sg29
g30
sg31
g32
sg33
S'clim.he4550.bio02.tif'
p2836
sg35
S'clim'
p2837
sg37
g38
sg39
I4326
sg40
S'2050'
p2838
ssS'bio03'
p2839
(dp2840
g8
S'2015-03-16 22:08:29'
p2841
sg10
S'he4550.bio03'
p2842
sg12
I192
sg13
S'bio03'
p2843
sg15
S'Isothermality (BIO2/BIO7) (* 100)'
p2844
sg17
S'45'
p2845
sg19
S'he4550'
p2846
sg21
S'../views/GTiff/clim.he4550.bio03.tif'
p2847
sg23
S'climate'
p2848
sg25
S'clim.he4550.bio03'
p2849
sg27
S'Isothermality (BIO2/BIO7) (* 100) HE RCP45 2050'
p2850
sg29
g30
sg31
g32
sg33
S'clim.he4550.bio03.tif'
p2851
sg35
S'clim'
p2852
sg37
g38
sg39
I4326
sg40
S'2050'
p2853
ssS'bio09'
p2854
(dp2855
g8
S'2015-03-16 22:08:29'
p2856
sg10
S'he4550.bio09'
p2857
sg12
I197
sg13
S'bio09'
p2858
sg15
S'Mean Temperature of Driest Quarter'
p2859
sg17
S'45'
p2860
sg19
S'he4550'
p2861
sg21
S'../views/GTiff/clim.he4550.bio09.tif'
p2862
sg23
S'climate'
p2863
sg25
S'clim.he4550.bio09'
p2864
sg27
S'Mean Temperature of Driest Quarter HE RCP45 2050'
p2865
sg29
g30
sg31
g32
sg33
S'clim.he4550.bio09.tif'
p2866
sg35
S'clim'
p2867
sg37
g38
sg39
I4326
sg40
S'2050'
p2868
ssS'bio08'
p2869
(dp2870
g8
S'2015-03-16 22:08:29'
p2871
sg10
S'he4550.bio08'
p2872
sg12
I37
sg13
S'bio08'
p2873
sg15
S'Mean Temperature of Wettest Quarter'
p2874
sg17
S'45'
p2875
sg19
S'he4550'
p2876
sg21
S'../views/GTiff/clim.he4550.bio08.tif'
p2877
sg23
S'climate'
p2878
sg25
S'clim.he4550.bio08'
p2879
sg27
S'Mean Temperature of Wettest Quarter HE RCP45 2050'
p2880
sg29
g30
sg31
g32
sg33
S'clim.he4550.bio08.tif'
p2881
sg35
S'clim'
p2882
sg37
g38
sg39
I4326
sg40
S'2050'
p2883
sssS'gs4550'
p2884
(dp2885
S'bio07'
p2886
(dp2887
g8
S'2015-03-16 22:08:29'
p2888
sg10
S'gs4550.bio07'
p2889
sg12
I162
sg13
S'bio07'
p2890
sg15
S'Temperature Annual Range (BIO5-BIO6)'
p2891
sg17
S'45'
p2892
sg19
S'gs4550'
p2893
sg21
S'../views/GTiff/clim.gs4550.bio07.tif'
p2894
sg23
S'climate'
p2895
sg25
S'clim.gs4550.bio07'
p2896
sg27
S'Temperature Annual Range (BIO5-BIO6) GS RCP45 2050'
p2897
sg29
g30
sg31
g32
sg33
S'clim.gs4550.bio07.tif'
p2898
sg35
S'clim'
p2899
sg37
g38
sg39
I4326
sg40
S'2050'
p2900
ssS'bio10'
p2901
(dp2902
g8
S'2015-03-16 22:08:29'
p2903
sg10
S'gs4550.bio10'
p2904
sg12
I267
sg13
S'bio10'
p2905
sg15
S'Mean Temperature of Warmest Quarter'
p2906
sg17
S'45'
p2907
sg19
S'gs4550'
p2908
sg21
S'../views/GTiff/clim.gs4550.bio10.tif'
p2909
sg23
S'climate'
p2910
sg25
S'clim.gs4550.bio10'
p2911
sg27
S'Mean Temperature of Warmest Quarter GS RCP45 2050'
p2912
sg29
g30
sg31
g32
sg33
S'clim.gs4550.bio10.tif'
p2913
sg35
S'clim'
p2914
sg37
g38
sg39
I4326
sg40
S'2050'
p2915
ssS'bio16'
p2916
(dp2917
g8
S'2015-03-16 22:08:29'
p2918
sg10
S'gs4550.bio16'
p2919
sg12
I84
sg13
S'bio16'
p2920
sg15
S'Precipitation of Wettest Quarter'
p2921
sg17
S'45'
p2922
sg19
S'gs4550'
p2923
sg21
S'../views/GTiff/clim.gs4550.bio16.tif'
p2924
sg23
S'climate'
p2925
sg25
S'clim.gs4550.bio16'
p2926
sg27
S'Precipitation of Wettest Quarter GS RCP45 2050'
p2927
sg29
g30
sg31
g32
sg33
S'clim.gs4550.bio16.tif'
p2928
sg35
S'clim'
p2929
sg37
g38
sg39
I4326
sg40
S'2050'
p2930
ssS'bio11'
p2931
(dp2932
g8
S'2015-03-16 22:08:29'
p2933
sg10
S'gs4550.bio11'
p2934
sg12
I237
sg13
S'bio11'
p2935
sg15
S'Mean Temperature of Coldest Quarter'
p2936
sg17
S'45'
p2937
sg19
S'gs4550'
p2938
sg21
S'../views/GTiff/clim.gs4550.bio11.tif'
p2939
sg23
S'climate'
p2940
sg25
S'clim.gs4550.bio11'
p2941
sg27
S'Mean Temperature of Coldest Quarter GS RCP45 2050'
p2942
sg29
g30
sg31
g32
sg33
S'clim.gs4550.bio11.tif'
p2943
sg35
S'clim'
p2944
sg37
g38
sg39
I4326
sg40
S'2050'
p2945
ssS'bio15'
p2946
(dp2947
g8
S'2015-03-16 22:08:29'
p2948
sg10
S'gs4550.bio15'
p2949
sg12
I96
sg13
S'bio15'
p2950
sg15
S'Precipitation Seasonality (Coefficient of Variation)'
p2951
sg17
S'45'
p2952
sg19
S'gs4550'
p2953
sg21
S'../views/GTiff/clim.gs4550.bio15.tif'
p2954
sg23
S'climate'
p2955
sg25
S'clim.gs4550.bio15'
p2956
sg27
S'Precipitation Seasonality (Coefficient of Variation) GS RCP45 2050'
p2957
sg29
g30
sg31
g32
sg33
S'clim.gs4550.bio15.tif'
p2958
sg35
S'clim'
p2959
sg37
g38
sg39
I4326
sg40
S'2050'
p2960
ssS'bio05'
p2961
(dp2962
g8
S'2015-03-16 22:08:29'
p2963
sg10
S'gs4550.bio05'
p2964
sg12
I306
sg13
S'bio05'
p2965
sg15
S'Max Temperature of Warmest Month'
p2966
sg17
S'45'
p2967
sg19
S'gs4550'
p2968
sg21
S'../views/GTiff/clim.gs4550.bio05.tif'
p2969
sg23
S'climate'
p2970
sg25
S'clim.gs4550.bio05'
p2971
sg27
S'Max Temperature of Warmest Month GS RCP45 2050'
p2972
sg29
g30
sg31
g32
sg33
S'clim.gs4550.bio05.tif'
p2973
sg35
S'clim'
p2974
sg37
g38
sg39
I4326
sg40
S'2050'
p2975
ssS'bio14'
p2976
(dp2977
g8
S'2015-03-16 22:08:29'
p2978
sg10
S'gs4550.bio14'
p2979
sg12
I290
sg13
S'bio14'
p2980
sg15
S'Precipitation of Driest Month'
p2981
sg17
S'45'
p2982
sg19
S'gs4550'
p2983
sg21
S'../views/GTiff/clim.gs4550.bio14.tif'
p2984
sg23
S'climate'
p2985
sg25
S'clim.gs4550.bio14'
p2986
sg27
S'Precipitation of Driest Month GS RCP45 2050'
p2987
sg29
g30
sg31
g32
sg33
S'clim.gs4550.bio14.tif'
p2988
sg35
S'clim'
p2989
sg37
g38
sg39
I4326
sg40
S'2050'
p2990
ssS'bio13'
p2991
(dp2992
g8
S'2015-03-16 22:08:29'
p2993
sg10
S'gs4550.bio13'
p2994
sg12
I160
sg13
S'bio13'
p2995
sg15
S'Precipitation of Wettest Month'
p2996
sg17
S'45'
p2997
sg19
S'gs4550'
p2998
sg21
S'../views/GTiff/clim.gs4550.bio13.tif'
p2999
sg23
S'climate'
p3000
sg25
S'clim.gs4550.bio13'
p3001
sg27
S'Precipitation of Wettest Month GS RCP45 2050'
p3002
sg29
g30
sg31
g32
sg33
S'clim.gs4550.bio13.tif'
p3003
sg35
S'clim'
p3004
sg37
g38
sg39
I4326
sg40
S'2050'
p3005
ssS'bio06'
p3006
(dp3007
g8
S'2015-03-16 22:08:29'
p3008
sg10
S'gs4550.bio06'
p3009
sg12
I71
sg13
S'bio06'
p3010
sg15
S'Min Temperature of Coldest Month'
p3011
sg17
S'45'
p3012
sg19
S'gs4550'
p3013
sg21
S'../views/GTiff/clim.gs4550.bio06.tif'
p3014
sg23
S'climate'
p3015
sg25
S'clim.gs4550.bio06'
p3016
sg27
S'Min Temperature of Coldest Month GS RCP45 2050'
p3017
sg29
g30
sg31
g32
sg33
S'clim.gs4550.bio06.tif'
p3018
sg35
S'clim'
p3019
sg37
g38
sg39
I4326
sg40
S'2050'
p3020
ssS'bio12'
p3021
(dp3022
g8
S'2015-03-16 22:08:29'
p3023
sg10
S'gs4550.bio12'
p3024
sg12
I297
sg13
S'bio12'
p3025
sg15
S'Annual Precipitation'
p3026
sg17
S'45'
p3027
sg19
S'gs4550'
p3028
sg21
S'../views/GTiff/clim.gs4550.bio12.tif'
p3029
sg23
S'climate'
p3030
sg25
S'clim.gs4550.bio12'
p3031
sg27
S'Annual Precipitation GS RCP45 2050'
p3032
sg29
g30
sg31
g32
sg33
S'clim.gs4550.bio12.tif'
p3033
sg35
S'clim'
p3034
sg37
g38
sg39
I4326
sg40
S'2050'
p3035
ssS'bio04'
p3036
(dp3037
g8
S'2015-03-16 22:08:29'
p3038
sg10
S'gs4550.bio04'
p3039
sg12
I133
sg13
S'bio04'
p3040
sg15
S'Temperature Seasonality (standard deviation *100)'
p3041
sg17
S'45'
p3042
sg19
S'gs4550'
p3043
sg21
S'../views/GTiff/clim.gs4550.bio04.tif'
p3044
sg23
S'climate'
p3045
sg25
S'clim.gs4550.bio04'
p3046
sg27
S'Temperature Seasonality (standard deviation *100) GS RCP45 2050'
p3047
sg29
g30
sg31
g32
sg33
S'clim.gs4550.bio04.tif'
p3048
sg35
S'clim'
p3049
sg37
g38
sg39
I4326
sg40
S'2050'
p3050
ssS'bio03'
p3051
(dp3052
g8
S'2015-03-16 22:08:29'
p3053
sg10
S'gs4550.bio03'
p3054
sg12
I222
sg13
S'bio03'
p3055
sg15
S'Isothermality (BIO2/BIO7) (* 100)'
p3056
sg17
S'45'
p3057
sg19
S'gs4550'
p3058
sg21
S'../views/GTiff/clim.gs4550.bio03.tif'
p3059
sg23
S'climate'
p3060
sg25
S'clim.gs4550.bio03'
p3061
sg27
S'Isothermality (BIO2/BIO7) (* 100) GS RCP45 2050'
p3062
sg29
g30
sg31
g32
sg33
S'clim.gs4550.bio03.tif'
p3063
sg35
S'clim'
p3064
sg37
g38
sg39
I4326
sg40
S'2050'
p3065
ssS'bio02'
p3066
(dp3067
g8
S'2015-03-16 22:08:29'
p3068
sg10
S'gs4550.bio02'
p3069
sg12
I24
sg13
S'bio02'
p3070
sg15
S'Mean Diurnal Range (Mean of monthly (max temp - min temp))'
p3071
sg17
S'45'
p3072
sg19
S'gs4550'
p3073
sg21
S'../views/GTiff/clim.gs4550.bio02.tif'
p3074
sg23
S'climate'
p3075
sg25
S'clim.gs4550.bio02'
p3076
sg27
S'Mean Diurnal Range (Mean of monthly (max temp - min temp)) GS RCP45 2050'
p3077
sg29
g30
sg31
g32
sg33
S'clim.gs4550.bio02.tif'
p3078
sg35
S'clim'
p3079
sg37
g38
sg39
I4326
sg40
S'2050'
p3080
ssS'bio01'
p3081
(dp3082
g8
S'2015-03-16 22:08:29'
p3083
sg10
S'gs4550.bio01'
p3084
sg12
I87
sg13
S'bio01'
p3085
sg15
S'Annual Mean Temperature'
p3086
sg17
S'45'
p3087
sg19
S'gs4550'
p3088
sg21
S'../views/GTiff/clim.gs4550.bio01.tif'
p3089
sg23
S'climate'
p3090
sg25
S'clim.gs4550.bio01'
p3091
sg27
S'Annual Mean Temperature GS RCP45 2050'
p3092
sg29
g30
sg31
g32
sg33
S'clim.gs4550.bio01.tif'
p3093
sg35
S'clim'
p3094
sg37
g38
sg39
I4326
sg40
S'2050'
p3095
ssS'bio17'
p3096
(dp3097
g8
S'2015-03-16 22:08:29'
p3098
sg10
S'gs4550.bio17'
p3099
sg12
I104
sg13
S'bio17'
p3100
sg15
S'Precipitation of Driest Quarter'
p3101
sg17
S'45'
p3102
sg19
S'gs4550'
p3103
sg21
S'../views/GTiff/clim.gs4550.bio17.tif'
p3104
sg23
S'climate'
p3105
sg25
S'clim.gs4550.bio17'
p3106
sg27
S'Precipitation of Driest Quarter GS RCP45 2050'
p3107
sg29
g30
sg31
g32
sg33
S'clim.gs4550.bio17.tif'
p3108
sg35
S'clim'
p3109
sg37
g38
sg39
I4326
sg40
S'2050'
p3110
ssS'bio18'
p3111
(dp3112
g8
S'2015-03-16 22:08:29'
p3113
sg10
S'gs4550.bio18'
p3114
sg12
I10
sg13
S'bio18'
p3115
sg15
S'Precipitation of Warmest Quarter'
p3116
sg17
S'45'
p3117
sg19
g2884
sg21
S'../views/GTiff/clim.gs4550.bio18.tif'
p3118
sg23
S'climate'
p3119
sg25
S'clim.gs4550.bio18'
p3120
sg27
S'Precipitation of Warmest Quarter GS RCP45 2050'
p3121
sg29
g30
sg31
g32
sg33
S'clim.gs4550.bio18.tif'
p3122
sg35
S'clim'
p3123
sg37
g38
sg39
I4326
sg40
S'2050'
p3124
ssS'bio19'
p3125
(dp3126
g8
S'2015-03-16 22:08:29'
p3127
sg10
S'gs4550.bio19'
p3128
sg12
I155
sg13
S'bio19'
p3129
sg15
S'Precipitation of Coldest Quarter'
p3130
sg17
S'45'
p3131
sg19
S'gs4550'
p3132
sg21
S'../views/GTiff/clim.gs4550.bio19.tif'
p3133
sg23
S'climate'
p3134
sg25
S'clim.gs4550.bio19'
p3135
sg27
S'Precipitation of Coldest Quarter GS RCP45 2050'
p3136
sg29
g30
sg31
g32
sg33
S'clim.gs4550.bio19.tif'
p3137
sg35
S'clim'
p3138
sg37
g38
sg39
I4326
sg40
S'2050'
p3139
ssS'bio09'
p3140
(dp3141
g8
S'2015-03-16 22:08:29'
p3142
sg10
S'gs4550.bio09'
p3143
sg12
I270
sg13
S'bio09'
p3144
sg15
S'Mean Temperature of Driest Quarter'
p3145
sg17
S'45'
p3146
sg19
S'gs4550'
p3147
sg21
S'../views/GTiff/clim.gs4550.bio09.tif'
p3148
sg23
S'climate'
p3149
sg25
S'clim.gs4550.bio09'
p3150
sg27
S'Mean Temperature of Driest Quarter GS RCP45 2050'
p3151
sg29
g30
sg31
g32
sg33
S'clim.gs4550.bio09.tif'
p3152
sg35
S'clim'
p3153
sg37
g38
sg39
I4326
sg40
S'2050'
p3154
ssS'bio08'
p3155
(dp3156
g8
S'2015-03-16 22:08:29'
p3157
sg10
S'gs4550.bio08'
p3158
sg12
I35
sg13
S'bio08'
p3159
sg15
S'Mean Temperature of Wettest Quarter'
p3160
sg17
S'45'
p3161
sg19
S'gs4550'
p3162
sg21
S'../views/GTiff/clim.gs4550.bio08.tif'
p3163
sg23
S'climate'
p3164
sg25
S'clim.gs4550.bio08'
p3165
sg27
S'Mean Temperature of Wettest Quarter GS RCP45 2050'
p3166
sg29
g30
sg31
g32
sg33
S'clim.gs4550.bio08.tif'
p3167
sg35
S'clim'
p3168
sg37
g38
sg39
I4326
sg40
S'2050'
p3169
sssS'gd4550'
p3170
(dp3171
S'bio07'
p3172
(dp3173
g8
S'2015-03-16 22:08:29'
p3174
sg10
S'gd4550.bio07'
p3175
sg12
I321
sg13
S'bio07'
p3176
sg15
S'Temperature Annual Range (BIO5-BIO6)'
p3177
sg17
S'45'
p3178
sg19
S'gd4550'
p3179
sg21
S'../views/GTiff/clim.gd4550.bio07.tif'
p3180
sg23
S'climate'
p3181
sg25
S'clim.gd4550.bio07'
p3182
sg27
S'Temperature Annual Range (BIO5-BIO6) GD RCP45 2050'
p3183
sg29
g30
sg31
g32
sg33
S'clim.gd4550.bio07.tif'
p3184
sg35
S'clim'
p3185
sg37
g38
sg39
I4326
sg40
S'2050'
p3186
ssS'bio01'
p3187
(dp3188
g8
S'2015-03-16 22:08:29'
p3189
sg10
S'gd4550.bio01'
p3190
sg12
I204
sg13
S'bio01'
p3191
sg15
S'Annual Mean Temperature'
p3192
sg17
S'45'
p3193
sg19
S'gd4550'
p3194
sg21
S'../views/GTiff/clim.gd4550.bio01.tif'
p3195
sg23
S'climate'
p3196
sg25
S'clim.gd4550.bio01'
p3197
sg27
S'Annual Mean Temperature GD RCP45 2050'
p3198
sg29
g30
sg31
g32
sg33
S'clim.gd4550.bio01.tif'
p3199
sg35
S'clim'
p3200
sg37
g38
sg39
I4326
sg40
S'2050'
p3201
ssS'bio11'
p3202
(dp3203
g8
S'2015-03-16 22:08:29'
p3204
sg10
S'gd4550.bio11'
p3205
sg12
I126
sg13
S'bio11'
p3206
sg15
S'Mean Temperature of Coldest Quarter'
p3207
sg17
S'45'
p3208
sg19
S'gd4550'
p3209
sg21
S'../views/GTiff/clim.gd4550.bio11.tif'
p3210
sg23
S'climate'
p3211
sg25
S'clim.gd4550.bio11'
p3212
sg27
S'Mean Temperature of Coldest Quarter GD RCP45 2050'
p3213
sg29
g30
sg31
g32
sg33
S'clim.gd4550.bio11.tif'
p3214
sg35
S'clim'
p3215
sg37
g38
sg39
I4326
sg40
S'2050'
p3216
ssS'bio15'
p3217
(dp3218
g8
S'2015-03-16 22:08:29'
p3219
sg10
S'gd4550.bio15'
p3220
sg12
I285
sg13
S'bio15'
p3221
sg15
S'Precipitation Seasonality (Coefficient of Variation)'
p3222
sg17
S'45'
p3223
sg19
S'gd4550'
p3224
sg21
S'../views/GTiff/clim.gd4550.bio15.tif'
p3225
sg23
S'climate'
p3226
sg25
S'clim.gd4550.bio15'
p3227
sg27
S'Precipitation Seasonality (Coefficient of Variation) GD RCP45 2050'
p3228
sg29
g30
sg31
g32
sg33
S'clim.gd4550.bio15.tif'
p3229
sg35
S'clim'
p3230
sg37
g38
sg39
I4326
sg40
S'2050'
p3231
ssS'bio12'
p3232
(dp3233
g8
S'2015-03-16 22:08:29'
p3234
sg10
S'gd4550.bio12'
p3235
sg12
I337
sg13
S'bio12'
p3236
sg15
S'Annual Precipitation'
p3237
sg17
S'45'
p3238
sg19
S'gd4550'
p3239
sg21
S'../views/GTiff/clim.gd4550.bio12.tif'
p3240
sg23
S'climate'
p3241
sg25
S'clim.gd4550.bio12'
p3242
sg27
S'Annual Precipitation GD RCP45 2050'
p3243
sg29
g30
sg31
g32
sg33
S'clim.gd4550.bio12.tif'
p3244
sg35
S'clim'
p3245
sg37
g38
sg39
I4326
sg40
S'2050'
p3246
ssS'bio14'
p3247
(dp3248
g8
S'2015-03-16 22:08:29'
p3249
sg10
S'gd4550.bio14'
p3250
sg12
I225
sg13
S'bio14'
p3251
sg15
S'Precipitation of Driest Month'
p3252
sg17
S'45'
p3253
sg19
S'gd4550'
p3254
sg21
S'../views/GTiff/clim.gd4550.bio14.tif'
p3255
sg23
S'climate'
p3256
sg25
S'clim.gd4550.bio14'
p3257
sg27
S'Precipitation of Driest Month GD RCP45 2050'
p3258
sg29
g30
sg31
g32
sg33
S'clim.gd4550.bio14.tif'
p3259
sg35
S'clim'
p3260
sg37
g38
sg39
I4326
sg40
S'2050'
p3261
ssS'bio10'
p3262
(dp3263
g8
S'2015-03-16 22:08:29'
p3264
sg10
S'gd4550.bio10'
p3265
sg12
I130
sg13
S'bio10'
p3266
sg15
S'Mean Temperature of Warmest Quarter'
p3267
sg17
S'45'
p3268
sg19
S'gd4550'
p3269
sg21
S'../views/GTiff/clim.gd4550.bio10.tif'
p3270
sg23
S'climate'
p3271
sg25
S'clim.gd4550.bio10'
p3272
sg27
S'Mean Temperature of Warmest Quarter GD RCP45 2050'
p3273
sg29
g30
sg31
g32
sg33
S'clim.gd4550.bio10.tif'
p3274
sg35
S'clim'
p3275
sg37
g38
sg39
I4326
sg40
S'2050'
p3276
ssS'bio06'
p3277
(dp3278
g8
S'2015-03-16 22:08:29'
p3279
sg10
S'gd4550.bio06'
p3280
sg12
I43
sg13
S'bio06'
p3281
sg15
S'Min Temperature of Coldest Month'
p3282
sg17
S'45'
p3283
sg19
S'gd4550'
p3284
sg21
S'../views/GTiff/clim.gd4550.bio06.tif'
p3285
sg23
S'climate'
p3286
sg25
S'clim.gd4550.bio06'
p3287
sg27
S'Min Temperature of Coldest Month GD RCP45 2050'
p3288
sg29
g30
sg31
g32
sg33
S'clim.gd4550.bio06.tif'
p3289
sg35
S'clim'
p3290
sg37
g38
sg39
I4326
sg40
S'2050'
p3291
ssS'bio05'
p3292
(dp3293
g8
S'2015-03-16 22:08:29'
p3294
sg10
S'gd4550.bio05'
p3295
sg12
I119
sg13
S'bio05'
p3296
sg15
S'Max Temperature of Warmest Month'
p3297
sg17
S'45'
p3298
sg19
S'gd4550'
p3299
sg21
S'../views/GTiff/clim.gd4550.bio05.tif'
p3300
sg23
S'climate'
p3301
sg25
S'clim.gd4550.bio05'
p3302
sg27
S'Max Temperature of Warmest Month GD RCP45 2050'
p3303
sg29
g30
sg31
g32
sg33
S'clim.gd4550.bio05.tif'
p3304
sg35
S'clim'
p3305
sg37
g38
sg39
I4326
sg40
S'2050'
p3306
ssS'bio13'
p3307
(dp3308
g8
S'2015-03-16 22:08:29'
p3309
sg10
S'gd4550.bio13'
p3310
sg12
I149
sg13
S'bio13'
p3311
sg15
S'Precipitation of Wettest Month'
p3312
sg17
S'45'
p3313
sg19
S'gd4550'
p3314
sg21
S'../views/GTiff/clim.gd4550.bio13.tif'
p3315
sg23
S'climate'
p3316
sg25
S'clim.gd4550.bio13'
p3317
sg27
S'Precipitation of Wettest Month GD RCP45 2050'
p3318
sg29
g30
sg31
g32
sg33
S'clim.gd4550.bio13.tif'
p3319
sg35
S'clim'
p3320
sg37
g38
sg39
I4326
sg40
S'2050'
p3321
ssS'bio03'
p3322
(dp3323
g8
S'2015-03-16 22:08:29'
p3324
sg10
S'gd4550.bio03'
p3325
sg12
I216
sg13
S'bio03'
p3326
sg15
S'Isothermality (BIO2/BIO7) (* 100)'
p3327
sg17
S'45'
p3328
sg19
S'gd4550'
p3329
sg21
S'../views/GTiff/clim.gd4550.bio03.tif'
p3330
sg23
S'climate'
p3331
sg25
S'clim.gd4550.bio03'
p3332
sg27
S'Isothermality (BIO2/BIO7) (* 100) GD RCP45 2050'
p3333
sg29
g30
sg31
g32
sg33
S'clim.gd4550.bio03.tif'
p3334
sg35
S'clim'
p3335
sg37
g38
sg39
I4326
sg40
S'2050'
p3336
ssS'bio02'
p3337
(dp3338
g8
S'2015-03-16 22:08:29'
p3339
sg10
S'gd4550.bio02'
p3340
sg12
I223
sg13
S'bio02'
p3341
sg15
S'Mean Diurnal Range (Mean of monthly (max temp - min temp))'
p3342
sg17
S'45'
p3343
sg19
S'gd4550'
p3344
sg21
S'../views/GTiff/clim.gd4550.bio02.tif'
p3345
sg23
S'climate'
p3346
sg25
S'clim.gd4550.bio02'
p3347
sg27
S'Mean Diurnal Range (Mean of monthly (max temp - min temp)) GD RCP45 2050'
p3348
sg29
g30
sg31
g32
sg33
S'clim.gd4550.bio02.tif'
p3349
sg35
S'clim'
p3350
sg37
g38
sg39
I4326
sg40
S'2050'
p3351
ssS'bio16'
p3352
(dp3353
g8
S'2015-03-16 22:08:29'
p3354
sg10
S'gd4550.bio16'
p3355
sg12
I49
sg13
S'bio16'
p3356
sg15
S'Precipitation of Wettest Quarter'
p3357
sg17
S'45'
p3358
sg19
S'gd4550'
p3359
sg21
S'../views/GTiff/clim.gd4550.bio16.tif'
p3360
sg23
S'climate'
p3361
sg25
S'clim.gd4550.bio16'
p3362
sg27
S'Precipitation of Wettest Quarter GD RCP45 2050'
p3363
sg29
g30
sg31
g32
sg33
S'clim.gd4550.bio16.tif'
p3364
sg35
S'clim'
p3365
sg37
g38
sg39
I4326
sg40
S'2050'
p3366
ssS'bio17'
p3367
(dp3368
g8
S'2015-03-16 22:08:29'
p3369
sg10
S'gd4550.bio17'
p3370
sg12
I41
sg13
S'bio17'
p3371
sg15
S'Precipitation of Driest Quarter'
p3372
sg17
S'45'
p3373
sg19
g3170
sg21
S'../views/GTiff/clim.gd4550.bio17.tif'
p3374
sg23
S'climate'
p3375
sg25
S'clim.gd4550.bio17'
p3376
sg27
S'Precipitation of Driest Quarter GD RCP45 2050'
p3377
sg29
g30
sg31
g32
sg33
S'clim.gd4550.bio17.tif'
p3378
sg35
S'clim'
p3379
sg37
g38
sg39
I4326
sg40
S'2050'
p3380
ssS'bio18'
p3381
(dp3382
g8
S'2015-03-16 22:08:29'
p3383
sg10
S'gd4550.bio18'
p3384
sg12
I208
sg13
S'bio18'
p3385
sg15
S'Precipitation of Warmest Quarter'
p3386
sg17
S'45'
p3387
sg19
S'gd4550'
p3388
sg21
S'../views/GTiff/clim.gd4550.bio18.tif'
p3389
sg23
S'climate'
p3390
sg25
S'clim.gd4550.bio18'
p3391
sg27
S'Precipitation of Warmest Quarter GD RCP45 2050'
p3392
sg29
g30
sg31
g32
sg33
S'clim.gd4550.bio18.tif'
p3393
sg35
S'clim'
p3394
sg37
g38
sg39
I4326
sg40
S'2050'
p3395
ssS'bio19'
p3396
(dp3397
g8
S'2015-03-16 22:08:29'
p3398
sg10
S'gd4550.bio19'
p3399
sg12
I134
sg13
S'bio19'
p3400
sg15
S'Precipitation of Coldest Quarter'
p3401
sg17
S'45'
p3402
sg19
S'gd4550'
p3403
sg21
S'../views/GTiff/clim.gd4550.bio19.tif'
p3404
sg23
S'climate'
p3405
sg25
S'clim.gd4550.bio19'
p3406
sg27
S'Precipitation of Coldest Quarter GD RCP45 2050'
p3407
sg29
g30
sg31
g32
sg33
S'clim.gd4550.bio19.tif'
p3408
sg35
S'clim'
p3409
sg37
g38
sg39
I4326
sg40
S'2050'
p3410
ssS'bio04'
p3411
(dp3412
g8
S'2015-03-16 22:08:29'
p3413
sg10
S'gd4550.bio04'
p3414
sg12
I180
sg13
S'bio04'
p3415
sg15
S'Temperature Seasonality (standard deviation *100)'
p3416
sg17
S'45'
p3417
sg19
S'gd4550'
p3418
sg21
S'../views/GTiff/clim.gd4550.bio04.tif'
p3419
sg23
S'climate'
p3420
sg25
S'clim.gd4550.bio04'
p3421
sg27
S'Temperature Seasonality (standard deviation *100) GD RCP45 2050'
p3422
sg29
g30
sg31
g32
sg33
S'clim.gd4550.bio04.tif'
p3423
sg35
S'clim'
p3424
sg37
g38
sg39
I4326
sg40
S'2050'
p3425
ssS'bio09'
p3426
(dp3427
g8
S'2015-03-16 22:08:29'
p3428
sg10
S'gd4550.bio09'
p3429
sg12
I127
sg13
S'bio09'
p3430
sg15
S'Mean Temperature of Driest Quarter'
p3431
sg17
S'45'
p3432
sg19
S'gd4550'
p3433
sg21
S'../views/GTiff/clim.gd4550.bio09.tif'
p3434
sg23
S'climate'
p3435
sg25
S'clim.gd4550.bio09'
p3436
sg27
S'Mean Temperature of Driest Quarter GD RCP45 2050'
p3437
sg29
g30
sg31
g32
sg33
S'clim.gd4550.bio09.tif'
p3438
sg35
S'clim'
p3439
sg37
g38
sg39
I4326
sg40
S'2050'
p3440
ssS'bio08'
p3441
(dp3442
g8
S'2015-03-16 22:08:29'
p3443
sg10
S'gd4550.bio08'
p3444
sg12
I157
sg13
S'bio08'
p3445
sg15
S'Mean Temperature of Wettest Quarter'
p3446
sg17
S'45'
p3447
sg19
S'gd4550'
p3448
sg21
S'../views/GTiff/clim.gd4550.bio08.tif'
p3449
sg23
S'climate'
p3450
sg25
S'clim.gd4550.bio08'
p3451
sg27
S'Mean Temperature of Wettest Quarter GD RCP45 2050'
p3452
sg29
g30
sg31
g32
sg33
S'clim.gd4550.bio08.tif'
p3453
sg35
S'clim'
p3454
sg37
g38
sg39
I4326
sg40
S'2050'
p3455
sssS'current'
p3456
(dp3457
S'bio07'
p3458
(dp3459
g8
S'2015-03-16 22:08:29'
p3460
sg10
S'current.bio07'
p3461
sg12
I271
sg13
S'bio07'
p3462
sg15
S'Temperature Annual Range (BIO5-BIO6)'
p3463
sg17
S'current'
p3464
sg19
S'current'
p3465
sg21
S'../views/GTiff/clim.current.bio07.tif'
p3466
sg23
S'climate'
p3467
sg25
S'clim.current.bio07'
p3468
sg27
S'Temperature Annual Range (BIO5-BIO6) Current Climate 1960-2000'
p3469
sg29
g30
sg31
g32
sg33
S'clim.current.bio07.tif'
p3470
sg35
S'clim'
p3471
sg37
g38
sg39
I4326
sg40
S'current'
p3472
ssS'bio01'
p3473
(dp3474
g8
S'2015-03-16 22:08:29'
p3475
sg10
S'current.bio01'
p3476
sg12
I217
sg13
S'bio01'
p3477
sg15
S'Annual Mean Temperature'
p3478
sg17
S'current'
p3479
sg19
S'current'
p3480
sg21
S'../views/GTiff/clim.current.bio01.tif'
p3481
sg23
S'climate'
p3482
sg25
S'clim.current.bio01'
p3483
sg27
S'Annual Mean Temperature Current Climate 1960-2000'
p3484
sg29
g30
sg31
g32
sg33
S'clim.current.bio01.tif'
p3485
sg35
S'clim'
p3486
sg37
g38
sg39
I4326
sg40
S'current'
p3487
ssS'bio11'
p3488
(dp3489
g8
S'2015-03-16 22:08:29'
p3490
sg10
S'current.bio11'
p3491
sg12
I139
sg13
S'bio11'
p3492
sg15
S'Mean Temperature of Coldest Quarter'
p3493
sg17
S'current'
p3494
sg19
S'current'
p3495
sg21
S'../views/GTiff/clim.current.bio11.tif'
p3496
sg23
S'climate'
p3497
sg25
S'clim.current.bio11'
p3498
sg27
S'Mean Temperature of Coldest Quarter Current Climate 1960-2000'
p3499
sg29
g30
sg31
g32
sg33
S'clim.current.bio11.tif'
p3500
sg35
S'clim'
p3501
sg37
g38
sg39
I4326
sg40
S'current'
p3502
ssS'bio17'
p3503
(dp3504
g8
S'2015-03-16 22:08:29'
p3505
sg10
S'current.bio17'
p3506
sg12
I330
sg13
S'bio17'
p3507
sg15
S'Precipitation of Driest Quarter'
p3508
sg17
S'current'
p3509
sg19
S'current'
p3510
sg21
S'../views/GTiff/clim.current.bio17.tif'
p3511
sg23
S'climate'
p3512
sg25
S'clim.current.bio17'
p3513
sg27
S'Precipitation of Driest Quarter Current Climate 1960-2000'
p3514
sg29
g30
sg31
g32
sg33
S'clim.current.bio17.tif'
p3515
sg35
S'clim'
p3516
sg37
g38
sg39
I4326
sg40
S'current'
p3517
ssS'bio15'
p3518
(dp3519
g8
S'2015-03-16 22:08:29'
p3520
sg10
S'current.bio15'
p3521
sg12
I175
sg13
S'bio15'
p3522
sg15
S'Precipitation Seasonality (Coefficient of Variation)'
p3523
sg17
S'current'
p3524
sg19
S'current'
p3525
sg21
S'../views/GTiff/clim.current.bio15.tif'
p3526
sg23
S'climate'
p3527
sg25
S'clim.current.bio15'
p3528
sg27
S'Precipitation Seasonality (Coefficient of Variation) Current Climate 1960-2000'
p3529
sg29
g30
sg31
g32
sg33
S'clim.current.bio15.tif'
p3530
sg35
S'clim'
p3531
sg37
g38
sg39
I4326
sg40
S'current'
p3532
ssS'bio12'
p3533
(dp3534
g8
S'2015-03-16 22:08:29'
p3535
sg10
S'current.bio12'
p3536
sg12
I327
sg13
S'bio12'
p3537
sg15
S'Annual Precipitation'
p3538
sg17
S'current'
p3539
sg19
S'current'
p3540
sg21
S'../views/GTiff/clim.current.bio12.tif'
p3541
sg23
S'climate'
p3542
sg25
S'clim.current.bio12'
p3543
sg27
S'Annual Precipitation Current Climate 1960-2000'
p3544
sg29
g30
sg31
g32
sg33
S'clim.current.bio12.tif'
p3545
sg35
S'clim'
p3546
sg37
g38
sg39
I4326
sg40
S'current'
p3547
ssS'bio10'
p3548
(dp3549
g8
S'2015-03-16 22:08:29'
p3550
sg10
S'current.bio10'
p3551
sg12
I248
sg13
S'bio10'
p3552
sg15
S'Mean Temperature of Warmest Quarter'
p3553
sg17
S'current'
p3554
sg19
S'current'
p3555
sg21
S'../views/GTiff/clim.current.bio10.tif'
p3556
sg23
S'climate'
p3557
sg25
S'clim.current.bio10'
p3558
sg27
S'Mean Temperature of Warmest Quarter Current Climate 1960-2000'
p3559
sg29
g30
sg31
g32
sg33
S'clim.current.bio10.tif'
p3560
sg35
S'clim'
p3561
sg37
g38
sg39
I4326
sg40
S'current'
p3562
ssS'bio06'
p3563
(dp3564
g8
S'2015-03-16 22:08:29'
p3565
sg10
S'current.bio06'
p3566
sg12
I15
sg13
S'bio06'
p3567
sg15
S'Min Temperature of Coldest Month'
p3568
sg17
S'current'
p3569
sg19
g3456
sg21
S'../views/GTiff/clim.current.bio06.tif'
p3570
sg23
S'climate'
p3571
sg25
S'clim.current.bio06'
p3572
sg27
S'Min Temperature of Coldest Month Current Climate 1960-2000'
p3573
sg29
g30
sg31
g32
sg33
S'clim.current.bio06.tif'
p3574
sg35
S'clim'
p3575
sg37
g38
sg39
I4326
sg40
S'current'
p3576
ssS'bio05'
p3577
(dp3578
g8
S'2015-03-16 22:08:29'
p3579
sg10
S'current.bio05'
p3580
sg12
I137
sg13
S'bio05'
p3581
sg15
S'Max Temperature of Warmest Month'
p3582
sg17
S'current'
p3583
sg19
S'current'
p3584
sg21
S'../views/GTiff/clim.current.bio05.tif'
p3585
sg23
S'climate'
p3586
sg25
S'clim.current.bio05'
p3587
sg27
S'Max Temperature of Warmest Month Current Climate 1960-2000'
p3588
sg29
g30
sg31
g32
sg33
S'clim.current.bio05.tif'
p3589
sg35
S'clim'
p3590
sg37
g38
sg39
I4326
sg40
S'current'
p3591
ssS'bio13'
p3592
(dp3593
g8
S'2015-03-16 22:08:29'
p3594
sg10
S'current.bio13'
p3595
sg12
I261
sg13
S'bio13'
p3596
sg15
S'Precipitation of Wettest Month'
p3597
sg17
S'current'
p3598
sg19
S'current'
p3599
sg21
S'../views/GTiff/clim.current.bio13.tif'
p3600
sg23
S'climate'
p3601
sg25
S'clim.current.bio13'
p3602
sg27
S'Precipitation of Wettest Month Current Climate 1960-2000'
p3603
sg29
g30
sg31
g32
sg33
S'clim.current.bio13.tif'
p3604
sg35
S'clim'
p3605
sg37
g38
sg39
I4326
sg40
S'current'
p3606
ssS'bio03'
p3607
(dp3608
g8
S'2015-03-16 22:08:29'
p3609
sg10
S'current.bio03'
p3610
sg12
I59
sg13
S'bio03'
p3611
sg15
S'Isothermality (BIO2/BIO7) (* 100)'
p3612
sg17
S'current'
p3613
sg19
S'current'
p3614
sg21
S'../views/GTiff/clim.current.bio03.tif'
p3615
sg23
S'climate'
p3616
sg25
S'clim.current.bio03'
p3617
sg27
S'Isothermality (BIO2/BIO7) (* 100) Current Climate 1960-2000'
p3618
sg29
g30
sg31
g32
sg33
S'clim.current.bio03.tif'
p3619
sg35
S'clim'
p3620
sg37
g38
sg39
I4326
sg40
S'current'
p3621
ssS'bio02'
p3622
(dp3623
g8
S'2015-03-16 22:08:29'
p3624
sg10
S'current.bio02'
p3625
sg12
I128
sg13
S'bio02'
p3626
sg15
S'Mean Diurnal Range (Mean of monthly (max temp - min temp))'
p3627
sg17
S'current'
p3628
sg19
S'current'
p3629
sg21
S'../views/GTiff/clim.current.bio02.tif'
p3630
sg23
S'climate'
p3631
sg25
S'clim.current.bio02'
p3632
sg27
S'Mean Diurnal Range (Mean of monthly (max temp - min temp)) Current Climate 1960-2000'
p3633
sg29
g30
sg31
g32
sg33
S'clim.current.bio02.tif'
p3634
sg35
S'clim'
p3635
sg37
g38
sg39
I4326
sg40
S'current'
p3636
ssS'bio16'
p3637
(dp3638
g8
S'2015-03-16 22:08:29'
p3639
sg10
S'current.bio16'
p3640
sg12
I193
sg13
S'bio16'
p3641
sg15
S'Precipitation of Wettest Quarter'
p3642
sg17
S'current'
p3643
sg19
S'current'
p3644
sg21
S'../views/GTiff/clim.current.bio16.tif'
p3645
sg23
S'climate'
p3646
sg25
S'clim.current.bio16'
p3647
sg27
S'Precipitation of Wettest Quarter Current Climate 1960-2000'
p3648
sg29
g30
sg31
g32
sg33
S'clim.current.bio16.tif'
p3649
sg35
S'clim'
p3650
sg37
g38
sg39
I4326
sg40
S'current'
p3651
ssS'bio19'
p3652
(dp3653
g8
S'2015-03-16 22:08:29'
p3654
sg10
S'current.bio19'
p3655
sg12
I281
sg13
S'bio19'
p3656
sg15
S'Precipitation of Coldest Quarter'
p3657
sg17
S'current'
p3658
sg19
S'current'
p3659
sg21
S'../views/GTiff/clim.current.bio19.tif'
p3660
sg23
S'climate'
p3661
sg25
S'clim.current.bio19'
p3662
sg27
S'Precipitation of Coldest Quarter Current Climate 1960-2000'
p3663
sg29
g30
sg31
g32
sg33
S'clim.current.bio19.tif'
p3664
sg35
S'clim'
p3665
sg37
g38
sg39
I4326
sg40
S'current'
p3666
ssS'bio18'
p3667
(dp3668
g8
S'2015-03-16 22:08:29'
p3669
sg10
S'current.bio18'
p3670
sg12
I272
sg13
S'bio18'
p3671
sg15
S'Precipitation of Warmest Quarter'
p3672
sg17
S'current'
p3673
sg19
S'current'
p3674
sg21
S'../views/GTiff/clim.current.bio18.tif'
p3675
sg23
S'climate'
p3676
sg25
S'clim.current.bio18'
p3677
sg27
S'Precipitation of Warmest Quarter Current Climate 1960-2000'
p3678
sg29
g30
sg31
g32
sg33
S'clim.current.bio18.tif'
p3679
sg35
S'clim'
p3680
sg37
g38
sg39
I4326
sg40
S'current'
p3681
ssS'bio14'
p3682
(dp3683
g8
S'2015-03-16 22:08:29'
p3684
sg10
S'current.bio14'
p3685
sg12
I241
sg13
S'bio14'
p3686
sg15
S'Precipitation of Driest Month'
p3687
sg17
S'current'
p3688
sg19
S'current'
p3689
sg21
S'../views/GTiff/clim.current.bio14.tif'
p3690
sg23
S'climate'
p3691
sg25
S'clim.current.bio14'
p3692
sg27
S'Precipitation of Driest Month Current Climate 1960-2000'
p3693
sg29
g30
sg31
g32
sg33
S'clim.current.bio14.tif'
p3694
sg35
S'clim'
p3695
sg37
g38
sg39
I4326
sg40
S'current'
p3696
ssS'bio04'
p3697
(dp3698
g8
S'2015-03-16 22:08:29'
p3699
sg10
S'current.bio04'
p3700
sg12
I289
sg13
S'bio04'
p3701
sg15
S'Temperature Seasonality (standard deviation *100)'
p3702
sg17
S'current'
p3703
sg19
S'current'
p3704
sg21
S'../views/GTiff/clim.current.bio04.tif'
p3705
sg23
S'climate'
p3706
sg25
S'clim.current.bio04'
p3707
sg27
S'Temperature Seasonality (standard deviation *100) Current Climate 1960-2000'
p3708
sg29
g30
sg31
g32
sg33
S'clim.current.bio04.tif'
p3709
sg35
S'clim'
p3710
sg37
g38
sg39
I4326
sg40
S'current'
p3711
ssS'bio09'
p3712
(dp3713
g8
S'2015-03-16 22:08:29'
p3714
sg10
S'current.bio09'
p3715
sg12
I195
sg13
S'bio09'
p3716
sg15
S'Mean Temperature of Driest Quarter'
p3717
sg17
S'current'
p3718
sg19
S'current'
p3719
sg21
S'../views/GTiff/clim.current.bio09.tif'
p3720
sg23
S'climate'
p3721
sg25
S'clim.current.bio09'
p3722
sg27
S'Mean Temperature of Driest Quarter Current Climate 1960-2000'
p3723
sg29
g30
sg31
g32
sg33
S'clim.current.bio09.tif'
p3724
sg35
S'clim'
p3725
sg37
g38
sg39
I4326
sg40
S'current'
p3726
ssS'bio08'
p3727
(dp3728
g8
S'2015-03-16 22:08:29'
p3729
sg10
S'current.bio08'
p3730
sg12
I44
sg13
S'bio08'
p3731
sg15
S'Mean Temperature of Wettest Quarter'
p3732
sg17
S'current'
p3733
sg19
S'current'
p3734
sg21
S'../views/GTiff/clim.current.bio08.tif'
p3735
sg23
S'climate'
p3736
sg25
S'clim.current.bio08'
p3737
sg27
S'Mean Temperature of Wettest Quarter Current Climate 1960-2000'
p3738
sg29
g30
sg31
g32
sg33
S'clim.current.bio08.tif'
p3739
sg35
S'clim'
p3740
sg37
g38
sg39
I4326
sg40
S'current'
p3741
sssS'he6070'
p3742
(dp3743
S'bio07'
p3744
(dp3745
g8
S'2015-03-16 22:08:29'
p3746
sg10
S'he6070.bio07'
p3747
sg12
I315
sg13
S'bio07'
p3748
sg15
S'Temperature Annual Range (BIO5-BIO6)'
p3749
sg17
S'60'
p3750
sg19
S'he6070'
p3751
sg21
S'../views/GTiff/clim.he6070.bio07.tif'
p3752
sg23
S'climate'
p3753
sg25
S'clim.he6070.bio07'
p3754
sg27
S'Temperature Annual Range (BIO5-BIO6) HE RCP60 2070'
p3755
sg29
g30
sg31
g32
sg33
S'clim.he6070.bio07.tif'
p3756
sg35
S'clim'
p3757
sg37
g38
sg39
I4326
sg40
S'2070'
p3758
ssS'bio19'
p3759
(dp3760
g8
S'2015-03-16 22:08:29'
p3761
sg10
S'he6070.bio19'
p3762
sg12
I282
sg13
S'bio19'
p3763
sg15
S'Precipitation of Coldest Quarter'
p3764
sg17
S'60'
p3765
sg19
S'he6070'
p3766
sg21
S'../views/GTiff/clim.he6070.bio19.tif'
p3767
sg23
S'climate'
p3768
sg25
S'clim.he6070.bio19'
p3769
sg27
S'Precipitation of Coldest Quarter HE RCP60 2070'
p3770
sg29
g30
sg31
g32
sg33
S'clim.he6070.bio19.tif'
p3771
sg35
S'clim'
p3772
sg37
g38
sg39
I4326
sg40
S'2070'
p3773
ssS'bio16'
p3774
(dp3775
g8
S'2015-03-16 22:08:29'
p3776
sg10
S'he6070.bio16'
p3777
sg12
I168
sg13
S'bio16'
p3778
sg15
S'Precipitation of Wettest Quarter'
p3779
sg17
S'60'
p3780
sg19
S'he6070'
p3781
sg21
S'../views/GTiff/clim.he6070.bio16.tif'
p3782
sg23
S'climate'
p3783
sg25
S'clim.he6070.bio16'
p3784
sg27
S'Precipitation of Wettest Quarter HE RCP60 2070'
p3785
sg29
g30
sg31
g32
sg33
S'clim.he6070.bio16.tif'
p3786
sg35
S'clim'
p3787
sg37
g38
sg39
I4326
sg40
S'2070'
p3788
ssS'bio06'
p3789
(dp3790
g8
S'2015-03-16 22:08:29'
p3791
sg10
S'he6070.bio06'
p3792
sg12
I313
sg13
S'bio06'
p3793
sg15
S'Min Temperature of Coldest Month'
p3794
sg17
S'60'
p3795
sg19
S'he6070'
p3796
sg21
S'../views/GTiff/clim.he6070.bio06.tif'
p3797
sg23
S'climate'
p3798
sg25
S'clim.he6070.bio06'
p3799
sg27
S'Min Temperature of Coldest Month HE RCP60 2070'
p3800
sg29
g30
sg31
g32
sg33
S'clim.he6070.bio06.tif'
p3801
sg35
S'clim'
p3802
sg37
g38
sg39
I4326
sg40
S'2070'
p3803
ssS'bio15'
p3804
(dp3805
g8
S'2015-03-16 22:08:29'
p3806
sg10
S'he6070.bio15'
p3807
sg12
I302
sg13
S'bio15'
p3808
sg15
S'Precipitation Seasonality (Coefficient of Variation)'
p3809
sg17
S'60'
p3810
sg19
S'he6070'
p3811
sg21
S'../views/GTiff/clim.he6070.bio15.tif'
p3812
sg23
S'climate'
p3813
sg25
S'clim.he6070.bio15'
p3814
sg27
S'Precipitation Seasonality (Coefficient of Variation) HE RCP60 2070'
p3815
sg29
g30
sg31
g32
sg33
S'clim.he6070.bio15.tif'
p3816
sg35
S'clim'
p3817
sg37
g38
sg39
I4326
sg40
S'2070'
p3818
ssS'bio12'
p3819
(dp3820
g8
S'2015-03-16 22:08:29'
p3821
sg10
S'he6070.bio12'
p3822
sg12
I309
sg13
S'bio12'
p3823
sg15
S'Annual Precipitation'
p3824
sg17
S'60'
p3825
sg19
S'he6070'
p3826
sg21
S'../views/GTiff/clim.he6070.bio12.tif'
p3827
sg23
S'climate'
p3828
sg25
S'clim.he6070.bio12'
p3829
sg27
S'Annual Precipitation HE RCP60 2070'
p3830
sg29
g30
sg31
g32
sg33
S'clim.he6070.bio12.tif'
p3831
sg35
S'clim'
p3832
sg37
g38
sg39
I4326
sg40
S'2070'
p3833
ssS'bio10'
p3834
(dp3835
g8
S'2015-03-16 22:08:29'
p3836
sg10
S'he6070.bio10'
p3837
sg12
I51
sg13
S'bio10'
p3838
sg15
S'Mean Temperature of Warmest Quarter'
p3839
sg17
S'60'
p3840
sg19
S'he6070'
p3841
sg21
S'../views/GTiff/clim.he6070.bio10.tif'
p3842
sg23
S'climate'
p3843
sg25
S'clim.he6070.bio10'
p3844
sg27
S'Mean Temperature of Warmest Quarter HE RCP60 2070'
p3845
sg29
g30
sg31
g32
sg33
S'clim.he6070.bio10.tif'
p3846
sg35
S'clim'
p3847
sg37
g38
sg39
I4326
sg40
S'2070'
p3848
ssS'bio11'
p3849
(dp3850
g8
S'2015-03-16 22:08:29'
p3851
sg10
S'he6070.bio11'
p3852
sg12
I45
sg13
S'bio11'
p3853
sg15
S'Mean Temperature of Coldest Quarter'
p3854
sg17
S'60'
p3855
sg19
S'he6070'
p3856
sg21
S'../views/GTiff/clim.he6070.bio11.tif'
p3857
sg23
S'climate'
p3858
sg25
S'clim.he6070.bio11'
p3859
sg27
S'Mean Temperature of Coldest Quarter HE RCP60 2070'
p3860
sg29
g30
sg31
g32
sg33
S'clim.he6070.bio11.tif'
p3861
sg35
S'clim'
p3862
sg37
g38
sg39
I4326
sg40
S'2070'
p3863
ssS'bio05'
p3864
(dp3865
g8
S'2015-03-16 22:08:29'
p3866
sg10
S'he6070.bio05'
p3867
sg12
I207
sg13
S'bio05'
p3868
sg15
S'Max Temperature of Warmest Month'
p3869
sg17
S'60'
p3870
sg19
S'he6070'
p3871
sg21
S'../views/GTiff/clim.he6070.bio05.tif'
p3872
sg23
S'climate'
p3873
sg25
S'clim.he6070.bio05'
p3874
sg27
S'Max Temperature of Warmest Month HE RCP60 2070'
p3875
sg29
g30
sg31
g32
sg33
S'clim.he6070.bio05.tif'
p3876
sg35
S'clim'
p3877
sg37
g38
sg39
I4326
sg40
S'2070'
p3878
ssS'bio13'
p3879
(dp3880
g8
S'2015-03-16 22:08:29'
p3881
sg10
S'he6070.bio13'
p3882
sg12
I67
sg13
S'bio13'
p3883
sg15
S'Precipitation of Wettest Month'
p3884
sg17
S'60'
p3885
sg19
S'he6070'
p3886
sg21
S'../views/GTiff/clim.he6070.bio13.tif'
p3887
sg23
S'climate'
p3888
sg25
S'clim.he6070.bio13'
p3889
sg27
S'Precipitation of Wettest Month HE RCP60 2070'
p3890
sg29
g30
sg31
g32
sg33
S'clim.he6070.bio13.tif'
p3891
sg35
S'clim'
p3892
sg37
g38
sg39
I4326
sg40
S'2070'
p3893
ssS'bio14'
p3894
(dp3895
g8
S'2015-03-16 22:08:29'
p3896
sg10
S'he6070.bio14'
p3897
sg12
I202
sg13
S'bio14'
p3898
sg15
S'Precipitation of Driest Month'
p3899
sg17
S'60'
p3900
sg19
S'he6070'
p3901
sg21
S'../views/GTiff/clim.he6070.bio14.tif'
p3902
sg23
S'climate'
p3903
sg25
S'clim.he6070.bio14'
p3904
sg27
S'Precipitation of Driest Month HE RCP60 2070'
p3905
sg29
g30
sg31
g32
sg33
S'clim.he6070.bio14.tif'
p3906
sg35
S'clim'
p3907
sg37
g38
sg39
I4326
sg40
S'2070'
p3908
ssS'bio02'
p3909
(dp3910
g8
S'2015-03-16 22:08:29'
p3911
sg10
S'he6070.bio02'
p3912
sg12
I199
sg13
S'bio02'
p3913
sg15
S'Mean Diurnal Range (Mean of monthly (max temp - min temp))'
p3914
sg17
S'60'
p3915
sg19
S'he6070'
p3916
sg21
S'../views/GTiff/clim.he6070.bio02.tif'
p3917
sg23
S'climate'
p3918
sg25
S'clim.he6070.bio02'
p3919
sg27
S'Mean Diurnal Range (Mean of monthly (max temp - min temp)) HE RCP60 2070'
p3920
sg29
g30
sg31
g32
sg33
S'clim.he6070.bio02.tif'
p3921
sg35
S'clim'
p3922
sg37
g38
sg39
I4326
sg40
S'2070'
p3923
ssS'bio01'
p3924
(dp3925
g8
S'2015-03-16 22:08:29'
p3926
sg10
S'he6070.bio01'
p3927
sg12
I58
sg13
S'bio01'
p3928
sg15
S'Annual Mean Temperature'
p3929
sg17
S'60'
p3930
sg19
S'he6070'
p3931
sg21
S'../views/GTiff/clim.he6070.bio01.tif'
p3932
sg23
S'climate'
p3933
sg25
S'clim.he6070.bio01'
p3934
sg27
S'Annual Mean Temperature HE RCP60 2070'
p3935
sg29
g30
sg31
g32
sg33
S'clim.he6070.bio01.tif'
p3936
sg35
S'clim'
p3937
sg37
g38
sg39
I4326
sg40
S'2070'
p3938
ssS'bio17'
p3939
(dp3940
g8
S'2015-03-16 22:08:29'
p3941
sg10
S'he6070.bio17'
p3942
sg12
I40
sg13
S'bio17'
p3943
sg15
S'Precipitation of Driest Quarter'
p3944
sg17
S'60'
p3945
sg19
S'he6070'
p3946
sg21
S'../views/GTiff/clim.he6070.bio17.tif'
p3947
sg23
S'climate'
p3948
sg25
S'clim.he6070.bio17'
p3949
sg27
S'Precipitation of Driest Quarter HE RCP60 2070'
p3950
sg29
g30
sg31
g32
sg33
S'clim.he6070.bio17.tif'
p3951
sg35
S'clim'
p3952
sg37
g38
sg39
I4326
sg40
S'2070'
p3953
ssS'bio18'
p3954
(dp3955
g8
S'2015-03-16 22:08:29'
p3956
sg10
S'he6070.bio18'
p3957
sg12
I113
sg13
S'bio18'
p3958
sg15
S'Precipitation of Warmest Quarter'
p3959
sg17
S'60'
p3960
sg19
S'he6070'
p3961
sg21
S'../views/GTiff/clim.he6070.bio18.tif'
p3962
sg23
S'climate'
p3963
sg25
S'clim.he6070.bio18'
p3964
sg27
S'Precipitation of Warmest Quarter HE RCP60 2070'
p3965
sg29
g30
sg31
g32
sg33
S'clim.he6070.bio18.tif'
p3966
sg35
S'clim'
p3967
sg37
g38
sg39
I4326
sg40
S'2070'
p3968
ssS'bio03'
p3969
(dp3970
g8
S'2015-03-16 22:08:29'
p3971
sg10
S'he6070.bio03'
p3972
sg12
I253
sg13
S'bio03'
p3973
sg15
S'Isothermality (BIO2/BIO7) (* 100)'
p3974
sg17
S'60'
p3975
sg19
S'he6070'
p3976
sg21
S'../views/GTiff/clim.he6070.bio03.tif'
p3977
sg23
S'climate'
p3978
sg25
S'clim.he6070.bio03'
p3979
sg27
S'Isothermality (BIO2/BIO7) (* 100) HE RCP60 2070'
p3980
sg29
g30
sg31
g32
sg33
S'clim.he6070.bio03.tif'
p3981
sg35
S'clim'
p3982
sg37
g38
sg39
I4326
sg40
S'2070'
p3983
ssS'bio04'
p3984
(dp3985
g8
S'2015-03-16 22:08:29'
p3986
sg10
S'he6070.bio04'
p3987
sg12
I256
sg13
S'bio04'
p3988
sg15
S'Temperature Seasonality (standard deviation *100)'
p3989
sg17
S'60'
p3990
sg19
S'he6070'
p3991
sg21
S'../views/GTiff/clim.he6070.bio04.tif'
p3992
sg23
S'climate'
p3993
sg25
S'clim.he6070.bio04'
p3994
sg27
S'Temperature Seasonality (standard deviation *100) HE RCP60 2070'
p3995
sg29
g30
sg31
g32
sg33
S'clim.he6070.bio04.tif'
p3996
sg35
S'clim'
p3997
sg37
g38
sg39
I4326
sg40
S'2070'
p3998
ssS'bio09'
p3999
(dp4000
g8
S'2015-03-16 22:08:29'
p4001
sg10
S'he6070.bio09'
p4002
sg12
I1
sg13
S'bio09'
p4003
sg15
S'Mean Temperature of Driest Quarter'
p4004
sg17
S'60'
p4005
sg19
g3742
sg21
S'../views/GTiff/clim.he6070.bio09.tif'
p4006
sg23
S'climate'
p4007
sg25
S'clim.he6070.bio09'
p4008
sg27
S'Mean Temperature of Driest Quarter HE RCP60 2070'
p4009
sg29
g30
sg31
g32
sg33
S'clim.he6070.bio09.tif'
p4010
sg35
S'clim'
p4011
sg37
g38
sg39
I4326
sg40
S'2070'
p4012
ssS'bio08'
p4013
(dp4014
g8
S'2015-03-16 22:08:29'
p4015
sg10
S'he6070.bio08'
p4016
sg12
I88
sg13
S'bio08'
p4017
sg15
S'Mean Temperature of Wettest Quarter'
p4018
sg17
S'60'
p4019
sg19
S'he6070'
p4020
sg21
S'../views/GTiff/clim.he6070.bio08.tif'
p4021
sg23
S'climate'
p4022
sg25
S'clim.he6070.bio08'
p4023
sg27
S'Mean Temperature of Wettest Quarter HE RCP60 2070'
p4024
sg29
g30
sg31
g32
sg33
S'clim.he6070.bio08.tif'
p4025
sg35
S'clim'
p4026
sg37
g38
sg39
I4326
sg40
S'2070'
p4027
sssS'he4570'
p4028
(dp4029
S'bio07'
p4030
(dp4031
g8
S'2015-03-16 22:08:29'
p4032
sg10
S'he4570.bio07'
p4033
sg12
I159
sg13
S'bio07'
p4034
sg15
S'Temperature Annual Range (BIO5-BIO6)'
p4035
sg17
S'45'
p4036
sg19
S'he4570'
p4037
sg21
S'../views/GTiff/clim.he4570.bio07.tif'
p4038
sg23
S'climate'
p4039
sg25
S'clim.he4570.bio07'
p4040
sg27
S'Temperature Annual Range (BIO5-BIO6) HE RCP45 2070'
p4041
sg29
g30
sg31
g32
sg33
S'clim.he4570.bio07.tif'
p4042
sg35
S'clim'
p4043
sg37
g38
sg39
I4326
sg40
S'2070'
p4044
ssS'bio13'
p4045
(dp4046
g8
S'2015-03-16 22:08:29'
p4047
sg10
S'he4570.bio13'
p4048
sg12
I151
sg13
S'bio13'
p4049
sg15
S'Precipitation of Wettest Month'
p4050
sg17
S'45'
p4051
sg19
S'he4570'
p4052
sg21
S'../views/GTiff/clim.he4570.bio13.tif'
p4053
sg23
S'climate'
p4054
sg25
S'clim.he4570.bio13'
p4055
sg27
S'Precipitation of Wettest Month HE RCP45 2070'
p4056
sg29
g30
sg31
g32
sg33
S'clim.he4570.bio13.tif'
p4057
sg35
S'clim'
p4058
sg37
g38
sg39
I4326
sg40
S'2070'
p4059
ssS'bio11'
p4060
(dp4061
g8
S'2015-03-16 22:08:29'
p4062
sg10
S'he4570.bio11'
p4063
sg12
I211
sg13
S'bio11'
p4064
sg15
S'Mean Temperature of Coldest Quarter'
p4065
sg17
S'45'
p4066
sg19
S'he4570'
p4067
sg21
S'../views/GTiff/clim.he4570.bio11.tif'
p4068
sg23
S'climate'
p4069
sg25
S'clim.he4570.bio11'
p4070
sg27
S'Mean Temperature of Coldest Quarter HE RCP45 2070'
p4071
sg29
g30
sg31
g32
sg33
S'clim.he4570.bio11.tif'
p4072
sg35
S'clim'
p4073
sg37
g38
sg39
I4326
sg40
S'2070'
p4074
ssS'bio05'
p4075
(dp4076
g8
S'2015-03-16 22:08:29'
p4077
sg10
S'he4570.bio05'
p4078
sg12
I214
sg13
S'bio05'
p4079
sg15
S'Max Temperature of Warmest Month'
p4080
sg17
S'45'
p4081
sg19
S'he4570'
p4082
sg21
S'../views/GTiff/clim.he4570.bio05.tif'
p4083
sg23
S'climate'
p4084
sg25
S'clim.he4570.bio05'
p4085
sg27
S'Max Temperature of Warmest Month HE RCP45 2070'
p4086
sg29
g30
sg31
g32
sg33
S'clim.he4570.bio05.tif'
p4087
sg35
S'clim'
p4088
sg37
g38
sg39
I4326
sg40
S'2070'
p4089
ssS'bio01'
p4090
(dp4091
g8
S'2015-03-16 22:08:29'
p4092
sg10
S'he4570.bio01'
p4093
sg12
I293
sg13
S'bio01'
p4094
sg15
S'Annual Mean Temperature'
p4095
sg17
S'45'
p4096
sg19
S'he4570'
p4097
sg21
S'../views/GTiff/clim.he4570.bio01.tif'
p4098
sg23
S'climate'
p4099
sg25
S'clim.he4570.bio01'
p4100
sg27
S'Annual Mean Temperature HE RCP45 2070'
p4101
sg29
g30
sg31
g32
sg33
S'clim.he4570.bio01.tif'
p4102
sg35
S'clim'
p4103
sg37
g38
sg39
I4326
sg40
S'2070'
p4104
ssS'bio10'
p4105
(dp4106
g8
S'2015-03-16 22:08:29'
p4107
sg10
S'he4570.bio10'
p4108
sg12
I18
sg13
S'bio10'
p4109
sg15
S'Mean Temperature of Warmest Quarter'
p4110
sg17
S'45'
p4111
sg19
g4028
sg21
S'../views/GTiff/clim.he4570.bio10.tif'
p4112
sg23
S'climate'
p4113
sg25
S'clim.he4570.bio10'
p4114
sg27
S'Mean Temperature of Warmest Quarter HE RCP45 2070'
p4115
sg29
g30
sg31
g32
sg33
S'clim.he4570.bio10.tif'
p4116
sg35
S'clim'
p4117
sg37
g38
sg39
I4326
sg40
S'2070'
p4118
ssS'bio06'
p4119
(dp4120
g8
S'2015-03-16 22:08:29'
p4121
sg10
S'he4570.bio06'
p4122
sg12
I129
sg13
S'bio06'
p4123
sg15
S'Min Temperature of Coldest Month'
p4124
sg17
S'45'
p4125
sg19
S'he4570'
p4126
sg21
S'../views/GTiff/clim.he4570.bio06.tif'
p4127
sg23
S'climate'
p4128
sg25
S'clim.he4570.bio06'
p4129
sg27
S'Min Temperature of Coldest Month HE RCP45 2070'
p4130
sg29
g30
sg31
g32
sg33
S'clim.he4570.bio06.tif'
p4131
sg35
S'clim'
p4132
sg37
g38
sg39
I4326
sg40
S'2070'
p4133
ssS'bio12'
p4134
(dp4135
g8
S'2015-03-16 22:08:29'
p4136
sg10
S'he4570.bio12'
p4137
sg12
I34
sg13
S'bio12'
p4138
sg15
S'Annual Precipitation'
p4139
sg17
S'45'
p4140
sg19
S'he4570'
p4141
sg21
S'../views/GTiff/clim.he4570.bio12.tif'
p4142
sg23
S'climate'
p4143
sg25
S'clim.he4570.bio12'
p4144
sg27
S'Annual Precipitation HE RCP45 2070'
p4145
sg29
g30
sg31
g32
sg33
S'clim.he4570.bio12.tif'
p4146
sg35
S'clim'
p4147
sg37
g38
sg39
I4326
sg40
S'2070'
p4148
ssS'bio04'
p4149
(dp4150
g8
S'2015-03-16 22:08:29'
p4151
sg10
S'he4570.bio04'
p4152
sg12
I53
sg13
S'bio04'
p4153
sg15
S'Temperature Seasonality (standard deviation *100)'
p4154
sg17
S'45'
p4155
sg19
S'he4570'
p4156
sg21
S'../views/GTiff/clim.he4570.bio04.tif'
p4157
sg23
S'climate'
p4158
sg25
S'clim.he4570.bio04'
p4159
sg27
S'Temperature Seasonality (standard deviation *100) HE RCP45 2070'
p4160
sg29
g30
sg31
g32
sg33
S'clim.he4570.bio04.tif'
p4161
sg35
S'clim'
p4162
sg37
g38
sg39
I4326
sg40
S'2070'
p4163
ssS'bio14'
p4164
(dp4165
g8
S'2015-03-16 22:08:29'
p4166
sg10
S'he4570.bio14'
p4167
sg12
I167
sg13
S'bio14'
p4168
sg15
S'Precipitation of Driest Month'
p4169
sg17
S'45'
p4170
sg19
S'he4570'
p4171
sg21
S'../views/GTiff/clim.he4570.bio14.tif'
p4172
sg23
S'climate'
p4173
sg25
S'clim.he4570.bio14'
p4174
sg27
S'Precipitation of Driest Month HE RCP45 2070'
p4175
sg29
g30
sg31
g32
sg33
S'clim.he4570.bio14.tif'
p4176
sg35
S'clim'
p4177
sg37
g38
sg39
I4326
sg40
S'2070'
p4178
ssS'bio02'
p4179
(dp4180
g8
S'2015-03-16 22:08:29'
p4181
sg10
S'he4570.bio02'
p4182
sg12
I145
sg13
S'bio02'
p4183
sg15
S'Mean Diurnal Range (Mean of monthly (max temp - min temp))'
p4184
sg17
S'45'
p4185
sg19
S'he4570'
p4186
sg21
S'../views/GTiff/clim.he4570.bio02.tif'
p4187
sg23
S'climate'
p4188
sg25
S'clim.he4570.bio02'
p4189
sg27
S'Mean Diurnal Range (Mean of monthly (max temp - min temp)) HE RCP45 2070'
p4190
sg29
g30
sg31
g32
sg33
S'clim.he4570.bio02.tif'
p4191
sg35
S'clim'
p4192
sg37
g38
sg39
I4326
sg40
S'2070'
p4193
ssS'bio16'
p4194
(dp4195
g8
S'2015-03-16 22:08:29'
p4196
sg10
S'he4570.bio16'
p4197
sg12
I181
sg13
S'bio16'
p4198
sg15
S'Precipitation of Wettest Quarter'
p4199
sg17
S'45'
p4200
sg19
S'he4570'
p4201
sg21
S'../views/GTiff/clim.he4570.bio16.tif'
p4202
sg23
S'climate'
p4203
sg25
S'clim.he4570.bio16'
p4204
sg27
S'Precipitation of Wettest Quarter HE RCP45 2070'
p4205
sg29
g30
sg31
g32
sg33
S'clim.he4570.bio16.tif'
p4206
sg35
S'clim'
p4207
sg37
g38
sg39
I4326
sg40
S'2070'
p4208
ssS'bio17'
p4209
(dp4210
g8
S'2015-03-16 22:08:29'
p4211
sg10
S'he4570.bio17'
p4212
sg12
I91
sg13
S'bio17'
p4213
sg15
S'Precipitation of Driest Quarter'
p4214
sg17
S'45'
p4215
sg19
S'he4570'
p4216
sg21
S'../views/GTiff/clim.he4570.bio17.tif'
p4217
sg23
S'climate'
p4218
sg25
S'clim.he4570.bio17'
p4219
sg27
S'Precipitation of Driest Quarter HE RCP45 2070'
p4220
sg29
g30
sg31
g32
sg33
S'clim.he4570.bio17.tif'
p4221
sg35
S'clim'
p4222
sg37
g38
sg39
I4326
sg40
S'2070'
p4223
ssS'bio18'
p4224
(dp4225
g8
S'2015-03-16 22:08:29'
p4226
sg10
S'he4570.bio18'
p4227
sg12
I205
sg13
S'bio18'
p4228
sg15
S'Precipitation of Warmest Quarter'
p4229
sg17
S'45'
p4230
sg19
S'he4570'
p4231
sg21
S'../views/GTiff/clim.he4570.bio18.tif'
p4232
sg23
S'climate'
p4233
sg25
S'clim.he4570.bio18'
p4234
sg27
S'Precipitation of Warmest Quarter HE RCP45 2070'
p4235
sg29
g30
sg31
g32
sg33
S'clim.he4570.bio18.tif'
p4236
sg35
S'clim'
p4237
sg37
g38
sg39
I4326
sg40
S'2070'
p4238
ssS'bio19'
p4239
(dp4240
g8
S'2015-03-16 22:08:29'
p4241
sg10
S'he4570.bio19'
p4242
sg12
I78
sg13
S'bio19'
p4243
sg15
S'Precipitation of Coldest Quarter'
p4244
sg17
S'45'
p4245
sg19
S'he4570'
p4246
sg21
S'../views/GTiff/clim.he4570.bio19.tif'
p4247
sg23
S'climate'
p4248
sg25
S'clim.he4570.bio19'
p4249
sg27
S'Precipitation of Coldest Quarter HE RCP45 2070'
p4250
sg29
g30
sg31
g32
sg33
S'clim.he4570.bio19.tif'
p4251
sg35
S'clim'
p4252
sg37
g38
sg39
I4326
sg40
S'2070'
p4253
ssS'bio08'
p4254
(dp4255
g8
S'2015-03-16 22:08:29'
p4256
sg10
S'he4570.bio08'
p4257
sg12
I277
sg13
S'bio08'
p4258
sg15
S'Mean Temperature of Wettest Quarter'
p4259
sg17
S'45'
p4260
sg19
S'he4570'
p4261
sg21
S'../views/GTiff/clim.he4570.bio08.tif'
p4262
sg23
S'climate'
p4263
sg25
S'clim.he4570.bio08'
p4264
sg27
S'Mean Temperature of Wettest Quarter HE RCP45 2070'
p4265
sg29
g30
sg31
g32
sg33
S'clim.he4570.bio08.tif'
p4266
sg35
S'clim'
p4267
sg37
g38
sg39
I4326
sg40
S'2070'
p4268
ssS'bio03'
p4269
(dp4270
g8
S'2015-03-16 22:08:29'
p4271
sg10
S'he4570.bio03'
p4272
sg12
I179
sg13
S'bio03'
p4273
sg15
S'Isothermality (BIO2/BIO7) (* 100)'
p4274
sg17
S'45'
p4275
sg19
S'he4570'
p4276
sg21
S'../views/GTiff/clim.he4570.bio03.tif'
p4277
sg23
S'climate'
p4278
sg25
S'clim.he4570.bio03'
p4279
sg27
S'Isothermality (BIO2/BIO7) (* 100) HE RCP45 2070'
p4280
sg29
g30
sg31
g32
sg33
S'clim.he4570.bio03.tif'
p4281
sg35
S'clim'
p4282
sg37
g38
sg39
I4326
sg40
S'2070'
p4283
ssS'bio09'
p4284
(dp4285
g8
S'2015-03-16 22:08:29'
p4286
sg10
S'he4570.bio09'
p4287
sg12
I56
sg13
S'bio09'
p4288
sg15
S'Mean Temperature of Driest Quarter'
p4289
sg17
S'45'
p4290
sg19
S'he4570'
p4291
sg21
S'../views/GTiff/clim.he4570.bio09.tif'
p4292
sg23
S'climate'
p4293
sg25
S'clim.he4570.bio09'
p4294
sg27
S'Mean Temperature of Driest Quarter HE RCP45 2070'
p4295
sg29
g30
sg31
g32
sg33
S'clim.he4570.bio09.tif'
p4296
sg35
S'clim'
p4297
sg37
g38
sg39
I4326
sg40
S'2070'
p4298
ssS'bio15'
p4299
(dp4300
g8
S'2015-03-16 22:08:29'
p4301
sg10
S'he4570.bio15'
p4302
sg12
I219
sg13
S'bio15'
p4303
sg15
S'Precipitation Seasonality (Coefficient of Variation)'
p4304
sg17
S'45'
p4305
sg19
S'he4570'
p4306
sg21
S'../views/GTiff/clim.he4570.bio15.tif'
p4307
sg23
S'climate'
p4308
sg25
S'clim.he4570.bio15'
p4309
sg27
S'Precipitation Seasonality (Coefficient of Variation) HE RCP45 2070'
p4310
sg29
g30
sg31
g32
sg33
S'clim.he4570.bio15.tif'
p4311
sg35
S'clim'
p4312
sg37
g38
sg39
I4326
sg40
S'2070'
p4313
ssssS'agclim'
p4314
(dp4315
S'he8550'
p4316
(dp4317
S'bio06'
p4318
(dp4319
g8
S'2015-03-16 22:08:29'
p4320
sg10
S'he8550.bio06'
p4321
sg12
I25
sg13
S'bio06'
p4322
sg15
S'Min Temperature of Coldest Month'
p4323
sg17
S'85'
p4324
sg19
g4316
sg21
S'../views/GTiff/agclim.he8550.bio06.tif'
p4325
sg23
S'agclimate'
p4326
sg25
S'agclim.he8550.bio06'
p4327
sg27
S'Min Temperature of Coldest Month'
p4328
sg29
g30
sg31
g32
sg33
S'agclim.he8550.bio06.tif'
p4329
sg35
S'agclim'
p4330
sg37
g38
sg39
I4326
sg40
S'2050'
p4331
ssS'bio12'
p4332
(dp4333
g8
S'2015-03-16 22:08:29'
p4334
sg10
S'he8550.bio12'
p4335
sg12
I144
sg13
S'bio12'
p4336
sg15
S'Annual Precipitation'
p4337
sg17
S'85'
p4338
sg19
S'he8550'
p4339
sg21
S'../views/GTiff/agclim.he8550.bio12.tif'
p4340
sg23
S'agclimate'
p4341
sg25
S'agclim.he8550.bio12'
p4342
sg27
S'Annual Precipitation'
p4343
sg29
g30
sg31
g32
sg33
S'agclim.he8550.bio12.tif'
p4344
sg35
S'agclim'
p4345
sg37
g38
sg39
I4326
sg40
S'2050'
p4346
ssS'gdd5'
p4347
(dp4348
g8
S'2015-03-16 22:08:29'
p4349
sg10
S'he8550.gdd5'
p4350
sg12
I244
sg13
S'gdd5'
p4351
sg15
S'Growing Degree Days 5C Baseline'
p4352
sg17
S'85'
p4353
sg19
S'he8550'
p4354
sg21
S'../views/GTiff/agclim.he8550.gdd5.tif'
p4355
sg23
S'agclimate'
p4356
sg25
S'agclim.he8550.gdd5'
p4357
sg27
S'Growing Degree Days 5C Baseline'
p4358
sg29
g30
sg31
g32
sg33
S'agclim.he8550.gdd5.tif'
p4359
sg35
S'agclim'
p4360
sg37
g38
sg39
I4326
sg40
S'2050'
p4361
ssS'aridity'
p4362
(dp4363
g8
S'2015-03-16 22:08:29'
p4364
sg10
S'he8550.aridity'
p4365
sg12
I26
sg13
S'aridity'
p4366
sg15
S'CRU Metric of Mean Annual Aridity'
p4367
sg17
S'85'
p4368
sg19
S'he8550'
p4369
sg21
S'../views/GTiff/agclim.he8550.aridity.tif'
p4370
sg23
S'agclimate'
p4371
sg25
S'agclim.he8550.aridity'
p4372
sg27
S'CRU Metric of Mean Annual Aridity'
p4373
sg29
g30
sg31
g32
sg33
S'agclim.he8550.aridity.tif'
p4374
sg35
S'agclim'
p4375
sg37
g38
sg39
I4326
sg40
S'2050'
p4376
ssS'petmn'
p4377
(dp4378
g8
S'2015-03-16 22:08:29'
p4379
sg10
S'he8550.petmn'
p4380
sg12
I340
sg13
S'petmn'
p4381
sg15
S'CRU Mean Annual Evapotranspiration'
p4382
sg17
S'85'
p4383
sg19
S'he8550'
p4384
sg21
S'../views/GTiff/agclim.he8550.petmn.tif'
p4385
sg23
S'agclimate'
p4386
sg25
S'agclim.he8550.petmn'
p4387
sg27
S'CRU Mean Annual Evapotranspiration'
p4388
sg29
g30
sg31
g32
sg33
S'agclim.he8550.petmn.tif'
p4389
sg35
S'agclim'
p4390
sg37
g38
sg39
I4326
sg40
S'2050'
p4391
sssS'he2670'
p4392
(dp4393
S'bio06'
p4394
(dp4395
g8
S'2015-03-16 22:08:29'
p4396
sg10
S'he2670.bio06'
p4397
sg12
I291
sg13
S'bio06'
p4398
sg15
S'Min Temperature of Coldest Month'
p4399
sg17
S'26'
p4400
sg19
S'he2670'
p4401
sg21
S'../views/GTiff/agclim.he2670.bio06.tif'
p4402
sg23
S'agclimate'
p4403
sg25
S'agclim.he2670.bio06'
p4404
sg27
S'Min Temperature of Coldest Month'
p4405
sg29
g30
sg31
g32
sg33
S'agclim.he2670.bio06.tif'
p4406
sg35
S'agclim'
p4407
sg37
g38
sg39
I4326
sg40
S'2070'
p4408
ssS'bio12'
p4409
(dp4410
g8
S'2015-03-16 22:08:29'
p4411
sg10
S'he2670.bio12'
p4412
sg12
I177
sg13
S'bio12'
p4413
sg15
S'Annual Precipitation'
p4414
sg17
S'26'
p4415
sg19
S'he2670'
p4416
sg21
S'../views/GTiff/agclim.he2670.bio12.tif'
p4417
sg23
S'agclimate'
p4418
sg25
S'agclim.he2670.bio12'
p4419
sg27
S'Annual Precipitation'
p4420
sg29
g30
sg31
g32
sg33
S'agclim.he2670.bio12.tif'
p4421
sg35
S'agclim'
p4422
sg37
g38
sg39
I4326
sg40
S'2070'
p4423
ssS'gdd5'
p4424
(dp4425
g8
S'2015-03-16 22:08:29'
p4426
sg10
S'he2670.gdd5'
p4427
sg12
I31
sg13
S'gdd5'
p4428
sg15
S'Growing Degree Days 5C Baseline'
p4429
sg17
S'26'
p4430
sg19
g4392
sg21
S'../views/GTiff/agclim.he2670.gdd5.tif'
p4431
sg23
S'agclimate'
p4432
sg25
S'agclim.he2670.gdd5'
p4433
sg27
S'Growing Degree Days 5C Baseline'
p4434
sg29
g30
sg31
g32
sg33
S'agclim.he2670.gdd5.tif'
p4435
sg35
S'agclim'
p4436
sg37
g38
sg39
I4326
sg40
S'2070'
p4437
ssS'aridity'
p4438
(dp4439
g8
S'2015-03-16 22:08:29'
p4440
sg10
S'he2670.aridity'
p4441
sg12
I118
sg13
S'aridity'
p4442
sg15
S'CRU Metric of Mean Annual Aridity'
p4443
sg17
S'26'
p4444
sg19
S'he2670'
p4445
sg21
S'../views/GTiff/agclim.he2670.aridity.tif'
p4446
sg23
S'agclimate'
p4447
sg25
S'agclim.he2670.aridity'
p4448
sg27
S'CRU Metric of Mean Annual Aridity'
p4449
sg29
g30
sg31
g32
sg33
S'agclim.he2670.aridity.tif'
p4450
sg35
S'agclim'
p4451
sg37
g38
sg39
I4326
sg40
S'2070'
p4452
ssS'petmn'
p4453
(dp4454
g8
S'2015-03-16 22:08:29'
p4455
sg10
S'he2670.petmn'
p4456
sg12
I116
sg13
S'petmn'
p4457
sg15
S'CRU Mean Annual Evapotranspiration'
p4458
sg17
S'26'
p4459
sg19
S'he2670'
p4460
sg21
S'../views/GTiff/agclim.he2670.petmn.tif'
p4461
sg23
S'agclimate'
p4462
sg25
S'agclim.he2670.petmn'
p4463
sg27
S'CRU Mean Annual Evapotranspiration'
p4464
sg29
g30
sg31
g32
sg33
S'agclim.he2670.petmn.tif'
p4465
sg35
S'agclim'
p4466
sg37
g38
sg39
I4326
sg40
S'2070'
p4467
sssS'he8570'
p4468
(dp4469
S'bio06'
p4470
(dp4471
g8
S'2015-03-16 22:08:29'
p4472
sg10
S'he8570.bio06'
p4473
sg12
I82
sg13
S'bio06'
p4474
sg15
S'Min Temperature of Coldest Month'
p4475
sg17
S'85'
p4476
sg19
S'he8570'
p4477
sg21
S'../views/GTiff/agclim.he8570.bio06.tif'
p4478
sg23
S'agclimate'
p4479
sg25
S'agclim.he8570.bio06'
p4480
sg27
S'Min Temperature of Coldest Month'
p4481
sg29
g30
sg31
g32
sg33
S'agclim.he8570.bio06.tif'
p4482
sg35
S'agclim'
p4483
sg37
g38
sg39
I4326
sg40
S'2070'
p4484
ssS'bio12'
p4485
(dp4486
g8
S'2015-03-16 22:08:29'
p4487
sg10
S'he8570.bio12'
p4488
sg12
I292
sg13
S'bio12'
p4489
sg15
S'Annual Precipitation'
p4490
sg17
S'85'
p4491
sg19
S'he8570'
p4492
sg21
S'../views/GTiff/agclim.he8570.bio12.tif'
p4493
sg23
S'agclimate'
p4494
sg25
S'agclim.he8570.bio12'
p4495
sg27
S'Annual Precipitation'
p4496
sg29
g30
sg31
g32
sg33
S'agclim.he8570.bio12.tif'
p4497
sg35
S'agclim'
p4498
sg37
g38
sg39
I4326
sg40
S'2070'
p4499
ssS'gdd5'
p4500
(dp4501
g8
S'2015-03-16 22:08:29'
p4502
sg10
S'he8570.gdd5'
p4503
sg12
I103
sg13
S'gdd5'
p4504
sg15
S'Growing Degree Days 5C Baseline'
p4505
sg17
S'85'
p4506
sg19
S'he8570'
p4507
sg21
S'../views/GTiff/agclim.he8570.gdd5.tif'
p4508
sg23
S'agclimate'
p4509
sg25
S'agclim.he8570.gdd5'
p4510
sg27
S'Growing Degree Days 5C Baseline'
p4511
sg29
g30
sg31
g32
sg33
S'agclim.he8570.gdd5.tif'
p4512
sg35
S'agclim'
p4513
sg37
g38
sg39
I4326
sg40
S'2070'
p4514
ssS'aridity'
p4515
(dp4516
g8
S'2015-03-16 22:08:29'
p4517
sg10
S'he8570.aridity'
p4518
sg12
I5
sg13
S'aridity'
p4519
sg15
S'CRU Metric of Mean Annual Aridity'
p4520
sg17
S'85'
p4521
sg19
g4468
sg21
S'../views/GTiff/agclim.he8570.aridity.tif'
p4522
sg23
S'agclimate'
p4523
sg25
S'agclim.he8570.aridity'
p4524
sg27
S'CRU Metric of Mean Annual Aridity'
p4525
sg29
g30
sg31
g32
sg33
S'agclim.he8570.aridity.tif'
p4526
sg35
g4314
sg37
g38
sg39
I4326
sg40
S'2070'
p4527
ssS'petmn'
p4528
(dp4529
g8
S'2015-03-16 22:08:29'
p4530
sg10
S'he8570.petmn'
p4531
sg12
I296
sg13
S'petmn'
p4532
sg15
S'CRU Mean Annual Evapotranspiration'
p4533
sg17
S'85'
p4534
sg19
S'he8570'
p4535
sg21
S'../views/GTiff/agclim.he8570.petmn.tif'
p4536
sg23
S'agclimate'
p4537
sg25
S'agclim.he8570.petmn'
p4538
sg27
S'CRU Mean Annual Evapotranspiration'
p4539
sg29
g30
sg31
g32
sg33
S'agclim.he8570.petmn.tif'
p4540
sg35
S'agclim'
p4541
sg37
g38
sg39
I4326
sg40
S'2070'
p4542
sssS'he2650'
p4543
(dp4544
S'bio06'
p4545
(dp4546
g8
S'2015-03-16 22:08:29'
p4547
sg10
S'he2650.bio06'
p4548
sg12
I324
sg13
S'bio06'
p4549
sg15
S'Min Temperature of Coldest Month'
p4550
sg17
S'26'
p4551
sg19
S'he2650'
p4552
sg21
S'../views/GTiff/agclim.he2650.bio06.tif'
p4553
sg23
S'agclimate'
p4554
sg25
S'agclim.he2650.bio06'
p4555
sg27
S'Min Temperature of Coldest Month'
p4556
sg29
g30
sg31
g32
sg33
S'agclim.he2650.bio06.tif'
p4557
sg35
S'agclim'
p4558
sg37
g38
sg39
I4326
sg40
S'2050'
p4559
ssS'bio12'
p4560
(dp4561
g8
S'2015-03-16 22:08:29'
p4562
sg10
S'he2650.bio12'
p4563
sg12
I173
sg13
S'bio12'
p4564
sg15
S'Annual Precipitation'
p4565
sg17
S'26'
p4566
sg19
g4543
sg21
S'../views/GTiff/agclim.he2650.bio12.tif'
p4567
sg23
S'agclimate'
p4568
sg25
S'agclim.he2650.bio12'
p4569
sg27
S'Annual Precipitation'
p4570
sg29
g30
sg31
g32
sg33
S'agclim.he2650.bio12.tif'
p4571
sg35
S'agclim'
p4572
sg37
g38
sg39
I4326
sg40
S'2050'
p4573
ssS'gdd5'
p4574
(dp4575
g8
S'2015-03-16 22:08:29'
p4576
sg10
S'he2650.gdd5'
p4577
sg12
I240
sg13
S'gdd5'
p4578
sg15
S'Growing Degree Days 5C Baseline'
p4579
sg17
S'26'
p4580
sg19
S'he2650'
p4581
sg21
S'../views/GTiff/agclim.he2650.gdd5.tif'
p4582
sg23
S'agclimate'
p4583
sg25
S'agclim.he2650.gdd5'
p4584
sg27
S'Growing Degree Days 5C Baseline'
p4585
sg29
g30
sg31
g32
sg33
S'agclim.he2650.gdd5.tif'
p4586
sg35
S'agclim'
p4587
sg37
g38
sg39
I4326
sg40
S'2050'
p4588
ssS'aridity'
p4589
(dp4590
g8
S'2015-03-16 22:08:29'
p4591
sg10
S'he2650.aridity'
p4592
sg12
I257
sg13
S'aridity'
p4593
sg15
S'CRU Metric of Mean Annual Aridity'
p4594
sg17
S'26'
p4595
sg19
S'he2650'
p4596
sg21
S'../views/GTiff/agclim.he2650.aridity.tif'
p4597
sg23
S'agclimate'
p4598
sg25
S'agclim.he2650.aridity'
p4599
sg27
S'CRU Metric of Mean Annual Aridity'
p4600
sg29
g30
sg31
g32
sg33
S'agclim.he2650.aridity.tif'
p4601
sg35
S'agclim'
p4602
sg37
g38
sg39
I4326
sg40
S'2050'
p4603
ssS'petmn'
p4604
(dp4605
g8
S'2015-03-16 22:08:29'
p4606
sg10
S'he2650.petmn'
p4607
sg12
I231
sg13
S'petmn'
p4608
sg15
S'CRU Mean Annual Evapotranspiration'
p4609
sg17
S'26'
p4610
sg19
S'he2650'
p4611
sg21
S'../views/GTiff/agclim.he2650.petmn.tif'
p4612
sg23
S'agclimate'
p4613
sg25
S'agclim.he2650.petmn'
p4614
sg27
S'CRU Mean Annual Evapotranspiration'
p4615
sg29
g30
sg31
g32
sg33
S'agclim.he2650.petmn.tif'
p4616
sg35
S'agclim'
p4617
sg37
g38
sg39
I4326
sg40
S'2050'
p4618
sssS'current'
p4619
(dp4620
S'bio06'
p4621
(dp4622
g8
S'2015-03-16 22:08:29'
p4623
sg10
S'current.bio06'
p4624
sg12
I273
sg13
S'bio06'
p4625
sg15
S'Min Temperature of Coldest Month'
p4626
sg17
S'current'
p4627
sg19
S'current'
p4628
sg21
S'../views/GTiff/agclim.current.bio06.tif'
p4629
sg23
S'agclimate'
p4630
sg25
S'agclim.current.bio06'
p4631
sg27
S'Min Temperature of Coldest Month'
p4632
sg29
g30
sg31
g32
sg33
S'agclim.current.bio06.tif'
p4633
sg35
S'agclim'
p4634
sg37
g38
sg39
I4326
sg40
S'current'
p4635
ssS'bio12'
p4636
(dp4637
g8
S'2015-03-16 22:08:29'
p4638
sg10
S'current.bio12'
p4639
sg12
I29
sg13
S'bio12'
p4640
sg15
S'Annual Precipitation'
p4641
sg17
S'current'
p4642
sg19
g4619
sg21
S'../views/GTiff/agclim.current.bio12.tif'
p4643
sg23
S'agclimate'
p4644
sg25
S'agclim.current.bio12'
p4645
sg27
S'Annual Precipitation'
p4646
sg29
g30
sg31
g32
sg33
S'agclim.current.bio12.tif'
p4647
sg35
S'agclim'
p4648
sg37
g38
sg39
I4326
sg40
S'current'
p4649
ssS'gdd5'
p4650
(dp4651
g8
S'2015-03-16 22:08:29'
p4652
sg10
S'current.gdd5'
p4653
sg12
I247
sg13
S'gdd5'
p4654
sg15
S'Growing Degree Days 5C Baseline'
p4655
sg17
S'current'
p4656
sg19
S'current'
p4657
sg21
S'../views/GTiff/agclim.current.gdd5.tif'
p4658
sg23
S'agclimate'
p4659
sg25
S'agclim.current.gdd5'
p4660
sg27
S'Growing Degree Days 5C Baseline'
p4661
sg29
g30
sg31
g32
sg33
S'agclim.current.gdd5.tif'
p4662
sg35
S'agclim'
p4663
sg37
g38
sg39
I4326
sg40
S'current'
p4664
ssS'aridity'
p4665
(dp4666
g8
S'2015-03-16 22:08:29'
p4667
sg10
S'current.aridity'
p4668
sg12
I312
sg13
S'aridity'
p4669
sg15
S'CRU Metric of Mean Annual Aridity'
p4670
sg17
S'current'
p4671
sg19
S'current'
p4672
sg21
S'../views/GTiff/agclim.current.aridity.tif'
p4673
sg23
S'agclimate'
p4674
sg25
S'agclim.current.aridity'
p4675
sg27
S'CRU Metric of Mean Annual Aridity'
p4676
sg29
g30
sg31
g32
sg33
S'agclim.current.aridity.tif'
p4677
sg35
S'agclim'
p4678
sg37
g38
sg39
I4326
sg40
S'current'
p4679
ssS'petmn'
p4680
(dp4681
g8
S'2015-03-16 22:08:29'
p4682
sg10
S'current.petmn'
p4683
sg12
I264
sg13
S'petmn'
p4684
sg15
S'CRU Mean Annual Evapotranspiration'
p4685
sg17
S'current'
p4686
sg19
S'current'
p4687
sg21
S'../views/GTiff/agclim.current.petmn.tif'
p4688
sg23
S'agclimate'
p4689
sg25
S'agclim.current.petmn'
p4690
sg27
S'CRU Mean Annual Evapotranspiration'
p4691
sg29
g30
sg31
g32
sg33
S'agclim.current.petmn.tif'
p4692
sg35
S'agclim'
p4693
sg37
g38
sg39
I4326
sg40
S'current'
p4694
sssS'he6050'
p4695
(dp4696
S'bio06'
p4697
(dp4698
g8
S'2015-03-16 22:08:29'
p4699
sg10
S'he6050.bio06'
p4700
sg12
I283
sg13
S'bio06'
p4701
sg15
S'Min Temperature of Coldest Month'
p4702
sg17
S'60'
p4703
sg19
S'he6050'
p4704
sg21
S'../views/GTiff/agclim.he6050.bio06.tif'
p4705
sg23
S'agclimate'
p4706
sg25
S'agclim.he6050.bio06'
p4707
sg27
S'Min Temperature of Coldest Month'
p4708
sg29
g30
sg31
g32
sg33
S'agclim.he6050.bio06.tif'
p4709
sg35
S'agclim'
p4710
sg37
g38
sg39
I4326
sg40
S'2050'
p4711
ssS'bio12'
p4712
(dp4713
g8
S'2015-03-16 22:08:29'
p4714
sg10
S'he6050.bio12'
p4715
sg12
I310
sg13
S'bio12'
p4716
sg15
S'Annual Precipitation'
p4717
sg17
S'60'
p4718
sg19
S'he6050'
p4719
sg21
S'../views/GTiff/agclim.he6050.bio12.tif'
p4720
sg23
S'agclimate'
p4721
sg25
S'agclim.he6050.bio12'
p4722
sg27
S'Annual Precipitation'
p4723
sg29
g30
sg31
g32
sg33
S'agclim.he6050.bio12.tif'
p4724
sg35
S'agclim'
p4725
sg37
g38
sg39
I4326
sg40
S'2050'
p4726
ssS'gdd5'
p4727
(dp4728
g8
S'2015-03-16 22:08:29'
p4729
sg10
S'he6050.gdd5'
p4730
sg12
I263
sg13
S'gdd5'
p4731
sg15
S'Growing Degree Days 5C Baseline'
p4732
sg17
S'60'
p4733
sg19
S'he6050'
p4734
sg21
S'../views/GTiff/agclim.he6050.gdd5.tif'
p4735
sg23
S'agclimate'
p4736
sg25
S'agclim.he6050.gdd5'
p4737
sg27
S'Growing Degree Days 5C Baseline'
p4738
sg29
g30
sg31
g32
sg33
S'agclim.he6050.gdd5.tif'
p4739
sg35
S'agclim'
p4740
sg37
g38
sg39
I4326
sg40
S'2050'
p4741
ssS'aridity'
p4742
(dp4743
g8
S'2015-03-16 22:08:29'
p4744
sg10
S'he6050.aridity'
p4745
sg12
I83
sg13
S'aridity'
p4746
sg15
S'CRU Metric of Mean Annual Aridity'
p4747
sg17
S'60'
p4748
sg19
S'he6050'
p4749
sg21
S'../views/GTiff/agclim.he6050.aridity.tif'
p4750
sg23
S'agclimate'
p4751
sg25
S'agclim.he6050.aridity'
p4752
sg27
S'CRU Metric of Mean Annual Aridity'
p4753
sg29
g30
sg31
g32
sg33
S'agclim.he6050.aridity.tif'
p4754
sg35
S'agclim'
p4755
sg37
g38
sg39
I4326
sg40
S'2050'
p4756
ssS'petmn'
p4757
(dp4758
g8
S'2015-03-16 22:08:29'
p4759
sg10
S'he6050.petmn'
p4760
sg12
I42
sg13
S'petmn'
p4761
sg15
S'CRU Mean Annual Evapotranspiration'
p4762
sg17
S'60'
p4763
sg19
g4695
sg21
S'../views/GTiff/agclim.he6050.petmn.tif'
p4764
sg23
S'agclimate'
p4765
sg25
S'agclim.he6050.petmn'
p4766
sg27
S'CRU Mean Annual Evapotranspiration'
p4767
sg29
g30
sg31
g32
sg33
S'agclim.he6050.petmn.tif'
p4768
sg35
S'agclim'
p4769
sg37
g38
sg39
I4326
sg40
S'2050'
p4770
sssS'he4550'
p4771
(dp4772
S'bio06'
p4773
(dp4774
g8
S'2015-03-16 22:08:29'
p4775
sg10
S'he4550.bio06'
p4776
sg12
I258
sg13
S'bio06'
p4777
sg15
S'Min Temperature of Coldest Month'
p4778
sg17
S'45'
p4779
sg19
S'he4550'
p4780
sg21
S'../views/GTiff/agclim.he4550.bio06.tif'
p4781
sg23
S'agclimate'
p4782
sg25
S'agclim.he4550.bio06'
p4783
sg27
S'Min Temperature of Coldest Month'
p4784
sg29
g30
sg31
g32
sg33
S'agclim.he4550.bio06.tif'
p4785
sg35
S'agclim'
p4786
sg37
g38
sg39
I4326
sg40
S'2050'
p4787
ssS'bio12'
p4788
(dp4789
g8
S'2015-03-16 22:08:29'
p4790
sg10
S'he4550.bio12'
p4791
sg12
I170
sg13
S'bio12'
p4792
sg15
S'Annual Precipitation'
p4793
sg17
S'45'
p4794
sg19
S'he4550'
p4795
sg21
S'../views/GTiff/agclim.he4550.bio12.tif'
p4796
sg23
S'agclimate'
p4797
sg25
S'agclim.he4550.bio12'
p4798
sg27
S'Annual Precipitation'
p4799
sg29
g30
sg31
g32
sg33
S'agclim.he4550.bio12.tif'
p4800
sg35
S'agclim'
p4801
sg37
g38
sg39
I4326
sg40
S'2050'
p4802
ssS'gdd5'
p4803
(dp4804
g8
S'2015-03-16 22:08:29'
p4805
sg10
S'he4550.gdd5'
p4806
sg12
I220
sg13
S'gdd5'
p4807
sg15
S'Growing Degree Days 5C Baseline'
p4808
sg17
S'45'
p4809
sg19
S'he4550'
p4810
sg21
S'../views/GTiff/agclim.he4550.gdd5.tif'
p4811
sg23
S'agclimate'
p4812
sg25
S'agclim.he4550.gdd5'
p4813
sg27
S'Growing Degree Days 5C Baseline'
p4814
sg29
g30
sg31
g32
sg33
S'agclim.he4550.gdd5.tif'
p4815
sg35
S'agclim'
p4816
sg37
g38
sg39
I4326
sg40
S'2050'
p4817
ssS'aridity'
p4818
(dp4819
g8
S'2015-03-16 22:08:29'
p4820
sg10
S'he4550.aridity'
p4821
sg12
I102
sg13
S'aridity'
p4822
sg15
S'CRU Metric of Mean Annual Aridity'
p4823
sg17
S'45'
p4824
sg19
S'he4550'
p4825
sg21
S'../views/GTiff/agclim.he4550.aridity.tif'
p4826
sg23
S'agclimate'
p4827
sg25
S'agclim.he4550.aridity'
p4828
sg27
S'CRU Metric of Mean Annual Aridity'
p4829
sg29
g30
sg31
g32
sg33
S'agclim.he4550.aridity.tif'
p4830
sg35
S'agclim'
p4831
sg37
g38
sg39
I4326
sg40
S'2050'
p4832
ssS'petmn'
p4833
(dp4834
g8
S'2015-03-16 22:08:29'
p4835
sg10
S'he4550.petmn'
p4836
sg12
I27
sg13
S'petmn'
p4837
sg15
S'CRU Mean Annual Evapotranspiration'
p4838
sg17
S'45'
p4839
sg19
g4771
sg21
S'../views/GTiff/agclim.he4550.petmn.tif'
p4840
sg23
S'agclimate'
p4841
sg25
S'agclim.he4550.petmn'
p4842
sg27
S'CRU Mean Annual Evapotranspiration'
p4843
sg29
g30
sg31
g32
sg33
S'agclim.he4550.petmn.tif'
p4844
sg35
S'agclim'
p4845
sg37
g38
sg39
I4326
sg40
S'2050'
p4846
sssS'he6070'
p4847
(dp4848
S'bio06'
p4849
(dp4850
g8
S'2015-03-16 22:08:29'
p4851
sg10
S'he6070.bio06'
p4852
sg12
I190
sg13
S'bio06'
p4853
sg15
S'Min Temperature of Coldest Month'
p4854
sg17
S'60'
p4855
sg19
S'he6070'
p4856
sg21
S'../views/GTiff/agclim.he6070.bio06.tif'
p4857
sg23
S'agclimate'
p4858
sg25
S'agclim.he6070.bio06'
p4859
sg27
S'Min Temperature of Coldest Month'
p4860
sg29
g30
sg31
g32
sg33
S'agclim.he6070.bio06.tif'
p4861
sg35
S'agclim'
p4862
sg37
g38
sg39
I4326
sg40
S'2070'
p4863
ssS'bio12'
p4864
(dp4865
g8
S'2015-03-16 22:08:29'
p4866
sg10
S'he6070.bio12'
p4867
sg12
I210
sg13
S'bio12'
p4868
sg15
S'Annual Precipitation'
p4869
sg17
S'60'
p4870
sg19
S'he6070'
p4871
sg21
S'../views/GTiff/agclim.he6070.bio12.tif'
p4872
sg23
S'agclimate'
p4873
sg25
S'agclim.he6070.bio12'
p4874
sg27
S'Annual Precipitation'
p4875
sg29
g30
sg31
g32
sg33
S'agclim.he6070.bio12.tif'
p4876
sg35
S'agclim'
p4877
sg37
g38
sg39
I4326
sg40
S'2070'
p4878
ssS'gdd5'
p4879
(dp4880
g8
S'2015-03-16 22:08:29'
p4881
sg10
S'he6070.gdd5'
p4882
sg12
I80
sg13
S'gdd5'
p4883
sg15
S'Growing Degree Days 5C Baseline'
p4884
sg17
S'60'
p4885
sg19
S'he6070'
p4886
sg21
S'../views/GTiff/agclim.he6070.gdd5.tif'
p4887
sg23
S'agclimate'
p4888
sg25
S'agclim.he6070.gdd5'
p4889
sg27
S'Growing Degree Days 5C Baseline'
p4890
sg29
g30
sg31
g32
sg33
S'agclim.he6070.gdd5.tif'
p4891
sg35
S'agclim'
p4892
sg37
g38
sg39
I4326
sg40
S'2070'
p4893
ssS'aridity'
p4894
(dp4895
g8
S'2015-03-16 22:08:29'
p4896
sg10
S'he6070.aridity'
p4897
sg12
I30
sg13
S'aridity'
p4898
sg15
S'CRU Metric of Mean Annual Aridity'
p4899
sg17
S'60'
p4900
sg19
g4847
sg21
S'../views/GTiff/agclim.he6070.aridity.tif'
p4901
sg23
S'agclimate'
p4902
sg25
S'agclim.he6070.aridity'
p4903
sg27
S'CRU Metric of Mean Annual Aridity'
p4904
sg29
g30
sg31
g32
sg33
S'agclim.he6070.aridity.tif'
p4905
sg35
S'agclim'
p4906
sg37
g38
sg39
I4326
sg40
S'2070'
p4907
ssS'petmn'
p4908
(dp4909
g8
S'2015-03-16 22:08:29'
p4910
sg10
S'he6070.petmn'
p4911
sg12
I135
sg13
S'petmn'
p4912
sg15
S'CRU Mean Annual Evapotranspiration'
p4913
sg17
S'60'
p4914
sg19
S'he6070'
p4915
sg21
S'../views/GTiff/agclim.he6070.petmn.tif'
p4916
sg23
S'agclimate'
p4917
sg25
S'agclim.he6070.petmn'
p4918
sg27
S'CRU Mean Annual Evapotranspiration'
p4919
sg29
g30
sg31
g32
sg33
S'agclim.he6070.petmn.tif'
p4920
sg35
S'agclim'
p4921
sg37
g38
sg39
I4326
sg40
S'2070'
p4922
sssS'he4570'
p4923
(dp4924
S'bio06'
p4925
(dp4926
g8
S'2015-03-16 22:08:29'
p4927
sg10
S'he4570.bio06'
p4928
sg12
I254
sg13
S'bio06'
p4929
sg15
S'Min Temperature of Coldest Month'
p4930
sg17
S'45'
p4931
sg19
S'he4570'
p4932
sg21
S'../views/GTiff/agclim.he4570.bio06.tif'
p4933
sg23
S'agclimate'
p4934
sg25
S'agclim.he4570.bio06'
p4935
sg27
S'Min Temperature of Coldest Month'
p4936
sg29
g30
sg31
g32
sg33
S'agclim.he4570.bio06.tif'
p4937
sg35
S'agclim'
p4938
sg37
g38
sg39
I4326
sg40
S'2070'
p4939
ssS'bio12'
p4940
(dp4941
g8
S'2015-03-16 22:08:29'
p4942
sg10
S'he4570.bio12'
p4943
sg12
I141
sg13
S'bio12'
p4944
sg15
S'Annual Precipitation'
p4945
sg17
S'45'
p4946
sg19
S'he4570'
p4947
sg21
S'../views/GTiff/agclim.he4570.bio12.tif'
p4948
sg23
S'agclimate'
p4949
sg25
S'agclim.he4570.bio12'
p4950
sg27
S'Annual Precipitation'
p4951
sg29
g30
sg31
g32
sg33
S'agclim.he4570.bio12.tif'
p4952
sg35
S'agclim'
p4953
sg37
g38
sg39
I4326
sg40
S'2070'
p4954
ssS'gdd5'
p4955
(dp4956
g8
S'2015-03-16 22:08:29'
p4957
sg10
S'he4570.gdd5'
p4958
sg12
I140
sg13
S'gdd5'
p4959
sg15
S'Growing Degree Days 5C Baseline'
p4960
sg17
S'45'
p4961
sg19
S'he4570'
p4962
sg21
S'../views/GTiff/agclim.he4570.gdd5.tif'
p4963
sg23
S'agclimate'
p4964
sg25
S'agclim.he4570.gdd5'
p4965
sg27
S'Growing Degree Days 5C Baseline'
p4966
sg29
g30
sg31
g32
sg33
S'agclim.he4570.gdd5.tif'
p4967
sg35
S'agclim'
p4968
sg37
g38
sg39
I4326
sg40
S'2070'
p4969
ssS'aridity'
p4970
(dp4971
g8
S'2015-03-16 22:08:29'
p4972
sg10
S'he4570.aridity'
p4973
sg12
I319
sg13
S'aridity'
p4974
sg15
S'CRU Metric of Mean Annual Aridity'
p4975
sg17
S'45'
p4976
sg19
S'he4570'
p4977
sg21
S'../views/GTiff/agclim.he4570.aridity.tif'
p4978
sg23
S'agclimate'
p4979
sg25
S'agclim.he4570.aridity'
p4980
sg27
S'CRU Metric of Mean Annual Aridity'
p4981
sg29
g30
sg31
g32
sg33
S'agclim.he4570.aridity.tif'
p4982
sg35
S'agclim'
p4983
sg37
g38
sg39
I4326
sg40
S'2070'
p4984
ssS'petmn'
p4985
(dp4986
g8
S'2015-03-16 22:08:29'
p4987
sg10
S'he4570.petmn'
p4988
sg12
I6
sg13
S'petmn'
p4989
sg15
S'CRU Mean Annual Evapotranspiration'
p4990
sg17
S'45'
p4991
sg19
g4923
sg21
S'../views/GTiff/agclim.he4570.petmn.tif'
p4992
sg23
S'agclimate'
p4993
sg25
S'agclim.he4570.petmn'
p4994
sg27
S'CRU Mean Annual Evapotranspiration'
p4995
sg29
g30
sg31
g32
sg33
S'agclim.he4570.petmn.tif'
p4996
sg35
S'agclim'
p4997
sg37
g38
sg39
I4326
sg40
S'2070'
p4998
ssssS'env'
p4999
(dp5000
S'hwsd'
p5001
(dp5002
S't_gravel'
p5003
(dp5004
g8
S'2015-03-16 22:08:29'
p5005
sg10
S'hwsd.t_gravel'
p5006
sg12
I33
sg13
S't_gravel'
p5007
sg15
S'HWSD topsoil gravel'
p5008
sg17
S'current'
p5009
sg19
g5001
sg21
S'../views/GTiff/env.hwsd.t_gravel.tif'
p5010
sg23
S'environmental'
p5011
sg25
S'env.hwsd.t_gravel'
p5012
sg27
S'Harmonized World Soil Database topsoil gravel (% vol.)'
p5013
sg29
g30
sg31
g32
sg33
S'env.hwsd.t_gravel.tif'
p5014
sg35
g4999
sg37
g38
sg39
I4326
sg40
S'current'
p5015
ssS't_sand'
p5016
(dp5017
g8
S'2015-03-16 22:08:29'
p5018
sg10
S'hwsd.t_sand'
p5019
sg12
I249
sg13
S't_sand'
p5020
sg15
S'HWSD topsoil sand'
p5021
sg17
S'current'
p5022
sg19
S'hwsd'
p5023
sg21
S'../views/GTiff/env.hwsd.t_sand.tif'
p5024
sg23
S'environmental'
p5025
sg25
S'env.hwsd.t_sand'
p5026
sg27
S'Harmonized World Soil Database topsoil sand (% frac.)'
p5027
sg29
g30
sg31
g32
sg33
S'env.hwsd.t_sand.tif'
p5028
sg35
S'env'
p5029
sg37
g38
sg39
I4326
sg40
S'current'
p5030
ssS't_ph'
p5031
(dp5032
g8
S'2015-03-16 22:08:29'
p5033
sg10
S'hwsd.t_ph'
p5034
sg12
I221
sg13
S't_ph'
p5035
sg15
S'HWSD topsoil pH'
p5036
sg17
S'current'
p5037
sg19
S'hwsd'
p5038
sg21
S'../views/GTiff/env.hwsd.t_ph.tif'
p5039
sg23
S'environmental'
p5040
sg25
S'env.hwsd.t_ph'
p5041
sg27
S'Harmonized World Soil Database topsoil pH (log[H+])'
p5042
sg29
g30
sg31
g32
sg33
S'env.hwsd.t_ph.tif'
p5043
sg35
S'env'
p5044
sg37
g38
sg39
I4326
sg40
S'current'
p5045
ssS't_caco3'
p5046
(dp5047
g8
S'2015-03-16 22:08:29'
p5048
sg10
S'hwsd.t_caco3'
p5049
sg12
I201
sg13
S't_caco3'
p5050
sg15
S'HWSD topsoil CACO3'
p5051
sg17
S'current'
p5052
sg19
S'hwsd'
p5053
sg21
S'../views/GTiff/env.hwsd.t_caco3.tif'
p5054
sg23
S'environmental'
p5055
sg25
S'env.hwsd.t_caco3'
p5056
sg27
S'Harmonized World Soil Database topsoil CACO3 (% weight)'
p5057
sg29
g30
sg31
g32
sg33
S'env.hwsd.t_caco3.tif'
p5058
sg35
S'env'
p5059
sg37
g38
sg39
I4326
sg40
S'current'
p5060
ssS't_ece'
p5061
(dp5062
g8
S'2015-03-16 22:08:29'
p5063
sg10
S'hwsd.t_ece'
p5064
sg12
I154
sg13
S't_ece'
p5065
sg15
S'HWSD topsoil ECE'
p5066
sg17
S'current'
p5067
sg19
S'hwsd'
p5068
sg21
S'../views/GTiff/env.hwsd.t_ece.tif'
p5069
sg23
S'environmental'
p5070
sg25
S'env.hwsd.t_ece'
p5071
sg27
S'Harmonized World Soil Database topsoil ECE (salinity dS/m)'
p5072
sg29
g30
sg31
g32
sg33
S'env.hwsd.t_ece.tif'
p5073
sg35
S'env'
p5074
sg37
g38
sg39
I4326
sg40
S'current'
p5075
ssS't_silt'
p5076
(dp5077
g8
S'2015-03-16 22:08:29'
p5078
sg10
S'hwsd.t_silt'
p5079
sg12
I194
sg13
S't_silt'
p5080
sg15
S'HWSD topsoil silt'
p5081
sg17
S'current'
p5082
sg19
S'hwsd'
p5083
sg21
S'../views/GTiff/env.hwsd.t_silt.tif'
p5084
sg23
S'environmental'
p5085
sg25
S'env.hwsd.t_silt'
p5086
sg27
S'Harmonized World Soil Database topsoil silt (% frac.)'
p5087
sg29
g30
sg31
g32
sg33
S'env.hwsd.t_silt.tif'
p5088
sg35
S'env'
p5089
sg37
g38
sg39
I4326
sg40
S'current'
p5090
ssS't_clay'
p5091
(dp5092
g8
S'2015-03-16 22:08:29'
p5093
sg10
S'hwsd.t_clay'
p5094
sg12
I213
sg13
S't_clay'
p5095
sg15
S'HWSD topsoil clay'
p5096
sg17
S'current'
p5097
sg19
S'hwsd'
p5098
sg21
S'../views/GTiff/env.hwsd.t_clay.tif'
p5099
sg23
S'environmental'
p5100
sg25
S'env.hwsd.t_clay'
p5101
sg27
S'Harmonized World Soil Database topsoil clay (% frac.)'
p5102
sg29
g30
sg31
g32
sg33
S'env.hwsd.t_clay.tif'
p5103
sg35
S'env'
p5104
sg37
g38
sg39
I4326
sg40
S'current'
p5105
ssS't_caso4'
p5106
(dp5107
g8
S'2015-03-16 22:08:29'
p5108
sg10
S'hwsd.t_caso4'
p5109
sg12
I265
sg13
S't_caso4'
p5110
sg15
S'HWSD topsoil CASO4'
p5111
sg17
S'current'
p5112
sg19
S'hwsd'
p5113
sg21
S'../views/GTiff/env.hwsd.t_caso4.tif'
p5114
sg23
S'environmental'
p5115
sg25
S'env.hwsd.t_caso4'
p5116
sg27
S'Harmonized World Soil Database topsoil CASO4 (% weight)'
p5117
sg29
g30
sg31
g32
sg33
S'env.hwsd.t_caso4.tif'
p5118
sg35
S'env'
p5119
sg37
g38
sg39
I4326
sg40
S'current'
p5120
ssS't_cecsoil'
p5121
(dp5122
g8
S'2015-03-16 22:08:29'
p5123
sg10
S'hwsd.t_cecsoil'
p5124
sg12
I178
sg13
S't_cecsoil'
p5125
sg15
S'HWSD topsoil CECsoil'
p5126
sg17
S'current'
p5127
sg19
S'hwsd'
p5128
sg21
S'../views/GTiff/env.hwsd.t_cecsoil.tif'
p5129
sg23
S'environmental'
p5130
sg25
S'env.hwsd.t_cecsoil'
p5131
sg27
S'Harmonized World Soil Database topsoil CECsoil (cmol/kg)'
p5132
sg29
g30
sg31
g32
sg33
S'env.hwsd.t_cecsoil.tif'
p5133
sg35
S'env'
p5134
sg37
g38
sg39
I4326
sg40
S'current'
p5135
ssS't_oc'
p5136
(dp5137
g8
S'2015-03-16 22:08:29'
p5138
sg10
S'hwsd.t_oc'
p5139
sg12
I183
sg13
S't_oc'
p5140
sg15
S'HWSD topsoil oc'
p5141
sg17
S'current'
p5142
sg19
S'hwsd'
p5143
sg21
S'../views/GTiff/env.hwsd.t_oc.tif'
p5144
sg23
S'environmental'
p5145
sg25
S'env.hwsd.t_oc'
p5146
sg27
S'Harmonized World Soil Database topsoil organic carbon (% weight)'
p5147
sg29
g30
sg31
g32
sg33
S'env.hwsd.t_oc.tif'
p5148
sg35
S'env'
p5149
sg37
g38
sg39
I4326
sg40
S'current'
p5150
sssS'gmted2010'
p5151
(dp5152
S'elev_mean'
p5153
(dp5154
g8
S'2015-03-16 22:08:29'
p5155
sg10
S'gmted2010.elev_mean'
p5156
sg12
I323
sg13
S'elev_mean'
p5157
sg15
S'USGS GMTED2010 Mean Elevation'
p5158
sg17
S'current'
p5159
sg19
g5151
sg21
S'../views/GTiff/env.gmted2010.elev_mean.tif'
p5160
sg23
S'environmental'
p5161
sg25
S'env.gmted2010.elev_mean'
p5162
sg27
S'USGS GMTED2010 Mean Elevation'
p5163
sg29
g30
sg31
g32
sg33
S'env.gmted2010.elev_mean.tif'
p5164
sg35
S'env'
p5165
sg37
g38
sg39
I4326
sg40
S'current'
p5166
ssssS'spat'
p5167
(dp5168
S'dist'
p5169
(dp5170
S'pc2'
p5171
(dp5172
g8
S'2015-03-16 22:08:29'
p5173
sg10
S'dist.pc2'
p5174
sg12
I269
sg13
S'pc2'
p5175
sg15
S'PC Axis 2 of Distance Matrix'
p5176
sg17
S'current'
p5177
sg19
S'dist'
p5178
sg21
S'../views/GTiff/spat.dist.pc2.tif'
p5179
sg23
S'spatial'
p5180
sg25
S'spat.dist.pc2'
p5181
sg27
S'PC Axis 2 of Distance Matrix spatial'
p5182
sg29
g30
sg31
g32
sg33
S'spat.dist.pc2.tif'
p5183
sg35
S'spat'
p5184
sg37
g38
sg39
I4326
sg40
S'current'
p5185
ssS'pc3'
p5186
(dp5187
g8
S'2015-03-16 22:08:29'
p5188
sg10
S'dist.pc3'
p5189
sg12
I156
sg13
S'pc3'
p5190
sg15
S'PC Axis 3 of Distance Matrix'
p5191
sg17
S'current'
p5192
sg19
g5169
sg21
S'../views/GTiff/spat.dist.pc3.tif'
p5193
sg23
S'spatial'
p5194
sg25
S'spat.dist.pc3'
p5195
sg27
S'PC Axis 3 of Distance Matrix spatial'
p5196
sg29
g30
sg31
g32
sg33
S'spat.dist.pc3.tif'
p5197
sg35
g5167
sg37
g38
sg39
I4326
sg40
S'current'
p5198
ssS'pc1'
p5199
(dp5200
g8
S'2015-03-16 22:08:29'
p5201
sg10
S'dist.pc1'
p5202
sg12
I232
sg13
S'pc1'
p5203
sg15
S'PC Axis 1 of Distance Matrix'
p5204
sg17
S'current'
p5205
sg19
S'dist'
p5206
sg21
S'../views/GTiff/spat.dist.pc1.tif'
p5207
sg23
S'spatial'
p5208
sg25
S'spat.dist.pc1'
p5209
sg27
S'PC Axis 1 of Distance Matrix spatial'
p5210
sg29
g30
sg31
g32
sg33
S'spat.dist.pc1.tif'
p5211
sg35
S'spat'
p5212
sg37
g38
sg39
I4326
sg40
S'current'
p5213
ssss.