(dp1
S'Hypericum_prolificum'
p2
(dp3
S'group'
p4
I9
sS'family'
p5
S'Hypericaceae'
p6
sS'epsgCode'
p7
I4326
sS'occurencesCount'
p8
S'885'
p9
sS'dataFormat'
p10
S'shape'
p11
sS'downloadedTime'
p12
S'Wed Jan 28 21:42:41 2015'
p13
sS'occurrenceID'
p14
S'5665915'
p15
sS'species'
p16
g2
ssS'Moluccella_laevis'
p17
(dp18
g4
I9
sg5
S'Lamiaceae'
p19
sg7
I4326
sg8
S'27'
p20
sg10
S'shape'
p21
sg12
S'Wed Jan 28 23:27:05 2015'
p22
sg14
S'5665181'
p23
sg16
g17
ssS'Juncus_dubius'
p24
(dp25
g4
I9
sg5
S'Juncaceae'
p26
sg7
I4326
sg8
S'65'
p27
sg10
S'shape'
p28
sg12
S'Wed Jan 28 22:03:20 2015'
p29
sg14
S'5665635'
p30
sg16
g24
ssS'Myriophyllum_humile'
p31
(dp32
g4
I9
sg5
S'Haloragaceae'
p33
sg7
I4326
sg8
S'258'
p34
sg10
S'shape'
p35
sg12
S'Wed Jan 28 23:31:45 2015'
p36
sg14
S'5668388'
p37
sg16
g31
ssS'Lamium_amplexicaule'
p38
(dp39
g4
I9
sg5
S'Lamiaceae'
p40
sg7
I4326
sg8
S'1900'
p41
sg10
S'shape'
p42
sg12
S'Wed Jan 28 22:12:42 2015'
p43
sg14
S'5665199'
p44
sg16
g38
ssS'Sisyrinchium_capillare'
p45
(dp46
g4
I9
sg5
S'Iridaceae'
p47
sg7
I4326
sg8
S'102'
p48
sg10
S'shape'
p49
sg12
S'Thu Jan 29 02:28:34 2015'
p50
sg14
S'5672701'
p51
sg16
g45
ssS'Juglans_hindsii'
p52
(dp53
g4
I9
sg5
S'Juglandaceae'
p54
sg7
I4326
sg8
S'76'
p55
sg10
S'shape'
p56
sg12
S'Wed Jan 28 22:02:35 2015'
p57
sg14
S'5665675'
p58
sg16
g52
ssS'Sisyrinchium_longipes'
p59
(dp60
g4
I9
sg5
S'Iridaceae'
p61
sg7
I4326
sg8
S'72'
p62
sg10
S'shape'
p63
sg12
S'Thu Jan 29 02:31:24 2015'
p64
sg14
S'5665685'
p65
sg16
g59
ssS'Myriophyllum_farwellii'
p66
(dp67
g4
I9
sg5
S'Haloragaceae'
p68
sg7
I4326
sg8
S'88'
p69
sg10
S'shape'
p70
sg12
S'Wed Jan 28 23:30:51 2015'
p71
sg14
S'5665778'
p72
sg16
g66
ssS'Hypericum_hypericoides'
p73
(dp74
g4
I9
sg5
S'Hypericaceae'
p75
sg7
I4326
sg8
S'2427'
p76
sg10
S'shape'
p77
sg12
S'Wed Jan 28 21:40:22 2015'
p78
sg14
S'5677864'
p79
sg16
g73
ssS'Juncus_brachyphyllus'
p80
(dp81
g4
I9
sg5
S'Juncaceae'
p82
sg7
I4326
sg8
S'105'
p83
sg10
S'shape'
p84
sg12
S'Wed Jan 28 22:01:30 2015'
p85
sg14
S'5665831'
p86
sg16
g80
ssS'Luzula_echinata'
p87
(dp88
g4
I9
sg5
S'Juncaceae'
p89
sg7
I4326
sg8
S'857'
p90
sg10
S'shape'
p91
sg12
S'Wed Jan 28 22:49:57 2015'
p92
sg14
S'5665858'
p93
sg16
g87
ssS'Salvia_tiliifolia'
p94
(dp95
g4
I9
sg5
S'Lamiaceae'
p96
sg7
I4326
sg8
S'72'
p97
sg10
S'shape'
p98
sg12
S'Thu Jan 29 02:10:38 2015'
p99
sg14
S'5665275'
p100
sg16
g94
ssS'Juncus_texanus'
p101
(dp102
g4
I9
sg5
S'Juncaceae'
p103
sg7
I4326
sg8
S'27'
p104
sg10
S'shape'
p105
sg12
S'Wed Jan 28 22:00:29 2015'
p106
sg14
S'5677743'
p107
sg16
g101
ssS'Juglans_nigra'
p108
(dp109
g4
I9
sg5
S'Juglandaceae'
p110
sg7
I4326
sg8
S'31251'
p111
sg10
S'shape'
p112
sg12
S'Wed Jan 28 22:05:38 2015'
p113
sg14
S'5665881'
p114
sg16
g108
ssS'Juncus_ensifolius'
p115
(dp116
g4
I9
sg5
S'Juncaceae'
p117
sg7
I4326
sg8
S'727'
p118
sg10
S'shape'
p119
sg12
S'Wed Jan 28 22:03:42 2015'
p120
sg14
S'5665938'
p121
sg16
g115
ssS'Heliconia_latispatha'
p122
(dp123
g4
I9
sg5
S'Heliconiaceae'
p124
sg7
I4326
sg8
S'117'
p125
sg10
S'shape'
p126
sg12
S'Wed Jan 28 21:26:38 2015'
p127
sg14
S'5665945'
p128
sg16
g122
ssS'Isoetes_butleri'
p129
(dp130
g4
I9
sg5
S'Iso\xc3\xabtaceae'
p131
sg7
I4326
sg8
S'127'
p132
sg10
S'shape'
p133
sg12
S'Wed Jan 28 21:54:11 2015'
p134
sg14
S'5665993'
p135
sg16
g129
ssS'Myriophyllum_hippuroides'
p136
(dp137
g4
I9
sg5
S'Haloragaceae'
p138
sg7
I4326
sg8
S'79'
p139
sg10
S'shape'
p140
sg12
S'Wed Jan 28 23:31:42 2015'
p141
sg14
S'5666019'
p142
sg16
g136
ssS'Juncus_brevicaudatus'
p143
(dp144
g4
I9
sg5
S'Juncaceae'
p145
sg7
I4326
sg8
S'766'
p146
sg10
S'shape'
p147
sg12
S'Wed Jan 28 22:01:37 2015'
p148
sg14
S'5666021'
p149
sg16
g143
ssS'Juncus_longistylis'
p150
(dp151
g4
I9
sg5
S'Juncaceae'
p152
sg7
I4326
sg8
S'516'
p153
sg10
S'shape'
p154
sg12
S'Thu Jan 29 05:25:44 2015'
p155
sg14
S'5681629'
p156
sg16
g150
ssS'Monardella_villosa'
p157
(dp158
g4
I9
sg5
S'Lamiaceae'
p159
sg7
I4326
sg8
S'254'
p160
sg10
S'shape'
p161
sg12
S'Wed Jan 28 23:25:02 2015'
p162
sg14
S'5665365'
p163
sg16
g157
ssS'Lindera_benzoin'
p164
(dp165
g4
I9
sg5
S'Lauraceae'
p166
sg7
I4326
sg8
S'3728'
p167
sg10
S'shape'
p168
sg12
S'Wed Jan 28 22:37:43 2015'
p169
sg14
S'5666083'
p170
sg16
g164
ssS'Juncus_macrandrus'
p171
(dp172
g4
I9
sg5
S'Juncaceae'
p173
sg7
I4326
sg8
S'45'
p174
sg10
S'shape'
p175
sg12
S'Wed Jan 28 22:05:31 2015'
p176
sg14
S'5666085'
p177
sg16
g171
ssS'Iris_tenuissima'
p178
(dp179
g4
I9
sg5
S'Iridaceae'
p180
sg7
I4326
sg8
S'32'
p181
sg10
S'shape'
p182
sg12
S'Wed Jan 28 21:53:40 2015'
p183
sg14
S'5666167'
p184
sg16
g178
ssS'Juncus_pelocarpus'
p185
(dp186
g4
I9
sg5
S'Juncaceae'
p187
sg7
I4326
sg8
S'591'
p188
sg10
S'shape'
p189
sg12
S'Wed Jan 28 22:06:52 2015'
p190
sg14
S'5666221'
p191
sg16
g185
ssS'Leonurus_sibiricus'
p192
(dp193
g4
I9
sg5
S'Lamiaceae'
p194
sg7
I4326
sg8
S'124'
p195
sg10
S'shape'
p196
sg12
S'Thu Jan 29 04:02:52 2015'
p197
sg14
S'5665508'
p198
sg16
g192
ssS'Juglans_californica'
p199
(dp200
g4
I9
sg5
S'Juglandaceae'
p201
sg7
I4326
sg8
S'69'
p202
sg10
S'shape'
p203
sg12
S'Thu Jan 29 05:25:18 2015'
p204
sg14
S'5666291'
p205
sg16
g199
ssS'Isoetes_howellii'
p206
(dp207
g4
I9
sg5
S'Iso\xc3\xabtaceae'
p208
sg7
I4326
sg8
S'143'
p209
sg10
S'shape'
p210
sg12
S'Wed Jan 28 21:54:38 2015'
p211
sg14
S'5666322'
p212
sg16
g206
ssS'Juncus_occidentalis'
p213
(dp214
g4
I9
sg5
S'Juncaceae'
p215
sg7
I4326
sg8
S'137'
p216
sg10
S'shape'
p217
sg12
S'Wed Jan 28 22:06:28 2015'
p218
sg14
S'5666327'
p219
sg16
g213
ssS'Carya_myristiciformis'
p220
(dp221
g4
I9
sg5
S'Juglandaceae'
p222
sg7
I4326
sg8
S'308'
p223
sg10
S'shape'
p224
sg12
S'Wed Jan 28 18:22:13 2015'
p225
sg14
S'5665759'
p226
sg16
g220
ssS'Ribes_leptanthum'
p227
(dp228
g4
I9
sg5
S'Grossulariaceae'
p229
sg7
I4326
sg8
S'148'
p230
sg10
S'shape'
p231
sg12
S'Thu Jan 29 01:48:03 2015'
p232
sg14
S'5677948'
p233
sg16
g227
ssS'Juncus_bryoides'
p234
(dp235
g4
I9
sg5
S'Juncaceae'
p236
sg7
I4326
sg8
S'48'
p237
sg10
S'shape'
p238
sg12
S'Thu Jan 29 05:25:25 2015'
p239
sg14
S'5666435'
p240
sg16
g234
ssS'Meehania_cordata'
p241
(dp242
g4
I9
sg5
S'Lamiaceae'
p243
sg7
I4326
sg8
S'91'
p244
sg10
S'shape'
p245
sg12
S'Wed Jan 28 23:15:14 2015'
p246
sg14
S'5665503'
p247
sg16
g241
ssS'Hypericum_virgatum'
p248
(dp249
g4
I9
sg5
S'Hypericaceae'
p250
sg7
I4326
sg8
S'96'
p251
sg10
S'shape'
p252
sg12
S'Wed Jan 28 21:44:27 2015'
p253
sg14
S'5666563'
p254
sg16
g248
ssS'Salvia_regla'
p255
(dp256
g4
I9
sg5
S'Lamiaceae'
p257
sg7
I4326
sg8
S'144'
p258
sg10
S'shape'
p259
sg12
S'Thu Jan 29 02:09:13 2015'
p260
sg14
S'5665555'
p261
sg16
g255
ssS'Salvia_lyrata'
p262
(dp263
g4
I9
sg5
S'Lamiaceae'
p264
sg7
I4326
sg8
S'479'
p265
sg10
S'shape'
p266
sg12
S'Thu Jan 29 02:05:49 2015'
p267
sg14
S'5665567'
p268
sg16
g262
ssS'Scutellaria_californica'
p269
(dp270
g4
I9
sg5
S'Lamiaceae'
p271
sg7
I4326
sg8
S'108'
p272
sg10
S'shape'
p273
sg12
S'Thu Jan 29 02:12:41 2015'
p274
sg14
S'5665572'
p275
sg16
g269
ssS'Clerodendrum_bungei'
p276
(dp277
g4
I9
sg5
S'Lamiaceae'
p278
sg7
I4326
sg8
S'53'
p279
sg10
S'shape'
p280
sg12
S'Thu Jan 29 03:58:29 2015'
p281
sg14
S'5665246'
p282
sg16
g276
ssS'Scutellaria_incana'
p283
(dp284
g4
I9
sg5
S'Lamiaceae'
p285
sg7
I4326
sg8
S'657'
p286
sg10
S'shape'
p287
sg12
S'Thu Jan 29 02:14:29 2015'
p288
sg14
S'5665192'
p289
sg16
g283
ssS'Hypoxis_rigida'
p290
(dp291
g4
I9
sg5
S'Hypoxidaceae'
p292
sg7
I4326
sg8
S'41'
p293
sg10
S'shape'
p294
sg12
S'Wed Jan 28 21:41:34 2015'
p295
sg14
S'5666765'
p296
sg16
g290
ssS'Satureja_hortensis'
p297
(dp298
g4
I9
sg5
S'Lamiaceae'
p299
sg7
I4326
sg8
S'46'
p300
sg10
S'shape'
p301
sg12
S'Thu Jan 29 01:59:35 2015'
p302
sg14
S'5665221'
p303
sg16
g297
ssS'Juncus_debilis'
p304
(dp305
g4
I9
sg5
S'Juncaceae'
p306
sg7
I4326
sg8
S'323'
p307
sg10
S'shape'
p308
sg12
S'Wed Jan 28 22:02:50 2015'
p309
sg14
S'5666785'
p310
sg16
g304
ssS'Myriophyllum_heterophyllum'
p311
(dp312
g4
I9
sg5
S'Haloragaceae'
p313
sg7
I4326
sg8
S'679'
p314
sg10
S'shape'
p315
sg12
S'Wed Jan 28 23:31:30 2015'
p316
sg14
S'5666810'
p317
sg16
g311
ssS'Ribes_nigrum'
p318
(dp319
g4
I9
sg5
S'Grossulariaceae'
p320
sg7
I4326
sg8
S'48'
p321
sg10
S'shape'
p322
sg12
S'Thu Jan 29 01:48:16 2015'
p323
sg14
S'5666823'
p324
sg16
g318
ssS'Scutellaria_brittonii'
p325
(dp326
g4
I9
sg5
S'Lamiaceae'
p327
sg7
I4326
sg8
S'100'
p328
sg10
S'shape'
p329
sg12
S'Thu Jan 29 02:12:34 2015'
p330
sg14
S'5665248'
p331
sg16
g325
ssS'Carpenteria_californica'
p332
(dp333
g4
I9
sg5
S'Hydrangeaceae'
p334
sg7
I4326
sg8
S'25'
p335
sg10
S'shape'
p336
sg12
S'Wed Jan 28 18:17:25 2015'
p337
sg14
S'5666833'
p338
sg16
g332
ssS'Trichostema_dichotomum'
p339
(dp340
g4
I9
sg5
S'Lamiaceae'
p341
sg7
I4326
sg8
S'946'
p342
sg10
S'shape'
p343
sg12
S'Thu Jan 29 03:14:46 2015'
p344
sg14
S'5665493'
p345
sg16
g339
ssS'Galeopsis_tetrahit'
p346
(dp347
g4
I9
sg5
S'Lamiaceae'
p348
sg7
I4326
sg8
S'408'
p349
sg10
S'shape'
p350
sg12
S'Wed Jan 28 21:00:09 2015'
p351
sg14
S'5665266'
p352
sg16
g346
ssS'Juncus_parryi'
p353
(dp354
g4
I9
sg5
S'Juncaceae'
p355
sg7
I4326
sg8
S'711'
p356
sg10
S'shape'
p357
sg12
S'Wed Jan 28 22:06:43 2015'
p358
sg14
S'5666908'
p359
sg16
g353
ssS'Hypericum_ellipticum'
p360
(dp361
g4
I9
sg5
S'Hypericaceae'
p362
sg7
I4326
sg8
S'404'
p363
sg10
S'shape'
p364
sg12
S'Wed Jan 28 21:39:44 2015'
p365
sg14
S'5666929'
p366
sg16
g360
ssS'Lycopus_virginicus'
p367
(dp368
g4
I9
sg5
S'Lamiaceae'
p369
sg7
I4326
sg8
S'1754'
p370
sg10
S'shape'
p371
sg12
S'Wed Jan 28 22:58:53 2015'
p372
sg14
S'5665298'
p373
sg16
g367
ssS'Scutellaria_drummondii'
p374
(dp375
g4
I9
sg5
S'Lamiaceae'
p376
sg7
I4326
sg8
S'56'
p377
sg10
S'shape'
p378
sg12
S'Thu Jan 29 02:12:54 2015'
p379
sg14
S'5665299'
p380
sg16
g374
ssS'Ribes_glandulosum'
p381
(dp382
g4
I9
sg5
S'Grossulariaceae'
p383
sg7
I4326
sg8
S'704'
p384
sg10
S'shape'
p385
sg12
S'Thu Jan 29 01:47:31 2015'
p386
sg14
S'5666993'
p387
sg16
g381
ssS'Lachnanthes_caroliniana'
p388
(dp389
g4
I9
sg5
S'Haemodoraceae'
p390
sg7
I4326
sg8
S'347'
p391
sg10
S'shape'
p392
sg12
S'Wed Jan 28 22:12:35 2015'
p393
sg14
S'5681954'
p394
sg16
g388
ssS'Juncus_confusus'
p395
(dp396
g4
I9
sg5
S'Juncaceae'
p397
sg7
I4326
sg8
S'254'
p398
sg10
S'shape'
p399
sg12
S'Wed Jan 28 22:02:38 2015'
p400
sg14
S'5667048'
p401
sg16
g395
ssS'Stachys_coccinea'
p402
(dp403
g4
I9
sg5
S'Lamiaceae'
p404
sg7
I4326
sg8
S'680'
p405
sg10
S'shape'
p406
sg12
S'Thu Jan 29 02:49:19 2015'
p407
sg14
S'5665276'
p408
sg16
g402
ssS'Trichostema_laxum'
p409
(dp410
g4
I9
sg5
S'Lamiaceae'
p411
sg7
I4326
sg8
S'79'
p412
sg10
S'shape'
p413
sg12
S'Thu Jan 29 03:18:40 2015'
p414
sg14
S'5665362'
p415
sg16
g409
ssS'Hypoxis_juncea'
p416
(dp417
g4
I9
sg5
S'Hypoxidaceae'
p418
sg7
I4326
sg8
S'190'
p419
sg10
S'shape'
p420
sg12
S'Wed Jan 28 21:39:35 2015'
p421
sg14
S'5667094'
p422
sg16
g416
ssS'Rosmarinus_officinalis'
p423
(dp424
g4
I9
sg5
S'Lamiaceae'
p425
sg7
I4326
sg8
S'28'
p426
sg10
S'shape'
p427
sg12
S'Thu Jan 29 01:52:32 2015'
p428
sg14
S'5665382'
p429
sg16
g423
ssS'Philadelphus_mearnsii'
p430
(dp431
g4
I9
sg5
S'Hydrangeaceae'
p432
sg7
I4326
sg8
S'30'
p433
sg10
S'shape'
p434
sg12
S'Thu Jan 29 00:29:34 2015'
p435
sg14
S'5667156'
p436
sg16
g430
ssS'Hypericum_setosum'
p437
(dp438
g4
I9
sg5
S'Hypericaceae'
p439
sg7
I4326
sg8
S'207'
p440
sg10
S'shape'
p441
sg12
S'Wed Jan 28 21:43:16 2015'
p442
sg14
S'5667225'
p443
sg16
g437
ssS'Iris_versicolor'
p444
(dp445
g4
I9
sg5
S'Iridaceae'
p446
sg7
I4326
sg8
S'818'
p447
sg10
S'shape'
p448
sg12
S'Wed Jan 28 21:53:56 2015'
p449
sg14
S'5673851'
p450
sg16
g444
ssS'Carya_texana'
p451
(dp452
g4
I9
sg5
S'Juglandaceae'
p453
sg7
I4326
sg8
S'30159'
p454
sg10
S'shape'
p455
sg12
S'Wed Jan 28 18:28:53 2015'
p456
sg14
S'5675528'
p457
sg16
g451
ssS'Jamesia_americana'
p458
(dp459
g4
I9
sg5
S'Hydrangeaceae'
p460
sg7
I4326
sg8
S'449'
p461
sg10
S'shape'
p462
sg12
S'Wed Jan 28 21:58:50 2015'
p463
sg14
S'5667280'
p464
sg16
g458
ssS'Physostegia_digitalis'
p465
(dp466
g4
I9
sg5
S'Lamiaceae'
p467
sg7
I4326
sg8
S'37'
p468
sg10
S'shape'
p469
sg12
S'Thu Jan 29 00:24:02 2015'
p470
sg14
S'5665440'
p471
sg16
g465
ssS'Scaevola_plumieri'
p472
(dp473
g4
I9
sg5
S'Goodeniaceae'
p474
sg7
I4326
sg8
S'123'
p475
sg10
S'shape'
p476
sg12
S'Thu Jan 29 02:17:54 2015'
p477
sg14
S'5667345'
p478
sg16
g472
ssS'Pycnanthemum_verticillatum'
p479
(dp480
g4
I9
sg5
S'Lamiaceae'
p481
sg7
I4326
sg8
S'592'
p482
sg10
S'shape'
p483
sg12
S'Thu Jan 29 01:25:07 2015'
p484
sg14
S'5665459'
p485
sg16
g479
ssS'Piloblephis_rigida'
p486
(dp487
g4
I9
sg5
S'Lamiaceae'
p488
sg7
I4326
sg8
S'55'
p489
sg10
S'shape'
p490
sg12
S'Thu Jan 29 00:43:28 2015'
p491
sg14
S'5665473'
p492
sg16
g486
ssS'Hydrolea_corymbosa'
p493
(dp494
g4
I9
sg5
S'Hydroleaceae'
p495
sg7
I4326
sg8
S'48'
p496
sg10
S'shape'
p497
sg12
S'Wed Jan 28 21:44:51 2015'
p498
sg14
S'5667427'
p499
sg16
g493
ssS'Elsholtzia_ciliata'
p500
(dp501
g4
I9
sg5
S'Lamiaceae'
p502
sg7
I4326
sg8
S'27'
p503
sg10
S'shape'
p504
sg12
S'Wed Jan 28 20:12:20 2015'
p505
sg14
S'5665497'
p506
sg16
g500
ssS'Myriophyllum_sibiricum'
p507
(dp508
g4
I9
sg5
S'Haloragaceae'
p509
sg7
I4326
sg8
S'1118'
p510
sg10
S'shape'
p511
sg12
S'Wed Jan 28 23:32:44 2015'
p512
sg14
S'5675561'
p513
sg16
g507
ssS'Hydrangea_cinerea'
p514
(dp515
g4
I9
sg5
S'Hydrangeaceae'
p516
sg7
I4326
sg8
S'126'
p517
sg10
S'shape'
p518
sg12
S'Wed Jan 28 21:44:57 2015'
p519
sg14
S'5667527'
p520
sg16
g514
ssS'Ribes_inerme'
p521
(dp522
g4
I9
sg5
S'Grossulariaceae'
p523
sg7
I4326
sg8
S'1046'
p524
sg10
S'shape'
p525
sg12
S'Thu Jan 29 01:47:48 2015'
p526
sg14
S'5673913'
p527
sg16
g521
ssS'Myriophyllum_alterniflorum'
p528
(dp529
g4
I9
sg5
S'Haloragaceae'
p530
sg7
I4326
sg8
S'63'
p531
sg10
S'shape'
p532
sg12
S'Thu Jan 29 04:26:15 2015'
p533
sg14
S'5667597'
p534
sg16
g528
ssS'Juncus_marginatus'
p535
(dp536
g4
I9
sg5
S'Juncaceae'
p537
sg7
I4326
sg8
S'1656'
p538
sg10
S'shape'
p539
sg12
S'Wed Jan 28 22:05:45 2015'
p540
sg14
S'5667678'
p541
sg16
g535
ssS'Salvia_texana'
p542
(dp543
g4
I9
sg5
S'Lamiaceae'
p544
sg7
I4326
sg8
S'30'
p545
sg10
S'shape'
p546
sg12
S'Thu Jan 29 02:10:25 2015'
p547
sg14
S'5665574'
p548
sg16
g542
ssS'Iris_bracteata'
p549
(dp550
g4
I9
sg5
S'Iridaceae'
p551
sg7
I4326
sg8
S'44'
p552
sg10
S'shape'
p553
sg12
S'Wed Jan 28 21:53:24 2015'
p554
sg14
S'5667697'
p555
sg16
g549
ssS'Scutellaria_ovata'
p556
(dp557
g4
I9
sg5
S'Lamiaceae'
p558
sg7
I4326
sg8
S'795'
p559
sg10
S'shape'
p560
sg12
S'Thu Jan 29 02:16:23 2015'
p561
sg14
S'5665176'
p562
sg16
g556
ssS'Nepeta_cataria'
p563
(dp564
g4
I9
sg5
S'Lamiaceae'
p565
sg7
I4326
sg8
S'1578'
p566
sg10
S'shape'
p567
sg12
S'Thu Jan 29 05:29:33 2015'
p568
sg14
S'5665182'
p569
sg16
g563
ssS'Pycnanthemum_muticum'
p570
(dp571
g4
I9
sg5
S'Lamiaceae'
p572
sg7
I4326
sg8
S'336'
p573
sg10
S'shape'
p574
sg12
S'Thu Jan 29 01:24:43 2015'
p575
sg14
S'5665186'
p576
sg16
g570
ssS'Stachys_pycnantha'
p577
(dp578
g4
I9
sg5
S'Lamiaceae'
p579
sg7
I4326
sg8
S'58'
p580
sg10
S'shape'
p581
sg12
S'Thu Jan 29 02:53:34 2015'
p582
sg14
S'5665196'
p583
sg16
g577
ssS'Hyptis_verticillata'
p584
(dp585
g4
I9
sg5
S'Lamiaceae'
p586
sg7
I4326
sg8
S'170'
p587
sg10
S'shape'
p588
sg12
S'Thu Jan 29 04:23:53 2015'
p589
sg14
S'5665234'
p590
sg16
g584
ssS'Physostegia_parviflora'
p591
(dp592
g4
I9
sg5
S'Lamiaceae'
p593
sg7
I4326
sg8
S'84'
p594
sg10
S'shape'
p595
sg12
S'Thu Jan 29 05:39:24 2015'
p596
sg14
S'5665237'
p597
sg16
g591
ssS'Philadelphus_coronarius'
p598
(dp599
g4
I9
sg5
S'Hydrangeaceae'
p600
sg7
I4326
sg8
S'83'
p601
sg10
S'shape'
p602
sg12
S'Thu Jan 29 00:23:10 2015'
p603
sg14
S'5681837'
p604
sg16
g598
ssS'Isoetes_melanopoda'
p605
(dp606
g4
I9
sg5
S'Iso\xc3\xabtaceae'
p607
sg7
I4326
sg8
S'250'
p608
sg10
S'shape'
p609
sg12
S'Wed Jan 28 21:55:05 2015'
p610
sg14
S'5667890'
p611
sg16
g605
ssS'Luzula_spicata'
p612
(dp613
g4
I9
sg5
S'Juncaceae'
p614
sg7
I4326
sg8
S'466'
p615
sg10
S'shape'
p616
sg12
S'Wed Jan 28 22:53:27 2015'
p617
sg14
S'5667945'
p618
sg16
g612
ssS'Juncus_phaeocephalus'
p619
(dp620
g4
I9
sg5
S'Juncaceae'
p621
sg7
I4326
sg8
S'37'
p622
sg10
S'shape'
p623
sg12
S'Thu Jan 29 04:24:07 2015'
p624
sg14
S'5667257'
p625
sg16
g619
ssS'Clinopodium_brownei'
p626
(dp627
g4
I9
sg5
S'Lamiaceae'
p628
sg7
I4326
sg8
S'191'
p629
sg10
S'shape'
p630
sg12
S'Wed Jan 28 19:02:52 2015'
p631
sg14
S'5665518'
p632
sg16
g626
ssS'Salvia_dorrii'
p633
(dp634
g4
I9
sg5
S'Lamiaceae'
p635
sg7
I4326
sg8
S'399'
p636
sg10
S'shape'
p637
sg12
S'Thu Jan 29 02:02:19 2015'
p638
sg14
S'5665307'
p639
sg16
g633
ssS'Salvia_mellifera'
p640
(dp641
g4
I9
sg5
S'Lamiaceae'
p642
sg7
I4326
sg8
S'125'
p643
sg10
S'shape'
p644
sg12
S'Thu Jan 29 02:05:55 2015'
p645
sg14
S'5665310'
p646
sg16
g640
ssS'Luzula_kobayasii'
p647
(dp648
g4
I9
sg5
S'Juncaceae'
p649
sg7
I4326
sg8
S'31'
p650
sg10
S'shape'
p651
sg12
S'Wed Jan 28 22:51:17 2015'
p652
sg14
S'5668060'
p653
sg16
g647
ssS'Hyssopus_officinalis'
p654
(dp655
g4
I9
sg5
S'Lamiaceae'
p656
sg7
I4326
sg8
S'55'
p657
sg10
S'shape'
p658
sg12
S'Thu Jan 29 04:23:58 2015'
p659
sg14
S'5665335'
p660
sg16
g654
ssS'Ribes_cereum'
p661
(dp662
g4
I9
sg5
S'Grossulariaceae'
p663
sg7
I4326
sg8
S'1720'
p664
sg10
S'shape'
p665
sg12
S'Thu Jan 29 01:47:08 2015'
p666
sg14
S'5668077'
p667
sg16
g661
ssS'Callicarpa_americana'
p668
(dp669
g4
I9
sg5
S'Lamiaceae'
p670
sg7
I4326
sg8
S'1563'
p671
sg10
S'shape'
p672
sg12
S'Wed Jan 28 18:21:17 2015'
p673
sg14
S'5665355'
p674
sg16
g668
ssS'Pogogyne_floribunda'
p675
(dp676
g4
I9
sg5
S'Lamiaceae'
p677
sg7
I4326
sg8
S'33'
p678
sg10
S'shape'
p679
sg12
S'Thu Jan 29 01:01:05 2015'
p680
sg14
S'5665353'
p681
sg16
g675
ssS'Isoetes_echinospora'
p682
(dp683
g4
I9
sg5
S'Iso\xc3\xabtaceae'
p684
sg7
I4326
sg8
S'770'
p685
sg10
S'shape'
p686
sg12
S'Wed Jan 28 21:54:30 2015'
p687
sg14
S'5668127'
p688
sg16
g682
ssS'Juncus_subtilis'
p689
(dp690
g4
I9
sg5
S'Juncaceae'
p691
sg7
I4326
sg8
S'24'
p692
sg10
S'shape'
p693
sg12
S'Thu Jan 29 05:26:06 2015'
p694
sg14
S'5668144'
p695
sg16
g689
ssS'Monarda_russeliana'
p696
(dp697
g4
I9
sg5
S'Lamiaceae'
p698
sg7
I4326
sg8
S'32'
p699
sg10
S'shape'
p700
sg12
S'Wed Jan 28 23:24:59 2015'
p701
sg14
S'5665372'
p702
sg16
g696
ssS'Juncus_kelloggii'
p703
(dp704
g4
I9
sg5
S'Juncaceae'
p705
sg7
I4326
sg8
S'60'
p706
sg10
S'shape'
p707
sg12
S'Wed Jan 28 22:05:16 2015'
p708
sg14
S'5668199'
p709
sg16
g703
ssS'Juncus_vaseyi'
p710
(dp711
g4
I9
sg5
S'Juncaceae'
p712
sg7
I4326
sg8
S'74'
p713
sg10
S'shape'
p714
sg12
S'Thu Jan 29 04:24:21 2015'
p715
sg14
S'5668284'
p716
sg16
g710
ssS'Juncus_scirpoides'
p717
(dp718
g4
I9
sg5
S'Juncaceae'
p719
sg7
I4326
sg8
S'673'
p720
sg10
S'shape'
p721
sg12
S'Wed Jan 28 22:07:49 2015'
p722
sg14
S'5668292'
p723
sg16
g717
ssS'Juncus_nodatus'
p724
(dp725
g4
I9
sg5
S'Juncaceae'
p726
sg7
I4326
sg8
S'255'
p727
sg10
S'shape'
p728
sg12
S'Wed Jan 28 22:06:05 2015'
p729
sg14
S'5668293'
p730
sg16
g724
ssS'Ribes_missouriense'
p731
(dp732
g4
I9
sg5
S'Grossulariaceae'
p733
sg7
I4326
sg8
S'922'
p734
sg10
S'shape'
p735
sg12
S'Thu Jan 29 01:48:11 2015'
p736
sg14
S'5667255'
p737
sg16
g731
ssS'Juncus_acuminatus'
p738
(dp739
g4
I9
sg5
S'Juncaceae'
p740
sg7
I4326
sg8
S'1812'
p741
sg10
S'shape'
p742
sg12
S'Wed Jan 28 22:07:38 2015'
p743
sg14
S'5668341'
p744
sg16
g738
ssS'Physostegia_virginiana'
p745
(dp746
g4
I9
sg5
S'Lamiaceae'
p747
sg7
I4326
sg8
S'1183'
p748
sg10
S'shape'
p749
sg12
S'Thu Jan 29 00:31:42 2015'
p750
sg14
S'5665571'
p751
sg16
g745
ssS'Juncus_bolanderi'
p752
(dp753
g4
I9
sg5
S'Juncaceae'
p754
sg7
I4326
sg8
S'114'
p755
sg10
S'shape'
p756
sg12
S'Wed Jan 28 22:01:19 2015'
p757
sg14
S'5668384'
p758
sg16
g752
ssS'Juncus_effusus'
p759
(dp760
g4
I9
sg5
S'Juncaceae'
p761
sg7
I4326
sg8
S'2782'
p762
sg10
S'shape'
p763
sg12
S'Wed Jan 28 22:03:33 2015'
p764
sg14
S'5675562'
p765
sg16
g759
ssS'Koeberlinia_spinosa'
p766
(dp767
g4
I9
sg5
S'Koeberliniaceae'
p768
sg7
I4326
sg8
S'230'
p769
sg10
S'shape'
p770
sg12
S'Wed Jan 28 22:11:12 2015'
p771
sg14
S'5668441'
p772
sg16
g766
ssS'Carya_glabra'
p773
(dp774
g4
I9
sg5
S'Juglandaceae'
p775
sg7
I4326
sg8
S'66072'
p776
sg10
S'shape'
p777
sg12
S'Wed Jan 28 18:16:22 2015'
p778
sg14
S'5668458'
p779
sg16
g773
ssS'Pycnanthemum_montanum'
p780
(dp781
g4
I9
sg5
S'Lamiaceae'
p782
sg7
I4326
sg8
S'311'
p783
sg10
S'shape'
p784
sg12
S'Thu Jan 29 01:24:35 2015'
p785
sg14
S'5665479'
p786
sg16
g780
ssS'Juncus_brachycephalus'
p787
(dp788
g4
I9
sg5
S'Juncaceae'
p789
sg7
I4326
sg8
S'215'
p790
sg10
S'shape'
p791
sg12
S'Wed Jan 28 22:01:29 2015'
p792
sg14
S'5668461'
p793
sg16
g787
ssS'Hypericum_lobocarpum'
p794
(dp795
g4
I9
sg5
S'Hypericaceae'
p796
sg7
I4326
sg8
S'111'
p797
sg10
S'shape'
p798
sg12
S'Wed Jan 28 21:41:13 2015'
p799
sg14
S'5668605'
p800
sg16
g794
ssS'Juncus_validus'
p801
(dp802
g4
I9
sg5
S'Juncaceae'
p803
sg7
I4326
sg8
S'312'
p804
sg10
S'shape'
p805
sg12
S'Wed Jan 28 22:08:37 2015'
p806
sg14
S'5667079'
p807
sg16
g801
ssS'Hydrolea_quadrivalvis'
p808
(dp809
g4
I9
sg5
S'Hydroleaceae'
p810
sg7
I4326
sg8
S'134'
p811
sg10
S'shape'
p812
sg12
S'Wed Jan 28 21:39:14 2015'
p813
sg14
S'5668632'
p814
sg16
g808
ssS'Trichostema_setaceum'
p815
(dp816
g4
I9
sg5
S'Lamiaceae'
p817
sg7
I4326
sg8
S'205'
p818
sg10
S'shape'
p819
sg12
S'Thu Jan 29 03:22:35 2015'
p820
sg14
S'5665506'
p821
sg16
g815
ssS'Juncus_pylaei'
p822
(dp823
g4
I9
sg5
S'Juncaceae'
p824
sg7
I4326
sg8
S'28'
p825
sg10
S'shape'
p826
sg12
S'Thu Jan 29 04:24:15 2015'
p827
sg14
S'5668688'
p828
sg16
g822
ssS'Juncus_cooperi'
p829
(dp830
g4
I9
sg5
S'Juncaceae'
p831
sg7
I4326
sg8
S'44'
p832
sg10
S'shape'
p833
sg12
S'Wed Jan 28 22:04:00 2015'
p834
sg14
S'5668740'
p835
sg16
g829
ssS'Hypericum_gentianoides'
p836
(dp837
g4
I9
sg5
S'Hypericaceae'
p838
sg7
I4326
sg8
S'1240'
p839
sg10
S'shape'
p840
sg12
S'Wed Jan 28 21:40:03 2015'
p841
sg14
S'5668812'
p842
sg16
g836
ssS'Triglochin_palustris'
p843
(dp844
g4
I9
sg5
S'Juncaginaceae'
p845
sg7
I4326
sg8
S'307'
p846
sg10
S'shape'
p847
sg12
S'Thu Jan 29 03:19:23 2015'
p848
sg14
S'5668326'
p849
sg16
g843
ssS'Proserpinaca_palustris'
p850
(dp851
g4
I9
sg5
S'Haloragaceae'
p852
sg7
I4326
sg8
S'915'
p853
sg10
S'shape'
p854
sg12
S'Thu Jan 29 01:15:30 2015'
p855
sg14
S'5668826'
p856
sg16
g850
ssS'Dicerandra_linearifolia'
p857
(dp858
g4
I9
sg5
S'Lamiaceae'
p859
sg7
I4326
sg8
S'58'
p860
sg10
S'shape'
p861
sg12
S'Wed Jan 28 19:56:06 2015'
p862
sg14
S'5665229'
p863
sg16
g857
ssS'Juncus_leiospermus'
p864
(dp865
g4
I9
sg5
S'Juncaceae'
p866
sg7
I4326
sg8
S'97'
p867
sg10
S'shape'
p868
sg12
S'Wed Jan 28 22:05:18 2015'
p869
sg14
S'5668887'
p870
sg16
g864
ssS'Scutellaria_lateriflora'
p871
(dp872
g4
I9
sg5
S'Lamiaceae'
p873
sg7
I4326
sg8
S'1972'
p874
sg10
S'shape'
p875
sg12
S'Thu Jan 29 02:15:13 2015'
p876
sg14
S'5665252'
p877
sg16
g871
ssS'Mentha_pulegium'
p878
(dp879
g4
I9
sg5
S'Lamiaceae'
p880
sg7
I4326
sg8
S'138'
p881
sg10
S'shape'
p882
sg12
S'Wed Jan 28 23:08:21 2015'
p883
sg14
S'5665260'
p884
sg16
g878
ssS'Hydrangea_paniculata'
p885
(dp886
g4
I9
sg5
S'Hydrangeaceae'
p887
sg7
I4326
sg8
S'45'
p888
sg10
S'shape'
p889
sg12
S'Wed Jan 28 21:37:41 2015'
p890
sg14
S'5668931'
p891
sg16
g885
ssS'Vallisneria_americana'
p892
(dp893
g4
I9
sg5
S'Hydrocharitaceae'
p894
sg7
I4326
sg8
S'740'
p895
sg10
S'shape'
p896
sg12
S'Thu Jan 29 03:29:43 2015'
p897
sg14
S'5668996'
p898
sg16
g892
ssS'Stachys_biflora'
p899
(dp900
g4
I9
sg5
S'Lamiaceae'
p901
sg7
I4326
sg8
S'45'
p902
sg10
S'shape'
p903
sg12
S'Thu Jan 29 05:58:15 2015'
p904
sg14
S'5665287'
p905
sg16
g899
ssS'Hypericum_anagalloides'
p906
(dp907
g4
I9
sg5
S'Hypericaceae'
p908
sg7
I4326
sg8
S'420'
p909
sg10
S'shape'
p910
sg12
S'Wed Jan 28 21:44:41 2015'
p911
sg14
S'5669084'
p912
sg16
g906
ssS'Origanum_vulgare'
p913
(dp914
g4
I9
sg5
S'Lamiaceae'
p915
sg7
I4326
sg8
S'191'
p916
sg10
S'shape'
p917
sg12
S'Wed Jan 28 23:49:02 2015'
p918
sg14
S'5665331'
p919
sg16
g913
ssS'Hedeoma_nana'
p920
(dp921
g4
I9
sg5
S'Lamiaceae'
p922
sg7
I4326
sg8
S'239'
p923
sg10
S'shape'
p924
sg12
S'Wed Jan 28 21:24:23 2015'
p925
sg14
S'5665257'
p926
sg16
g920
ssS'Salvia_ballotiflora'
p927
(dp928
g4
I9
sg5
S'Lamiaceae'
p929
sg7
I4326
sg8
S'132'
p930
sg10
S'shape'
p931
sg12
S'Thu Jan 29 02:00:10 2015'
p932
sg14
S'5665351'
p933
sg16
g927
ssS'Clinopodium_acinos'
p934
(dp935
g4
I9
sg5
S'Lamiaceae'
p936
sg7
I4326
sg8
S'77'
p937
sg10
S'shape'
p938
sg12
S'Wed Jan 28 19:05:45 2015'
p939
sg14
S'5665354'
p940
sg16
g934
ssS'Lepechinia_hastata'
p941
(dp942
g4
I9
sg5
S'Lamiaceae'
p943
sg7
I4326
sg8
S'28'
p944
sg10
S'shape'
p945
sg12
S'Wed Jan 28 22:22:50 2015'
p946
sg14
S'5665415'
p947
sg16
g941
ssS'Juncus_torreyi'
p948
(dp949
g4
I9
sg5
S'Juncaceae'
p950
sg7
I4326
sg8
S'1754'
p951
sg10
S'shape'
p952
sg12
S'Wed Jan 28 22:08:21 2015'
p953
sg14
S'5669207'
p954
sg16
g948
ssS'Juncus_filipendulus'
p955
(dp956
g4
I9
sg5
S'Juncaceae'
p957
sg7
I4326
sg8
S'40'
p958
sg10
S'shape'
p959
sg12
S'Wed Jan 28 22:04:27 2015'
p960
sg14
S'5669214'
p961
sg16
g955
ssS'Pycnanthemum_tenuifolium'
p962
(dp963
g4
I9
sg5
S'Lamiaceae'
p964
sg7
I4326
sg8
S'1605'
p965
sg10
S'shape'
p966
sg12
S'Thu Jan 29 01:25:03 2015'
p967
sg14
S'5665392'
p968
sg16
g962
ssS'Hymenophyllum_wrightii'
p969
(dp970
g4
I9
sg5
S'Hymenophyllaceae'
p971
sg7
I4326
sg8
S'32'
p972
sg10
S'shape'
p973
sg12
S'Wed Jan 28 21:44:28 2015'
p974
sg14
S'5669230'
p975
sg16
g969
ssS'Salvia_arizonica'
p976
(dp977
g4
I9
sg5
S'Lamiaceae'
p978
sg7
I4326
sg8
S'83'
p979
sg10
S'shape'
p980
sg12
S'Thu Jan 29 05:52:59 2015'
p981
sg14
S'5665408'
p982
sg16
g976
ssS'Hyptis_pectinata'
p983
(dp984
g4
I9
sg5
S'Lamiaceae'
p985
sg7
I4326
sg8
S'119'
p986
sg10
S'shape'
p987
sg12
S'Thu Jan 29 04:23:38 2015'
p988
sg14
S'5665420'
p989
sg16
g983
ssS'Salvia_reflexa'
p990
(dp991
g4
I9
sg5
S'Lamiaceae'
p992
sg7
I4326
sg8
S'456'
p993
sg10
S'shape'
p994
sg12
S'Thu Jan 29 02:08:39 2015'
p995
sg14
S'5665426'
p996
sg16
g990
ssS'Scutellaria_wrightii'
p997
(dp998
g4
I9
sg5
S'Lamiaceae'
p999
sg7
I4326
sg8
S'68'
p1000
sg10
S'shape'
p1001
sg12
S'Thu Jan 29 02:18:31 2015'
p1002
sg14
S'5665427'
p1003
sg16
g997
ssS'Agastache_micrantha'
p1004
(dp1005
g4
I9
sg5
S'Lamiaceae'
p1006
sg7
I4326
sg8
S'26'
p1007
sg10
S'shape'
p1008
sg12
S'Wed Jan 28 16:46:50 2015'
p1009
sg14
S'5665441'
p1010
sg16
g1004
ssS'Myriophyllum_spicatum'
p1011
(dp1012
g4
I9
sg5
S'Haloragaceae'
p1013
sg7
I4326
sg8
S'643'
p1014
sg10
S'shape'
p1015
sg12
S'Wed Jan 28 23:32:57 2015'
p1016
sg14
S'5669399'
p1017
sg16
g1011
ssS'Blephilia_ciliata'
p1018
(dp1019
g4
I9
sg5
S'Lamiaceae'
p1020
sg7
I4326
sg8
S'759'
p1021
sg10
S'shape'
p1022
sg12
S'Wed Jan 28 17:50:47 2015'
p1023
sg14
S'5665457'
p1024
sg16
g1018
ssS'Myriophyllum_verticillatum'
p1025
(dp1026
g4
I9
sg5
S'Haloragaceae'
p1027
sg7
I4326
sg8
S'285'
p1028
sg10
S'shape'
p1029
sg12
S'Wed Jan 28 23:33:04 2015'
p1030
sg14
S'5669414'
p1031
sg16
g1025
ssS'Juncus_regelii'
p1032
(dp1033
g4
I9
sg5
S'Juncaceae'
p1034
sg7
I4326
sg8
S'96'
p1035
sg10
S'shape'
p1036
sg12
S'Thu Jan 29 05:25:32 2015'
p1037
sg14
S'5669444'
p1038
sg16
g1032
ssS'Ajuga_genevensis'
p1039
(dp1040
g4
I9
sg5
S'Lamiaceae'
p1041
sg7
I4326
sg8
S'37'
p1042
sg10
S'shape'
p1043
sg12
S'Wed Jan 28 16:49:01 2015'
p1044
sg14
S'5665311'
p1045
sg16
g1039
ssS'Conradina_canescens'
p1046
(dp1047
g4
I9
sg5
S'Lamiaceae'
p1048
sg7
I4326
sg8
S'74'
p1049
sg10
S'shape'
p1050
sg12
S'Wed Jan 28 19:08:45 2015'
p1051
sg14
S'5665489'
p1052
sg16
g1046
ssS'Sisyrinchium_halophilum'
p1053
(dp1054
g4
I9
sg5
S'Iridaceae'
p1055
sg7
I4326
sg8
S'36'
p1056
sg10
S'shape'
p1057
sg12
S'Thu Jan 29 02:29:55 2015'
p1058
sg14
S'5669502'
p1059
sg16
g1053
ssS'Juncus_elliottii'
p1060
(dp1061
g4
I9
sg5
S'Juncaceae'
p1062
sg7
I4326
sg8
S'184'
p1063
sg10
S'shape'
p1064
sg12
S'Wed Jan 28 22:05:16 2015'
p1065
sg14
S'5669541'
p1066
sg16
g1060
ssS'Stachys_floridana'
p1067
(dp1068
g4
I9
sg5
S'Lamiaceae'
p1069
sg7
I4326
sg8
S'147'
p1070
sg10
S'shape'
p1071
sg12
S'Thu Jan 29 02:50:10 2015'
p1072
sg14
S'5665514'
p1073
sg16
g1067
ssS'Hypericum_pauciflorum'
p1074
(dp1075
g4
I9
sg5
S'Hypericaceae'
p1076
sg7
I4326
sg8
S'65'
p1077
sg10
S'shape'
p1078
sg12
S'Wed Jan 28 21:42:13 2015'
p1079
sg14
S'5669589'
p1080
sg16
g1074
ssS'Agastache_wrightii'
p1081
(dp1082
g4
I9
sg5
S'Lamiaceae'
p1083
sg7
I4326
sg8
S'93'
p1084
sg10
S'shape'
p1085
sg12
S'Wed Jan 28 16:48:42 2015'
p1086
sg14
S'5665533'
p1087
sg16
g1081
ssS'Scutellaria_galericulata'
p1088
(dp1089
g4
I9
sg5
S'Lamiaceae'
p1090
sg7
I4326
sg8
S'1151'
p1091
sg10
S'shape'
p1092
sg12
S'Thu Jan 29 02:13:51 2015'
p1093
sg14
S'5665536'
p1094
sg16
g1088
ssS'Lycopus_amplectens'
p1095
(dp1096
g4
I9
sg5
S'Lamiaceae'
p1097
sg7
I4326
sg8
S'94'
p1098
sg10
S'shape'
p1099
sg12
S'Wed Jan 28 22:54:39 2015'
p1100
sg14
S'5665538'
p1101
sg16
g1095
ssS'Hyptis_capitata'
p1102
(dp1103
g4
I9
sg5
S'Lamiaceae'
p1104
sg7
I4326
sg8
S'133'
p1105
sg10
S'shape'
p1106
sg12
S'Wed Jan 28 21:37:15 2015'
p1107
sg14
S'5665558'
p1108
sg16
g1102
ssS'Iris_innominata'
p1109
(dp1110
g4
I9
sg5
S'Iridaceae'
p1111
sg7
I4326
sg8
S'89'
p1112
sg10
S'shape'
p1113
sg12
S'Wed Jan 28 21:53:33 2015'
p1114
sg14
S'5669661'
p1115
sg16
g1109
ssS'Physostegia_angustifolia'
p1116
(dp1117
g4
I9
sg5
S'Lamiaceae'
p1118
sg7
I4326
sg8
S'284'
p1119
sg10
S'shape'
p1120
sg12
S'Thu Jan 29 00:23:00 2015'
p1121
sg14
S'5665251'
p1122
sg16
g1116
ssS'Physostegia_pulchella'
p1123
(dp1124
g4
I9
sg5
S'Lamiaceae'
p1125
sg7
I4326
sg8
S'35'
p1126
sg10
S'shape'
p1127
sg12
S'Thu Jan 29 00:30:43 2015'
p1128
sg14
S'5665193'
p1129
sg16
g1123
ssS'Hypericum_graveolens'
p1130
(dp1131
g4
I9
sg5
S'Hypericaceae'
p1132
sg7
I4326
sg8
S'45'
p1133
sg10
S'shape'
p1134
sg12
S'Wed Jan 28 21:40:06 2015'
p1135
sg14
S'5680575'
p1136
sg16
g1130
ssS'Scutellaria_tuberosa'
p1137
(dp1138
g4
I9
sg5
S'Lamiaceae'
p1139
sg7
I4326
sg8
S'142'
p1140
sg10
S'shape'
p1141
sg12
S'Thu Jan 29 02:18:16 2015'
p1142
sg14
S'5665209'
p1143
sg16
g1137
ssS'Juncus_bufonius'
p1144
(dp1145
g4
I9
sg5
S'Juncaceae'
p1146
sg7
I4326
sg8
S'1980'
p1147
sg10
S'shape'
p1148
sg12
S'Wed Jan 28 22:01:37 2015'
p1149
sg14
S'5669823'
p1150
sg16
g1144
ssS'Monardella_breweri'
p1151
(dp1152
g4
I9
sg5
S'Lamiaceae'
p1153
sg7
I4326
sg8
S'130'
p1154
sg10
S'shape'
p1155
sg12
S'Wed Jan 28 23:23:25 2015'
p1156
sg14
S'5665429'
p1157
sg16
g1151
ssS'Ribes_roezlii'
p1158
(dp1159
g4
I9
sg5
S'Grossulariaceae'
p1160
sg7
I4326
sg8
S'306'
p1161
sg10
S'shape'
p1162
sg12
S'Thu Jan 29 01:48:24 2015'
p1163
sg14
S'5674240'
p1164
sg16
g1158
ssS'Monarda_media'
p1165
(dp1166
g4
I9
sg5
S'Lamiaceae'
p1167
sg7
I4326
sg8
S'93'
p1168
sg10
S'shape'
p1169
sg12
S'Thu Jan 29 05:34:54 2015'
p1170
sg14
S'5665236'
p1171
sg16
g1165
ssS'Hypericum_majus'
p1172
(dp1173
g4
I9
sg5
S'Hypericaceae'
p1174
sg7
I4326
sg8
S'465'
p1175
sg10
S'shape'
p1176
sg12
S'Wed Jan 28 21:41:22 2015'
p1177
sg14
S'5669874'
p1178
sg16
g1172
ssS'Iris_verna'
p1179
(dp1180
g4
I9
sg5
S'Iridaceae'
p1181
sg7
I4326
sg8
S'1031'
p1182
sg10
S'shape'
p1183
sg12
S'Wed Jan 28 21:53:49 2015'
p1184
sg14
S'5669943'
p1185
sg16
g1179
ssS'Vitex_agnus-castus'
p1186
(dp1187
g4
I9
sg5
S'Lamiaceae'
p1188
sg7
I4326
sg8
S'89'
p1189
sg10
S'shape'
p1190
sg12
S'Thu Jan 29 03:37:32 2015'
p1191
sg14
S'5665268'
p1192
sg16
g1186
ssS'Ribes_acerifolium'
p1193
(dp1194
g4
I9
sg5
S'Grossulariaceae'
p1195
sg7
I4326
sg8
S'27'
p1196
sg10
S'shape'
p1197
sg12
S'Thu Jan 29 01:46:51 2015'
p1198
sg14
S'5669987'
p1199
sg16
g1193
ssS'Isoetes_engelmannii'
p1200
(dp1201
g4
I9
sg5
S'Iso\xc3\xabtaceae'
p1202
sg7
I4326
sg8
S'418'
p1203
sg10
S'shape'
p1204
sg12
S'Wed Jan 28 21:55:09 2015'
p1205
sg14
S'5670009'
p1206
sg16
g1200
ssS'Teucrium_laciniatum'
p1207
(dp1208
g4
I9
sg5
S'Lamiaceae'
p1209
sg7
I4326
sg8
S'172'
p1210
sg10
S'shape'
p1211
sg12
S'Thu Jan 29 03:03:23 2015'
p1212
sg14
S'5665289'
p1213
sg16
g1207
ssS'Pycnanthemum_loomisii'
p1214
(dp1215
g4
I9
sg5
S'Lamiaceae'
p1216
sg7
I4326
sg8
S'88'
p1217
sg10
S'shape'
p1218
sg12
S'Thu Jan 29 01:24:30 2015'
p1219
sg14
S'5665313'
p1220
sg16
g1214
ssS'Hyptis_emoryi'
p1221
(dp1222
g4
I9
sg5
S'Lamiaceae'
p1223
sg7
I4326
sg8
S'507'
p1224
sg10
S'shape'
p1225
sg12
S'Wed Jan 28 21:38:50 2015'
p1226
sg14
S'5665330'
p1227
sg16
g1221
ssS'Stachys_rigida'
p1228
(dp1229
g4
I9
sg5
S'Lamiaceae'
p1230
sg7
I4326
sg8
S'238'
p1231
sg10
S'shape'
p1232
sg12
S'Thu Jan 29 02:54:04 2015'
p1233
sg14
S'5665280'
p1234
sg16
g1228
ssS'Aegiphila_elata'
p1235
(dp1236
g4
I9
sg5
S'Lamiaceae'
p1237
sg7
I4326
sg8
S'31'
p1238
sg10
S'shape'
p1239
sg12
S'Wed Jan 28 16:41:16 2015'
p1240
sg14
S'5665369'
p1241
sg16
g1235
ssS'Luzula_wahlenbergii'
p1242
(dp1243
g4
I9
sg5
S'Juncaceae'
p1244
sg7
I4326
sg8
S'119'
p1245
sg10
S'shape'
p1246
sg12
S'Wed Jan 28 22:54:06 2015'
p1247
sg14
S'5670211'
p1248
sg16
g1242
ssS'Juncus_interior'
p1249
(dp1250
g4
I9
sg5
S'Juncaceae'
p1251
sg7
I4326
sg8
S'1294'
p1252
sg10
S'shape'
p1253
sg12
S'Wed Jan 28 22:05:10 2015'
p1254
sg14
S'5670275'
p1255
sg16
g1249
ssS'Deutzia_scabra'
p1256
(dp1257
g4
I9
sg5
S'Hydrangeaceae'
p1258
sg7
I4326
sg8
S'56'
p1259
sg10
S'shape'
p1260
sg12
S'Wed Jan 28 19:50:18 2015'
p1261
sg14
S'5670343'
p1262
sg16
g1256
ssS'Agastache_pallida'
p1263
(dp1264
g4
I9
sg5
S'Lamiaceae'
p1265
sg7
I4326
sg8
S'42'
p1266
sg10
S'shape'
p1267
sg12
S'Wed Jan 28 16:47:16 2015'
p1268
sg14
S'5665212'
p1269
sg16
g1263
ssS'Ribes_mescalerium'
p1270
(dp1271
g4
I9
sg5
S'Grossulariaceae'
p1272
sg7
I4326
sg8
S'32'
p1273
sg10
S'shape'
p1274
sg12
S'Thu Jan 29 01:48:14 2015'
p1275
sg14
S'5669153'
p1276
sg16
g1270
ssS'Hypericum_ascyron'
p1277
(dp1278
g4
I9
sg5
S'Hypericaceae'
p1279
sg7
I4326
sg8
S'310'
p1280
sg10
S'shape'
p1281
sg12
S'Wed Jan 28 21:37:30 2015'
p1282
sg14
S'5670486'
p1283
sg16
g1277
ssS'Lycopus_asper'
p1284
(dp1285
g4
I9
sg5
S'Lamiaceae'
p1286
sg7
I4326
sg8
S'415'
p1287
sg10
S'shape'
p1288
sg12
S'Wed Jan 28 22:54:34 2015'
p1289
sg14
S'5665481'
p1290
sg16
g1284
ssS'Hypericum_adpressum'
p1291
(dp1292
g4
I9
sg5
S'Hypericaceae'
p1293
sg7
I4326
sg8
S'56'
p1294
sg10
S'shape'
p1295
sg12
S'Wed Jan 28 21:44:14 2015'
p1296
sg14
S'5667610'
p1297
sg16
g1291
ssS'Juncus_militaris'
p1298
(dp1299
g4
I9
sg5
S'Juncaceae'
p1300
sg7
I4326
sg8
S'236'
p1301
sg10
S'shape'
p1302
sg12
S'Thu Jan 29 04:24:10 2015'
p1303
sg14
S'5674384'
p1304
sg16
g1298
ssS'Salvia_microphylla'
p1305
(dp1306
g4
I9
sg5
S'Lamiaceae'
p1307
sg7
I4326
sg8
S'367'
p1308
sg10
S'shape'
p1309
sg12
S'Thu Jan 29 02:00:54 2015'
p1310
sg14
S'5665499'
p1311
sg16
g1305
ssS'Hedeoma_costata'
p1312
(dp1313
g4
I9
sg5
S'Lamiaceae'
p1314
sg7
I4326
sg8
S'139'
p1315
sg10
S'shape'
p1316
sg12
S'Wed Jan 28 21:20:22 2015'
p1317
sg14
S'5665500'
p1318
sg16
g1312
ssS'Hydrangea_arborescens'
p1319
(dp1320
g4
I9
sg5
S'Hydrangeaceae'
p1321
sg7
I4326
sg8
S'1700'
p1322
sg10
S'shape'
p1323
sg12
S'Wed Jan 28 21:41:12 2015'
p1324
sg14
S'5669198'
p1325
sg16
g1319
ssS'Juncus_diffusissimus'
p1326
(dp1327
g4
I9
sg5
S'Juncaceae'
p1328
sg7
I4326
sg8
S'675'
p1329
sg10
S'shape'
p1330
sg12
S'Wed Jan 28 22:03:05 2015'
p1331
sg14
S'5670639'
p1332
sg16
g1326
ssS'Sisyrinchium_arizonicum'
p1333
(dp1334
g4
I9
sg5
S'Iridaceae'
p1335
sg7
I4326
sg8
S'112'
p1336
sg10
S'shape'
p1337
sg12
S'Thu Jan 29 02:27:53 2015'
p1338
sg14
S'5670660'
p1339
sg16
g1333
ssS'Hypericum_dolabriforme'
p1340
(dp1341
g4
I9
sg5
S'Hypericaceae'
p1342
sg7
I4326
sg8
S'47'
p1343
sg10
S'shape'
p1344
sg12
S'Wed Jan 28 21:39:31 2015'
p1345
sg14
S'5670701'
p1346
sg16
g1340
ssS'Sassafras_albidum'
p1347
(dp1348
g4
I9
sg5
S'Lauraceae'
p1349
sg7
I4326
sg8
S'62634'
p1350
sg10
S'shape'
p1351
sg12
S'Thu Jan 29 02:03:37 2015'
p1352
sg14
S'5674425'
p1353
sg16
g1347
ssS'Iris_fulva'
p1354
(dp1355
g4
I9
sg5
S'Iridaceae'
p1356
sg7
I4326
sg8
S'108'
p1357
sg10
S'shape'
p1358
sg12
S'Wed Jan 28 21:52:34 2015'
p1359
sg14
S'5670743'
p1360
sg16
g1354
ssS'Philadelphus_inodorus'
p1361
(dp1362
g4
I9
sg5
S'Hydrangeaceae'
p1363
sg7
I4326
sg8
S'269'
p1364
sg10
S'shape'
p1365
sg12
S'Thu Jan 29 00:27:18 2015'
p1366
sg14
S'5670769'
p1367
sg16
g1361
ssS'Hydrolea_ovata'
p1368
(dp1369
g4
I9
sg5
S'Hydroleaceae'
p1370
sg7
I4326
sg8
S'178'
p1371
sg10
S'shape'
p1372
sg12
S'Thu Jan 29 04:23:42 2015'
p1373
sg14
S'5670804'
p1374
sg16
g1368
ssS'Sisyrinchium_montanum'
p1375
(dp1376
g4
I9
sg5
S'Iridaceae'
p1377
sg7
I4326
sg8
S'874'
p1378
sg10
S'shape'
p1379
sg12
S'Thu Jan 29 02:31:58 2015'
p1380
sg14
S'5670815'
p1381
sg16
g1375
ssS'Agastache_rupestris'
p1382
(dp1383
g4
I9
sg5
S'Lamiaceae'
p1384
sg7
I4326
sg8
S'49'
p1385
sg10
S'shape'
p1386
sg12
S'Wed Jan 28 16:48:01 2015'
p1387
sg14
S'5665211'
p1388
sg16
g1382
ssS'Scutellaria_siphocampyloides'
p1389
(dp1390
g4
I9
sg5
S'Lamiaceae'
p1391
sg7
I4326
sg8
S'103'
p1392
sg10
S'shape'
p1393
sg12
S'Thu Jan 29 02:16:10 2015'
p1394
sg14
S'5665469'
p1395
sg16
g1389
ssS'Poliomintha_glabrescens'
p1396
(dp1397
g4
I9
sg5
S'Lamiaceae'
p1398
sg7
I4326
sg8
S'26'
p1399
sg10
S'shape'
p1400
sg12
S'Thu Jan 29 00:58:08 2015'
p1401
sg14
S'5665242'
p1402
sg16
g1396
ssS'Akebia_quinata'
p1403
(dp1404
g4
I9
sg5
S'Lardizabalaceae'
p1405
sg7
I4326
sg8
S'90'
p1406
sg10
S'shape'
p1407
sg12
S'Wed Jan 28 16:49:13 2015'
p1408
sg14
S'5676055'
p1409
sg16
g1403
ssS'Trichostema_simulatum'
p1410
(dp1411
g4
I9
sg5
S'Lamiaceae'
p1412
sg7
I4326
sg8
S'32'
p1413
sg10
S'shape'
p1414
sg12
S'Thu Jan 29 03:22:50 2015'
p1415
sg14
S'5665282'
p1416
sg16
g1410
ssS'Iris_tenax'
p1417
(dp1418
g4
I9
sg5
S'Iridaceae'
p1419
sg7
I4326
sg8
S'222'
p1420
sg10
S'shape'
p1421
sg12
S'Wed Jan 28 21:53:41 2015'
p1422
sg14
S'5671072'
p1423
sg16
g1417
ssS'Hypericum_mutilum'
p1424
(dp1425
g4
I9
sg5
S'Hypericaceae'
p1426
sg7
I4326
sg8
S'2687'
p1427
sg10
S'shape'
p1428
sg12
S'Wed Jan 28 21:41:37 2015'
p1429
sg14
S'5671164'
p1430
sg16
g1424
ssS'Collinsonia_verticillata'
p1431
(dp1432
g4
I9
sg5
S'Lamiaceae'
p1433
sg7
I4326
sg8
S'96'
p1434
sg10
S'shape'
p1435
sg12
S'Wed Jan 28 19:10:30 2015'
p1436
sg14
S'5665328'
p1437
sg16
g1431
ssS'Agastache_pallidiflora'
p1438
(dp1439
g4
I9
sg5
S'Lamiaceae'
p1440
sg7
I4326
sg8
S'274'
p1441
sg10
S'shape'
p1442
sg12
S'Wed Jan 28 16:46:45 2015'
p1443
sg14
S'5665336'
p1444
sg16
g1438
ssS'Philadelphus_hirsutus'
p1445
(dp1446
g4
I9
sg5
S'Hydrangeaceae'
p1447
sg7
I4326
sg8
S'145'
p1448
sg10
S'shape'
p1449
sg12
S'Thu Jan 29 00:25:30 2015'
p1450
sg14
S'5671244'
p1451
sg16
g1445
ssS'Sisyrinchium_biforme'
p1452
(dp1453
g4
I9
sg5
S'Iridaceae'
p1454
sg7
I4326
sg8
S'41'
p1455
sg10
S'shape'
p1456
sg12
S'Thu Jan 29 02:28:18 2015'
p1457
sg14
S'5671255'
p1458
sg16
g1452
ssS'Heliconia_bihai'
p1459
(dp1460
g4
I9
sg5
S'Heliconiaceae'
p1461
sg7
I4326
sg8
S'32'
p1462
sg10
S'shape'
p1463
sg12
S'Wed Jan 28 21:28:45 2015'
p1464
sg14
S'5671266'
p1465
sg16
g1459
ssS'Salvia_leucophylla'
p1466
(dp1467
g4
I9
sg5
S'Lamiaceae'
p1468
sg7
I4326
sg8
S'51'
p1469
sg10
S'shape'
p1470
sg12
S'Thu Jan 29 02:04:28 2015'
p1471
sg14
S'5665401'
p1472
sg16
g1466
ssS'Juncus_tenuis'
p1473
(dp1474
g4
I9
sg5
S'Juncaceae'
p1475
sg7
I4326
sg8
S'2995'
p1476
sg10
S'shape'
p1477
sg12
S'Wed Jan 28 22:08:11 2015'
p1478
sg14
S'5671321'
p1479
sg16
g1473
ssS'Iris_pseudacorus'
p1480
(dp1481
g4
I9
sg5
S'Iridaceae'
p1482
sg7
I4326
sg8
S'423'
p1483
sg10
S'shape'
p1484
sg12
S'Wed Jan 28 21:53:14 2015'
p1485
sg14
S'5666971'
p1486
sg16
g1480
ssS'Luzula_subcongesta'
p1487
(dp1488
g4
I9
sg5
S'Juncaceae'
p1489
sg7
I4326
sg8
S'40'
p1490
sg10
S'shape'
p1491
sg12
S'Wed Jan 28 22:54:07 2015'
p1492
sg14
S'5666996'
p1493
sg16
g1487
ssS'Clerodendrum_chinense'
p1494
(dp1495
g4
I9
sg5
S'Lamiaceae'
p1496
sg7
I4326
sg8
S'72'
p1497
sg10
S'shape'
p1498
sg12
S'Wed Jan 28 19:03:15 2015'
p1499
sg14
S'5665284'
p1500
sg16
g1494
ssS'Stachys_palustris'
p1501
(dp1502
g4
I9
sg5
S'Lamiaceae'
p1503
sg7
I4326
sg8
S'546'
p1504
sg10
S'shape'
p1505
sg12
S'Thu Jan 29 02:53:02 2015'
p1506
sg14
S'5665438'
p1507
sg16
g1501
ssS'Clinopodium_coccineum'
p1508
(dp1509
g4
I9
sg5
S'Lamiaceae'
p1510
sg7
I4326
sg8
S'45'
p1511
sg10
S'shape'
p1512
sg12
S'Wed Jan 28 19:03:30 2015'
p1513
sg14
S'5665439'
p1514
sg16
g1508
ssS'Glechoma_hederacea'
p1515
(dp1516
g4
I9
sg5
S'Lamiaceae'
p1517
sg7
I4326
sg8
S'1841'
p1518
sg10
S'shape'
p1519
sg12
S'Thu Jan 29 03:59:52 2015'
p1520
sg14
S'5665442'
p1521
sg16
g1515
ssS'Fothergilla_major'
p1522
(dp1523
g4
I9
sg5
S'Hamamelidaceae'
p1524
sg7
I4326
sg8
S'131'
p1525
sg10
S'shape'
p1526
sg12
S'Wed Jan 28 20:55:27 2015'
p1527
sg14
S'5671488'
p1528
sg16
g1522
ssS'Juncus_balticus'
p1529
(dp1530
g4
I9
sg5
S'Juncaceae'
p1531
sg7
I4326
sg8
S'2524'
p1532
sg10
S'shape'
p1533
sg12
S'Wed Jan 28 22:01:43 2015'
p1534
sg14
S'5673054'
p1535
sg16
g1529
ssS'Isoetes_nuttallii'
p1536
(dp1537
g4
I9
sg5
S'Iso\xc3\xabtaceae'
p1538
sg7
I4326
sg8
S'153'
p1539
sg10
S'shape'
p1540
sg12
S'Wed Jan 28 21:55:17 2015'
p1541
sg14
S'5666889'
p1542
sg16
g1536
ssS'Collinsonia_canadensis'
p1543
(dp1544
g4
I9
sg5
S'Lamiaceae'
p1545
sg7
I4326
sg8
S'1584'
p1546
sg10
S'shape'
p1547
sg12
S'Wed Jan 28 19:19:39 2015'
p1548
sg14
S'5665291'
p1549
sg16
g1543
ssS'Ribes_montigenum'
p1550
(dp1551
g4
I9
sg5
S'Grossulariaceae'
p1552
sg7
I4326
sg8
S'831'
p1553
sg10
S'shape'
p1554
sg12
S'Thu Jan 29 01:48:16 2015'
p1555
sg14
S'5676119'
p1556
sg16
g1550
ssS'Philadelphus_lewisii'
p1557
(dp1558
g4
I9
sg5
S'Hydrangeaceae'
p1559
sg7
I4326
sg8
S'732'
p1560
sg10
S'shape'
p1561
sg12
S'Thu Jan 29 04:28:41 2015'
p1562
sg14
S'5671583'
p1563
sg16
g1557
ssS'Juncus_gerardii'
p1564
(dp1565
g4
I9
sg5
S'Juncaceae'
p1566
sg7
I4326
sg8
S'305'
p1567
sg10
S'shape'
p1568
sg12
S'Wed Jan 28 22:04:33 2015'
p1569
sg14
S'5668460'
p1570
sg16
g1564
ssS'Salvia_hispanica'
p1571
(dp1572
g4
I9
sg5
S'Lamiaceae'
p1573
sg7
I4326
sg8
S'69'
p1574
sg10
S'shape'
p1575
sg12
S'Thu Jan 29 02:04:26 2015'
p1576
sg14
S'5665525'
p1577
sg16
g1571
ssS'Iris_hexagona'
p1578
(dp1579
g4
I9
sg5
S'Iridaceae'
p1580
sg7
I4326
sg8
S'85'
p1581
sg10
S'shape'
p1582
sg12
S'Wed Jan 28 21:52:44 2015'
p1583
sg14
S'5671657'
p1584
sg16
g1578
ssS'Najas_gracillima'
p1585
(dp1586
g4
I9
sg5
S'Hydrocharitaceae'
p1587
sg7
I4326
sg8
S'297'
p1588
sg10
S'shape'
p1589
sg12
S'Thu Jan 29 05:35:15 2015'
p1590
sg14
S'5668717'
p1591
sg16
g1585
ssS'Iris_brevicaulis'
p1592
(dp1593
g4
I9
sg5
S'Iridaceae'
p1594
sg7
I4326
sg8
S'113'
p1595
sg10
S'shape'
p1596
sg12
S'Wed Jan 28 21:52:15 2015'
p1597
sg14
S'5671681'
p1598
sg16
g1592
ssS'Hypericum_densiflorum'
p1599
(dp1600
g4
I9
sg5
S'Hypericaceae'
p1601
sg7
I4326
sg8
S'343'
p1602
sg10
S'shape'
p1603
sg12
S'Wed Jan 28 21:39:08 2015'
p1604
sg14
S'5676151'
p1605
sg16
g1599
ssS'Carya_aquatica'
p1606
(dp1607
g4
I9
sg5
S'Juglandaceae'
p1608
sg7
I4326
sg8
S'7890'
p1609
sg10
S'shape'
p1610
sg12
S'Wed Jan 28 18:03:30 2015'
p1611
sg14
S'5671755'
p1612
sg16
g1606
ssS'Triglochin_maritima'
p1613
(dp1614
g4
I9
sg5
S'Juncaginaceae'
p1615
sg7
I4326
sg8
S'758'
p1616
sg10
S'shape'
p1617
sg12
S'Thu Jan 29 03:17:02 2015'
p1618
sg14
S'5671758'
p1619
sg16
g1613
ssS'Isoetes_flaccida'
p1620
(dp1621
g4
I9
sg5
S'Iso\xc3\xabtaceae'
p1622
sg7
I4326
sg8
S'37'
p1623
sg10
S'shape'
p1624
sg12
S'Wed Jan 28 21:54:11 2015'
p1625
sg14
S'5671834'
p1626
sg16
g1620
ssS'Myriophyllum_quitense'
p1627
(dp1628
g4
I9
sg5
S'Haloragaceae'
p1629
sg7
I4326
sg8
S'47'
p1630
sg10
S'shape'
p1631
sg12
S'Wed Jan 28 23:32:36 2015'
p1632
sg14
S'5678543'
p1633
sg16
g1627
ssS'Elodea_bifoliata'
p1634
(dp1635
g4
I9
sg5
S'Hydrocharitaceae'
p1636
sg7
I4326
sg8
S'72'
p1637
sg10
S'shape'
p1638
sg12
S'Wed Jan 28 20:14:25 2015'
p1639
sg14
S'5674969'
p1640
sg16
g1634
ssS'Stachys_albens'
p1641
(dp1642
g4
I9
sg5
S'Lamiaceae'
p1643
sg7
I4326
sg8
S'117'
p1644
sg10
S'shape'
p1645
sg12
S'Thu Jan 29 02:47:41 2015'
p1646
sg14
S'5665187'
p1647
sg16
g1641
ssS'Stachys_bullata'
p1648
(dp1649
g4
I9
sg5
S'Lamiaceae'
p1650
sg7
I4326
sg8
S'63'
p1651
sg10
S'shape'
p1652
sg12
S'Thu Jan 29 02:48:36 2015'
p1653
sg14
S'5665195'
p1654
sg16
g1648
ssS'Isoetes_orcuttii'
p1655
(dp1656
g4
I9
sg5
S'Iso\xc3\xabtaceae'
p1657
sg7
I4326
sg8
S'38'
p1658
sg10
S'shape'
p1659
sg12
S'Thu Jan 29 04:24:01 2015'
p1660
sg14
S'5671937'
p1661
sg16
g1655
ssS'Scutellaria_elliptica'
p1662
(dp1663
g4
I9
sg5
S'Lamiaceae'
p1664
sg7
I4326
sg8
S'488'
p1665
sg10
S'shape'
p1666
sg12
S'Thu Jan 29 02:13:32 2015'
p1667
sg14
S'5665203'
p1668
sg16
g1662
ssS'Juncus_stygius'
p1669
(dp1670
g4
I9
sg5
S'Juncaceae'
p1671
sg7
I4326
sg8
S'117'
p1672
sg10
S'shape'
p1673
sg12
S'Wed Jan 28 22:07:58 2015'
p1674
sg14
S'5672035'
p1675
sg16
g1669
ssS'Najas_guadalupensis'
p1676
(dp1677
g4
I9
sg5
S'Hydrocharitaceae'
p1678
sg7
I4326
sg8
S'1344'
p1679
sg10
S'shape'
p1680
sg12
S'Wed Jan 28 23:33:44 2015'
p1681
sg14
S'5672036'
p1682
sg16
g1676
ssS'Pycnanthemum_flexuosum'
p1683
(dp1684
g4
I9
sg5
S'Lamiaceae'
p1685
sg7
I4326
sg8
S'248'
p1686
sg10
S'shape'
p1687
sg12
S'Thu Jan 29 01:24:14 2015'
p1688
sg14
S'5665243'
p1689
sg16
g1683
ssS'Hypoxis_sessilis'
p1690
(dp1691
g4
I9
sg5
S'Hypoxidaceae'
p1692
sg7
I4326
sg8
S'53'
p1693
sg10
S'shape'
p1694
sg12
S'Wed Jan 28 21:43:47 2015'
p1695
sg14
S'5670857'
p1696
sg16
g1690
ssS'Juncus_canadensis'
p1697
(dp1698
g4
I9
sg5
S'Juncaceae'
p1699
sg7
I4326
sg8
S'956'
p1700
sg10
S'shape'
p1701
sg12
S'Wed Jan 28 22:01:51 2015'
p1702
sg14
S'5680579'
p1703
sg16
g1697
ssS'Ribes_hudsonianum'
p1704
(dp1705
g4
I9
sg5
S'Grossulariaceae'
p1706
sg7
I4326
sg8
S'455'
p1707
sg10
S'shape'
p1708
sg12
S'Thu Jan 29 01:47:37 2015'
p1709
sg14
S'5670953'
p1710
sg16
g1704
ssS'Nemastylis_nuttallii'
p1711
(dp1712
g4
I9
sg5
S'Iridaceae'
p1713
sg7
I4326
sg8
S'39'
p1714
sg10
S'shape'
p1715
sg12
S'Wed Jan 28 23:36:10 2015'
p1716
sg14
S'5678621'
p1717
sg16
g1711
ssS'Najas_marina'
p1718
(dp1719
g4
I9
sg5
S'Hydrocharitaceae'
p1720
sg7
I4326
sg8
S'170'
p1721
sg10
S'shape'
p1722
sg12
S'Wed Jan 28 23:33:51 2015'
p1723
sg14
S'5672111'
p1724
sg16
g1718
ssS'Ribes_binominatum'
p1725
(dp1726
g4
I9
sg5
S'Grossulariaceae'
p1727
sg7
I4326
sg8
S'88'
p1728
sg10
S'shape'
p1729
sg12
S'Thu Jan 29 01:47:03 2015'
p1730
sg14
S'5672118'
p1731
sg16
g1725
ssS'Agastache_scrophulariifolia'
p1732
(dp1733
g4
I9
sg5
S'Lamiaceae'
p1734
sg7
I4326
sg8
S'362'
p1735
sg10
S'shape'
p1736
sg12
S'Wed Jan 28 16:48:02 2015'
p1737
sg14
S'5665277'
p1738
sg16
g1732
ssS'Scutellaria_potosina'
p1739
(dp1740
g4
I9
sg5
S'Lamiaceae'
p1741
sg7
I4326
sg8
S'259'
p1742
sg10
S'shape'
p1743
sg12
S'Thu Jan 29 02:16:50 2015'
p1744
sg14
S'5665290'
p1745
sg16
g1739
ssS'Ribes_bracteosum'
p1746
(dp1747
g4
I9
sg5
S'Grossulariaceae'
p1748
sg7
I4326
sg8
S'170'
p1749
sg10
S'shape'
p1750
sg12
S'Thu Jan 29 01:47:00 2015'
p1751
sg14
S'5667779'
p1752
sg16
g1746
ssS'Hypericum_galioides'
p1753
(dp1754
g4
I9
sg5
S'Hypericaceae'
p1755
sg7
I4326
sg8
S'180'
p1756
sg10
S'shape'
p1757
sg12
S'Wed Jan 28 21:39:53 2015'
p1758
sg14
S'5671845'
p1759
sg16
g1753
ssS'Juncus_megacephalus'
p1760
(dp1761
g4
I9
sg5
S'Juncaceae'
p1762
sg7
I4326
sg8
S'144'
p1763
sg10
S'shape'
p1764
sg12
S'Wed Jan 28 22:05:53 2015'
p1765
sg14
S'5672230'
p1766
sg16
g1760
ssS'Proserpinaca_intermedia'
p1767
(dp1768
g4
I9
sg5
S'Haloragaceae'
p1769
sg7
I4326
sg8
S'25'
p1770
sg10
S'shape'
p1771
sg12
S'Thu Jan 29 01:17:44 2015'
p1772
sg14
S'5672250'
p1773
sg16
g1767
ssS'Acanthomintha_lanceolata'
p1774
(dp1775
g4
I9
sg5
S'Lamiaceae'
p1776
sg7
I4326
sg8
S'47'
p1777
sg10
S'shape'
p1778
sg12
S'Wed Jan 28 16:35:28 2015'
p1779
sg14
S'5665334'
p1780
sg16
g1774
ssS'Hedeoma_hyssopifolia'
p1781
(dp1782
g4
I9
sg5
S'Lamiaceae'
p1783
sg7
I4326
sg8
S'263'
p1784
sg10
S'shape'
p1785
sg12
S'Wed Jan 28 21:22:58 2015'
p1786
sg14
S'5665337'
p1787
sg16
g1781
ssS'Galeopsis_bifida'
p1788
(dp1789
g4
I9
sg5
S'Lamiaceae'
p1790
sg7
I4326
sg8
S'273'
p1791
sg10
S'shape'
p1792
sg12
S'Wed Jan 28 21:04:02 2015'
p1793
sg14
S'5665341'
p1794
sg16
g1788
ssS'Carya_alba'
p1795
(dp1796
g4
I9
sg5
S'Juglandaceae'
p1797
sg7
I4326
sg8
S'67069'
p1798
sg10
S'shape'
p1799
sg12
S'Wed Jan 28 18:09:07 2015'
p1800
sg14
S'5672285'
p1801
sg16
g1795
ssS'Limnobium_spongia'
p1802
(dp1803
g4
I9
sg5
S'Hydrocharitaceae'
p1804
sg7
I4326
sg8
S'206'
p1805
sg10
S'shape'
p1806
sg12
S'Wed Jan 28 22:37:08 2015'
p1807
sg14
S'5672292'
p1808
sg16
g1802
ssS'Luzula_divaricata'
p1809
(dp1810
g4
I9
sg5
S'Juncaceae'
p1811
sg7
I4326
sg8
S'68'
p1812
sg10
S'shape'
p1813
sg12
S'Wed Jan 28 22:49:36 2015'
p1814
sg14
S'5672386'
p1815
sg16
g1809
ssS'Lepechinia_calycina'
p1816
(dp1817
g4
I9
sg5
S'Lamiaceae'
p1818
sg7
I4326
sg8
S'79'
p1819
sg10
S'shape'
p1820
sg12
S'Wed Jan 28 22:24:40 2015'
p1821
sg14
S'5665405'
p1822
sg16
g1816
ssS'Lamium_maculatum'
p1823
(dp1824
g4
I9
sg5
S'Lamiaceae'
p1825
sg7
I4326
sg8
S'124'
p1826
sg10
S'shape'
p1827
sg12
S'Wed Jan 28 22:14:44 2015'
p1828
sg14
S'5665411'
p1829
sg16
g1823
ssS'Decumaria_barbara'
p1830
(dp1831
g4
I9
sg5
S'Hydrangeaceae'
p1832
sg7
I4326
sg8
S'988'
p1833
sg10
S'shape'
p1834
sg12
S'Wed Jan 28 19:53:44 2015'
p1835
sg14
S'5672536'
p1836
sg16
g1830
ssS'Sisyrinchium_rosulatum'
p1837
(dp1838
g4
I9
sg5
S'Iridaceae'
p1839
sg7
I4326
sg8
S'198'
p1840
sg10
S'shape'
p1841
sg12
S'Thu Jan 29 02:33:13 2015'
p1842
sg14
S'5672541'
p1843
sg16
g1837
ssS'Hydrolea_uniflora'
p1844
(dp1845
g4
I9
sg5
S'Hydroleaceae'
p1846
sg7
I4326
sg8
S'181'
p1847
sg10
S'shape'
p1848
sg12
S'Wed Jan 28 21:43:13 2015'
p1849
sg14
S'5672546'
p1850
sg16
g1844
ssS'Sisyrinchium_nashii'
p1851
(dp1852
g4
I9
sg5
S'Iridaceae'
p1853
sg7
I4326
sg8
S'148'
p1854
sg10
S'shape'
p1855
sg12
S'Thu Jan 29 02:28:10 2015'
p1856
sg14
S'5667223'
p1857
sg16
g1851
ssS'Hypericum_suffruticosum'
p1858
(dp1859
g4
I9
sg5
S'Hypericaceae'
p1860
sg7
I4326
sg8
S'122'
p1861
sg10
S'shape'
p1862
sg12
S'Wed Jan 28 21:44:19 2015'
p1863
sg14
S'5672622'
p1864
sg16
g1858
ssS'Iris_chrysophylla'
p1865
(dp1866
g4
I9
sg5
S'Iridaceae'
p1867
sg7
I4326
sg8
S'180'
p1868
sg10
S'shape'
p1869
sg12
S'Wed Jan 28 21:52:17 2015'
p1870
sg14
S'5672630'
p1871
sg16
g1865
ssS'Juncus_trigonocarpus'
p1872
(dp1873
g4
I9
sg5
S'Juncaceae'
p1874
sg7
I4326
sg8
S'86'
p1875
sg10
S'shape'
p1876
sg12
S'Wed Jan 28 21:59:33 2015'
p1877
sg14
S'5672670'
p1878
sg16
g1872
ssS'Alophia_drummondii'
p1879
(dp1880
g4
I9
sg5
S'Iridaceae'
p1881
sg7
I4326
sg8
S'85'
p1882
sg10
S'shape'
p1883
sg12
S'Wed Jan 28 16:51:32 2015'
p1884
sg14
S'5672703'
p1885
sg16
g1879
ssS'Elodea_canadensis'
p1886
(dp1887
g4
I9
sg5
S'Hydrocharitaceae'
p1888
sg7
I4326
sg8
S'991'
p1889
sg10
S'shape'
p1890
sg12
S'Wed Jan 28 20:14:58 2015'
p1891
sg14
S'5672733'
p1892
sg16
g1886
ssS'Ribes_triste'
p1893
(dp1894
g4
I9
sg5
S'Grossulariaceae'
p1895
sg7
I4326
sg8
S'615'
p1896
sg10
S'shape'
p1897
sg12
S'Thu Jan 29 05:47:29 2015'
p1898
sg14
S'5672778'
p1899
sg16
g1893
ssS'Juncus_conglomeratus'
p1900
(dp1901
g4
I9
sg5
S'Juncaceae'
p1902
sg7
I4326
sg8
S'95'
p1903
sg10
S'shape'
p1904
sg12
S'Wed Jan 28 22:02:31 2015'
p1905
sg14
S'5675696'
p1906
sg16
g1900
ssS'Salvia_carduacea'
p1907
(dp1908
g4
I9
sg5
S'Lamiaceae'
p1909
sg7
I4326
sg8
S'67'
p1910
sg10
S'shape'
p1911
sg12
S'Thu Jan 29 02:00:53 2015'
p1912
sg14
S'5665541'
p1913
sg16
g1907
ssS'Ribes_curvatum'
p1914
(dp1915
g4
I9
sg5
S'Grossulariaceae'
p1916
sg7
I4326
sg8
S'29'
p1917
sg10
S'shape'
p1918
sg12
S'Thu Jan 29 01:47:15 2015'
p1919
sg14
S'5672828'
p1920
sg16
g1914
ssS'Sisyrinchium_angustifolium'
p1921
(dp1922
g4
I9
sg5
S'Iridaceae'
p1923
sg7
I4326
sg8
S'1766'
p1924
sg10
S'shape'
p1925
sg12
S'Thu Jan 29 02:27:39 2015'
p1926
sg14
S'5672853'
p1927
sg16
g1921
ssS'Scutellaria_saxatilis'
p1928
(dp1929
g4
I9
sg5
S'Lamiaceae'
p1930
sg7
I4326
sg8
S'109'
p1931
sg10
S'shape'
p1932
sg12
S'Thu Jan 29 05:55:34 2015'
p1933
sg14
S'5665557'
p1934
sg16
g1928
ssS'Umbellularia_californica'
p1935
(dp1936
g4
I9
sg5
S'Lauraceae'
p1937
sg7
I4326
sg8
S'3777'
p1938
sg10
S'shape'
p1939
sg12
S'Thu Jan 29 03:27:07 2015'
p1940
sg14
S'5672897'
p1941
sg16
g1935
ssS'Chaiturus_marrubiastrum'
p1942
(dp1943
g4
I9
sg5
S'Lamiaceae'
p1944
sg7
I4326
sg8
S'91'
p1945
sg10
S'shape'
p1946
sg12
S'Wed Jan 28 18:54:59 2015'
p1947
sg14
S'5665235'
p1948
sg16
g1942
ssS'Clinopodium_vulgare'
p1949
(dp1950
g4
I9
sg5
S'Lamiaceae'
p1951
sg7
I4326
sg8
S'741'
p1952
sg10
S'shape'
p1953
sg12
S'Thu Jan 29 05:00:24 2015'
p1954
sg14
S'5665239'
p1955
sg16
g1949
ssS'Hypericum_canadense'
p1956
(dp1957
g4
I9
sg5
S'Hypericaceae'
p1958
sg7
I4326
sg8
S'620'
p1959
sg10
S'shape'
p1960
sg12
S'Wed Jan 28 21:38:30 2015'
p1961
sg14
S'5673093'
p1962
sg16
g1956
ssS'Scutellaria_racemosa'
p1963
(dp1964
g4
I9
sg5
S'Lamiaceae'
p1965
sg7
I4326
sg8
S'59'
p1966
sg10
S'shape'
p1967
sg12
S'Thu Jan 29 02:17:24 2015'
p1968
sg14
S'5665256'
p1969
sg16
g1963
ssS'Hypericum_fasciculatum'
p1970
(dp1971
g4
I9
sg5
S'Hypericaceae'
p1972
sg7
I4326
sg8
S'284'
p1973
sg10
S'shape'
p1974
sg12
S'Wed Jan 28 21:39:46 2015'
p1975
sg14
S'5673129'
p1976
sg16
g1970
ssS'Iris_missouriensis'
p1977
(dp1978
g4
I9
sg5
S'Iridaceae'
p1979
sg7
I4326
sg8
S'1073'
p1980
sg10
S'shape'
p1981
sg12
S'Wed Jan 28 21:52:58 2015'
p1982
sg14
S'5673135'
p1983
sg16
g1977
ssS'Stachys_agraria'
p1984
(dp1985
g4
I9
sg5
S'Lamiaceae'
p1986
sg7
I4326
sg8
S'176'
p1987
sg10
S'shape'
p1988
sg12
S'Thu Jan 29 05:58:08 2015'
p1989
sg14
S'5665261'
p1990
sg16
g1984
ssS'Monardella_follettii'
p1991
(dp1992
g4
I9
sg5
S'Lamiaceae'
p1993
sg7
I4326
sg8
S'43'
p1994
sg10
S'shape'
p1995
sg12
S'Wed Jan 28 23:24:47 2015'
p1996
sg14
S'5665323'
p1997
sg16
g1991
ssS'Clinopodium_nepeta'
p1998
(dp1999
g4
I9
sg5
S'Lamiaceae'
p2000
sg7
I4326
sg8
S'143'
p2001
sg10
S'shape'
p2002
sg12
S'Thu Jan 29 05:04:13 2015'
p2003
sg14
S'5665360'
p2004
sg16
g1998
ssS'Teucrium_glandulosum'
p2005
(dp2006
g4
I9
sg5
S'Lamiaceae'
p2007
sg7
I4326
sg8
S'52'
p2008
sg10
S'shape'
p2009
sg12
S'Thu Jan 29 03:03:21 2015'
p2010
sg14
S'5665361'
p2011
sg16
g2005
ssS'Stachys_stricta'
p2012
(dp2013
g4
I9
sg5
S'Lamiaceae'
p2014
sg7
I4326
sg8
S'47'
p2015
sg10
S'shape'
p2016
sg12
S'Thu Jan 29 02:54:05 2015'
p2017
sg14
S'5665380'
p2018
sg16
g2012
ssS'Ribes_malvaceum'
p2019
(dp2020
g4
I9
sg5
S'Grossulariaceae'
p2021
sg7
I4326
sg8
S'110'
p2022
sg10
S'shape'
p2023
sg12
S'Thu Jan 29 01:48:06 2015'
p2024
sg14
S'5674835'
p2025
sg16
g2019
ssS'Lycopus_europaeus'
p2026
(dp2027
g4
I9
sg5
S'Lamiaceae'
p2028
sg7
I4326
sg8
S'69'
p2029
sg10
S'shape'
p2030
sg12
S'Wed Jan 28 22:55:29 2015'
p2031
sg14
S'5665421'
p2032
sg16
g2026
ssS'Lycopus_americanus'
p2033
(dp2034
g4
I9
sg5
S'Lamiaceae'
p2035
sg7
I4326
sg8
S'2423'
p2036
sg10
S'shape'
p2037
sg12
S'Wed Jan 28 22:56:52 2015'
p2038
sg14
S'5665409'
p2039
sg16
g2033
ssS'Hypericum_perforatum'
p2040
(dp2041
g4
I9
sg5
S'Hypericaceae'
p2042
sg7
I4326
sg8
S'2224'
p2043
sg10
S'shape'
p2044
sg12
S'Wed Jan 28 21:42:49 2015'
p2045
sg14
S'5674734'
p2046
sg16
g2040
ssS'Hydrolea_spinosa'
p2047
(dp2048
g4
I9
sg5
S'Hydroleaceae'
p2049
sg7
I4326
sg8
S'271'
p2050
sg10
S'shape'
p2051
sg12
S'Wed Jan 28 21:42:35 2015'
p2052
sg14
S'5674895'
p2053
sg16
g2047
ssS'Hypericum_frondosum'
p2054
(dp2055
g4
I9
sg5
S'Hypericaceae'
p2056
sg7
I4326
sg8
S'126'
p2057
sg10
S'shape'
p2058
sg12
S'Wed Jan 28 21:39:48 2015'
p2059
sg14
S'5674904'
p2060
sg16
g2054
ssS'Trichostema_brachiatum'
p2061
(dp2062
g4
I9
sg5
S'Lamiaceae'
p2063
sg7
I4326
sg8
S'517'
p2064
sg10
S'shape'
p2065
sg12
S'Thu Jan 29 03:14:15 2015'
p2066
sg14
S'5665424'
p2067
sg16
g2061
ssS'Mentha_spicata'
p2068
(dp2069
g4
I9
sg5
S'Lamiaceae'
p2070
sg7
I4326
sg8
S'955'
p2071
sg10
S'shape'
p2072
sg12
S'Wed Jan 28 23:14:20 2015'
p2073
sg14
S'5665443'
p2074
sg16
g2068
ssS'Teucrium_cubense'
p2075
(dp2076
g4
I9
sg5
S'Lamiaceae'
p2077
sg7
I4326
sg8
S'325'
p2078
sg10
S'shape'
p2079
sg12
S'Thu Jan 29 03:02:53 2015'
p2080
sg14
S'5665467'
p2081
sg16
g2075
ssS'Juncus_biglumis'
p2082
(dp2083
g4
I9
sg5
S'Juncaceae'
p2084
sg7
I4326
sg8
S'192'
p2085
sg10
S'shape'
p2086
sg12
S'Wed Jan 28 22:00:55 2015'
p2087
sg14
S'5675024'
p2088
sg16
g2082
ssS'Myriophyllum_tenellum'
p2089
(dp2090
g4
I9
sg5
S'Haloragaceae'
p2091
sg7
I4326
sg8
S'199'
p2092
sg10
S'shape'
p2093
sg12
S'Wed Jan 28 23:33:04 2015'
p2094
sg14
S'5675025'
p2095
sg16
g2089
ssS'Sisyrinchium_bellum'
p2096
(dp2097
g4
I9
sg5
S'Iridaceae'
p2098
sg7
I4326
sg8
S'316'
p2099
sg10
S'shape'
p2100
sg12
S'Thu Jan 29 02:28:06 2015'
p2101
sg14
S'5675026'
p2102
sg16
g2096
ssS'Scutellaria_serrata'
p2103
(dp2104
g4
I9
sg5
S'Lamiaceae'
p2105
sg7
I4326
sg8
S'201'
p2106
sg10
S'shape'
p2107
sg12
S'Thu Jan 29 02:12:02 2015'
p2108
sg14
S'5665485'
p2109
sg16
g2103
ssS'Juncus_georgianus'
p2110
(dp2111
g4
I9
sg5
S'Juncaceae'
p2112
sg7
I4326
sg8
S'37'
p2113
sg10
S'shape'
p2114
sg12
S'Wed Jan 28 22:04:12 2015'
p2115
sg14
S'5675071'
p2116
sg16
g2110
ssS'Juncus_drummondii'
p2117
(dp2118
g4
I9
sg5
S'Juncaceae'
p2119
sg7
I4326
sg8
S'972'
p2120
sg10
S'shape'
p2121
sg12
S'Thu Jan 29 05:25:29 2015'
p2122
sg14
S'5675074'
p2123
sg16
g2117
ssS'Juncus_tiehmii'
p2124
(dp2125
g4
I9
sg5
S'Juncaceae'
p2126
sg7
I4326
sg8
S'43'
p2127
sg10
S'shape'
p2128
sg12
S'Wed Jan 28 22:08:18 2015'
p2129
sg14
S'5675101'
p2130
sg16
g2124
ssS'Krameria_ramosissima'
p2131
(dp2132
g4
I9
sg5
S'Krameriaceae'
p2133
sg7
I4326
sg8
S'29'
p2134
sg10
S'shape'
p2135
sg12
S'Wed Jan 28 22:11:37 2015'
p2136
sg14
S'5675134'
p2137
sg16
g2131
ssS'Fendlerella_utahensis'
p2138
(dp2139
g4
I9
sg5
S'Hydrangeaceae'
p2140
sg7
I4326
sg8
S'222'
p2141
sg10
S'shape'
p2142
sg12
S'Wed Jan 28 20:52:08 2015'
p2143
sg14
S'5675137'
p2144
sg16
g2138
ssS'Trichostema_arizonicum'
p2145
(dp2146
g4
I9
sg5
S'Lamiaceae'
p2147
sg7
I4326
sg8
S'167'
p2148
sg10
S'shape'
p2149
sg12
S'Thu Jan 29 03:17:58 2015'
p2150
sg14
S'5665552'
p2151
sg16
g2145
ssS'Thymus_praecox'
p2152
(dp2153
g4
I9
sg5
S'Lamiaceae'
p2154
sg7
I4326
sg8
S'175'
p2155
sg10
S'shape'
p2156
sg12
S'Thu Jan 29 03:09:03 2015'
p2157
sg14
S'5665554'
p2158
sg16
g2152
ssS'Monardella_sheltonii'
p2159
(dp2160
g4
I9
sg5
S'Lamiaceae'
p2161
sg7
I4326
sg8
S'187'
p2162
sg10
S'shape'
p2163
sg12
S'Wed Jan 28 23:26:57 2015'
p2164
sg14
S'5665576'
p2165
sg16
g2159
ssS'Juncus_subcaudatus'
p2166
(dp2167
g4
I9
sg5
S'Juncaceae'
p2168
sg7
I4326
sg8
S'320'
p2169
sg10
S'shape'
p2170
sg12
S'Wed Jan 28 22:08:11 2015'
p2171
sg14
S'5665604'
p2172
sg16
g2166
ssS'Blephilia_hirsuta'
p2173
(dp2174
g4
I9
sg5
S'Lamiaceae'
p2175
sg7
I4326
sg8
S'529'
p2176
sg10
S'shape'
p2177
sg12
S'Wed Jan 28 17:50:16 2015'
p2178
sg14
S'5665178'
p2179
sg16
g2173
ssS'Salvia_columbariae'
p2180
(dp2181
g4
I9
sg5
S'Lamiaceae'
p2182
sg7
I4326
sg8
S'457'
p2183
sg10
S'shape'
p2184
sg12
S'Thu Jan 29 02:02:15 2015'
p2185
sg14
S'5665204'
p2186
sg16
g2180
ssS'Cassytha_filiformis'
p2187
(dp2188
g4
I9
sg5
S'Lauraceae'
p2189
sg7
I4326
sg8
S'93'
p2190
sg10
S'shape'
p2191
sg12
S'Wed Jan 28 18:38:23 2015'
p2192
sg14
S'5675449'
p2193
sg16
g2187
ssS'Trichomanes_petersii'
p2194
(dp2195
g4
I9
sg5
S'Hymenophyllaceae'
p2196
sg7
I4326
sg8
S'53'
p2197
sg10
S'shape'
p2198
sg12
S'Thu Jan 29 03:19:31 2015'
p2199
sg14
S'5675482'
p2200
sg16
g2194
ssS'Pycnanthemum_incanum'
p2201
(dp2202
g4
I9
sg5
S'Lamiaceae'
p2203
sg7
I4326
sg8
S'558'
p2204
sg10
S'shape'
p2205
sg12
S'Thu Jan 29 01:24:19 2015'
p2206
sg14
S'5665348'
p2207
sg16
g2201
ssS'Dracocephalum_parviflorum'
p2208
(dp2209
g4
I9
sg5
S'Lamiaceae'
p2210
sg7
I4326
sg8
S'537'
p2211
sg10
S'shape'
p2212
sg12
S'Wed Jan 28 20:04:22 2015'
p2213
sg14
S'5665339'
p2214
sg16
g2208
ssS'Juncus_articulatus'
p2215
(dp2216
g4
I9
sg5
S'Juncaceae'
p2217
sg7
I4326
sg8
S'687'
p2218
sg10
S'shape'
p2219
sg12
S'Wed Jan 28 22:00:21 2015'
p2220
sg14
S'5674220'
p2221
sg16
g2215
ssS'Hedeoma_dentata'
p2222
(dp2223
g4
I9
sg5
S'Lamiaceae'
p2224
sg7
I4326
sg8
S'202'
p2225
sg10
S'shape'
p2226
sg12
S'Wed Jan 28 21:20:58 2015'
p2227
sg14
S'5665342'
p2228
sg16
g2222
ssS'Iris_macrosiphon'
p2229
(dp2230
g4
I9
sg5
S'Iridaceae'
p2231
sg7
I4326
sg8
S'112'
p2232
sg10
S'shape'
p2233
sg12
S'Wed Jan 28 21:53:00 2015'
p2234
sg14
S'5675625'
p2235
sg16
g2229
ssS'Carya_ovata'
p2236
(dp2237
g4
I9
sg5
S'Juglandaceae'
p2238
sg7
I4326
sg8
S'41013'
p2239
sg10
S'shape'
p2240
sg12
S'Wed Jan 28 18:26:30 2015'
p2241
sg14
S'5675635'
p2242
sg16
g2236
ssS'Isoetes_riparia'
p2243
(dp2244
g4
I9
sg5
S'Iso\xc3\xabtaceae'
p2245
sg7
I4326
sg8
S'204'
p2246
sg10
S'shape'
p2247
sg12
S'Wed Jan 28 21:55:25 2015'
p2248
sg14
S'5674225'
p2249
sg16
g2243
ssS'Juncus_repens'
p2250
(dp2251
g4
I9
sg5
S'Juncaceae'
p2252
sg7
I4326
sg8
S'350'
p2253
sg10
S'shape'
p2254
sg12
S'Wed Jan 28 22:07:23 2015'
p2255
sg14
S'5678959'
p2256
sg16
g2250
ssS'Hypericum_dissimulatum'
p2257
(dp2258
g4
I9
sg5
S'Hypericaceae'
p2259
sg7
I4326
sg8
S'27'
p2260
sg10
S'shape'
p2261
sg12
S'Wed Jan 28 21:39:28 2015'
p2262
sg14
S'5668966'
p2263
sg16
g2257
ssS'Monardella_undulata'
p2264
(dp2265
g4
I9
sg5
S'Lamiaceae'
p2266
sg7
I4326
sg8
S'77'
p2267
sg10
S'shape'
p2268
sg12
S'Thu Jan 29 04:02:54 2015'
p2269
sg14
S'5665466'
p2270
sg16
g2264
ssS'Salvia_urticifolia'
p2271
(dp2272
g4
I9
sg5
S'Lamiaceae'
p2273
sg7
I4326
sg8
S'178'
p2274
sg10
S'shape'
p2275
sg12
S'Thu Jan 29 02:10:39 2015'
p2276
sg14
S'5665488'
p2277
sg16
g2271
ssS'Ribes_viscosissimum'
p2278
(dp2279
g4
I9
sg5
S'Grossulariaceae'
p2280
sg7
I4326
sg8
S'497'
p2281
sg10
S'shape'
p2282
sg12
S'Thu Jan 29 01:48:49 2015'
p2283
sg14
S'5675814'
p2284
sg16
g2278
ssS'Hypericum_brachyphyllum'
p2285
(dp2286
g4
I9
sg5
S'Hypericaceae'
p2287
sg7
I4326
sg8
S'177'
p2288
sg10
S'shape'
p2289
sg12
S'Wed Jan 28 21:37:49 2015'
p2290
sg14
S'5678973'
p2291
sg16
g2285
ssS'Prunella_vulgaris'
p2292
(dp2293
g4
I9
sg5
S'Lamiaceae'
p2294
sg7
I4326
sg8
S'3943'
p2295
sg10
S'shape'
p2296
sg12
S'Thu Jan 29 01:15:50 2015'
p2297
sg14
S'5665244'
p2298
sg16
g2292
ssS'Ribes_sanguineum'
p2299
(dp2300
g4
I9
sg5
S'Grossulariaceae'
p2301
sg7
I4326
sg8
S'370'
p2302
sg10
S'shape'
p2303
sg12
S'Thu Jan 29 01:48:35 2015'
p2304
sg14
S'5669648'
p2305
sg16
g2299
ssS'Clerodendrum_indicum'
p2306
(dp2307
g4
I9
sg5
S'Lamiaceae'
p2308
sg7
I4326
sg8
S'60'
p2309
sg10
S'shape'
p2310
sg12
S'Thu Jan 29 04:47:28 2015'
p2311
sg14
S'5665218'
p2312
sg16
g2306
ssS'Brazoria_truncata'
p2313
(dp2314
g4
I9
sg5
S'Lamiaceae'
p2315
sg7
I4326
sg8
S'27'
p2316
sg10
S'shape'
p2317
sg12
S'Wed Jan 28 17:55:05 2015'
p2318
sg14
S'5665496'
p2319
sg16
g2313
ssS'Cornutia_pyramidata'
p2320
(dp2321
g4
I9
sg5
S'Lamiaceae'
p2322
sg7
I4326
sg8
S'253'
p2323
sg10
S'shape'
p2324
sg12
S'Wed Jan 28 19:19:23 2015'
p2325
sg14
S'5665477'
p2326
sg16
g2320
ssS'Luzula_acuminata'
p2327
(dp2328
g4
I9
sg5
S'Juncaceae'
p2329
sg7
I4326
sg8
S'980'
p2330
sg10
S'shape'
p2331
sg12
S'Wed Jan 28 22:54:00 2015'
p2332
sg14
S'5675949'
p2333
sg16
g2327
ssS'Mentha_aquatica'
p2334
(dp2335
g4
I9
sg5
S'Lamiaceae'
p2336
sg7
I4326
sg8
S'76'
p2337
sg10
S'shape'
p2338
sg12
S'Wed Jan 28 23:15:16 2015'
p2339
sg14
S'5665510'
p2340
sg16
g2334
ssS'Physostegia_purpurea'
p2341
(dp2342
g4
I9
sg5
S'Lamiaceae'
p2343
sg7
I4326
sg8
S'106'
p2344
sg10
S'shape'
p2345
sg12
S'Thu Jan 29 00:31:56 2015'
p2346
sg14
S'5665515'
p2347
sg16
g2341
ssS'Sisyrinchium_chilense'
p2348
(dp2349
g4
I9
sg5
S'Iridaceae'
p2350
sg7
I4326
sg8
S'63'
p2351
sg10
S'shape'
p2352
sg12
S'Thu Jan 29 02:28:42 2015'
p2353
sg14
S'5676048'
p2354
sg16
g2348
ssS'Monardella_linoides'
p2355
(dp2356
g4
I9
sg5
S'Lamiaceae'
p2357
sg7
I4326
sg8
S'25'
p2358
sg10
S'shape'
p2359
sg12
S'Wed Jan 28 23:25:20 2015'
p2360
sg14
S'5665507'
p2361
sg16
g2355
ssS'Juncus_dudleyi'
p2362
(dp2363
g4
I9
sg5
S'Juncaceae'
p2364
sg7
I4326
sg8
S'1366'
p2365
sg10
S'shape'
p2366
sg12
S'Wed Jan 28 22:03:18 2015'
p2367
sg14
S'5680807'
p2368
sg16
g2362
ssS'Juncus_coriaceus'
p2369
(dp2370
g4
I9
sg5
S'Juncaceae'
p2371
sg7
I4326
sg8
S'722'
p2372
sg10
S'shape'
p2373
sg12
S'Wed Jan 28 22:02:33 2015'
p2374
sg14
S'5676096'
p2375
sg16
g2369
ssS'Juncus_secundus'
p2376
(dp2377
g4
I9
sg5
S'Juncaceae'
p2378
sg7
I4326
sg8
S'386'
p2379
sg10
S'shape'
p2380
sg12
S'Wed Jan 28 22:07:54 2015'
p2381
sg14
S'5676113'
p2382
sg16
g2376
ssS'Hypericum_kalmianum'
p2383
(dp2384
g4
I9
sg5
S'Hypericaceae'
p2385
sg7
I4326
sg8
S'103'
p2386
sg10
S'shape'
p2387
sg12
S'Wed Jan 28 21:40:42 2015'
p2388
sg14
S'5681848'
p2389
sg16
g2383
ssS'Sisyrinchium_langloisii'
p2390
(dp2391
g4
I9
sg5
S'Iridaceae'
p2392
sg7
I4326
sg8
S'157'
p2393
sg10
S'shape'
p2394
sg12
S'Thu Jan 29 02:30:36 2015'
p2395
sg14
S'5672194'
p2396
sg16
g2390
ssS'Hyptis_suaveolens'
p2397
(dp2398
g4
I9
sg5
S'Lamiaceae'
p2399
sg7
I4326
sg8
S'270'
p2400
sg10
S'shape'
p2401
sg12
S'Thu Jan 29 04:23:40 2015'
p2402
sg14
S'5665189'
p2403
sg16
g2397
ssS'Herbertia_lahue'
p2404
(dp2405
g4
I9
sg5
S'Iridaceae'
p2406
sg7
I4326
sg8
S'36'
p2407
sg10
S'shape'
p2408
sg12
S'Wed Jan 28 21:25:10 2015'
p2409
sg14
S'5676219'
p2410
sg16
g2404
ssS'Isoetes_tuckermanii'
p2411
(dp2412
g4
I9
sg5
S'Iso\xc3\xabtaceae'
p2413
sg7
I4326
sg8
S'202'
p2414
sg10
S'shape'
p2415
sg12
S'Wed Jan 28 21:55:46 2015'
p2416
sg14
S'5676260'
p2417
sg16
g2411
ssS'Juncus_gymnocarpus'
p2418
(dp2419
g4
I9
sg5
S'Juncaceae'
p2420
sg7
I4326
sg8
S'86'
p2421
sg10
S'shape'
p2422
sg12
S'Wed Jan 28 22:04:36 2015'
p2423
sg14
S'5676350'
p2424
sg16
g2418
ssS'Juncus_dichotomus'
p2425
(dp2426
g4
I9
sg5
S'Juncaceae'
p2427
sg7
I4326
sg8
S'667'
p2428
sg10
S'shape'
p2429
sg12
S'Wed Jan 28 22:02:56 2015'
p2430
sg14
S'5679080'
p2431
sg16
g2425
ssS'Ribes_laxiflorum'
p2432
(dp2433
g4
I9
sg5
S'Grossulariaceae'
p2434
sg7
I4326
sg8
S'205'
p2435
sg10
S'shape'
p2436
sg12
S'Thu Jan 29 01:47:58 2015'
p2437
sg14
S'5676396'
p2438
sg16
g2432
ssS'Hypericum_lloydii'
p2439
(dp2440
g4
I9
sg5
S'Hypericaceae'
p2441
sg7
I4326
sg8
S'53'
p2442
sg10
S'shape'
p2443
sg12
S'Wed Jan 28 21:40:58 2015'
p2444
sg14
S'5673723'
p2445
sg16
g2439
ssS'Juncus_hemiendytus'
p2446
(dp2447
g4
I9
sg5
S'Juncaceae'
p2448
sg7
I4326
sg8
S'141'
p2449
sg10
S'shape'
p2450
sg12
S'Wed Jan 28 22:04:40 2015'
p2451
sg14
S'5675254'
p2452
sg16
g2446
ssS'Juncus_polycephalus'
p2453
(dp2454
g4
I9
sg5
S'Juncaceae'
p2455
sg7
I4326
sg8
S'179'
p2456
sg10
S'shape'
p2457
sg12
S'Wed Jan 28 22:07:22 2015'
p2458
sg14
S'5675304'
p2459
sg16
g2453
ssS'Ribes_divaricatum'
p2460
(dp2461
g4
I9
sg5
S'Grossulariaceae'
p2462
sg7
I4326
sg8
S'216'
p2463
sg10
S'shape'
p2464
sg12
S'Thu Jan 29 01:47:24 2015'
p2465
sg14
S'5675395'
p2466
sg16
g2460
ssS'Salvia_henryi'
p2467
(dp2468
g4
I9
sg5
S'Lamiaceae'
p2469
sg7
I4326
sg8
S'131'
p2470
sg10
S'shape'
p2471
sg12
S'Thu Jan 29 02:04:11 2015'
p2472
sg14
S'5665338'
p2473
sg16
g2467
ssS'Trichostema_lanceolatum'
p2474
(dp2475
g4
I9
sg5
S'Lamiaceae'
p2476
sg7
I4326
sg8
S'217'
p2477
sg10
S'shape'
p2478
sg12
S'Thu Jan 29 03:18:37 2015'
p2479
sg14
S'5665343'
p2480
sg16
g2474
ssS'Hamamelis_virginiana'
p2481
(dp2482
g4
I9
sg5
S'Hamamelidaceae'
p2483
sg7
I4326
sg8
S'5119'
p2484
sg10
S'shape'
p2485
sg12
S'Wed Jan 28 21:18:28 2015'
p2486
sg14
S'5676566'
p2487
sg16
g2481
ssS'Juncus_nevadensis'
p2488
(dp2489
g4
I9
sg5
S'Juncaceae'
p2490
sg7
I4326
sg8
S'503'
p2491
sg10
S'shape'
p2492
sg12
S'Wed Jan 28 22:05:58 2015'
p2493
sg14
S'5676586'
p2494
sg16
g2488
ssS'Isoetes_occidentalis'
p2495
(dp2496
g4
I9
sg5
S'Iso\xc3\xabtaceae'
p2497
sg7
I4326
sg8
S'65'
p2498
sg10
S'shape'
p2499
sg12
S'Wed Jan 28 21:55:21 2015'
p2500
sg14
S'5673385'
p2501
sg16
g2495
ssS'Sisyrinchium_minus'
p2502
(dp2503
g4
I9
sg5
S'Iridaceae'
p2504
sg7
I4326
sg8
S'44'
p2505
sg10
S'shape'
p2506
sg12
S'Thu Jan 29 02:31:58 2015'
p2507
sg14
S'5676655'
p2508
sg16
g2502
ssS'Juncus_breweri'
p2509
(dp2510
g4
I9
sg5
S'Juncaceae'
p2511
sg7
I4326
sg8
S'62'
p2512
sg10
S'shape'
p2513
sg12
S'Wed Jan 28 22:01:41 2015'
p2514
sg14
S'5676762'
p2515
sg16
g2509
ssS'Isoetes_lacustris'
p2516
(dp2517
g4
I9
sg5
S'Iso\xc3\xabtaceae'
p2518
sg7
I4326
sg8
S'160'
p2519
sg10
S'shape'
p2520
sg12
S'Wed Jan 28 21:54:46 2015'
p2521
sg14
S'5676763'
p2522
sg16
g2516
ssS'Agastache_mearnsii'
p2523
(dp2524
g4
I9
sg5
S'Lamiaceae'
p2525
sg7
I4326
sg8
S'25'
p2526
sg10
S'shape'
p2527
sg12
S'Wed Jan 28 16:46:43 2015'
p2528
sg14
S'5665561'
p2529
sg16
g2523
ssS'Ribes_pinetorum'
p2530
(dp2531
g4
I9
sg5
S'Grossulariaceae'
p2532
sg7
I4326
sg8
S'298'
p2533
sg10
S'shape'
p2534
sg12
S'Thu Jan 29 01:47:40 2015'
p2535
sg14
S'5676821'
p2536
sg16
g2530
ssS'Luzula_arcuata'
p2537
(dp2538
g4
I9
sg5
S'Juncaceae'
p2539
sg7
I4326
sg8
S'279'
p2540
sg10
S'shape'
p2541
sg12
S'Wed Jan 28 22:47:17 2015'
p2542
sg14
S'5673765'
p2543
sg16
g2537
ssS'Teucrium_canadense'
p2544
(dp2545
g4
I9
sg5
S'Lamiaceae'
p2546
sg7
I4326
sg8
S'2416'
p2547
sg10
S'shape'
p2548
sg12
S'Thu Jan 29 03:02:34 2015'
p2549
sg14
S'5665480'
p2550
sg16
g2544
ssS'Ribes_menziesii'
p2551
(dp2552
g4
I9
sg5
S'Grossulariaceae'
p2553
sg7
I4326
sg8
S'88'
p2554
sg10
S'shape'
p2555
sg12
S'Thu Jan 29 01:48:07 2015'
p2556
sg14
S'5676879'
p2557
sg16
g2551
ssS'Juncus_supiniformis'
p2558
(dp2559
g4
I9
sg5
S'Juncaceae'
p2560
sg7
I4326
sg8
S'98'
p2561
sg10
S'shape'
p2562
sg12
S'Wed Jan 28 22:08:07 2015'
p2563
sg14
S'5676920'
p2564
sg16
g2558
ssS'Iris_hartwegii'
p2565
(dp2566
g4
I9
sg5
S'Iridaceae'
p2567
sg7
I4326
sg8
S'86'
p2568
sg10
S'shape'
p2569
sg12
S'Wed Jan 28 21:52:42 2015'
p2570
sg14
S'5681574'
p2571
sg16
g2565
ssS'Proserpinaca_pectinata'
p2572
(dp2573
g4
I9
sg5
S'Haloragaceae'
p2574
sg7
I4326
sg8
S'437'
p2575
sg10
S'shape'
p2576
sg12
S'Thu Jan 29 01:16:46 2015'
p2577
sg14
S'5668378'
p2578
sg16
g2572
ssS'Juncus_mertensianus'
p2579
(dp2580
g4
I9
sg5
S'Juncaceae'
p2581
sg7
I4326
sg8
S'697'
p2582
sg10
S'shape'
p2583
sg12
S'Wed Jan 28 22:05:54 2015'
p2584
sg14
S'5671503'
p2585
sg16
g2579
ssS'Stachys_latidens'
p2586
(dp2587
g4
I9
sg5
S'Lamiaceae'
p2588
sg7
I4326
sg8
S'331'
p2589
sg10
S'shape'
p2590
sg12
S'Thu Jan 29 02:48:15 2015'
p2591
sg14
S'5665381'
p2592
sg16
g2586
ssS'Sisyrinchium_fuscatum'
p2593
(dp2594
g4
I9
sg5
S'Iridaceae'
p2595
sg7
I4326
sg8
S'140'
p2596
sg10
S'shape'
p2597
sg12
S'Thu Jan 29 02:29:53 2015'
p2598
sg14
S'5677035'
p2599
sg16
g2593
ssS'Pycnanthemum_virginianum'
p2600
(dp2601
g4
I9
sg5
S'Lamiaceae'
p2602
sg7
I4326
sg8
S'695'
p2603
sg10
S'shape'
p2604
sg12
S'Thu Jan 29 01:25:12 2015'
p2605
sg14
S'5665575'
p2606
sg16
g2600
ssS'Juncus_lesueurii'
p2607
(dp2608
g4
I9
sg5
S'Juncaceae'
p2609
sg7
I4326
sg8
S'39'
p2610
sg10
S'shape'
p2611
sg12
S'Wed Jan 28 22:05:24 2015'
p2612
sg14
S'5677137'
p2613
sg16
g2607
ssS'Salvia_azurea'
p2614
(dp2615
g4
I9
sg5
S'Lamiaceae'
p2616
sg7
I4326
sg8
S'1001'
p2617
sg10
S'shape'
p2618
sg12
S'Thu Jan 29 01:59:45 2015'
p2619
sg14
S'5665383'
p2620
sg16
g2614
ssS'Salvia_mohavensis'
p2621
(dp2622
g4
I9
sg5
S'Lamiaceae'
p2623
sg7
I4326
sg8
S'61'
p2624
sg10
S'shape'
p2625
sg12
S'Thu Jan 29 02:06:19 2015'
p2626
sg14
S'5665437'
p2627
sg16
g2621
ssS'Salvia_roemeriana'
p2628
(dp2629
g4
I9
sg5
S'Lamiaceae'
p2630
sg7
I4326
sg8
S'76'
p2631
sg10
S'shape'
p2632
sg12
S'Thu Jan 29 04:36:37 2015'
p2633
sg14
S'5665458'
p2634
sg16
g2628
ssS'Luzula_bulbosa'
p2635
(dp2636
g4
I9
sg5
S'Juncaceae'
p2637
sg7
I4326
sg8
S'543'
p2638
sg10
S'shape'
p2639
sg12
S'Wed Jan 28 22:48:16 2015'
p2640
sg14
S'5679212'
p2641
sg16
g2635
ssS'Scutellaria_nervosa'
p2642
(dp2643
g4
I9
sg5
S'Lamiaceae'
p2644
sg7
I4326
sg8
S'308'
p2645
sg10
S'shape'
p2646
sg12
S'Thu Jan 29 02:16:21 2015'
p2647
sg14
S'5665279'
p2648
sg16
g2642
ssS'Sisyrinchium_idahoense'
p2649
(dp2650
g4
I9
sg5
S'Iridaceae'
p2651
sg7
I4326
sg8
S'348'
p2652
sg10
S'shape'
p2653
sg12
S'Thu Jan 29 02:30:28 2015'
p2654
sg14
S'5677319'
p2655
sg16
g2649
ssS'Pogogyne_nudiuscula'
p2656
(dp2657
g4
I9
sg5
S'Lamiaceae'
p2658
sg7
I4326
sg8
S'24'
p2659
sg10
S'shape'
p2660
sg12
S'Thu Jan 29 01:01:51 2015'
p2661
sg14
S'5665285'
p2662
sg16
g2656
ssS'Hypericum_nudiflorum'
p2663
(dp2664
g4
I9
sg5
S'Hypericaceae'
p2665
sg7
I4326
sg8
S'167'
p2666
sg10
S'shape'
p2667
sg12
S'Wed Jan 28 21:41:49 2015'
p2668
sg14
S'5670128'
p2669
sg16
g2663
ssS'Agastache_parvifolia'
p2670
(dp2671
g4
I9
sg5
S'Lamiaceae'
p2672
sg7
I4326
sg8
S'35'
p2673
sg10
S'shape'
p2674
sg12
S'Wed Jan 28 16:47:21 2015'
p2675
sg14
S'5665345'
p2676
sg16
g2670
ssS'Hydrangea_quercifolia'
p2677
(dp2678
g4
I9
sg5
S'Hydrangeaceae'
p2679
sg7
I4326
sg8
S'367'
p2680
sg10
S'shape'
p2681
sg12
S'Wed Jan 28 21:39:06 2015'
p2682
sg14
S'5665760'
p2683
sg16
g2677
ssS'Elodea_nuttallii'
p2684
(dp2685
g4
I9
sg5
S'Hydrocharitaceae'
p2686
sg7
I4326
sg8
S'756'
p2687
sg10
S'shape'
p2688
sg12
S'Wed Jan 28 20:11:50 2015'
p2689
sg14
S'5682111'
p2690
sg16
g2684
ssS'Scutellaria_multiglandulosa'
p2691
(dp2692
g4
I9
sg5
S'Lamiaceae'
p2693
sg7
I4326
sg8
S'57'
p2694
sg10
S'shape'
p2695
sg12
S'Thu Jan 29 02:16:07 2015'
p2696
sg14
S'5665197'
p2697
sg16
g2691
ssS'Ribes_rotundifolium'
p2698
(dp2699
g4
I9
sg5
S'Grossulariaceae'
p2700
sg7
I4326
sg8
S'389'
p2701
sg10
S'shape'
p2702
sg12
S'Thu Jan 29 01:47:18 2015'
p2703
sg14
S'5674707'
p2704
sg16
g2698
ssS'Ribes_niveum'
p2705
(dp2706
g4
I9
sg5
S'Grossulariaceae'
p2707
sg7
I4326
sg8
S'96'
p2708
sg10
S'shape'
p2709
sg12
S'Thu Jan 29 01:48:23 2015'
p2710
sg14
S'5674304'
p2711
sg16
g2705
ssS'Iris_lacustris'
p2712
(dp2713
g4
I9
sg5
S'Iridaceae'
p2714
sg7
I4326
sg8
S'35'
p2715
sg10
S'shape'
p2716
sg12
S'Wed Jan 28 21:52:52 2015'
p2717
sg14
S'5672023'
p2718
sg16
g2712
ssS'Juncus_triglumis'
p2719
(dp2720
g4
I9
sg5
S'Juncaceae'
p2721
sg7
I4326
sg8
S'195'
p2722
sg10
S'shape'
p2723
sg12
S'Wed Jan 28 22:08:27 2015'
p2724
sg14
S'5677540'
p2725
sg16
g2719
ssS'Juncus_hallii'
p2726
(dp2727
g4
I9
sg5
S'Juncaceae'
p2728
sg7
I4326
sg8
S'41'
p2729
sg10
S'shape'
p2730
sg12
S'Wed Jan 28 22:04:41 2015'
p2731
sg14
S'5676858'
p2732
sg16
g2726
ssS'Sisyrinchium_littorale'
p2733
(dp2734
g4
I9
sg5
S'Iridaceae'
p2735
sg7
I4326
sg8
S'28'
p2736
sg10
S'shape'
p2737
sg12
S'Thu Jan 29 02:31:04 2015'
p2738
sg14
S'5677558'
p2739
sg16
g2733
ssS'Sisyrinchium_xerophyllum'
p2740
(dp2741
g4
I9
sg5
S'Iridaceae'
p2742
sg7
I4326
sg8
S'55'
p2743
sg10
S'shape'
p2744
sg12
S'Thu Jan 29 02:33:46 2015'
p2745
sg14
S'5670158'
p2746
sg16
g2740
ssS'Ribes_marshallii'
p2747
(dp2748
g4
I9
sg5
S'Grossulariaceae'
p2749
sg7
I4326
sg8
S'28'
p2750
sg10
S'shape'
p2751
sg12
S'Thu Jan 29 01:47:52 2015'
p2752
sg14
S'5676866'
p2753
sg16
g2747
ssS'Juncus_greenei'
p2754
(dp2755
g4
I9
sg5
S'Juncaceae'
p2756
sg7
I4326
sg8
S'249'
p2757
sg10
S'shape'
p2758
sg12
S'Thu Jan 29 04:24:13 2015'
p2759
sg14
S'5673025'
p2760
sg16
g2754
ssS'Juncus_chlorocephalus'
p2761
(dp2762
g4
I9
sg5
S'Juncaceae'
p2763
sg7
I4326
sg8
S'49'
p2764
sg10
S'shape'
p2765
sg12
S'Wed Jan 28 22:02:22 2015'
p2766
sg14
S'5677733'
p2767
sg16
g2761
ssS'Juncus_covillei'
p2768
(dp2769
g4
I9
sg5
S'Juncaceae'
p2770
sg7
I4326
sg8
S'157'
p2771
sg10
S'shape'
p2772
sg12
S'Wed Jan 28 22:02:42 2015'
p2773
sg14
S'5677737'
p2774
sg16
g2768
ssS'Hypericum_nitidum'
p2775
(dp2776
g4
I9
sg5
S'Hypericaceae'
p2777
sg7
I4326
sg8
S'46'
p2778
sg10
S'shape'
p2779
sg12
S'Wed Jan 28 21:38:33 2015'
p2780
sg14
S'5677751'
p2781
sg16
g2775
ssS'Hypericum_pseudomaculatum'
p2782
(dp2783
g4
I9
sg5
S'Hypericaceae'
p2784
sg7
I4326
sg8
S'178'
p2785
sg10
S'shape'
p2786
sg12
S'Wed Jan 28 21:43:42 2015'
p2787
sg14
S'5677788'
p2788
sg16
g2782
ssS'Najas_flexilis'
p2789
(dp2790
g4
I9
sg5
S'Hydrocharitaceae'
p2791
sg7
I4326
sg8
S'1024'
p2792
sg10
S'shape'
p2793
sg12
S'Wed Jan 28 23:33:36 2015'
p2794
sg14
S'5666324'
p2795
sg16
g2789
ssS'Luzula_kjellmaniana'
p2796
(dp2797
g4
I9
sg5
S'Juncaceae'
p2798
sg7
I4326
sg8
S'184'
p2799
sg10
S'shape'
p2800
sg12
S'Wed Jan 28 22:50:40 2015'
p2801
sg14
S'5679962'
p2802
sg16
g2796
ssS'Philadelphus_maculatus'
p2803
(dp2804
g4
I9
sg5
S'Hydrangeaceae'
p2805
sg7
I4326
sg8
S'25'
p2806
sg10
S'shape'
p2807
sg12
S'Thu Jan 29 00:23:13 2015'
p2808
sg14
S'5677879'
p2809
sg16
g2803
ssS'Monardella_nana'
p2810
(dp2811
g4
I9
sg5
S'Lamiaceae'
p2812
sg7
I4326
sg8
S'41'
p2813
sg10
S'shape'
p2814
sg12
S'Wed Jan 28 23:25:34 2015'
p2815
sg14
S'5665524'
p2816
sg16
g2810
ssS'Stachys_clingmanii'
p2817
(dp2818
g4
I9
sg5
S'Lamiaceae'
p2819
sg7
I4326
sg8
S'98'
p2820
sg10
S'shape'
p2821
sg12
S'Thu Jan 29 02:49:18 2015'
p2822
sg14
S'5665548'
p2823
sg16
g2817
ssS'Egeria_densa'
p2824
(dp2825
g4
I9
sg5
S'Hydrocharitaceae'
p2826
sg7
I4326
sg8
S'287'
p2827
sg10
S'shape'
p2828
sg12
S'Thu Jan 29 04:41:51 2015'
p2829
sg14
S'5677940'
p2830
sg16
g2824
ssS'Lycopus_rubellus'
p2831
(dp2832
g4
I9
sg5
S'Lamiaceae'
p2833
sg7
I4326
sg8
S'744'
p2834
sg10
S'shape'
p2835
sg12
S'Wed Jan 28 22:56:48 2015'
p2836
sg14
S'5665556'
p2837
sg16
g2831
ssS'Ribes_oxyacanthoides'
p2838
(dp2839
g4
I9
sg5
S'Grossulariaceae'
p2840
sg7
I4326
sg8
S'442'
p2841
sg10
S'shape'
p2842
sg12
S'Thu Jan 29 01:48:22 2015'
p2843
sg14
S'5667367'
p2844
sg16
g2838
ssS'Iris_germanica'
p2845
(dp2846
g4
I9
sg5
S'Iridaceae'
p2847
sg7
I4326
sg8
S'135'
p2848
sg10
S'shape'
p2849
sg12
S'Wed Jan 28 21:52:36 2015'
p2850
sg14
S'5677988'
p2851
sg16
g2845
ssS'Salvia_farinacea'
p2852
(dp2853
g4
I9
sg5
S'Lamiaceae'
p2854
sg7
I4326
sg8
S'90'
p2855
sg10
S'shape'
p2856
sg12
S'Thu Jan 29 02:03:07 2015'
p2857
sg14
S'5665175'
p2858
sg16
g2852
ssS'Clinopodium_glabrum'
p2859
(dp2860
g4
I9
sg5
S'Lamiaceae'
p2861
sg7
I4326
sg8
S'250'
p2862
sg10
S'shape'
p2863
sg12
S'Wed Jan 28 19:04:27 2015'
p2864
sg14
S'5665264'
p2865
sg16
g2859
ssS'Luzula_comosa'
p2866
(dp2867
g4
I9
sg5
S'Juncaceae'
p2868
sg7
I4326
sg8
S'385'
p2869
sg10
S'shape'
p2870
sg12
S'Wed Jan 28 22:49:19 2015'
p2871
sg14
S'5678035'
p2872
sg16
g2866
ssS'Hypoxis_mexicana'
p2873
(dp2874
g4
I9
sg5
S'Hypoxidaceae'
p2875
sg7
I4326
sg8
S'103'
p2876
sg10
S'shape'
p2877
sg12
S'Wed Jan 28 21:40:53 2015'
p2878
sg14
S'5678070'
p2879
sg16
g2873
ssS'Salvia_spathacea'
p2880
(dp2881
g4
I9
sg5
S'Lamiaceae'
p2882
sg7
I4326
sg8
S'31'
p2883
sg10
S'shape'
p2884
sg12
S'Thu Jan 29 02:10:00 2015'
p2885
sg14
S'5665207'
p2886
sg16
g2880
ssS'Juncus_uncialis'
p2887
(dp2888
g4
I9
sg5
S'Juncaceae'
p2889
sg7
I4326
sg8
S'68'
p2890
sg10
S'shape'
p2891
sg12
S'Wed Jan 28 22:08:29 2015'
p2892
sg14
S'5671773'
p2893
sg16
g2887
ssS'Monarda_punctata'
p2894
(dp2895
g4
I9
sg5
S'Lamiaceae'
p2896
sg7
I4326
sg8
S'875'
p2897
sg10
S'shape'
p2898
sg12
S'Wed Jan 28 23:25:55 2015'
p2899
sg14
S'5665215'
p2900
sg16
g2894
ssS'Myriophyllum_laxum'
p2901
(dp2902
g4
I9
sg5
S'Haloragaceae'
p2903
sg7
I4326
sg8
S'56'
p2904
sg10
S'shape'
p2905
sg12
S'Wed Jan 28 23:31:50 2015'
p2906
sg14
S'5678112'
p2907
sg16
g2901
ssS'Monardella_arizonica'
p2908
(dp2909
g4
I9
sg5
S'Lamiaceae'
p2910
sg7
I4326
sg8
S'48'
p2911
sg10
S'shape'
p2912
sg12
S'Wed Jan 28 23:26:56 2015'
p2913
sg14
S'5665519'
p2914
sg16
g2908
ssS'Cinnamomum_camphora'
p2915
(dp2916
g4
I9
sg5
S'Lauraceae'
p2917
sg7
I4326
sg8
S'141'
p2918
sg10
S'shape'
p2919
sg12
S'Wed Jan 28 19:00:17 2015'
p2920
sg14
S'5668571'
p2921
sg16
g2915
ssS'Luzula_hitchcockii'
p2922
(dp2923
g4
I9
sg5
S'Juncaceae'
p2924
sg7
I4326
sg8
S'1067'
p2925
sg10
S'shape'
p2926
sg12
S'Wed Jan 28 22:50:46 2015'
p2927
sg14
S'5678143'
p2928
sg16
g2922
ssS'Juglans_microcarpa'
p2929
(dp2930
g4
I9
sg5
S'Juglandaceae'
p2931
sg7
I4326
sg8
S'189'
p2932
sg10
S'shape'
p2933
sg12
S'Wed Jan 28 22:05:37 2015'
p2934
sg14
S'5678158'
p2935
sg16
g2929
ssS'Hypericum_chapmanii'
p2936
(dp2937
g4
I9
sg5
S'Hypericaceae'
p2938
sg7
I4326
sg8
S'34'
p2939
sg10
S'shape'
p2940
sg12
S'Wed Jan 28 21:38:50 2015'
p2941
sg14
S'5678165'
p2942
sg16
g2936
ssS'Isoetes_maritima'
p2943
(dp2944
g4
I9
sg5
S'Iso\xc3\xabtaceae'
p2945
sg7
I4326
sg8
S'30'
p2946
sg10
S'shape'
p2947
sg12
S'Wed Jan 28 21:55:00 2015'
p2948
sg14
S'5666830'
p2949
sg16
g2943
ssS'Stachys_eplingii'
p2950
(dp2951
g4
I9
sg5
S'Lamiaceae'
p2952
sg7
I4326
sg8
S'29'
p2953
sg10
S'shape'
p2954
sg12
S'Thu Jan 29 02:49:56 2015'
p2955
sg14
S'5665321'
p2956
sg16
g2950
ssS'Ribes_speciosum'
p2957
(dp2958
g4
I9
sg5
S'Grossulariaceae'
p2959
sg7
I4326
sg8
S'62'
p2960
sg10
S'shape'
p2961
sg12
S'Thu Jan 29 05:47:29 2015'
p2962
sg14
S'5673128'
p2963
sg16
g2957
ssS'Juncus_castaneus'
p2964
(dp2965
g4
I9
sg5
S'Juncaceae'
p2966
sg7
I4326
sg8
S'367'
p2967
sg10
S'shape'
p2968
sg12
S'Wed Jan 28 22:02:07 2015'
p2969
sg14
S'5678235'
p2970
sg16
g2964
ssS'Iris_longipetala'
p2971
(dp2972
g4
I9
sg5
S'Iridaceae'
p2973
sg7
I4326
sg8
S'31'
p2974
sg10
S'shape'
p2975
sg12
S'Wed Jan 28 21:52:56 2015'
p2976
sg14
S'5679372'
p2977
sg16
g2971
ssS'Macbridea_caroliniana'
p2978
(dp2979
g4
I9
sg5
S'Lamiaceae'
p2980
sg7
I4326
sg8
S'28'
p2981
sg10
S'shape'
p2982
sg12
S'Wed Jan 28 22:59:30 2015'
p2983
sg14
S'5665304'
p2984
sg16
g2978
ssS'Sisyrinchium_mucronatum'
p2985
(dp2986
g4
I9
sg5
S'Iridaceae'
p2987
sg7
I4326
sg8
S'491'
p2988
sg10
S'shape'
p2989
sg12
S'Thu Jan 29 02:32:07 2015'
p2990
sg14
S'5669724'
p2991
sg16
g2985
ssS'Juncus_saximontanus'
p2992
(dp2993
g4
I9
sg5
S'Juncaceae'
p2994
sg7
I4326
sg8
S'790'
p2995
sg10
S'shape'
p2996
sg12
S'Wed Jan 28 22:07:42 2015'
p2997
sg14
S'5674435'
p2998
sg16
g2992
ssS'Ginkgo_biloba'
p2999
(dp3000
g4
I9
sg5
S'Ginkgoaceae'
p3001
sg7
I4326
sg8
S'46'
p3002
sg10
S'shape'
p3003
sg12
S'Wed Jan 28 21:09:19 2015'
p3004
sg14
S'5678405'
p3005
sg16
g2999
ssS'Hedeoma_oblongifolia'
p3006
(dp3007
g4
I9
sg5
S'Lamiaceae'
p3008
sg7
I4326
sg8
S'230'
p3009
sg10
S'shape'
p3010
sg12
S'Thu Jan 29 05:21:10 2015'
p3011
sg14
S'5665547'
p3012
sg16
g3006
ssS'Hedeoma_drummondii'
p3013
(dp3014
g4
I9
sg5
S'Lamiaceae'
p3015
sg7
I4326
sg8
S'563'
p3016
sg10
S'shape'
p3017
sg12
S'Wed Jan 28 21:22:43 2015'
p3018
sg14
S'5665397'
p3019
sg16
g3013
ssS'Myriophyllum_pinnatum'
p3020
(dp3021
g4
I9
sg5
S'Haloragaceae'
p3022
sg7
I4326
sg8
S'318'
p3023
sg10
S'shape'
p3024
sg12
S'Wed Jan 28 23:31:59 2015'
p3025
sg14
S'5673923'
p3026
sg16
g3020
ssS'Salvia_parryi'
p3027
(dp3028
g4
I9
sg5
S'Lamiaceae'
p3029
sg7
I4326
sg8
S'65'
p3030
sg10
S'shape'
p3031
sg12
S'Thu Jan 29 02:07:46 2015'
p3032
sg14
S'5665200'
p3033
sg16
g3027
ssS'Luzula_rufescens'
p3034
(dp3035
g4
I9
sg5
S'Juncaceae'
p3036
sg7
I4326
sg8
S'69'
p3037
sg10
S'shape'
p3038
sg12
S'Wed Jan 28 22:52:59 2015'
p3039
sg14
S'5678467'
p3040
sg16
g3034
ssS'Salvia_amissa'
p3041
(dp3042
g4
I9
sg5
S'Lamiaceae'
p3043
sg7
I4326
sg8
S'30'
p3044
sg10
S'shape'
p3045
sg12
S'Thu Jan 29 01:58:39 2015'
p3046
sg14
S'5665428'
p3047
sg16
g3041
ssS'Scutellaria_angustifolia'
p3048
(dp3049
g4
I9
sg5
S'Lamiaceae'
p3050
sg7
I4326
sg8
S'166'
p3051
sg10
S'shape'
p3052
sg12
S'Thu Jan 29 02:11:35 2015'
p3053
sg14
S'5665436'
p3054
sg16
g3048
ssS'Hypericum_myrtifolium'
p3055
(dp3056
g4
I9
sg5
S'Hypericaceae'
p3057
sg7
I4326
sg8
S'164'
p3058
sg10
S'shape'
p3059
sg12
S'Thu Jan 29 05:23:42 2015'
p3060
sg14
S'5671731'
p3061
sg16
g3055
ssS'Juncus_capitatus'
p3062
(dp3063
g4
I9
sg5
S'Juncaceae'
p3064
sg7
I4326
sg8
S'82'
p3065
sg10
S'shape'
p3066
sg12
S'Wed Jan 28 22:01:58 2015'
p3067
sg14
S'5677030'
p3068
sg16
g3062
ssS'Monarda_didyma'
p3069
(dp3070
g4
I9
sg5
S'Lamiaceae'
p3071
sg7
I4326
sg8
S'508'
p3072
sg10
S'shape'
p3073
sg12
S'Wed Jan 28 23:24:17 2015'
p3074
sg14
S'5665449'
p3075
sg16
g3069
ssS'Juncus_patens'
p3076
(dp3077
g4
I9
sg5
S'Juncaceae'
p3078
sg7
I4326
sg8
S'125'
p3079
sg10
S'shape'
p3080
sg12
S'Wed Jan 28 22:06:46 2015'
p3081
sg14
S'5666396'
p3082
sg16
g3076
ssS'Stachys_ajugoides'
p3083
(dp3084
g4
I9
sg5
S'Lamiaceae'
p3085
sg7
I4326
sg8
S'268'
p3086
sg10
S'shape'
p3087
sg12
S'Thu Jan 29 04:33:54 2015'
p3088
sg14
S'5665356'
p3089
sg16
g3083
ssS'Lycopus_uniflorus'
p3090
(dp3091
g4
I9
sg5
S'Lamiaceae'
p3092
sg7
I4326
sg8
S'1265'
p3093
sg10
S'shape'
p3094
sg12
S'Wed Jan 28 22:58:09 2015'
p3095
sg14
S'5665451'
p3096
sg16
g3090
ssS'Sisyrinchium_cernuum'
p3097
(dp3098
g4
I9
sg5
S'Iridaceae'
p3099
sg7
I4326
sg8
S'103'
p3100
sg10
S'shape'
p3101
sg12
S'Thu Jan 29 02:28:26 2015'
p3102
sg14
S'5678632'
p3103
sg16
g3097
ssS'Lindera_melissifolia'
p3104
(dp3105
g4
I9
sg5
S'Lauraceae'
p3106
sg7
I4326
sg8
S'157'
p3107
sg10
S'shape'
p3108
sg12
S'Wed Jan 28 22:29:44 2015'
p3109
sg14
S'5674351'
p3110
sg16
g3104
ssS'Persea_americana'
p3111
(dp3112
g4
I9
sg5
S'Lauraceae'
p3113
sg7
I4326
sg8
S'529'
p3114
sg10
S'shape'
p3115
sg12
S'Thu Jan 29 05:38:41 2015'
p3116
sg14
S'5673637'
p3117
sg16
g3111
ssS'Hedeoma_pulegioides'
p3118
(dp3119
g4
I9
sg5
S'Lamiaceae'
p3120
sg7
I4326
sg8
S'1145'
p3121
sg10
S'shape'
p3122
sg12
S'Wed Jan 28 21:26:48 2015'
p3123
sg14
S'5665498'
p3124
sg16
g3118
ssS'Scutellaria_antirrhinoides'
p3125
(dp3126
g4
I9
sg5
S'Lamiaceae'
p3127
sg7
I4326
sg8
S'161'
p3128
sg10
S'shape'
p3129
sg12
S'Thu Jan 29 02:11:53 2015'
p3130
sg14
S'5665301'
p3131
sg16
g3125
ssS'Monarda_clinopodioides'
p3132
(dp3133
g4
I9
sg5
S'Lamiaceae'
p3134
sg7
I4326
sg8
S'106'
p3135
sg10
S'shape'
p3136
sg12
S'Wed Jan 28 23:24:17 2015'
p3137
sg14
S'5665371'
p3138
sg16
g3132
ssS'Pycnanthemum_clinopodioides'
p3139
(dp3140
g4
I9
sg5
S'Lamiaceae'
p3141
sg7
I4326
sg8
S'57'
p3142
sg10
S'shape'
p3143
sg12
S'Thu Jan 29 01:23:52 2015'
p3144
sg14
S'5665534'
p3145
sg16
g3139
ssS'Hedeoma_reverchonii'
p3146
(dp3147
g4
I9
sg5
S'Lamiaceae'
p3148
sg7
I4326
sg8
S'96'
p3149
sg10
S'shape'
p3150
sg12
S'Wed Jan 28 21:27:01 2015'
p3151
sg14
S'5665444'
p3152
sg16
g3146
ssS'Juncus_roemerianus'
p3153
(dp3154
g4
I9
sg5
S'Juncaceae'
p3155
sg7
I4326
sg8
S'365'
p3156
sg10
S'shape'
p3157
sg12
S'Wed Jan 28 22:07:33 2015'
p3158
sg14
S'5674678'
p3159
sg16
g3153
ssS'Salvia_apiana'
p3160
(dp3161
g4
I9
sg5
S'Lamiaceae'
p3162
sg7
I4326
sg8
S'62'
p3163
sg10
S'shape'
p3164
sg12
S'Thu Jan 29 01:59:14 2015'
p3165
sg14
S'5665563'
p3166
sg16
g3160
ssS'Trichostema_lanatum'
p3167
(dp3168
g4
I9
sg5
S'Lamiaceae'
p3169
sg7
I4326
sg8
S'31'
p3170
sg10
S'shape'
p3171
sg12
S'Thu Jan 29 03:16:09 2015'
p3172
sg14
S'5665448'
p3173
sg16
g3167
ssS'Najas_minor'
p3174
(dp3175
g4
I9
sg5
S'Hydrocharitaceae'
p3176
sg7
I4326
sg8
S'323'
p3177
sg10
S'shape'
p3178
sg12
S'Wed Jan 28 23:34:18 2015'
p3179
sg14
S'5678884'
p3180
sg16
g3174
ssS'Scutellaria_bushii'
p3181
(dp3182
g4
I9
sg5
S'Lamiaceae'
p3183
sg7
I4326
sg8
S'34'
p3184
sg10
S'shape'
p3185
sg12
S'Thu Jan 29 02:12:39 2015'
p3186
sg14
S'5665185'
p3187
sg16
g3181
ssS'Trichostema_parishii'
p3188
(dp3189
g4
I9
sg5
S'Lamiaceae'
p3190
sg7
I4326
sg8
S'24'
p3191
sg10
S'shape'
p3192
sg12
S'Thu Jan 29 03:20:43 2015'
p3193
sg14
S'5665177'
p3194
sg16
g3188
ssS'Ribes_californicum'
p3195
(dp3196
g4
I9
sg5
S'Grossulariaceae'
p3197
sg7
I4326
sg8
S'111'
p3198
sg10
S'shape'
p3199
sg12
S'Thu Jan 29 01:47:03 2015'
p3200
sg14
S'5678921'
p3201
sg16
g3195
ssS'Hypericum_gymnanthum'
p3202
(dp3203
g4
I9
sg5
S'Hypericaceae'
p3204
sg7
I4326
sg8
S'203'
p3205
sg10
S'shape'
p3206
sg12
S'Wed Jan 28 21:40:19 2015'
p3207
sg14
S'5667336'
p3208
sg16
g3202
ssS'Persea_borbonia'
p3209
(dp3210
g4
I9
sg5
S'Lauraceae'
p3211
sg7
I4326
sg8
S'34418'
p3212
sg10
S'shape'
p3213
sg12
S'Thu Jan 29 00:04:45 2015'
p3214
sg14
S'5674316'
p3215
sg16
g3209
ssS'Krameria_lanceolata'
p3216
(dp3217
g4
I9
sg5
S'Krameriaceae'
p3218
sg7
I4326
sg8
S'519'
p3219
sg10
S'shape'
p3220
sg12
S'Wed Jan 28 22:11:31 2015'
p3221
sg14
S'5678971'
p3222
sg16
g3216
ssS'Juncus_xiphioides'
p3223
(dp3224
g4
I9
sg5
S'Juncaceae'
p3225
sg7
I4326
sg8
S'174'
p3226
sg10
S'shape'
p3227
sg12
S'Wed Jan 28 22:08:38 2015'
p3228
sg14
S'5675827'
p3229
sg16
g3223
ssS'Myriophyllum_aquaticum'
p3230
(dp3231
g4
I9
sg5
S'Haloragaceae'
p3232
sg7
I4326
sg8
S'441'
p3233
sg10
S'shape'
p3234
sg12
S'Wed Jan 28 23:30:42 2015'
p3235
sg14
S'5675922'
p3236
sg16
g3230
ssS'Monarda_bradburiana'
p3237
(dp3238
g4
I9
sg5
S'Lamiaceae'
p3239
sg7
I4326
sg8
S'397'
p3240
sg10
S'shape'
p3241
sg12
S'Thu Jan 29 04:44:50 2015'
p3242
sg14
S'5665231'
p3243
sg16
g3237
ssS'Nectandra_coriacea'
p3244
(dp3245
g4
I9
sg5
S'Lauraceae'
p3246
sg7
I4326
sg8
S'169'
p3247
sg10
S'shape'
p3248
sg12
S'Wed Jan 28 23:35:25 2015'
p3249
sg14
S'5679014'
p3250
sg16
g3244
ssS'Sisyrinchium_atlanticum'
p3251
(dp3252
g4
I9
sg5
S'Iridaceae'
p3253
sg7
I4326
sg8
S'540'
p3254
sg10
S'shape'
p3255
sg12
S'Thu Jan 29 02:28:01 2015'
p3256
sg14
S'5679016'
p3257
sg16
g3251
ssS'Sisyrinchium_demissum'
p3258
(dp3259
g4
I9
sg5
S'Iridaceae'
p3260
sg7
I4326
sg8
S'259'
p3261
sg10
S'shape'
p3262
sg12
S'Thu Jan 29 02:28:50 2015'
p3263
sg14
S'5679028'
p3264
sg16
g3258
ssS'Ribes_rubrum'
p3265
(dp3266
g4
I9
sg5
S'Grossulariaceae'
p3267
sg7
I4326
sg8
S'264'
p3268
sg10
S'shape'
p3269
sg12
S'Thu Jan 29 01:47:27 2015'
p3270
sg14
S'5679057'
p3271
sg16
g3265
ssS'Stachys_bigelovii'
p3272
(dp3273
g4
I9
sg5
S'Lamiaceae'
p3274
sg7
I4326
sg8
S'74'
p3275
sg10
S'shape'
p3276
sg12
S'Thu Jan 29 04:48:25 2015'
p3277
sg14
S'5665271'
p3278
sg16
g3272
ssS'Physostegia_leptophylla'
p3279
(dp3280
g4
I9
sg5
S'Lamiaceae'
p3281
sg7
I4326
sg8
S'39'
p3282
sg10
S'shape'
p3283
sg12
S'Thu Jan 29 00:28:05 2015'
p3284
sg14
S'5665191'
p3285
sg16
g3279
ssS'Fendlera_rupicola'
p3286
(dp3287
g4
I9
sg5
S'Hydrangeaceae'
p3288
sg7
I4326
sg8
S'226'
p3289
sg10
S'shape'
p3290
sg12
S'Wed Jan 28 20:50:08 2015'
p3291
sg14
S'5679145'
p3292
sg16
g3286
ssS'Stachys_pilosa'
p3293
(dp3294
g4
I9
sg5
S'Lamiaceae'
p3295
sg7
I4326
sg8
S'626'
p3296
sg10
S'shape'
p3297
sg12
S'Thu Jan 29 02:53:21 2015'
p3298
sg14
S'5665306'
p3299
sg16
g3293
ssS'Pycnanthemum_pycnanthemoides'
p3300
(dp3301
g4
I9
sg5
S'Lamiaceae'
p3302
sg7
I4326
sg8
S'237'
p3303
sg10
S'shape'
p3304
sg12
S'Thu Jan 29 01:24:49 2015'
p3305
sg14
S'5665312'
p3306
sg16
g3300
ssS'Hypericum_punctatum'
p3307
(dp3308
g4
I9
sg5
S'Hypericaceae'
p3309
sg7
I4326
sg8
S'1887'
p3310
sg10
S'shape'
p3311
sg12
S'Wed Jan 28 21:43:01 2015'
p3312
sg14
S'5676383'
p3313
sg16
g3307
ssS'Salvia_reptans'
p3314
(dp3315
g4
I9
sg5
S'Lamiaceae'
p3316
sg7
I4326
sg8
S'97'
p3317
sg10
S'shape'
p3318
sg12
S'Thu Jan 29 02:09:12 2015'
p3319
sg14
S'5665340'
p3320
sg16
g3314
ssS'Sisyrinchium_californicum'
p3321
(dp3322
g4
I9
sg5
S'Iridaceae'
p3323
sg7
I4326
sg8
S'96'
p3324
sg10
S'shape'
p3325
sg12
S'Thu Jan 29 02:28:21 2015'
p3326
sg14
S'5679236'
p3327
sg16
g3321
ssS'Salvia_occidentalis'
p3328
(dp3329
g4
I9
sg5
S'Lamiaceae'
p3330
sg7
I4326
sg8
S'30'
p3331
sg10
S'shape'
p3332
sg12
S'Thu Jan 29 02:06:39 2015'
p3333
sg14
S'5665358'
p3334
sg16
g3328
ssS'Ribes_erythrocarpum'
p3335
(dp3336
g4
I9
sg5
S'Grossulariaceae'
p3337
sg7
I4326
sg8
S'38'
p3338
sg10
S'shape'
p3339
sg12
S'Thu Jan 29 01:47:28 2015'
p3340
sg14
S'5679272'
p3341
sg16
g3335
ssS'Agastache_breviflora'
p3342
(dp3343
g4
I9
sg5
S'Lamiaceae'
p3344
sg7
I4326
sg8
S'99'
p3345
sg10
S'shape'
p3346
sg12
S'Wed Jan 28 16:43:21 2015'
p3347
sg14
S'5665378'
p3348
sg16
g3342
ssS'Hypericum_drummondii'
p3349
(dp3350
g4
I9
sg5
S'Hypericaceae'
p3351
sg7
I4326
sg8
S'639'
p3352
sg10
S'shape'
p3353
sg12
S'Wed Jan 28 21:39:31 2015'
p3354
sg14
S'5679308'
p3355
sg16
g3349
ssS'Luzula_piperi'
p3356
(dp3357
g4
I9
sg5
S'Juncaceae'
p3358
sg7
I4326
sg8
S'92'
p3359
sg10
S'shape'
p3360
sg12
S'Wed Jan 28 22:50:05 2015'
p3361
sg14
S'5677148'
p3362
sg16
g3356
ssS'Physostegia_intermedia'
p3363
(dp3364
g4
I9
sg5
S'Lamiaceae'
p3365
sg7
I4326
sg8
S'95'
p3366
sg10
S'shape'
p3367
sg12
S'Thu Jan 29 00:26:34 2015'
p3368
sg14
S'5665395'
p3369
sg16
g3363
ssS'Salvia_misella'
p3370
(dp3371
g4
I9
sg5
S'Lamiaceae'
p3372
sg7
I4326
sg8
S'172'
p3373
sg10
S'shape'
p3374
sg12
S'Thu Jan 29 04:31:09 2015'
p3375
sg14
S'5665400'
p3376
sg16
g3370
ssS'Scutellaria_nana'
p3377
(dp3378
g4
I9
sg5
S'Lamiaceae'
p3379
sg7
I4326
sg8
S'171'
p3380
sg10
S'shape'
p3381
sg12
S'Thu Jan 29 05:55:19 2015'
p3382
sg14
S'5665384'
p3383
sg16
g3377
ssS'Juncus_filiformis'
p3384
(dp3385
g4
I9
sg5
S'Juncaceae'
p3386
sg7
I4326
sg8
S'501'
p3387
sg10
S'shape'
p3388
sg12
S'Wed Jan 28 22:04:04 2015'
p3389
sg14
S'5674727'
p3390
sg16
g3384
ssS'Hypericum_mitchellianum'
p3391
(dp3392
g4
I9
sg5
S'Hypericaceae'
p3393
sg7
I4326
sg8
S'60'
p3394
sg10
S'shape'
p3395
sg12
S'Wed Jan 28 21:41:28 2015'
p3396
sg14
S'5678707'
p3397
sg16
g3391
ssS'Juncus_falcatus'
p3398
(dp3399
g4
I9
sg5
S'Juncaceae'
p3400
sg7
I4326
sg8
S'93'
p3401
sg10
S'shape'
p3402
sg12
S'Wed Jan 28 22:03:55 2015'
p3403
sg14
S'5677174'
p3404
sg16
g3398
ssS'Juncus_trifidus'
p3405
(dp3406
g4
I9
sg5
S'Juncaceae'
p3407
sg7
I4326
sg8
S'97'
p3408
sg10
S'shape'
p3409
sg12
S'Wed Jan 28 22:08:30 2015'
p3410
sg14
S'5670083'
p3411
sg16
g3405
ssS'Hypoxis_wrightii'
p3412
(dp3413
g4
I9
sg5
S'Hypoxidaceae'
p3414
sg7
I4326
sg8
S'206'
p3415
sg10
S'shape'
p3416
sg12
S'Wed Jan 28 21:44:19 2015'
p3417
sg14
S'5679480'
p3418
sg16
g3412
ssS'Juncus_oxymeris'
p3419
(dp3420
g4
I9
sg5
S'Juncaceae'
p3421
sg7
I4326
sg8
S'135'
p3422
sg10
S'shape'
p3423
sg12
S'Wed Jan 28 22:06:35 2015'
p3424
sg14
S'5677969'
p3425
sg16
g3419
ssS'Hydrilla_verticillata'
p3426
(dp3427
g4
I9
sg5
S'Hydrocharitaceae'
p3428
sg7
I4326
sg8
S'146'
p3429
sg10
S'shape'
p3430
sg12
S'Wed Jan 28 21:43:28 2015'
p3431
sg14
S'5674500'
p3432
sg16
g3426
ssS'Stachys_mexicana'
p3433
(dp3434
g4
I9
sg5
S'Lamiaceae'
p3435
sg7
I4326
sg8
S'135'
p3436
sg10
S'shape'
p3437
sg12
S'Thu Jan 29 02:51:40 2015'
p3438
sg14
S'5665483'
p3439
sg16
g3433
ssS'Persea_humilis'
p3440
(dp3441
g4
I9
sg5
S'Lauraceae'
p3442
sg7
I4326
sg8
S'55'
p3443
sg10
S'shape'
p3444
sg12
S'Thu Jan 29 00:06:09 2015'
p3445
sg14
S'5679545'
p3446
sg16
g3440
ssS'Juncus_howellii'
p3447
(dp3448
g4
I9
sg5
S'Juncaceae'
p3449
sg7
I4326
sg8
S'95'
p3450
sg10
S'shape'
p3451
sg12
S'Wed Jan 28 22:04:45 2015'
p3452
sg14
S'5679555'
p3453
sg16
g3447
ssS'Hypericum_cistifolium'
p3454
(dp3455
g4
I9
sg5
S'Hypericaceae'
p3456
sg7
I4326
sg8
S'266'
p3457
sg10
S'shape'
p3458
sg12
S'Wed Jan 28 21:38:39 2015'
p3459
sg14
S'5679577'
p3460
sg16
g3454
ssS'Ribes_indecorum'
p3461
(dp3462
g4
I9
sg5
S'Grossulariaceae'
p3463
sg7
I4326
sg8
S'34'
p3464
sg10
S'shape'
p3465
sg12
S'Thu Jan 29 01:47:46 2015'
p3466
sg14
S'5679580'
p3467
sg16
g3461
ssS'Ocimum_basilicum'
p3468
(dp3469
g4
I9
sg5
S'Lamiaceae'
p3470
sg7
I4326
sg8
S'126'
p3471
sg10
S'shape'
p3472
sg12
S'Wed Jan 28 23:41:56 2015'
p3473
sg14
S'5665386'
p3474
sg16
g3468
ssS'Stachys_tenuifolia'
p3475
(dp3476
g4
I9
sg5
S'Lamiaceae'
p3477
sg7
I4326
sg8
S'1231'
p3478
sg10
S'shape'
p3479
sg12
S'Thu Jan 29 02:54:56 2015'
p3480
sg14
S'5665349'
p3481
sg16
g3475
ssS'Ribes_lobbii'
p3482
(dp3483
g4
I9
sg5
S'Grossulariaceae'
p3484
sg7
I4326
sg8
S'160'
p3485
sg10
S'shape'
p3486
sg12
S'Thu Jan 29 01:48:00 2015'
p3487
sg14
S'5668177'
p3488
sg16
g3482
ssS'Carya_cordiformis'
p3489
(dp3490
g4
I9
sg5
S'Juglandaceae'
p3491
sg7
I4326
sg8
S'25273'
p3492
sg10
S'shape'
p3493
sg12
S'Wed Jan 28 18:04:35 2015'
p3494
sg14
S'5678529'
p3495
sg16
g3489
ssS'Carya_illinoinensis'
p3496
(dp3497
g4
I9
sg5
S'Juglandaceae'
p3498
sg7
I4326
sg8
S'5670'
p3499
sg10
S'shape'
p3500
sg12
S'Wed Jan 28 18:18:52 2015'
p3501
sg14
S'5682019'
p3502
sg16
g3496
ssS'Ribes_uva-crispa'
p3503
(dp3504
g4
I9
sg5
S'Grossulariaceae'
p3505
sg7
I4326
sg8
S'43'
p3506
sg10
S'shape'
p3507
sg12
S'Thu Jan 29 05:47:35 2015'
p3508
sg14
S'5679784'
p3509
sg16
g3503
ssS'Monarda_pectinata'
p3510
(dp3511
g4
I9
sg5
S'Lamiaceae'
p3512
sg7
I4326
sg8
S'229'
p3513
sg10
S'shape'
p3514
sg12
S'Wed Jan 28 23:25:35 2015'
p3515
sg14
S'5665188'
p3516
sg16
g3510
ssS'Olsynium_douglasii'
p3517
(dp3518
g4
I9
sg5
S'Iridaceae'
p3519
sg7
I4326
sg8
S'170'
p3520
sg10
S'shape'
p3521
sg12
S'Wed Jan 28 23:46:04 2015'
p3522
sg14
S'5673981'
p3523
sg16
g3517
ssS'Warnockia_scutellarioides'
p3524
(dp3525
g4
I9
sg5
S'Lamiaceae'
p3526
sg7
I4326
sg8
S'48'
p3527
sg10
S'shape'
p3528
sg12
S'Thu Jan 29 03:44:40 2015'
p3529
sg14
S'5665375'
p3530
sg16
g3524
ssS'Krameria_erecta'
p3531
(dp3532
g4
I9
sg5
S'Krameriaceae'
p3533
sg7
I4326
sg8
S'676'
p3534
sg10
S'shape'
p3535
sg12
S'Thu Jan 29 04:02:46 2015'
p3536
sg14
S'5679914'
p3537
sg16
g3531
ssS'Iris_hookeri'
p3538
(dp3539
g4
I9
sg5
S'Iridaceae'
p3540
sg7
I4326
sg8
S'54'
p3541
sg10
S'shape'
p3542
sg12
S'Wed Jan 28 21:52:50 2015'
p3543
sg14
S'5679952'
p3544
sg16
g3538
ssS'Luzula_campestris'
p3545
(dp3546
g4
I9
sg5
S'Juncaceae'
p3547
sg7
I4326
sg8
S'66'
p3548
sg10
S'shape'
p3549
sg12
S'Wed Jan 28 22:48:54 2015'
p3550
sg14
S'5680001'
p3551
sg16
g3545
ssS'Thymus_pulegioides'
p3552
(dp3553
g4
I9
sg5
S'Lamiaceae'
p3554
sg7
I4326
sg8
S'87'
p3555
sg10
S'shape'
p3556
sg12
S'Thu Jan 29 03:07:52 2015'
p3557
sg14
S'5665286'
p3558
sg16
g3552
ssS'Monardella_odoratissima'
p3559
(dp3560
g4
I9
sg5
S'Lamiaceae'
p3561
sg7
I4326
sg8
S'762'
p3562
sg10
S'shape'
p3563
sg12
S'Wed Jan 28 23:25:37 2015'
p3564
sg14
S'5665305'
p3565
sg16
g3559
ssS'Ribes_quercetorum'
p3566
(dp3567
g4
I9
sg5
S'Grossulariaceae'
p3568
sg7
I4326
sg8
S'77'
p3569
sg10
S'shape'
p3570
sg12
S'Thu Jan 29 01:48:24 2015'
p3571
sg14
S'5680091'
p3572
sg16
g3566
ssS'Juncus_arcticus'
p3573
(dp3574
g4
I9
sg5
S'Juncaceae'
p3575
sg7
I4326
sg8
S'371'
p3576
sg10
S'shape'
p3577
sg12
S'Wed Jan 28 21:59:56 2015'
p3578
sg14
S'5682231'
p3579
sg16
g3573
ssS'Sisyrinchium_elmeri'
p3580
(dp3581
g4
I9
sg5
S'Iridaceae'
p3582
sg7
I4326
sg8
S'28'
p3583
sg10
S'shape'
p3584
sg12
S'Thu Jan 29 02:29:31 2015'
p3585
sg14
S'5669030'
p3586
sg16
g3580
ssS'Ribes_cynosbati'
p3587
(dp3588
g4
I9
sg5
S'Grossulariaceae'
p3589
sg7
I4326
sg8
S'1000'
p3590
sg10
S'shape'
p3591
sg12
S'Thu Jan 29 01:47:19 2015'
p3592
sg14
S'5674411'
p3593
sg16
g3587
ssS'Sisyrinchium_albidum'
p3594
(dp3595
g4
I9
sg5
S'Iridaceae'
p3596
sg7
I4326
sg8
S'503'
p3597
sg10
S'shape'
p3598
sg12
S'Thu Jan 29 05:56:46 2015'
p3599
sg14
S'5680185'
p3600
sg16
g3594
ssS'Perilla_frutescens'
p3601
(dp3602
g4
I9
sg5
S'Lamiaceae'
p3603
sg7
I4326
sg8
S'786'
p3604
sg10
S'shape'
p3605
sg12
S'Thu Jan 29 00:15:55 2015'
p3606
sg14
S'5665393'
p3607
sg16
g3601
ssS'Salvia_coccinea'
p3608
(dp3609
g4
I9
sg5
S'Lamiaceae'
p3610
sg7
I4326
sg8
S'382'
p3611
sg10
S'shape'
p3612
sg12
S'Thu Jan 29 02:01:57 2015'
p3613
sg14
S'5665394'
p3614
sg16
g3608
ssS'Ocimum_campechianum'
p3615
(dp3616
g4
I9
sg5
S'Lamiaceae'
p3617
sg7
I4326
sg8
S'378'
p3618
sg10
S'shape'
p3619
sg12
S'Wed Jan 28 23:41:48 2015'
p3620
sg14
S'5665569'
p3621
sg16
g3615
ssS'Pycnanthemum_albescens'
p3622
(dp3623
g4
I9
sg5
S'Lamiaceae'
p3624
sg7
I4326
sg8
S'310'
p3625
sg10
S'shape'
p3626
sg12
S'Thu Jan 29 01:22:59 2015'
p3627
sg14
S'5665406'
p3628
sg16
g3622
ssS'Marrubium_vulgare'
p3629
(dp3630
g4
I9
sg5
S'Lamiaceae'
p3631
sg7
I4326
sg8
S'1390'
p3632
sg10
S'shape'
p3633
sg12
S'Thu Jan 29 06:13:59 2015'
p3634
sg14
S'5665410'
p3635
sg16
g3629
ssS'Ribes_wolfii'
p3636
(dp3637
g4
I9
sg5
S'Grossulariaceae'
p3638
sg7
I4326
sg8
S'214'
p3639
sg10
S'shape'
p3640
sg12
S'Thu Jan 29 01:48:55 2015'
p3641
sg14
S'5682152'
p3642
sg16
g3636
ssS'Hypoxis_hirsuta'
p3643
(dp3644
g4
I9
sg5
S'Hypoxidaceae'
p3645
sg7
I4326
sg8
S'1920'
p3646
sg10
S'shape'
p3647
sg12
S'Wed Jan 28 21:43:44 2015'
p3648
sg14
S'5667250'
p3649
sg16
g3643
ssS'Luzula_nivalis'
p3650
(dp3651
g4
I9
sg5
S'Juncaceae'
p3652
sg7
I4326
sg8
S'175'
p3653
sg10
S'shape'
p3654
sg12
S'Wed Jan 28 22:49:31 2015'
p3655
sg14
S'5680333'
p3656
sg16
g3650
ssS'Hedeoma_hispida'
p3657
(dp3658
g4
I9
sg5
S'Lamiaceae'
p3659
sg7
I4326
sg8
S'1280'
p3660
sg10
S'shape'
p3661
sg12
S'Wed Jan 28 21:22:49 2015'
p3662
sg14
S'5665445'
p3663
sg16
g3657
ssS'Juncus_alpinoarticulatus'
p3664
(dp3665
g4
I9
sg5
S'Juncaceae'
p3666
sg7
I4326
sg8
S'427'
p3667
sg10
S'shape'
p3668
sg12
S'Wed Jan 28 21:59:33 2015'
p3669
sg14
S'5680356'
p3670
sg16
g3664
ssS'Hypericum_sphaerocarpum'
p3671
(dp3672
g4
I9
sg5
S'Hypericaceae'
p3673
sg7
I4326
sg8
S'607'
p3674
sg10
S'shape'
p3675
sg12
S'Wed Jan 28 21:44:10 2015'
p3676
sg14
S'5670997'
p3677
sg16
g3671
ssS'Luzula_parviflora'
p3678
(dp3679
g4
I9
sg5
S'Juncaceae'
p3680
sg7
I4326
sg8
S'1519'
p3681
sg10
S'shape'
p3682
sg12
S'Wed Jan 28 22:52:35 2015'
p3683
sg14
S'5669533'
p3684
sg16
g3678
ssS'Carya_laciniosa'
p3685
(dp3686
g4
I9
sg5
S'Juglandaceae'
p3687
sg7
I4326
sg8
S'1771'
p3688
sg10
S'shape'
p3689
sg12
S'Wed Jan 28 18:20:39 2015'
p3690
sg14
S'5674921'
p3691
sg16
g3685
ssS'Leonotis_nepetifolia'
p3692
(dp3693
g4
I9
sg5
S'Lamiaceae'
p3694
sg7
I4326
sg8
S'273'
p3695
sg10
S'shape'
p3696
sg12
S'Wed Jan 28 22:24:13 2015'
p3697
sg14
S'5665464'
p3698
sg16
g3692
ssS'Hypericum_microsepalum'
p3699
(dp3700
g4
I9
sg5
S'Hypericaceae'
p3701
sg7
I4326
sg8
S'114'
p3702
sg10
S'shape'
p3703
sg12
S'Wed Jan 28 21:42:03 2015'
p3704
sg14
S'5680386'
p3705
sg16
g3699
ssS'Salvia_lycioides'
p3706
(dp3707
g4
I9
sg5
S'Lamiaceae'
p3708
sg7
I4326
sg8
S'29'
p3709
sg10
S'shape'
p3710
sg12
S'Thu Jan 29 02:05:41 2015'
p3711
sg14
S'5665472'
p3712
sg16
g3706
ssS'Juncus_anthelatus'
p3713
(dp3714
g4
I9
sg5
S'Juncaceae'
p3715
sg7
I4326
sg8
S'170'
p3716
sg10
S'shape'
p3717
sg12
S'Wed Jan 28 21:59:57 2015'
p3718
sg14
S'5680435'
p3719
sg16
g3713
ssS'Salvia_longistyla'
p3720
(dp3721
g4
I9
sg5
S'Lamiaceae'
p3722
sg7
I4326
sg8
S'50'
p3723
sg10
S'shape'
p3724
sg12
S'Thu Jan 29 02:05:33 2015'
p3725
sg14
S'5665486'
p3726
sg16
g3720
ssS'Ribes_aureum'
p3727
(dp3728
g4
I9
sg5
S'Grossulariaceae'
p3729
sg7
I4326
sg8
S'1582'
p3730
sg10
S'shape'
p3731
sg12
S'Thu Jan 29 01:47:00 2015'
p3732
sg14
S'5668432'
p3733
sg16
g3727
ssS'Luzula_luzuloides'
p3734
(dp3735
g4
I9
sg5
S'Juncaceae'
p3736
sg7
I4326
sg8
S'26'
p3737
sg10
S'shape'
p3738
sg12
S'Thu Jan 29 05:31:12 2015'
p3739
sg14
S'5680487'
p3740
sg16
g3734
ssS'Juglans_major'
p3741
(dp3742
g4
I9
sg5
S'Juglandaceae'
p3743
sg7
I4326
sg8
S'635'
p3744
sg10
S'shape'
p3745
sg12
S'Wed Jan 28 22:04:49 2015'
p3746
sg14
S'5669057'
p3747
sg16
g3741
ssS'Synandra_hispidula'
p3748
(dp3749
g4
I9
sg5
S'Lamiaceae'
p3750
sg7
I4326
sg8
S'113'
p3751
sg10
S'shape'
p3752
sg12
S'Thu Jan 29 03:00:00 2015'
p3753
sg14
S'5665535'
p3754
sg16
g3748
ssS'Ribes_hirtellum'
p3755
(dp3756
g4
I9
sg5
S'Grossulariaceae'
p3757
sg7
I4326
sg8
S'645'
p3758
sg10
S'shape'
p3759
sg12
S'Thu Jan 29 01:47:36 2015'
p3760
sg14
S'5680606'
p3761
sg16
g3755
ssS'Hypericum_denticulatum'
p3762
(dp3763
g4
I9
sg5
S'Hypericaceae'
p3764
sg7
I4326
sg8
S'120'
p3765
sg10
S'shape'
p3766
sg12
S'Wed Jan 28 21:39:22 2015'
p3767
sg14
S'5666735'
p3768
sg16
g3762
ssS'Iris_setosa'
p3769
(dp3770
g4
I9
sg5
S'Iridaceae'
p3771
sg7
I4326
sg8
S'163'
p3772
sg10
S'shape'
p3773
sg12
S'Wed Jan 28 21:52:50 2015'
p3774
sg14
S'5680692'
p3775
sg16
g3769
ssS'Lindera_subcoriacea'
p3776
(dp3777
g4
I9
sg5
S'Lauraceae'
p3778
sg7
I4326
sg8
S'28'
p3779
sg10
S'shape'
p3780
sg12
S'Wed Jan 28 22:33:29 2015'
p3781
sg14
S'5680718'
p3782
sg16
g3776
ssS'Stachys_aspera'
p3783
(dp3784
g4
I9
sg5
S'Lamiaceae'
p3785
sg7
I4326
sg8
S'115'
p3786
sg10
S'shape'
p3787
sg12
S'Thu Jan 29 02:48:11 2015'
p3788
sg14
S'5665180'
p3789
sg16
g3783
ssS'Carya_pallida'
p3790
(dp3791
g4
I9
sg5
S'Juglandaceae'
p3792
sg7
I4326
sg8
S'2238'
p3793
sg10
S'shape'
p3794
sg12
S'Thu Jan 29 04:15:14 2015'
p3795
sg14
S'5680734'
p3796
sg16
g3790
ssS'Monarda_clinopodia'
p3797
(dp3798
g4
I9
sg5
S'Lamiaceae'
p3799
sg7
I4326
sg8
S'806'
p3800
sg10
S'shape'
p3801
sg12
S'Wed Jan 28 23:24:13 2015'
p3802
sg14
S'5665220'
p3803
sg16
g3797
ssS'Trichostema_oblongum'
p3804
(dp3805
g4
I9
sg5
S'Lamiaceae'
p3806
sg7
I4326
sg8
S'154'
p3807
sg10
S'shape'
p3808
sg12
S'Thu Jan 29 03:19:43 2015'
p3809
sg14
S'5665226'
p3810
sg16
g3804
ssS'Melissa_officinalis'
p3811
(dp3812
g4
I9
sg5
S'Lamiaceae'
p3813
sg7
I4326
sg8
S'322'
p3814
sg10
S'shape'
p3815
sg12
S'Wed Jan 28 23:14:51 2015'
p3816
sg14
S'5665230'
p3817
sg16
g3811
ssS'Mentha_arvensis'
p3818
(dp3819
g4
I9
sg5
S'Lamiaceae'
p3820
sg7
I4326
sg8
S'2487'
p3821
sg10
S'shape'
p3822
sg12
S'Wed Jan 28 23:08:37 2015'
p3823
sg14
S'5665238'
p3824
sg16
g3818
ssS'Juncus_orthophyllus'
p3825
(dp3826
g4
I9
sg5
S'Juncaceae'
p3827
sg7
I4326
sg8
S'253'
p3828
sg10
S'shape'
p3829
sg12
S'Wed Jan 28 22:06:35 2015'
p3830
sg14
S'5679793'
p3831
sg16
g3825
ssS'Philadelphus_microphyllus'
p3832
(dp3833
g4
I9
sg5
S'Hydrangeaceae'
p3834
sg7
I4326
sg8
S'366'
p3835
sg10
S'shape'
p3836
sg12
S'Thu Jan 29 00:29:49 2015'
p3837
sg14
S'5673997'
p3838
sg16
g3832
ssS'Scutellaria_parvula'
p3839
(dp3840
g4
I9
sg5
S'Lamiaceae'
p3841
sg7
I4326
sg8
S'1226'
p3842
sg10
S'shape'
p3843
sg12
S'Thu Jan 29 02:16:38 2015'
p3844
sg14
S'5665530'
p3845
sg16
g3839
ssS'Iris_pallida'
p3846
(dp3847
g4
I9
sg5
S'Iridaceae'
p3848
sg7
I4326
sg8
S'30'
p3849
sg10
S'shape'
p3850
sg12
S'Wed Jan 28 21:53:06 2015'
p3851
sg14
S'5674116'
p3852
sg16
g3846
ssS'Iris_douglasiana'
p3853
(dp3854
g4
I9
sg5
S'Iridaceae'
p3855
sg7
I4326
sg8
S'134'
p3856
sg10
S'shape'
p3857
sg12
S'Thu Jan 29 04:38:46 2015'
p3858
sg14
S'5680922'
p3859
sg16
g3853
ssS'Leonurus_cardiaca'
p3860
(dp3861
g4
I9
sg5
S'Lamiaceae'
p3862
sg7
I4326
sg8
S'1203'
p3863
sg10
S'shape'
p3864
sg12
S'Wed Jan 28 22:27:49 2015'
p3865
sg14
S'5665294'
p3866
sg16
g3860
ssS'Monardella_viridis'
p3867
(dp3868
g4
I9
sg5
S'Lamiaceae'
p3869
sg7
I4326
sg8
S'26'
p3870
sg10
S'shape'
p3871
sg12
S'Wed Jan 28 23:26:04 2015'
p3872
sg14
S'5665296'
p3873
sg16
g3867
ssS'Juncus_macrophyllus'
p3874
(dp3875
g4
I9
sg5
S'Juncaceae'
p3876
sg7
I4326
sg8
S'47'
p3877
sg10
S'shape'
p3878
sg12
S'Wed Jan 28 22:05:39 2015'
p3879
sg14
S'5680930'
p3880
sg16
g3874
ssS'Mentha_suaveolens'
p3881
(dp3882
g4
I9
sg5
S'Lamiaceae'
p3883
sg7
I4326
sg8
S'47'
p3884
sg10
S'shape'
p3885
sg12
S'Wed Jan 28 23:15:23 2015'
p3886
sg14
S'5665308'
p3887
sg16
g3881
ssS'Stachys_rothrockii'
p3888
(dp3889
g4
I9
sg5
S'Lamiaceae'
p3890
sg7
I4326
sg8
S'54'
p3891
sg10
S'shape'
p3892
sg12
S'Thu Jan 29 02:48:30 2015'
p3893
sg14
S'5665325'
p3894
sg16
g3888
ssS'Nemastylis_tenuis'
p3895
(dp3896
g4
I9
sg5
S'Iridaceae'
p3897
sg7
I4326
sg8
S'174'
p3898
sg10
S'shape'
p3899
sg12
S'Wed Jan 28 23:36:54 2015'
p3900
sg14
S'5672079'
p3901
sg16
g3895
ssS'Salvia_sonomensis'
p3902
(dp3903
g4
I9
sg5
S'Lamiaceae'
p3904
sg7
I4326
sg8
S'73'
p3905
sg10
S'shape'
p3906
sg12
S'Thu Jan 29 04:31:41 2015'
p3907
sg14
S'5665332'
p3908
sg16
g3902
ssS'Monarda_fistulosa'
p3909
(dp3910
g4
I9
sg5
S'Lamiaceae'
p3911
sg7
I4326
sg8
S'2899'
p3912
sg10
S'shape'
p3913
sg12
S'Wed Jan 28 23:24:31 2015'
p3914
sg14
S'5665346'
p3915
sg16
g3909
ssS'Pogogyne_douglasii'
p3916
(dp3917
g4
I9
sg5
S'Lamiaceae'
p3918
sg7
I4326
sg8
S'67'
p3919
sg10
S'shape'
p3920
sg12
S'Thu Jan 29 00:59:20 2015'
p3921
sg14
S'5665368'
p3922
sg16
g3916
ssS'Acanthomintha_ilicifolia'
p3923
(dp3924
g4
I9
sg5
S'Lamiaceae'
p3925
sg7
I4326
sg8
S'25'
p3926
sg10
S'shape'
p3927
sg12
S'Wed Jan 28 16:35:18 2015'
p3928
sg14
S'5665376'
p3929
sg16
g3923
ssS'Juncus_triformis'
p3930
(dp3931
g4
I9
sg5
S'Juncaceae'
p3932
sg7
I4326
sg8
S'39'
p3933
sg10
S'shape'
p3934
sg12
S'Wed Jan 28 22:08:34 2015'
p3935
sg14
S'5681095'
p3936
sg16
g3930
ssS'Hedeoma_acinoides'
p3937
(dp3938
g4
I9
sg5
S'Lamiaceae'
p3939
sg7
I4326
sg8
S'54'
p3940
sg10
S'shape'
p3941
sg12
S'Wed Jan 28 21:23:49 2015'
p3942
sg14
S'5665399'
p3943
sg16
g3937
ssS'Hypericum_tetrapetalum'
p3944
(dp3945
g4
I9
sg5
S'Hypericaceae'
p3946
sg7
I4326
sg8
S'123'
p3947
sg10
S'shape'
p3948
sg12
S'Wed Jan 28 21:44:24 2015'
p3949
sg14
S'5673278'
p3950
sg16
g3944
ssS'Sisyrinchium_sagittiferum'
p3951
(dp3952
g4
I9
sg5
S'Iridaceae'
p3953
sg7
I4326
sg8
S'52'
p3954
sg10
S'shape'
p3955
sg12
S'Thu Jan 29 02:33:31 2015'
p3956
sg14
S'5673894'
p3957
sg16
g3951
ssS'Juglans_cinerea'
p3958
(dp3959
g4
I9
sg5
S'Juglandaceae'
p3960
sg7
I4326
sg8
S'3007'
p3961
sg10
S'shape'
p3962
sg12
S'Wed Jan 28 22:01:46 2015'
p3963
sg14
S'5681214'
p3964
sg16
g3958
ssS'Pycnanthemum_californicum'
p3965
(dp3966
g4
I9
sg5
S'Lamiaceae'
p3967
sg7
I4326
sg8
S'60'
p3968
sg10
S'shape'
p3969
sg12
S'Thu Jan 29 01:23:50 2015'
p3970
sg14
S'5665433'
p3971
sg16
g3965
ssS'Salvia_greggii'
p3972
(dp3973
g4
I9
sg5
S'Lamiaceae'
p3974
sg7
I4326
sg8
S'85'
p3975
sg10
S'shape'
p3976
sg12
S'Thu Jan 29 05:53:49 2015'
p3977
sg14
S'5665502'
p3978
sg16
g3972
ssS'Iris_virginica'
p3979
(dp3980
g4
I9
sg5
S'Iridaceae'
p3981
sg7
I4326
sg8
S'940'
p3982
sg10
S'shape'
p3983
sg12
S'Wed Jan 28 21:53:54 2015'
p3984
sg14
S'5674451'
p3985
sg16
g3979
ssS'Juncus_nodosus'
p3986
(dp3987
g4
I9
sg5
S'Juncaceae'
p3988
sg7
I4326
sg8
S'825'
p3989
sg10
S'shape'
p3990
sg12
S'Wed Jan 28 22:06:15 2015'
p3991
sg14
S'5681300'
p3992
sg16
g3986
ssS'Isoetes_bolanderi'
p3993
(dp3994
g4
I9
sg5
S'Iso\xc3\xabtaceae'
p3995
sg7
I4326
sg8
S'171'
p3996
sg10
S'shape'
p3997
sg12
S'Wed Jan 28 21:54:07 2015'
p3998
sg14
S'5681325'
p3999
sg16
g3993
ssS'Lamium_purpureum'
p4000
(dp4001
g4
I9
sg5
S'Lamiaceae'
p4002
sg7
I4326
sg8
S'1086'
p4003
sg10
S'shape'
p4004
sg12
S'Wed Jan 28 22:16:14 2015'
p4005
sg14
S'5665474'
p4006
sg16
g4000
ssS'Salvia_subincisa'
p4007
(dp4008
g4
I9
sg5
S'Lamiaceae'
p4009
sg7
I4326
sg8
S'166'
p4010
sg10
S'shape'
p4011
sg12
S'Thu Jan 29 02:10:08 2015'
p4012
sg14
S'5665347'
p4013
sg16
g4007
ssS'Salvia_pinguifolia'
p4014
(dp4015
g4
I9
sg5
S'Lamiaceae'
p4016
sg7
I4326
sg8
S'116'
p4017
sg10
S'shape'
p4018
sg12
S'Thu Jan 29 02:08:19 2015'
p4019
sg14
S'5665512'
p4020
sg16
g4014
ssS'Stachys_hyssopifolia'
p4021
(dp4022
g4
I9
sg5
S'Lamiaceae'
p4023
sg7
I4326
sg8
S'172'
p4024
sg10
S'shape'
p4025
sg12
S'Thu Jan 29 02:49:36 2015'
p4026
sg14
S'5665513'
p4027
sg16
g4021
ssS'Scutellaria_integrifolia'
p4028
(dp4029
g4
I9
sg5
S'Lamiaceae'
p4030
sg7
I4326
sg8
S'1087'
p4031
sg10
S'shape'
p4032
sg12
S'Thu Jan 29 02:14:57 2015'
p4033
sg14
S'5665517'
p4034
sg16
g4028
ssS'Agastache_urticifolia'
p4035
(dp4036
g4
I9
sg5
S'Lamiaceae'
p4037
sg7
I4326
sg8
S'879'
p4038
sg10
S'shape'
p4039
sg12
S'Wed Jan 28 16:48:34 2015'
p4040
sg14
S'5665537'
p4041
sg16
g4035
ssS'Agastache_nepetoides'
p4042
(dp4043
g4
I9
sg5
S'Lamiaceae'
p4044
sg7
I4326
sg8
S'769'
p4045
sg10
S'shape'
p4046
sg12
S'Wed Jan 28 16:47:01 2015'
p4047
sg14
S'5665416'
p4048
sg16
g4042
ssS'Monardella_purpurea'
p4049
(dp4050
g4
I9
sg5
S'Lamiaceae'
p4051
sg7
I4326
sg8
S'104'
p4052
sg10
S'shape'
p4053
sg12
S'Wed Jan 28 23:26:02 2015'
p4054
sg14
S'5665539'
p4055
sg16
g4049
ssS'Cunila_origanoides'
p4056
(dp4057
g4
I9
sg5
S'Lamiaceae'
p4058
sg7
I4326
sg8
S'730'
p4059
sg10
S'shape'
p4060
sg12
S'Wed Jan 28 19:31:33 2015'
p4061
sg14
S'5665540'
p4062
sg16
g4056
ssS'Triglochin_striata'
p4063
(dp4064
g4
I9
sg5
S'Juncaginaceae'
p4065
sg7
I4326
sg8
S'112'
p4066
sg10
S'shape'
p4067
sg12
S'Thu Jan 29 05:29:27 2015'
p4068
sg14
S'5681527'
p4069
sg16
g4063
ssS'Agastache_foeniculum'
p4070
(dp4071
g4
I9
sg5
S'Lamiaceae'
p4072
sg7
I4326
sg8
S'234'
p4073
sg10
S'shape'
p4074
sg12
S'Wed Jan 28 16:45:03 2015'
p4075
sg14
S'5665562'
p4076
sg16
g4070
ssS'Triadenum_virginicum'
p4077
(dp4078
g4
I9
sg5
S'Hypericaceae'
p4079
sg7
I4326
sg8
S'839'
p4080
sg10
S'shape'
p4081
sg12
S'Thu Jan 29 03:13:07 2015'
p4082
sg14
S'5681573'
p4083
sg16
g4077
ssS'Plectranthus_scutellarioides'
p4084
(dp4085
g4
I9
sg5
S'Lamiaceae'
p4086
sg7
I4326
sg8
S'24'
p4087
sg10
S'shape'
p4088
sg12
S'Thu Jan 29 00:51:37 2015'
p4089
sg14
S'5665578'
p4090
sg16
g4084
ssS'Ribes_velutinum'
p4091
(dp4092
g4
I9
sg5
S'Grossulariaceae'
p4093
sg7
I4326
sg8
S'270'
p4094
sg10
S'shape'
p4095
sg12
S'Thu Jan 29 01:48:48 2015'
p4096
sg14
S'5681616'
p4097
sg16
g4091
ssS'Ribes_lacustre'
p4098
(dp4099
g4
I9
sg5
S'Grossulariaceae'
p4100
sg7
I4326
sg8
S'2406'
p4101
sg10
S'shape'
p4102
sg12
S'Thu Jan 29 01:47:55 2015'
p4103
sg14
S'5681619'
p4104
sg16
g4098
ssS'Iris_domestica'
p4105
(dp4106
g4
I9
sg5
S'Iridaceae'
p4107
sg7
I4326
sg8
S'462'
p4108
sg10
S'shape'
p4109
sg12
S'Wed Jan 28 21:52:26 2015'
p4110
sg14
S'5682395'
p4111
sg16
g4105
ssS'Hypericum_boreale'
p4112
(dp4113
g4
I9
sg5
S'Hypericaceae'
p4114
sg7
I4326
sg8
S'418'
p4115
sg10
S'shape'
p4116
sg12
S'Wed Jan 28 21:37:34 2015'
p4117
sg14
S'5681711'
p4118
sg16
g4112
ssS'Whipplea_modesta'
p4119
(dp4120
g4
I9
sg5
S'Hydrangeaceae'
p4121
sg7
I4326
sg8
S'201'
p4122
sg10
S'shape'
p4123
sg12
S'Thu Jan 29 03:44:45 2015'
p4124
sg14
S'5672428'
p4125
sg16
g4119
ssS'Salvia_aethiopis'
p4126
(dp4127
g4
I9
sg5
S'Lamiaceae'
p4128
sg7
I4326
sg8
S'81'
p4129
sg10
S'shape'
p4130
sg12
S'Thu Jan 29 02:10:05 2015'
p4131
sg14
S'5665247'
p4132
sg16
g4126
ssS'Philadelphus_californicus'
p4133
(dp4134
g4
I9
sg5
S'Hydrangeaceae'
p4135
sg7
I4326
sg8
S'27'
p4136
sg10
S'shape'
p4137
sg12
S'Thu Jan 29 00:21:02 2015'
p4138
sg14
S'5682408'
p4139
sg16
g4133
ssS'Ajuga_reptans'
p4140
(dp4141
g4
I9
sg5
S'Lamiaceae'
p4142
sg7
I4326
sg8
S'265'
p4143
sg10
S'shape'
p4144
sg12
S'Wed Jan 28 16:49:17 2015'
p4145
sg14
S'5665254'
p4146
sg16
g4140
ssS'Carya_floridana'
p4147
(dp4148
g4
I9
sg5
S'Juglandaceae'
p4149
sg7
I4326
sg8
S'33'
p4150
sg10
S'shape'
p4151
sg12
S'Wed Jan 28 18:11:29 2015'
p4152
sg14
S'5681831'
p4153
sg16
g4147
ssS'Ribes_americanum'
p4154
(dp4155
g4
I9
sg5
S'Grossulariaceae'
p4156
sg7
I4326
sg8
S'927'
p4157
sg10
S'shape'
p4158
sg12
S'Thu Jan 29 01:46:55 2015'
p4159
sg14
S'5681859'
p4160
sg16
g4154
ssS'Litsea_aestivalis'
p4161
(dp4162
g4
I9
sg5
S'Lauraceae'
p4163
sg7
I4326
sg8
S'168'
p4164
sg10
S'shape'
p4165
sg12
S'Thu Jan 29 04:39:27 2015'
p4166
sg14
S'5681862'
p4167
sg16
g4161
ssS'Iris_cristata'
p4168
(dp4169
g4
I9
sg5
S'Iridaceae'
p4170
sg7
I4326
sg8
S'794'
p4171
sg10
S'shape'
p4172
sg12
S'Wed Jan 28 21:52:18 2015'
p4173
sg14
S'5681865'
p4174
sg16
g4168
ssS'Mentha_piperita'
p4175
(dp4176
g4
I9
sg5
S'Lamiaceae'
p4177
sg7
I4326
sg8
S'49'
p4178
sg10
S'shape'
p4179
sg12
S'Wed Jan 28 23:08:56 2015'
p4180
sg14
S'5665269'
p4181
sg16
g4175
ssS'Philadelphus_pubescens'
p4182
(dp4183
g4
I9
sg5
S'Hydrangeaceae'
p4184
sg7
I4326
sg8
S'88'
p4185
sg10
S'shape'
p4186
sg12
S'Thu Jan 29 00:30:46 2015'
p4187
sg14
S'5681987'
p4188
sg16
g4182
ssS'Sisyrinchium_campestre'
p4189
(dp4190
g4
I9
sg5
S'Iridaceae'
p4191
sg7
I4326
sg8
S'778'
p4192
sg10
S'shape'
p4193
sg12
S'Thu Jan 29 02:28:32 2015'
p4194
sg14
S'5682001'
p4195
sg16
g4189
ssS'Hyptis_alata'
p4196
(dp4197
g4
I9
sg5
S'Lamiaceae'
p4198
sg7
I4326
sg8
S'212'
p4199
sg10
S'shape'
p4200
sg12
S'Wed Jan 28 21:45:11 2015'
p4201
sg14
S'5665390'
p4202
sg16
g4196
ssS'Hypericum_concinnum'
p4203
(dp4204
g4
I9
sg5
S'Hypericaceae'
p4205
sg7
I4326
sg8
S'66'
p4206
sg10
S'shape'
p4207
sg12
S'Wed Jan 28 21:38:58 2015'
p4208
sg14
S'5671458'
p4209
sg16
g4203
ssS'Iris_prismatica'
p4210
(dp4211
g4
I9
sg5
S'Iridaceae'
p4212
sg7
I4326
sg8
S'151'
p4213
sg10
S'shape'
p4214
sg12
S'Wed Jan 28 21:53:13 2015'
p4215
sg14
S'5682110'
p4216
sg16
g4210
ssS'Salvia_engelmannii'
p4217
(dp4218
g4
I9
sg5
S'Lamiaceae'
p4219
sg7
I4326
sg8
S'28'
p4220
sg10
S'shape'
p4221
sg12
S'Thu Jan 29 02:02:44 2015'
p4222
sg14
S'5665422'
p4223
sg16
g4217
ssS'Hypericum_scouleri'
p4224
(dp4225
g4
I9
sg5
S'Hypericaceae'
p4226
sg7
I4326
sg8
S'592'
p4227
sg10
S'shape'
p4228
sg12
S'Wed Jan 28 21:43:04 2015'
p4229
sg14
S'5682178'
p4230
sg16
g4224
ssS'Monardella_macrantha'
p4231
(dp4232
g4
I9
sg5
S'Lamiaceae'
p4233
sg7
I4326
sg8
S'31'
p4234
sg10
S'shape'
p4235
sg12
S'Wed Jan 28 23:25:28 2015'
p4236
sg14
S'5665432'
p4237
sg16
g4231
ssS'Stachys_chamissonis'
p4238
(dp4239
g4
I9
sg5
S'Lamiaceae'
p4240
sg7
I4326
sg8
S'175'
p4241
sg10
S'shape'
p4242
sg12
S'Thu Jan 29 02:48:59 2015'
p4243
sg14
S'5665292'
p4244
sg16
g4238
ssS'Fothergilla_gardenii'
p4245
(dp4246
g4
I9
sg5
S'Hamamelidaceae'
p4247
sg7
I4326
sg8
S'75'
p4248
sg10
S'shape'
p4249
sg12
S'Wed Jan 28 20:55:24 2015'
p4250
sg14
S'5682243'
p4251
sg16
g4245
ssS'Persea_palustris'
p4252
(dp4253
g4
I9
sg5
S'Lauraceae'
p4254
sg7
I4326
sg8
S'2551'
p4255
sg10
S'shape'
p4256
sg12
S'Thu Jan 29 00:11:05 2015'
p4257
sg14
S'5682264'
p4258
sg16
g4252
ssS'Poliomintha_incana'
p4259
(dp4260
g4
I9
sg5
S'Lamiaceae'
p4261
sg7
I4326
sg8
S'232'
p4262
sg10
S'shape'
p4263
sg12
S'Thu Jan 29 01:02:24 2015'
p4264
sg14
S'5665297'
p4265
sg16
g4259
ssS'Stachys_cordata'
p4266
(dp4267
g4
I9
sg5
S'Lamiaceae'
p4268
sg7
I4326
sg8
S'114'
p4269
sg10
S'shape'
p4270
sg12
S'Thu Jan 29 02:49:27 2015'
p4271
sg14
S'5665478'
p4272
sg16
g4266
ssS'Juncus_brachycarpus'
p4273
(dp4274
g4
I9
sg5
S'Juncaceae'
p4275
sg7
I4326
sg8
S'435'
p4276
sg10
S'shape'
p4277
sg12
S'Wed Jan 28 22:01:21 2015'
p4278
sg14
S'5682305'
p4279
sg16
g4273
ssS'Nemastylis_geminiflora'
p4280
(dp4281
g4
I9
sg5
S'Iridaceae'
p4282
sg7
I4326
sg8
S'144'
p4283
sg10
S'shape'
p4284
sg12
S'Wed Jan 28 23:36:06 2015'
p4285
sg14
S'5674076'
p4286
sg16
g4280
ssS'Luzula_confusa'
p4287
(dp4288
g4
I9
sg5
S'Juncaceae'
p4289
sg7
I4326
sg8
S'292'
p4290
sg10
S'shape'
p4291
sg12
S'Wed Jan 28 22:49:34 2015'
p4292
sg14
S'5682328'
p4293
sg16
g4287
ssS'Scutellaria_resinosa'
p4294
(dp4295
g4
I9
sg5
S'Lamiaceae'
p4296
sg7
I4326
sg8
S'142'
p4297
sg10
S'shape'
p4298
sg12
S'Thu Jan 29 02:17:35 2015'
p4299
sg14
S'5665566'
p4300
sg16
g4294
ssS'Luzula_multiflora'
p4301
(dp4302
g4
I9
sg5
S'Juncaceae'
p4303
sg7
I4326
sg8
S'1538'
p4304
sg10
S'shape'
p4305
sg12
S'Wed Jan 28 22:51:54 2015'
p4306
sg14
S'5673806'
p4307
sg16
g4301
ssS'Mosla_dianthera'
p4308
(dp4309
g4
I9
sg5
S'Lamiaceae'
p4310
sg7
I4326
sg8
S'24'
p4311
sg10
S'shape'
p4312
sg12
S'Thu Jan 29 01:19:40 2015'
p4313
sg14
S'5665568'
p4314
sg16
g4308
ssS'Monarda_citriodora'
p4315
(dp4316
g4
I9
sg5
S'Lamiaceae'
p4317
sg7
I4326
sg8
S'823'
p4318
sg10
S'shape'
p4319
sg12
S'Wed Jan 28 23:23:32 2015'
p4320
sg14
S'5665302'
p4321
sg16
g4315
ssS'Iris_tridentata'
p4322
(dp4323
g4
I9
sg5
S'Iridaceae'
p4324
sg7
I4326
sg8
S'125'
p4325
sg10
S'shape'
p4326
sg12
S'Wed Jan 28 21:53:44 2015'
p4327
sg14
S'5682414'
p4328
sg16
g4322
ssS'Thalassia_testudinum'
p4329
(dp4330
g4
I9
sg5
S'Hydrocharitaceae'
p4331
sg7
I4326
sg8
S'44'
p4332
sg10
S'shape'
p4333
sg12
S'Thu Jan 29 03:04:37 2015'
p4334
sg14
S'5671361'
p4335
sg16
g4329
ssS'Juncus_acutus'
p4336
(dp4337
g4
I9
sg5
S'Juncaceae'
p4338
sg7
I4326
sg8
S'61'
p4339
sg10
S'shape'
p4340
sg12
S'Wed Jan 28 21:59:21 2015'
p4341
sg14
S'5675281'
p4342
sg16
g4336
ssS'Pogogyne_serpylloides'
p4343
(dp4344
g4
I9
sg5
S'Lamiaceae'
p4345
sg7
I4326
sg8
S'28'
p4346
sg10
S'shape'
p4347
sg12
S'Thu Jan 29 01:07:23 2015'
p4348
sg14
S'5665300'
p4349
sg16
g4343
ssS'Juncus_compressus'
p4350
(dp4351
g4
I9
sg5
S'Juncaceae'
p4352
sg7
I4326
sg8
S'142'
p4353
sg10
S'shape'
p4354
sg12
S'Wed Jan 28 22:02:19 2015'
p4355
sg14
S'5682480'
p4356
sg16
g4350
ssS'Ribes_amarum'
p4357
(dp4358
g4
I9
sg5
S'Grossulariaceae'
p4359
sg7
I4326
sg8
S'27'
p4360
sg10
S'shape'
p4361
sg12
S'Thu Jan 29 01:46:52 2015'
p4362
sg14
S'5674083'
p4363
sg16
g4357
ss.