(dp1
S'Tetramerium_nervosum'
p2
(dp3
S'group'
p4
I1
sS'family'
p5
S'Acanthaceae'
p6
sS'epsgCode'
p7
I4326
sS'occurencesCount'
p8
S'574'
p9
sS'dataFormat'
p10
S'shape'
p11
sS'downloadedTime'
p12
S'Thu Jan 29 03:04:45 2015'
p13
sS'occurrenceID'
p14
S'5672142'
p15
sS'species'
p16
S'Tetramerium_nervosum'
p17
ssS'Anisacanthus_thurberi'
p18
(dp19
g4
I1
sg5
S'Acanthaceae'
p20
sg7
I4326
sg8
S'364'
p21
sg10
S'shape'
p22
sg12
S'Wed Jan 28 17:08:22 2015'
p23
sg14
S'5675300'
p24
sg16
S'Anisacanthus_thurberi'
p25
ssS'Eranthemum_pulchellum'
p26
(dp27
g4
I1
sg5
S'Acanthaceae'
p28
sg7
I4326
sg8
S'2'
sg10
S'shape'
p29
sg12
S'Wed Jan 28 20:39:18 2015'
p30
sg14
S'5670543'
p31
sg16
S'Eranthemum_pulchellum'
p32
ssS'Ruellia_pedunculata'
p33
(dp34
g4
I1
sg5
S'Acanthaceae'
p35
sg7
I4326
sg8
S'249'
p36
sg10
S'shape'
p37
sg12
S'Thu Jan 29 01:57:06 2015'
p38
sg14
S'5674561'
p39
sg16
S'Ruellia_pedunculata'
p40
ssS'Elytraria_caroliniensis'
p41
(dp42
g4
I1
sg5
S'Acanthaceae'
p43
sg7
I4326
sg8
S'58'
p44
sg10
S'shape'
p45
sg12
S'Thu Jan 29 05:11:46 2015'
p46
sg14
S'5676185'
p47
sg16
S'Elytraria_caroliniensis'
p48
ssS'Ruellia_simplex'
p49
(dp50
g4
I1
sg5
S'Acanthaceae'
p51
sg7
I4326
sg8
S'66'
p52
sg10
S'shape'
p53
sg12
S'Thu Jan 29 01:57:27 2015'
p54
sg14
S'5679783'
p55
sg16
S'Ruellia_simplex'
p56
ssS'Carlowrightia_texana'
p57
(dp58
g4
I1
sg5
S'Acanthaceae'
p59
sg7
I4326
sg8
S'25'
p60
sg10
S'shape'
p61
sg12
S'Wed Jan 28 18:35:27 2015'
p62
sg14
S'5677467'
p63
sg16
S'Carlowrightia_texana'
p64
ssS'Avicennia_germinans'
p65
(dp66
g4
I1
sg5
S'Acanthaceae'
p67
sg7
I4326
sg8
S'519'
p68
sg10
S'shape'
p69
sg12
S'Wed Jan 28 17:41:22 2015'
p70
sg14
S'5669851'
p71
sg16
S'Avicennia_germinans'
p72
ssS'Anisacanthus_puberulus'
p73
(dp74
g4
I1
sg5
S'Acanthaceae'
p75
sg7
I4326
sg8
S'9'
sg10
S'shape'
p76
sg12
S'Wed Jan 28 17:07:39 2015'
p77
sg14
S'5679927'
p78
sg16
S'Anisacanthus_puberulus'
p79
ssS'Justicia_sonorae'
p80
(dp81
g4
I1
sg5
S'Acanthaceae'
p82
sg7
I4326
sg8
S'6'
sg10
S'shape'
p83
sg12
S'Wed Jan 28 22:07:11 2015'
p84
sg14
S'5669509'
p85
sg16
S'Justicia_sonorae'
p86
ssS'Dicliptera_brachiata'
p87
(dp88
g4
I1
sg5
S'Acanthaceae'
p89
sg7
I4326
sg8
S'416'
p90
sg10
S'shape'
p91
sg12
S'Wed Jan 28 19:55:08 2015'
p92
sg14
S'5668248'
p93
sg16
S'Dicliptera_brachiata'
p94
ssS'Justicia_crassifolia'
p95
(dp96
g4
I1
sg5
S'Acanthaceae'
p97
sg7
I4326
sg8
S'8'
sg10
S'shape'
p98
sg12
S'Wed Jan 28 22:02:40 2015'
p99
sg14
S'5675982'
p100
sg16
S'Justicia_crassifolia'
p101
ssS'Ruellia_brevifolia'
p102
(dp103
g4
I1
sg5
S'Acanthaceae'
p104
sg7
I4326
sg8
S'18'
p105
sg10
S'shape'
p106
sg12
S'Thu Jan 29 01:58:16 2015'
p107
sg14
S'5672136'
p108
sg16
S'Ruellia_brevifolia'
p109
ssS'Justicia_candicans'
p110
(dp111
g4
I1
sg5
S'Acanthaceae'
p112
sg7
I4326
sg8
S'251'
p113
sg10
S'shape'
p114
sg12
S'Wed Jan 28 22:02:11 2015'
p115
sg14
S'5671912'
p116
sg16
S'Justicia_candicans'
p117
ssS'Acanthus_mollis'
p118
(dp119
g4
I1
sg5
S'Acanthaceae'
p120
sg7
I4326
sg8
S'4'
sg10
S'shape'
p121
sg12
S'Wed Jan 28 16:36:19 2015'
p122
sg14
S'5680933'
p123
sg16
S'Acanthus_mollis'
p124
ssS'Carlowrightia_parviflora'
p125
(dp126
g4
I1
sg5
S'Acanthaceae'
p127
sg7
I4326
sg8
S'45'
p128
sg10
S'shape'
p129
sg12
S'Wed Jan 28 18:24:56 2015'
p130
sg14
S'5679541'
p131
sg16
S'Carlowrightia_parviflora'
p132
ssS'Thunbergia_fragrans'
p133
(dp134
g4
I1
sg5
S'Acanthaceae'
p135
sg7
I4326
sg8
S'27'
p136
sg10
S'shape'
p137
sg12
S'Thu Jan 29 03:06:10 2015'
p138
sg14
S'5675341'
p139
sg16
S'Thunbergia_fragrans'
p140
ssS'Justicia_lanceolata'
p141
(dp142
g4
I1
sg5
S'Acanthaceae'
p143
sg7
I4326
sg8
S'45'
p144
sg10
S'shape'
p145
sg12
S'Thu Jan 29 05:25:29 2015'
p146
sg14
S'5674646'
p147
sg16
S'Justicia_lanceolata'
p148
ssS'Carlowrightia_serpyllifolia'
p149
(dp150
g4
I1
sg5
S'Acanthaceae'
p151
sg7
I4326
sg8
S'28'
p152
sg10
S'shape'
p153
sg12
S'Wed Jan 28 18:29:34 2015'
p154
sg14
S'5680720'
p155
sg16
S'Carlowrightia_serpyllifolia'
p156
ssS'Ruellia_strepens'
p157
(dp158
g4
I1
sg5
S'Acanthaceae'
p159
sg7
I4326
sg8
S'878'
p160
sg10
S'shape'
p161
sg12
S'Thu Jan 29 01:53:49 2015'
p162
sg14
S'5678337'
p163
sg16
S'Ruellia_strepens'
p164
ssS'Asystasia_gangetica'
p165
(dp166
g4
I1
sg5
S'Acanthaceae'
p167
sg7
I4326
sg8
S'10'
p168
sg10
S'shape'
p169
sg12
S'Wed Jan 28 17:24:10 2015'
p170
sg14
S'5668534'
p171
sg16
S'Asystasia_gangetica'
p172
ssS'Dicliptera_sexangularis'
p173
(dp174
g4
I1
sg5
S'Acanthaceae'
p175
sg7
I4326
sg8
S'187'
p176
sg10
S'shape'
p177
sg12
S'Wed Jan 28 19:58:13 2015'
p178
sg14
S'5674876'
p179
sg16
S'Dicliptera_sexangularis'
p180
ssS'Apassalus_humistratus'
p181
(dp182
g4
I1
sg5
S'Acanthaceae'
p183
sg7
I4326
sg8
S'38'
p184
sg10
S'shape'
p185
sg12
S'Thu Jan 29 05:11:09 2015'
p186
sg14
S'5668686'
p187
sg16
S'Apassalus_humistratus'
p188
ssS'Elytraria_imbricata'
p189
(dp190
g4
I1
sg5
S'Acanthaceae'
p191
sg7
I4326
sg8
S'618'
p192
sg10
S'shape'
p193
sg12
S'Wed Jan 28 20:11:58 2015'
p194
sg14
S'5678294'
p195
sg16
S'Elytraria_imbricata'
p196
ssS'Anisacanthus_linearis'
p197
(dp198
g4
I1
sg5
S'Acanthaceae'
p199
sg7
I4326
sg8
S'15'
p200
sg10
S'shape'
p201
sg12
S'Wed Jan 28 17:06:19 2015'
p202
sg14
S'5681189'
p203
sg16
S'Anisacanthus_linearis'
p204
ssS'Thunbergia_grandiflora'
p205
(dp206
g4
I1
sg5
S'Acanthaceae'
p207
sg7
I4326
sg8
S'8'
sg10
S'shape'
p208
sg12
S'Thu Jan 29 03:06:19 2015'
p209
sg14
S'5675367'
p210
sg16
S'Thunbergia_grandiflora'
p211
ssS'Yeatesia_viridiflora'
p212
(dp213
g4
I1
sg5
S'Acanthaceae'
p214
sg7
I4326
sg8
S'30'
p215
sg10
S'shape'
p216
sg12
S'Thu Jan 29 03:48:08 2015'
p217
sg14
S'5670470'
p218
sg16
S'Yeatesia_viridiflora'
p219
ssS'Yeatesia_platystegia'
p220
(dp221
g4
I1
sg5
S'Acanthaceae'
p222
sg7
I4326
sg8
S'11'
p223
sg10
S'shape'
p224
sg12
S'Thu Jan 29 03:48:07 2015'
p225
sg14
S'5668454'
p226
sg16
S'Yeatesia_platystegia'
p227
ssS'Justicia_americana'
p228
(dp229
g4
I1
sg5
S'Acanthaceae'
p230
sg7
I4326
sg8
S'1135'
p231
sg10
S'shape'
p232
sg12
S'Wed Jan 28 22:07:14 2015'
p233
sg14
S'5680078'
p234
sg16
S'Justicia_americana'
p235
ssS'Carlowrightia_linearifolia'
p236
(dp237
g4
I1
sg5
S'Acanthaceae'
p238
sg7
I4326
sg8
S'52'
p239
sg10
S'shape'
p240
sg12
S'Wed Jan 28 18:05:26 2015'
p241
sg14
S'5672766'
p242
sg16
S'Carlowrightia_linearifolia'
p243
ssS'Barleria_cristata'
p244
(dp245
g4
I1
sg5
S'Acanthaceae'
p246
sg7
I4326
sg8
S'11'
p247
sg10
S'shape'
p248
sg12
S'Wed Jan 28 17:44:23 2015'
p249
sg14
S'5670362'
p250
sg16
S'Barleria_cristata'
p251
ssS'Ruellia_metziae'
p252
(dp253
g4
I1
sg5
S'Acanthaceae'
p254
sg7
I4326
sg8
S'23'
p255
sg10
S'shape'
p256
sg12
S'Thu Jan 29 01:53:59 2015'
p257
sg14
S'5674712'
p258
sg16
S'Ruellia_metziae'
p259
ssS'Anisacanthus_quadrifidus'
p260
(dp261
g4
I1
sg5
S'Acanthaceae'
p262
sg7
I4326
sg8
S'139'
p263
sg10
S'shape'
p264
sg12
S'Wed Jan 28 17:07:41 2015'
p265
sg14
S'5670089'
p266
sg16
S'Anisacanthus_quadrifidus'
p267
ssS'Stenandrium_dulce'
p268
(dp269
g4
I1
sg5
S'Acanthaceae'
p270
sg7
I4326
sg8
S'94'
p271
sg10
S'shape'
p272
sg12
S'Thu Jan 29 02:48:22 2015'
p273
sg14
S'5671460'
p274
sg16
S'Stenandrium_dulce'
p275
ssS'Hypoestes_phyllostachya'
p276
(dp277
g4
I1
sg5
S'Acanthaceae'
p278
sg7
I4326
sg8
S'13'
p279
sg10
S'shape'
p280
sg12
S'Wed Jan 28 21:41:40 2015'
p281
sg14
S'5676721'
p282
sg16
S'Hypoestes_phyllostachya'
p283
ssS'Justicia_carnea'
p284
(dp285
g4
I1
sg5
S'Acanthaceae'
p286
sg7
I4326
sg8
S'2'
sg10
S'shape'
p287
sg12
S'Wed Jan 28 22:02:20 2015'
p288
sg14
S'5676275'
p289
sg16
S'Justicia_carnea'
p290
ssS'Hygrophila_corymbosa'
p291
(dp292
g4
I1
sg5
S'Acanthaceae'
p293
sg7
I4326
sg8
S'1'
sg10
S'shape'
p294
sg12
S'Wed Jan 28 21:44:33 2015'
p295
sg14
S'5678997'
p296
sg16
S'Hygrophila_corymbosa'
p297
ssS'Ruellia_corzoi'
p298
(dp299
g4
I1
sg5
S'Acanthaceae'
p300
sg7
I4326
sg8
S'11'
p301
sg10
S'shape'
p302
sg12
S'Thu Jan 29 01:54:00 2015'
p303
sg14
S'5674402'
p304
sg16
S'Ruellia_corzoi'
p305
ssS'Justicia_longii'
p306
(dp307
g4
I1
sg5
S'Acanthaceae'
p308
sg7
I4326
sg8
S'127'
p309
sg10
S'shape'
p310
sg12
S'Thu Jan 29 05:25:52 2015'
p311
sg14
S'5681487'
p312
sg16
S'Justicia_longii'
p313
ssS'Dyschoriste_angusta'
p314
(dp315
g4
I1
sg5
S'Acanthaceae'
p316
sg7
I4326
sg8
S'12'
p317
sg10
S'shape'
p318
sg12
S'Wed Jan 28 20:07:43 2015'
p319
sg14
S'5666778'
p320
sg16
S'Dyschoriste_angusta'
p321
ssS'Justicia_pectoralis'
p322
(dp323
g4
I1
sg5
S'Acanthaceae'
p324
sg7
I4326
sg8
S'35'
p325
sg10
S'shape'
p326
sg12
S'Wed Jan 28 21:59:56 2015'
p327
sg14
S'5666523'
p328
sg16
S'Justicia_pectoralis'
p329
ssS'Justicia_spicigera'
p330
(dp331
g4
I1
sg5
S'Acanthaceae'
p332
sg7
I4326
sg8
S'145'
p333
sg10
S'shape'
p334
sg12
S'Wed Jan 28 22:07:59 2015'
p335
sg14
S'5676744'
p336
sg16
S'Justicia_spicigera'
p337
ssS'Ruellia_humilis'
p338
(dp339
g4
I1
sg5
S'Acanthaceae'
p340
sg7
I4326
sg8
S'1043'
p341
sg10
S'shape'
p342
sg12
S'Thu Jan 29 01:54:44 2015'
p343
sg14
S'5682203'
p344
sg16
S'Ruellia_humilis'
p345
ssS'Ruellia_caroliniensis'
p346
(dp347
g4
I1
sg5
S'Acanthaceae'
p348
sg7
I4326
sg8
S'1208'
p349
sg10
S'shape'
p350
sg12
S'Thu Jan 29 01:53:40 2015'
p351
sg14
S'5680343'
p352
sg16
S'Ruellia_caroliniensis'
p353
ssS'Dyschoriste_crenulata'
p354
(dp355
g4
I1
sg5
S'Acanthaceae'
p356
sg7
I4326
sg8
S'5'
sg10
S'shape'
p357
sg12
S'Wed Jan 28 20:07:25 2015'
p358
sg14
S'5669117'
p359
sg16
S'Dyschoriste_crenulata'
p360
ssS'Justicia_ovata'
p361
(dp362
g4
I1
sg5
S'Acanthaceae'
p363
sg7
I4326
sg8
S'318'
p364
sg10
S'shape'
p365
sg12
S'Wed Jan 28 22:05:24 2015'
p366
sg14
S'5667583'
p367
sg16
S'Justicia_ovata'
p368
ssS'Justicia_wrightii'
p369
(dp370
g4
I1
sg5
S'Acanthaceae'
p371
sg7
I4326
sg8
S'10'
p372
sg10
S'shape'
p373
sg12
S'Wed Jan 28 22:08:42 2015'
p374
sg14
S'5678358'
p375
sg16
S'Justicia_wrightii'
p376
ssS'Carlowrightia_parvifolia'
p377
(dp378
g4
I1
sg5
S'Acanthaceae'
p379
sg7
I4326
sg8
S'5'
sg10
S'shape'
p380
sg12
S'Wed Jan 28 18:29:22 2015'
p381
sg14
S'5667848'
p382
sg16
S'Carlowrightia_parvifolia'
p383
ssS'Hygrophila_costata'
p384
(dp385
g4
I1
sg5
S'Acanthaceae'
p386
sg7
I4326
sg8
S'24'
p387
sg10
S'shape'
p388
sg12
S'Wed Jan 28 21:45:04 2015'
p389
sg14
S'5681506'
p390
sg16
S'Hygrophila_costata'
p391
ssS'Justicia_cooleyi'
p392
(dp393
g4
I1
sg5
S'Acanthaceae'
p394
sg7
I4326
sg8
S'6'
sg10
S'shape'
p395
sg12
S'Wed Jan 28 22:01:51 2015'
p396
sg14
S'5677444'
p397
sg16
S'Justicia_cooleyi'
p398
ssS'Dyschoriste_oblongifolia'
p399
(dp400
g4
I1
sg5
S'Acanthaceae'
p401
sg7
I4326
sg8
S'228'
p402
sg10
S'shape'
p403
sg12
S'Wed Jan 28 20:07:41 2015'
p404
sg14
S'5668625'
p405
sg16
S'Dyschoriste_oblongifolia'
p406
ssS'Justicia_californica'
p407
(dp408
g4
I1
sg5
S'Acanthaceae'
p409
sg7
I4326
sg8
S'344'
p410
sg10
S'shape'
p411
sg12
S'Thu Jan 29 04:43:48 2015'
p412
sg14
S'5675437'
p413
sg16
S'Justicia_californica'
p414
ssS'Ruellia_nudiflora'
p415
(dp416
g4
I1
sg5
S'Acanthaceae'
p417
sg7
I4326
sg8
S'482'
p418
sg10
S'shape'
p419
sg12
S'Thu Jan 29 01:56:37 2015'
p420
sg14
S'5673333'
p421
sg16
S'Ruellia_nudiflora'
p422
ssS'Thunbergia_alata'
p423
(dp424
g4
I1
sg5
S'Acanthaceae'
p425
sg7
I4326
sg8
S'92'
p426
sg10
S'shape'
p427
sg12
S'Thu Jan 29 03:07:46 2015'
p428
sg14
S'5666800'
p429
sg16
S'Thunbergia_alata'
p430
ssS'Stenandrium_barbatum'
p431
(dp432
g4
I1
sg5
S'Acanthaceae'
p433
sg7
I4326
sg8
S'42'
p434
sg10
S'shape'
p435
sg12
S'Thu Jan 29 02:54:20 2015'
p436
sg14
S'5671786'
p437
sg16
S'Stenandrium_barbatum'
p438
ssS'Justicia_warnockii'
p439
(dp440
g4
I1
sg5
S'Acanthaceae'
p441
sg7
I4326
sg8
S'4'
sg10
S'shape'
p442
sg12
S'Wed Jan 28 22:08:35 2015'
p443
sg14
S'5670686'
p444
sg16
S'Justicia_warnockii'
p445
ssS'Blechum_pyramidatum'
p446
(dp447
g4
I1
sg5
S'Acanthaceae'
p448
sg7
I4326
sg8
S'430'
p449
sg10
S'shape'
p450
sg12
S'Wed Jan 28 17:50:48 2015'
p451
sg14
S'5677699'
p452
sg16
S'Blechum_pyramidatum'
p453
ssS'Aphelandra_aurantiaca'
p454
(dp455
g4
I1
sg5
S'Acanthaceae'
p456
sg7
I4326
sg8
S'125'
p457
sg10
S'shape'
p458
sg12
S'Thu Jan 29 03:51:10 2015'
p459
sg14
S'5675877'
p460
sg16
S'Aphelandra_aurantiaca'
p461
ssS'Carlowrightia_arizonica'
p462
(dp463
g4
I1
sg5
S'Acanthaceae'
p464
sg7
I4326
sg8
S'366'
p465
sg10
S'shape'
p466
sg12
S'Wed Jan 28 18:40:35 2015'
p467
sg14
S'5676765'
p468
sg16
S'Carlowrightia_arizonica'
p469
ssS'Elytraria_bromoides'
p470
(dp471
g4
I1
sg5
S'Acanthaceae'
p472
sg7
I4326
sg8
S'94'
p473
sg10
S'shape'
p474
sg12
S'Wed Jan 28 20:15:42 2015'
p475
sg14
S'5671753'
p476
sg16
S'Elytraria_bromoides'
p477
ssS'Sanchezia_parvibracteata'
p478
(dp479
g4
I1
sg5
S'Acanthaceae'
p480
sg7
I4326
sg8
S'1'
sg10
S'shape'
p481
sg12
S'Thu Jan 29 04:32:06 2015'
p482
sg14
S'5673402'
p483
sg16
S'Sanchezia_parvibracteata'
p484
ssS'Ruellia_parryi'
p485
(dp486
g4
I1
sg5
S'Acanthaceae'
p487
sg7
I4326
sg8
S'36'
p488
sg10
S'shape'
p489
sg12
S'Thu Jan 29 01:56:45 2015'
p490
sg14
S'5671013'
p491
sg16
S'Ruellia_parryi'
p492
ssS'Dyschoriste_schiedeana'
p493
(dp494
g4
I1
sg5
S'Acanthaceae'
p495
sg7
I4326
sg8
S'331'
p496
sg10
S'shape'
p497
sg12
S'Wed Jan 28 20:07:28 2015'
p498
sg14
S'5673243'
p499
sg16
S'Dyschoriste_schiedeana'
p500
ssS'Justicia_turneri'
p501
(dp502
g4
I1
sg5
S'Acanthaceae'
p503
sg7
I4326
sg8
S'17'
p504
sg10
S'shape'
p505
sg12
S'Wed Jan 28 22:08:03 2015'
p506
sg14
S'5668631'
p507
sg16
S'Justicia_turneri'
p508
ssS'Dyschoriste_linearis'
p509
(dp510
g4
I1
sg5
S'Acanthaceae'
p511
sg7
I4326
sg8
S'104'
p512
sg10
S'shape'
p513
sg12
S'Wed Jan 28 20:07:35 2015'
p514
sg14
S'5671213'
p515
sg16
S'Dyschoriste_linearis'
p516
ssS'Graptophyllum_pictum'
p517
(dp518
g4
I1
sg5
S'Acanthaceae'
p519
sg7
I4326
sg8
S'8'
sg10
S'shape'
p520
sg12
S'Wed Jan 28 21:14:57 2015'
p521
sg14
S'5682002'
p522
sg16
S'Graptophyllum_pictum'
p523
ssS'Ruellia_occidentalis'
p524
(dp525
g4
I1
sg5
S'Acanthaceae'
p526
sg7
I4326
sg8
S'65'
p527
sg10
S'shape'
p528
sg12
S'Thu Jan 29 01:54:51 2015'
p529
sg14
S'5671772'
p530
sg16
S'Ruellia_occidentalis'
p531
ssS'Justicia_pilosella'
p532
(dp533
g4
I1
sg5
S'Acanthaceae'
p534
sg7
I4326
sg8
S'94'
p535
sg10
S'shape'
p536
sg12
S'Wed Jan 28 22:07:03 2015'
p537
sg14
S'5679476'
p538
sg16
S'Justicia_pilosella'
p539
ssS'Avicennia_marina'
p540
(dp541
g4
I1
sg5
S'Acanthaceae'
p542
sg7
I4326
sg8
S'2'
sg10
S'shape'
p543
sg12
S'Wed Jan 28 17:41:02 2015'
p544
sg14
S'5682235'
p545
sg16
S'Avicennia_marina'
p546
ssS'Ruellia_drushelii'
p547
(dp548
g4
I1
sg5
S'Acanthaceae'
p549
sg7
I4326
sg8
S'1'
sg10
S'shape'
p550
sg12
S'Thu Jan 29 05:49:00 2015'
p551
sg14
S'5681071'
p552
sg16
S'Ruellia_drushelii'
p553
ssS'Carlowrightia_mexicana'
p554
(dp555
g4
I1
sg5
S'Acanthaceae'
p556
sg7
I4326
sg8
S'5'
sg10
S'shape'
p557
sg12
S'Wed Jan 28 18:23:18 2015'
p558
sg14
S'5666807'
p559
sg16
S'Carlowrightia_mexicana'
p560
ssS'Ruellia_noctiflora'
p561
(dp562
g4
I1
sg5
S'Acanthaceae'
p563
sg7
I4326
sg8
S'25'
p564
sg10
S'shape'
p565
sg12
S'Thu Jan 29 01:56:07 2015'
p566
sg14
S'5666599'
p567
sg16
S'Ruellia_noctiflora'
p568
ssS'Nelsonia_canescens'
p569
(dp570
g4
I1
sg5
S'Acanthaceae'
p571
sg7
I4326
sg8
S'2'
sg10
S'shape'
p572
sg12
S'Wed Jan 28 23:36:07 2015'
p573
sg14
S'5679081'
p574
sg16
S'Nelsonia_canescens'
p575
ssS'Justicia_angusta'
p576
(dp577
g4
I1
sg5
S'Acanthaceae'
p578
sg7
I4326
sg8
S'37'
p579
sg10
S'shape'
p580
sg12
S'Wed Jan 28 21:59:47 2015'
p581
sg14
S'5668679'
p582
sg16
S'Justicia_angusta'
p583
ssS'Odontonema_cuspidatum'
p584
(dp585
g4
I1
sg5
S'Acanthaceae'
p586
sg7
I4326
sg8
S'69'
p587
sg10
S'shape'
p588
sg12
S'Thu Jan 29 05:36:17 2015'
p589
sg14
S'5677516'
p590
sg16
S'Odontonema_cuspidatum'
p591
ssS'Ruellia_drummondiana'
p592
(dp593
g4
I1
sg5
S'Acanthaceae'
p594
sg7
I4326
sg8
S'36'
p595
sg10
S'shape'
p596
sg12
S'Thu Jan 29 05:48:46 2015'
p597
sg14
S'5682271'
p598
sg16
S'Ruellia_drummondiana'
p599
ssS'Hemigraphis_reptans'
p600
(dp601
g4
I1
sg5
S'Acanthaceae'
p602
sg7
I4326
sg8
S'1'
sg10
S'shape'
p603
sg12
S'Wed Jan 28 21:24:50 2015'
p604
sg14
S'5673147'
p605
sg16
S'Hemigraphis_reptans'
p606
ssS'Ruellia_purshiana'
p607
(dp608
g4
I1
sg5
S'Acanthaceae'
p609
sg7
I4326
sg8
S'52'
p610
sg10
S'shape'
p611
sg12
S'Thu Jan 29 01:57:17 2015'
p612
sg14
S'5682276'
p613
sg16
S'Ruellia_purshiana'
p614
ssS'Henrya_insularis'
p615
(dp616
g4
I1
sg5
S'Acanthaceae'
p617
sg7
I4326
sg8
S'310'
p618
sg10
S'shape'
p619
sg12
S'Thu Jan 29 04:23:00 2015'
p620
sg14
S'5677058'
p621
sg16
S'Henrya_insularis'
p622
ssS'Pseuderanthemum_variabile'
p623
(dp624
g4
I1
sg5
S'Acanthaceae'
p625
sg7
I4326
sg8
S'2'
sg10
S'shape'
p626
sg12
S'Thu Jan 29 01:20:53 2015'
p627
sg14
S'5673301'
p628
sg16
S'Pseuderanthemum_variabile'
p629
ssS'Hygrophila_polysperma'
p630
(dp631
g4
I1
sg5
S'Acanthaceae'
p632
sg7
I4326
sg8
S'24'
p633
sg10
S'shape'
p634
sg12
S'Wed Jan 28 21:39:14 2015'
p635
sg14
S'5671722'
p636
sg16
S'Hygrophila_polysperma'
p637
ssS'Carlowrightia_torreyana'
p638
(dp639
g4
I1
sg5
S'Acanthaceae'
p640
sg7
I4326
sg8
S'11'
p641
sg10
S'shape'
p642
sg12
S'Wed Jan 28 18:37:57 2015'
p643
sg14
S'5681579'
p644
sg16
S'Carlowrightia_torreyana'
p645
ssS'Dicliptera_resupinata'
p646
(dp647
g4
I1
sg5
S'Acanthaceae'
p648
sg7
I4326
sg8
S'284'
p649
sg10
S'shape'
p650
sg12
S'Wed Jan 28 19:54:28 2015'
p651
sg14
S'5675920'
p652
sg16
S'Dicliptera_resupinata'
p653
ssS'Ruellia_davisiorum'
p654
(dp655
g4
I1
sg5
S'Acanthaceae'
p656
sg7
I4326
sg8
S'2'
sg10
S'shape'
p657
sg12
S'Thu Jan 29 01:54:18 2015'
p658
sg14
S'5669022'
p659
sg16
S'Ruellia_davisiorum'
p660
ssS'Justicia_brandegeeana'
p661
(dp662
g4
I1
sg5
S'Acanthaceae'
p663
sg7
I4326
sg8
S'45'
p664
sg10
S'shape'
p665
sg12
S'Wed Jan 28 21:59:44 2015'
p666
sg14
S'5676854'
p667
sg16
S'Justicia_brandegeeana'
p668
ssS'Thunbergia_erecta'
p669
(dp670
g4
I1
sg5
S'Acanthaceae'
p671
sg7
I4326
sg8
S'3'
sg10
S'shape'
p672
sg12
S'Thu Jan 29 03:05:06 2015'
p673
sg14
S'5675051'
p674
sg16
S'Thunbergia_erecta'
p675
ss.