(dp1
S'Lantana_achyranthifolia'
p2
(dp3
S'group'
p4
I18
sS'family'
p5
S'Verbenaceae'
p6
sS'epsgCode'
p7
I4326
sS'occurencesCount'
p8
S'324'
p9
sS'dataFormat'
p10
S'shape'
p11
sS'downloadedTime'
p12
S'Wed Jan 28 22:18:25 2015'
p13
sS'occurrenceID'
p14
S'5665771'
p15
sS'species'
p16
g2
ssS'Urtica_urens'
p17
(dp18
g4
I18
sg5
S'Urticaceae'
p19
sg7
I4326
sg8
S'148'
p20
sg10
S'shape'
p21
sg12
S'Thu Jan 29 03:27:53 2015'
p22
sg14
S'5665792'
p23
sg16
g17
ssS'Viola_nuttallii'
p24
(dp25
g4
I18
sg5
S'Violaceae'
p26
sg7
I4326
sg8
S'544'
p27
sg10
S'shape'
p28
sg12
S'Thu Jan 29 03:41:12 2015'
p29
sg14
S'5665812'
p30
sg16
g24
ssS'Verbena_hastata'
p31
(dp32
g4
I18
sg5
S'Verbenaceae'
p33
sg7
I4326
sg8
S'1753'
p34
sg10
S'shape'
p35
sg12
S'Thu Jan 29 03:34:35 2015'
p36
sg14
S'5665833'
p37
sg16
g31
ssS'Stachytarpheta_jamaicensis'
p38
(dp39
g4
I18
sg5
S'Verbenaceae'
p40
sg7
I4326
sg8
S'102'
p41
sg10
S'shape'
p42
sg12
S'Thu Jan 29 04:33:56 2015'
p43
sg14
S'5665940'
p44
sg16
g38
ssS'Kallstroemia_maxima'
p45
(dp46
g4
I18
sg5
S'Zygophyllaceae'
p47
sg7
I4326
sg8
S'278'
p48
sg10
S'shape'
p49
sg12
S'Wed Jan 28 22:09:07 2015'
p50
sg14
S'5682516'
p51
sg16
g45
ssS'Hesperocnide_tenella'
p52
(dp53
g4
I18
sg5
S'Urticaceae'
p54
sg7
I4326
sg8
S'51'
p55
sg10
S'shape'
p56
sg12
S'Wed Jan 28 21:21:54 2015'
p57
sg14
S'5666106'
p58
sg16
g52
ssS'Xyris_torta'
p59
(dp60
g4
I18
sg5
S'Xyridaceae'
p61
sg7
I4326
sg8
S'379'
p62
sg10
S'shape'
p63
sg12
S'Thu Jan 29 03:47:59 2015'
p64
sg14
S'5666145'
p65
sg16
g59
ssS'Viola_howellii'
p66
(dp67
g4
I18
sg5
S'Violaceae'
p68
sg7
I4326
sg8
S'69'
p69
sg10
S'shape'
p70
sg12
S'Thu Jan 29 03:39:46 2015'
p71
sg14
S'5666180'
p72
sg16
g66
ssS'Kallstroemia_hirsutissima'
p73
(dp74
g4
I18
sg5
S'Zygophyllaceae'
p75
sg7
I4326
sg8
S'82'
p76
sg10
S'shape'
p77
sg12
S'Wed Jan 28 22:09:04 2015'
p78
sg14
S'5666323'
p79
sg16
g73
ssS'Xyris_flabelliformis'
p80
(dp81
g4
I18
sg5
S'Xyridaceae'
p82
sg7
I4326
sg8
S'91'
p83
sg10
S'shape'
p84
sg12
S'Thu Jan 29 03:47:29 2015'
p85
sg14
S'5669938'
p86
sg16
g80
ssS'Xyris_smalliana'
p87
(dp88
g4
I18
sg5
S'Xyridaceae'
p89
sg7
I4326
sg8
S'162'
p90
sg10
S'shape'
p91
sg12
S'Thu Jan 29 03:47:53 2015'
p92
sg14
S'5666369'
p93
sg16
g87
ssS'Xyris_brevifolia'
p94
(dp95
g4
I18
sg5
S'Xyridaceae'
p96
sg7
I4326
sg8
S'34'
p97
sg10
S'shape'
p98
sg12
S'Thu Jan 29 03:47:09 2015'
p99
sg14
S'5670475'
p100
sg16
g94
ssS'Kallstroemia_pubescens'
p101
(dp102
g4
I18
sg5
S'Zygophyllaceae'
p103
sg7
I4326
sg8
S'55'
p104
sg10
S'shape'
p105
sg12
S'Wed Jan 28 22:09:34 2015'
p106
sg14
S'5666465'
p107
sg16
g101
ssS'Typha_angustifolia'
p108
(dp109
g4
I18
sg5
S'Typhaceae'
p110
sg7
I4326
sg8
S'1278'
p111
sg10
S'shape'
p112
sg12
S'Thu Jan 29 03:25:36 2015'
p113
sg14
S'5670795'
p114
sg16
g108
ssS'Viola_renifolia'
p115
(dp116
g4
I18
sg5
S'Violaceae'
p117
sg7
I4326
sg8
S'457'
p118
sg10
S'shape'
p119
sg12
S'Thu Jan 29 03:37:55 2015'
p120
sg14
S'5666719'
p121
sg16
g115
ssS'Aloe_vera'
p122
(dp123
g4
I18
sg5
S'Xanthorrhoeaceae'
p124
sg7
I4326
sg8
S'49'
p125
sg10
S'shape'
p126
sg12
S'Wed Jan 28 16:56:50 2015'
p127
sg14
S'5666824'
p128
sg16
g122
ssS'Xyris_difformis'
p129
(dp130
g4
I18
sg5
S'Xyridaceae'
p131
sg7
I4326
sg8
S'469'
p132
sg10
S'shape'
p133
sg12
S'Thu Jan 29 03:47:21 2015'
p134
sg14
S'5666839'
p135
sg16
g129
ssS'Verbena_lasiostachys'
p136
(dp137
g4
I18
sg5
S'Verbenaceae'
p138
sg7
I4326
sg8
S'224'
p139
sg10
S'shape'
p140
sg12
S'Thu Jan 29 06:02:46 2015'
p141
sg14
S'5666866'
p142
sg16
g136
ssS'Hybanthus_concolor'
p143
(dp144
g4
I18
sg5
S'Violaceae'
p145
sg7
I4326
sg8
S'751'
p146
sg10
S'shape'
p147
sg12
S'Wed Jan 28 21:42:30 2015'
p148
sg14
S'5666972'
p149
sg16
g143
ssS'Sparganium_androcladum'
p150
(dp151
g4
I18
sg5
S'Typhaceae'
p152
sg7
I4326
sg8
S'210'
p153
sg10
S'shape'
p154
sg12
S'Thu Jan 29 02:41:43 2015'
p155
sg14
S'5676140'
p156
sg16
g150
ssS'Viola_utahensis'
p157
(dp158
g4
I18
sg5
S'Violaceae'
p159
sg7
I4326
sg8
S'115'
p160
sg10
S'shape'
p161
sg12
S'Thu Jan 29 03:43:30 2015'
p162
sg14
S'5669722'
p163
sg16
g157
ssS'Xyris_scabrifolia'
p164
(dp165
g4
I18
sg5
S'Xyridaceae'
p166
sg7
I4326
sg8
S'50'
p167
sg10
S'shape'
p168
sg12
S'Thu Jan 29 03:47:52 2015'
p169
sg14
S'5667193'
p170
sg16
g164
ssS'Kallstroemia_grandiflora'
p171
(dp172
g4
I18
sg5
S'Zygophyllaceae'
p173
sg7
I4326
sg8
S'387'
p174
sg10
S'shape'
p175
sg12
S'Wed Jan 28 22:08:52 2015'
p176
sg14
S'5667245'
p177
sg16
g171
ssS'Viola_striata'
p178
(dp179
g4
I18
sg5
S'Violaceae'
p180
sg7
I4326
sg8
S'949'
p181
sg10
S'shape'
p182
sg12
S'Thu Jan 29 04:35:55 2015'
p183
sg14
S'5673857'
p184
sg16
g178
ssS'Viola_trinervata'
p185
(dp186
g4
I18
sg5
S'Violaceae'
p187
sg7
I4326
sg8
S'39'
p188
sg10
S'shape'
p189
sg12
S'Thu Jan 29 03:37:51 2015'
p190
sg14
S'5673246'
p191
sg16
g185
ssS'Lantana_involucrata'
p192
(dp193
g4
I18
sg5
S'Verbenaceae'
p194
sg7
I4326
sg8
S'106'
p195
sg10
S'shape'
p196
sg12
S'Wed Jan 28 22:14:09 2015'
p197
sg14
S'5667327'
p198
sg16
g192
ssS'Viola_arvensis'
p199
(dp200
g4
I18
sg5
S'Violaceae'
p201
sg7
I4326
sg8
S'323'
p202
sg10
S'shape'
p203
sg12
S'Thu Jan 29 03:37:25 2015'
p204
sg14
S'5667406'
p205
sg16
g199
ssS'Glandularia_bipinnatifida'
p206
(dp207
g4
I18
sg5
S'Verbenaceae'
p208
sg7
I4326
sg8
S'1242'
p209
sg10
S'shape'
p210
sg12
S'Wed Jan 28 21:13:34 2015'
p211
sg14
S'5667439'
p212
sg16
g206
ssS'Glandularia_gooddingii'
p213
(dp214
g4
I18
sg5
S'Verbenaceae'
p215
sg7
I4326
sg8
S'434'
p216
sg10
S'shape'
p217
sg12
S'Wed Jan 28 21:11:07 2015'
p218
sg14
S'5667503'
p219
sg16
g213
ssS'Parietaria_floridana'
p220
(dp221
g4
I18
sg5
S'Urticaceae'
p222
sg7
I4326
sg8
S'93'
p223
sg10
S'shape'
p224
sg12
S'Thu Jan 29 00:03:27 2015'
p225
sg14
S'5667536'
p226
sg16
g220
ssS'Vitis_mustangensis'
p227
(dp228
g4
I18
sg5
S'Vitaceae'
p229
sg7
I4326
sg8
S'167'
p230
sg10
S'shape'
p231
sg12
S'Thu Jan 29 03:40:57 2015'
p232
sg14
S'5667592'
p233
sg16
g227
ssS'Stachytarpheta_cayennensis'
p234
(dp235
g4
I18
sg5
S'Verbenaceae'
p236
sg7
I4326
sg8
S'26'
p237
sg10
S'shape'
p238
sg12
S'Thu Jan 29 02:48:21 2015'
p239
sg14
S'5680350'
p240
sg16
g234
ssS'Woodsia_ilvensis'
p241
(dp242
g4
I18
sg5
S'Woodsiaceae'
p243
sg7
I4326
sg8
S'797'
p244
sg10
S'shape'
p245
sg12
S'Thu Jan 29 03:45:43 2015'
p246
sg14
S'5667652'
p247
sg16
g241
ssS'Cecropia_obtusifolia'
p248
(dp249
g4
I18
sg5
S'Urticaceae'
p250
sg7
I4326
sg8
S'191'
p251
sg10
S'shape'
p252
sg12
S'Wed Jan 28 18:48:23 2015'
p253
sg14
S'5667774'
p254
sg16
g248
ssS'Verbena_simplex'
p255
(dp256
g4
I18
sg5
S'Verbenaceae'
p257
sg7
I4326
sg8
S'842'
p258
sg10
S'shape'
p259
sg12
S'Thu Jan 29 03:36:14 2015'
p260
sg14
S'5673996'
p261
sg16
g255
ssS'Ulmus_parvifolia'
p262
(dp263
g4
I18
sg5
S'Ulmaceae'
p264
sg7
I4326
sg8
S'45'
p265
sg10
S'shape'
p266
sg12
S'Thu Jan 29 03:26:50 2015'
p267
sg14
S'5668183'
p268
sg16
g262
ssS'Viola_orbiculata'
p269
(dp270
g4
I18
sg5
S'Violaceae'
p271
sg7
I4326
sg8
S'1442'
p272
sg10
S'shape'
p273
sg12
S'Thu Jan 29 03:41:31 2015'
p274
sg14
S'5674079'
p275
sg16
g269
ssS'Typha_latifolia'
p276
(dp277
g4
I18
sg5
S'Typhaceae'
p278
sg7
I4326
sg8
S'2812'
p279
sg10
S'shape'
p280
sg12
S'Thu Jan 29 03:26:00 2015'
p281
sg14
S'5666702'
p282
sg16
g276
ssS'Vitis_arizonica'
p283
(dp284
g4
I18
sg5
S'Vitaceae'
p285
sg7
I4326
sg8
S'466'
p286
sg10
S'shape'
p287
sg12
S'Thu Jan 29 03:37:31 2015'
p288
sg14
S'5668598'
p289
sg16
g283
ssS'Xyris_stricta'
p290
(dp291
g4
I18
sg5
S'Xyridaceae'
p292
sg7
I4326
sg8
S'91'
p293
sg10
S'shape'
p294
sg12
S'Thu Jan 29 03:47:57 2015'
p295
sg14
S'5670225'
p296
sg16
g290
ssS'Viola_bakeri'
p297
(dp298
g4
I18
sg5
S'Violaceae'
p299
sg7
I4326
sg8
S'93'
p300
sg10
S'shape'
p301
sg12
S'Thu Jan 29 03:37:46 2015'
p302
sg14
S'5668718'
p303
sg16
g297
ssS'Ulmus_rubra'
p304
(dp305
g4
I18
sg5
S'Ulmaceae'
p306
sg7
I4326
sg8
S'32902'
p307
sg10
S'shape'
p308
sg12
S'Thu Jan 29 03:26:49 2015'
p309
sg14
S'5668838'
p310
sg16
g304
ssS'Citharexylum_berlandieri'
p311
(dp312
g4
I18
sg5
S'Verbenaceae'
p313
sg7
I4326
sg8
S'94'
p314
sg10
S'shape'
p315
sg12
S'Wed Jan 28 19:01:48 2015'
p316
sg14
S'5669473'
p317
sg16
g311
ssS'Ulmus_glabra'
p318
(dp319
g4
I18
sg5
S'Ulmaceae'
p320
sg7
I4326
sg8
S'66'
p321
sg10
S'shape'
p322
sg12
S'Thu Jan 29 03:26:27 2015'
p323
sg14
S'5674143'
p324
sg16
g318
ssS'Vitis_vulpina'
p325
(dp326
g4
I18
sg5
S'Vitaceae'
p327
sg7
I4326
sg8
S'2928'
p328
sg10
S'shape'
p329
sg12
S'Thu Jan 29 03:43:50 2015'
p330
sg14
S'5669212'
p331
sg16
g325
ssS'Guaiacum_sanctum'
p332
(dp333
g4
I18
sg5
S'Zygophyllaceae'
p334
sg7
I4326
sg8
S'85'
p335
sg10
S'shape'
p336
sg12
S'Wed Jan 28 21:15:31 2015'
p337
sg14
S'5669302'
p338
sg16
g332
ssS'Verbena_halei'
p339
(dp340
g4
I18
sg5
S'Verbenaceae'
p341
sg7
I4326
sg8
S'335'
p342
sg10
S'shape'
p343
sg12
S'Thu Jan 29 03:34:30 2015'
p344
sg14
S'5669320'
p345
sg16
g339
ssS'Hemerocallis_lilioasphodelus'
p346
(dp347
g4
I18
sg5
S'Xanthorrhoeaceae'
p348
sg7
I4326
sg8
S'52'
p349
sg10
S'shape'
p350
sg12
S'Wed Jan 28 21:20:33 2015'
p351
sg14
S'5669322'
p352
sg16
g346
ssS'Lantana_camara'
p353
(dp354
g4
I18
sg5
S'Verbenaceae'
p355
sg7
I4326
sg8
S'1308'
p356
sg10
S'shape'
p357
sg12
S'Wed Jan 28 22:12:23 2015'
p358
sg14
S'5669651'
p359
sg16
g353
ssS'Viola_palustris'
p360
(dp361
g4
I18
sg5
S'Violaceae'
p362
sg7
I4326
sg8
S'228'
p363
sg10
S'shape'
p364
sg12
S'Thu Jan 29 03:41:45 2015'
p365
sg14
S'5669696'
p366
sg16
g360
ssS'Tofieldia_pusilla'
p367
(dp368
g4
I18
sg5
S'Tofieldiaceae'
p369
sg7
I4326
sg8
S'284'
p370
sg10
S'shape'
p371
sg12
S'Thu Jan 29 03:12:04 2015'
p372
sg14
S'5669746'
p373
sg16
g367
ssS'Verbena_carnea'
p374
(dp375
g4
I18
sg5
S'Verbenaceae'
p376
sg7
I4326
sg8
S'153'
p377
sg10
S'shape'
p378
sg12
S'Thu Jan 29 03:33:32 2015'
p379
sg14
S'5669792'
p380
sg16
g374
ssS'Citharexylum_caudatum'
p381
(dp382
g4
I18
sg5
S'Verbenaceae'
p383
sg7
I4326
sg8
S'71'
p384
sg10
S'shape'
p385
sg12
S'Wed Jan 28 18:59:03 2015'
p386
sg14
S'5669862'
p387
sg16
g381
ssS'Ampelopsis_cordata'
p388
(dp389
g4
I18
sg5
S'Vitaceae'
p390
sg7
I4326
sg8
S'810'
p391
sg10
S'shape'
p392
sg12
S'Wed Jan 28 16:57:17 2015'
p393
sg14
S'5678338'
p394
sg16
g388
ssS'Tofieldia_glabra'
p395
(dp396
g4
I18
sg5
S'Tofieldiaceae'
p397
sg7
I4326
sg8
S'33'
p398
sg10
S'shape'
p399
sg12
S'Thu Jan 29 03:11:37 2015'
p400
sg14
S'5671304'
p401
sg16
g395
ssS'Viola_vallicola'
p402
(dp403
g4
I18
sg5
S'Violaceae'
p404
sg7
I4326
sg8
S'281'
p405
sg10
S'shape'
p406
sg12
S'Thu Jan 29 03:43:35 2015'
p407
sg14
S'5670160'
p408
sg16
g402
ssS'Verbena_urticifolia'
p409
(dp410
g4
I18
sg5
S'Verbenaceae'
p411
sg7
I4326
sg8
S'1795'
p412
sg10
S'shape'
p413
sg12
S'Thu Jan 29 03:36:35 2015'
p414
sg14
S'5670320'
p415
sg16
g409
ssS'Vitis_labrusca'
p416
(dp417
g4
I18
sg5
S'Vitaceae'
p418
sg7
I4326
sg8
S'783'
p419
sg10
S'shape'
p420
sg12
S'Thu Jan 29 03:39:25 2015'
p421
sg14
S'5674375'
p422
sg16
g416
ssS'Parthenocissus_quinquefolia'
p423
(dp424
g4
I18
sg5
S'Vitaceae'
p425
sg7
I4326
sg8
S'8560'
p426
sg10
S'shape'
p427
sg12
S'Thu Jan 29 00:01:18 2015'
p428
sg14
S'5671112'
p429
sg16
g423
ssS'Pleea_tenuifolia'
p430
(dp431
g4
I18
sg5
S'Tofieldiaceae'
p432
sg7
I4326
sg8
S'107'
p433
sg10
S'shape'
p434
sg12
S'Thu Jan 29 00:50:30 2015'
p435
sg14
S'5671182'
p436
sg16
g430
ssS'Glandularia_pumila'
p437
(dp438
g4
I18
sg5
S'Verbenaceae'
p439
sg7
I4326
sg8
S'135'
p440
sg10
S'shape'
p441
sg12
S'Thu Jan 29 05:19:13 2015'
p442
sg14
S'5671235'
p443
sg16
g437
ssS'Viola_lanceolata'
p444
(dp445
g4
I18
sg5
S'Violaceae'
p446
sg7
I4326
sg8
S'814'
p447
sg10
S'shape'
p448
sg12
S'Thu Jan 29 03:39:55 2015'
p449
sg14
S'5673603'
p450
sg16
g444
ssS'Verbena_litoralis'
p451
(dp452
g4
I18
sg5
S'Verbenaceae'
p453
sg7
I4326
sg8
S'253'
p454
sg10
S'shape'
p455
sg12
S'Thu Jan 29 03:32:39 2015'
p456
sg14
S'5671267'
p457
sg16
g451
ssS'Viola_adunca'
p458
(dp459
g4
I18
sg5
S'Violaceae'
p460
sg7
I4326
sg8
S'1496'
p461
sg10
S'shape'
p462
sg12
S'Thu Jan 29 04:20:41 2015'
p463
sg14
S'5671387'
p464
sg16
g458
ssS'Parthenocissus_inserta'
p465
(dp466
g4
I18
sg5
S'Vitaceae'
p467
sg7
I4326
sg8
S'599'
p468
sg10
S'shape'
p469
sg12
S'Wed Jan 28 23:59:04 2015'
p470
sg14
S'5667173'
p471
sg16
g465
ssS'Kallstroemia_parviflora'
p472
(dp473
g4
I18
sg5
S'Zygophyllaceae'
p474
sg7
I4326
sg8
S'421'
p475
sg10
S'shape'
p476
sg12
S'Wed Jan 28 22:09:26 2015'
p477
sg14
S'5671510'
p478
sg16
g472
ssS'Verbena_stricta'
p479
(dp480
g4
I18
sg5
S'Verbenaceae'
p481
sg7
I4326
sg8
S'1395'
p482
sg10
S'shape'
p483
sg12
S'Thu Jan 29 03:36:21 2015'
p484
sg14
S'5668181'
p485
sg16
g479
ssS'Hemerocallis_fulva'
p486
(dp487
g4
I18
sg5
S'Xanthorrhoeaceae'
p488
sg7
I4326
sg8
S'844'
p489
sg10
S'shape'
p490
sg12
S'Wed Jan 28 21:21:39 2015'
p491
sg14
S'5668263'
p492
sg16
g486
ssS'Viola_tripartita'
p493
(dp494
g4
I18
sg5
S'Violaceae'
p495
sg7
I4326
sg8
S'160'
p496
sg10
S'shape'
p497
sg12
S'Thu Jan 29 03:43:24 2015'
p498
sg14
S'5668481'
p499
sg16
g493
ssS'Verbena_perennis'
p500
(dp501
g4
I18
sg5
S'Verbenaceae'
p502
sg7
I4326
sg8
S'49'
p503
sg10
S'shape'
p504
sg12
S'Thu Jan 29 03:34:39 2015'
p505
sg14
S'5671835'
p506
sg16
g500
ssS'Lantana_montevidensis'
p507
(dp508
g4
I18
sg5
S'Verbenaceae'
p509
sg7
I4326
sg8
S'28'
p510
sg10
S'shape'
p511
sg12
S'Wed Jan 28 22:15:27 2015'
p512
sg14
S'5671969'
p513
sg16
g507
ssS'Viola_walteri'
p514
(dp515
g4
I18
sg5
S'Violaceae'
p516
sg7
I4326
sg8
S'228'
p517
sg10
S'shape'
p518
sg12
S'Thu Jan 29 03:43:42 2015'
p519
sg14
S'5672053'
p520
sg16
g514
ssS'Glandularia_elegans'
p521
(dp522
g4
I18
sg5
S'Verbenaceae'
p523
sg7
I4326
sg8
S'132'
p524
sg10
S'shape'
p525
sg12
S'Wed Jan 28 21:10:54 2015'
p526
sg14
S'5672087'
p527
sg16
g521
ssS'Verbena_pinetorum'
p528
(dp529
g4
I18
sg5
S'Verbenaceae'
p530
sg7
I4326
sg8
S'41'
p531
sg10
S'shape'
p532
sg12
S'Thu Jan 29 03:35:26 2015'
p533
sg14
S'5672153'
p534
sg16
g528
ssS'Xyris_caroliniana'
p535
(dp536
g4
I18
sg5
S'Xyridaceae'
p537
sg7
I4326
sg8
S'738'
p538
sg10
S'shape'
p539
sg12
S'Thu Jan 29 06:04:21 2015'
p540
sg14
S'5672195'
p541
sg16
g535
ssS'Verbena_menthifolia'
p542
(dp543
g4
I18
sg5
S'Verbenaceae'
p544
sg7
I4326
sg8
S'183'
p545
sg10
S'shape'
p546
sg12
S'Thu Jan 29 03:35:02 2015'
p547
sg14
S'5674591'
p548
sg16
g542
ssS'Verbena_officinalis'
p549
(dp550
g4
I18
sg5
S'Verbenaceae'
p551
sg7
I4326
sg8
S'67'
p552
sg10
S'shape'
p553
sg12
S'Thu Jan 29 04:35:37 2015'
p554
sg14
S'5672551'
p555
sg16
g549
ssS'Cissus_alata'
p556
(dp557
g4
I18
sg5
S'Vitaceae'
p558
sg7
I4326
sg8
S'109'
p559
sg10
S'shape'
p560
sg12
S'Wed Jan 28 19:01:03 2015'
p561
sg14
S'5672427'
p562
sg16
g556
ssS'Ulmus_americana'
p563
(dp564
g4
I18
sg5
S'Ulmaceae'
p565
sg7
I4326
sg8
S'108720'
p566
sg10
S'shape'
p567
sg12
S'Thu Jan 29 03:27:36 2015'
p568
sg14
S'5674606'
p569
sg16
g563
ssS'Aloysia_macrostachya'
p570
(dp571
g4
I18
sg5
S'Verbenaceae'
p572
sg7
I4326
sg8
S'71'
p573
sg10
S'shape'
p574
sg12
S'Wed Jan 28 16:53:37 2015'
p575
sg14
S'5681759'
p576
sg16
g570
ssS'Vitis_shuttleworthii'
p577
(dp578
g4
I18
sg5
S'Vitaceae'
p579
sg7
I4326
sg8
S'34'
p580
sg10
S'shape'
p581
sg12
S'Thu Jan 29 03:42:43 2015'
p582
sg14
S'5672772'
p583
sg16
g577
ssS'Phyllospadix_scouleri'
p584
(dp585
g4
I18
sg5
S'Zosteraceae'
p586
sg7
I4326
sg8
S'151'
p587
sg10
S'shape'
p588
sg12
S'Thu Jan 29 00:26:27 2015'
p589
sg14
S'5672795'
p590
sg16
g584
ssS'Aloysia_citriodora'
p591
(dp592
g4
I18
sg5
S'Verbenaceae'
p593
sg7
I4326
sg8
S'30'
p594
sg10
S'shape'
p595
sg12
S'Wed Jan 28 16:56:34 2015'
p596
sg14
S'5672842'
p597
sg16
g591
ssS'Sparganium_emersum'
p598
(dp599
g4
I18
sg5
S'Typhaceae'
p600
sg7
I4326
sg8
S'631'
p601
sg10
S'shape'
p602
sg12
S'Thu Jan 29 02:41:56 2015'
p603
sg14
S'5672852'
p604
sg16
g598
ssS'Petrea_volubilis'
p605
(dp606
g4
I18
sg5
S'Verbenaceae'
p607
sg7
I4326
sg8
S'530'
p608
sg10
S'shape'
p609
sg12
S'Thu Jan 29 00:16:21 2015'
p610
sg14
S'5672859'
p611
sg16
g605
ssS'Ulmus_pumila'
p612
(dp613
g4
I18
sg5
S'Ulmaceae'
p614
sg7
I4326
sg8
S'2138'
p615
sg10
S'shape'
p616
sg12
S'Thu Jan 29 03:26:36 2015'
p617
sg14
S'5669890'
p618
sg16
g612
ssS'Viola_canadensis'
p619
(dp620
g4
I18
sg5
S'Violaceae'
p621
sg7
I4326
sg8
S'2330'
p622
sg10
S'shape'
p623
sg12
S'Thu Jan 29 03:38:21 2015'
p624
sg14
S'5674736'
p625
sg16
g619
ssS'Vitis_californica'
p626
(dp627
g4
I18
sg5
S'Vitaceae'
p628
sg7
I4326
sg8
S'185'
p629
sg10
S'shape'
p630
sg12
S'Thu Jan 29 03:37:46 2015'
p631
sg14
S'5674792'
p632
sg16
g626
ssS'Cissus_trifoliata'
p633
(dp634
g4
I18
sg5
S'Vitaceae'
p635
sg7
I4326
sg8
S'296'
p636
sg10
S'shape'
p637
sg12
S'Thu Jan 29 04:18:03 2015'
p638
sg14
S'5674819'
p639
sg16
g633
ssS'Viola_sheltonii'
p640
(dp641
g4
I18
sg5
S'Violaceae'
p642
sg7
I4326
sg8
S'110'
p643
sg10
S'shape'
p644
sg12
S'Thu Jan 29 03:41:13 2015'
p645
sg14
S'5681210'
p646
sg16
g640
ssS'Tribulus_cistoides'
p647
(dp648
g4
I18
sg5
S'Zygophyllaceae'
p649
sg7
I4326
sg8
S'220'
p650
sg10
S'shape'
p651
sg12
S'Thu Jan 29 03:20:20 2015'
p652
sg14
S'5680165'
p653
sg16
g647
ssS'Verbena_bracteata'
p654
(dp655
g4
I18
sg5
S'Verbenaceae'
p656
sg7
I4326
sg8
S'1950'
p657
sg10
S'shape'
p658
sg12
S'Thu Jan 29 03:33:30 2015'
p659
sg14
S'5674893'
p660
sg16
g654
ssS'Bouchea_prismatica'
p661
(dp662
g4
I18
sg5
S'Verbenaceae'
p663
sg7
I4326
sg8
S'162'
p664
sg10
S'shape'
p665
sg12
S'Wed Jan 28 17:53:08 2015'
p666
sg14
S'5667486'
p667
sg16
g661
ssS'Viola_macloskeyi'
p668
(dp669
g4
I18
sg5
S'Violaceae'
p670
sg7
I4326
sg8
S'1380'
p671
sg10
S'shape'
p672
sg12
S'Thu Jan 29 03:40:31 2015'
p673
sg14
S'5675070'
p674
sg16
g668
ssS'Vitis_girdiana'
p675
(dp676
g4
I18
sg5
S'Vitaceae'
p677
sg7
I4326
sg8
S'44'
p678
sg10
S'shape'
p679
sg12
S'Thu Jan 29 03:38:42 2015'
p680
sg14
S'5675108'
p681
sg16
g675
ssS'Ulmus_alata'
p682
(dp683
g4
I18
sg5
S'Ulmaceae'
p684
sg7
I4326
sg8
S'79033'
p685
sg10
S'shape'
p686
sg12
S'Thu Jan 29 03:26:22 2015'
p687
sg14
S'5675139'
p688
sg16
g682
ssS'Sparganium_eurycarpum'
p689
(dp690
g4
I18
sg5
S'Typhaceae'
p691
sg7
I4326
sg8
S'958'
p692
sg10
S'shape'
p693
sg12
S'Thu Jan 29 02:42:00 2015'
p694
sg14
S'5675147'
p695
sg16
g689
ssS'Viola_glabella'
p696
(dp697
g4
I18
sg5
S'Violaceae'
p698
sg7
I4326
sg8
S'1191'
p699
sg10
S'shape'
p700
sg12
S'Thu Jan 29 03:39:25 2015'
p701
sg14
S'5673635'
p702
sg16
g696
ssS'Tofieldia_coccinea'
p703
(dp704
g4
I18
sg5
S'Tofieldiaceae'
p705
sg7
I4326
sg8
S'211'
p706
sg10
S'shape'
p707
sg12
S'Thu Jan 29 03:10:59 2015'
p708
sg14
S'5675268'
p709
sg16
g703
ssS'Viola_pedatifida'
p710
(dp711
g4
I18
sg5
S'Violaceae'
p712
sg7
I4326
sg8
S'473'
p713
sg10
S'shape'
p714
sg12
S'Thu Jan 29 03:41:57 2015'
p715
sg14
S'5667647'
p716
sg16
g710
ssS'Xyris_ambigua'
p717
(dp718
g4
I18
sg5
S'Xyridaceae'
p719
sg7
I4326
sg8
S'350'
p720
sg10
S'shape'
p721
sg12
S'Thu Jan 29 03:47:36 2015'
p722
sg14
S'5675406'
p723
sg16
g717
ssS'Aloysia_wrightii'
p724
(dp725
g4
I18
sg5
S'Verbenaceae'
p726
sg7
I4326
sg8
S'294'
p727
sg10
S'shape'
p728
sg12
S'Wed Jan 28 16:57:00 2015'
p729
sg14
S'5675489'
p730
sg16
g724
ssS'Viola_subsinuata'
p731
(dp732
g4
I18
sg5
S'Violaceae'
p733
sg7
I4326
sg8
S'56'
p734
sg10
S'shape'
p735
sg12
S'Thu Jan 29 03:43:19 2015'
p736
sg14
S'5667175'
p737
sg16
g731
ssS'Sparganium_fluctuans'
p738
(dp739
g4
I18
sg5
S'Typhaceae'
p740
sg7
I4326
sg8
S'180'
p741
sg10
S'shape'
p742
sg12
S'Thu Jan 29 02:43:47 2015'
p743
sg14
S'5667342'
p744
sg16
g738
ssS'Woodsia_phillipsii'
p745
(dp746
g4
I18
sg5
S'Woodsiaceae'
p747
sg7
I4326
sg8
S'136'
p748
sg10
S'shape'
p749
sg12
S'Thu Jan 29 03:45:39 2015'
p750
sg14
S'5673760'
p751
sg16
g745
ssS'Viola_obliqua'
p752
(dp753
g4
I18
sg5
S'Violaceae'
p754
sg7
I4326
sg8
S'1352'
p755
sg10
S'shape'
p756
sg12
S'Thu Jan 29 03:37:55 2015'
p757
sg14
S'5675619'
p758
sg16
g752
ssS'Xyris_platylepis'
p759
(dp760
g4
I18
sg5
S'Xyridaceae'
p761
sg7
I4326
sg8
S'221'
p762
sg10
S'shape'
p763
sg12
S'Thu Jan 29 03:47:51 2015'
p764
sg14
S'5675672'
p765
sg16
g759
ssS'Parietaria_praetermissa'
p766
(dp767
g4
I18
sg5
S'Urticaceae'
p768
sg7
I4326
sg8
S'35'
p769
sg10
S'shape'
p770
sg12
S'Thu Jan 29 04:28:16 2015'
p771
sg14
S'5667946'
p772
sg16
g766
ssS'Viola_praemorsa'
p773
(dp774
g4
I18
sg5
S'Violaceae'
p775
sg7
I4326
sg8
S'326'
p776
sg10
S'shape'
p777
sg12
S'Thu Jan 29 03:42:11 2015'
p778
sg14
S'5675758'
p779
sg16
g773
ssS'Parietaria_pensylvanica'
p780
(dp781
g4
I18
sg5
S'Urticaceae'
p782
sg7
I4326
sg8
S'1706'
p783
sg10
S'shape'
p784
sg12
S'Thu Jan 29 00:00:26 2015'
p785
sg14
S'5668963'
p786
sg16
g780
ssS'Verbena_gracilis'
p787
(dp788
g4
I18
sg5
S'Verbenaceae'
p789
sg7
I4326
sg8
S'115'
p790
sg10
S'shape'
p791
sg12
S'Thu Jan 29 03:33:47 2015'
p792
sg14
S'5675811'
p793
sg16
g787
ssS'Sparganium_angustifolium'
p794
(dp795
g4
I18
sg5
S'Typhaceae'
p796
sg7
I4326
sg8
S'758'
p797
sg10
S'shape'
p798
sg12
S'Thu Jan 29 02:41:45 2015'
p799
sg14
S'5675845'
p800
sg16
g794
ssS'Xyris_jupicai'
p801
(dp802
g4
I18
sg5
S'Xyridaceae'
p803
sg7
I4326
sg8
S'345'
p804
sg10
S'shape'
p805
sg12
S'Thu Jan 29 03:47:36 2015'
p806
sg14
S'5675942'
p807
sg16
g801
ssS'Woodsia_scopulina'
p808
(dp809
g4
I18
sg5
S'Woodsiaceae'
p810
sg7
I4326
sg8
S'375'
p811
sg10
S'shape'
p812
sg12
S'Thu Jan 29 03:46:23 2015'
p813
sg14
S'5675947'
p814
sg16
g808
ssS'Hedychium_coronarium'
p815
(dp816
g4
I18
sg5
S'Zingiberaceae'
p817
sg7
I4326
sg8
S'76'
p818
sg10
S'shape'
p819
sg12
S'Wed Jan 28 21:24:15 2015'
p820
sg14
S'5676017'
p821
sg16
g815
ssS'Viola_hirsutula'
p822
(dp823
g4
I18
sg5
S'Violaceae'
p824
sg7
I4326
sg8
S'352'
p825
sg10
S'shape'
p826
sg12
S'Thu Jan 29 03:39:37 2015'
p827
sg14
S'5676094'
p828
sg16
g822
ssS'Asphodelus_fistulosus'
p829
(dp830
g4
I18
sg5
S'Xanthorrhoeaceae'
p831
sg7
I4326
sg8
S'124'
p832
sg10
S'shape'
p833
sg12
S'Thu Jan 29 04:13:26 2015'
p834
sg14
S'5676172'
p835
sg16
g829
ssS'Viola_pinetorum'
p836
(dp837
g4
I18
sg5
S'Violaceae'
p838
sg7
I4326
sg8
S'28'
p839
sg10
S'shape'
p840
sg12
S'Thu Jan 29 03:42:00 2015'
p841
sg14
S'5668412'
p842
sg16
g836
ssS'Hybanthus_verticillatus'
p843
(dp844
g4
I18
sg5
S'Violaceae'
p845
sg7
I4326
sg8
S'288'
p846
sg10
S'shape'
p847
sg12
S'Wed Jan 28 21:39:15 2015'
p848
sg14
S'5676364'
p849
sg16
g843
ssS'Phyla_lanceolata'
p850
(dp851
g4
I18
sg5
S'Verbenaceae'
p852
sg7
I4326
sg8
S'1318'
p853
sg10
S'shape'
p854
sg12
S'Thu Jan 29 00:24:44 2015'
p855
sg14
S'5674840'
p856
sg16
g850
ssS'Urtica_chamaedryoides'
p857
(dp858
g4
I18
sg5
S'Urticaceae'
p859
sg7
I4326
sg8
S'323'
p860
sg10
S'shape'
p861
sg12
S'Thu Jan 29 03:28:22 2015'
p862
sg14
S'5676427'
p863
sg16
g857
ssS'Lantana_canescens'
p864
(dp865
g4
I18
sg5
S'Verbenaceae'
p866
sg7
I4326
sg8
S'118'
p867
sg10
S'shape'
p868
sg12
S'Wed Jan 28 22:13:38 2015'
p869
sg14
S'5675113'
p870
sg16
g864
ssS'Zamia_pumila'
p871
(dp872
g4
I18
sg5
S'Zamiaceae'
p873
sg7
I4326
sg8
S'68'
p874
sg10
S'shape'
p875
sg12
S'Thu Jan 29 03:49:20 2015'
p876
sg14
S'5676466'
p877
sg16
g871
ssS'Xyris_laxifolia'
p878
(dp879
g4
I18
sg5
S'Xyridaceae'
p880
sg7
I4326
sg8
S'192'
p881
sg10
S'shape'
p882
sg12
S'Thu Jan 29 03:47:42 2015'
p883
sg14
S'5675521'
p884
sg16
g878
ssS'Viola_septentrionalis'
p885
(dp886
g4
I18
sg5
S'Violaceae'
p887
sg7
I4326
sg8
S'74'
p888
sg10
S'shape'
p889
sg12
S'Thu Jan 29 04:35:49 2015'
p890
sg14
S'5667300'
p891
sg16
g885
ssS'Xyris_floridana'
p892
(dp893
g4
I18
sg5
S'Xyridaceae'
p894
sg7
I4326
sg8
S'33'
p895
sg10
S'shape'
p896
sg12
S'Thu Jan 29 03:47:32 2015'
p897
sg14
S'5676716'
p898
sg16
g892
ssS'Xyris_baldwiniana'
p899
(dp900
g4
I18
sg5
S'Xyridaceae'
p901
sg7
I4326
sg8
S'49'
p902
sg10
S'shape'
p903
sg12
S'Thu Jan 29 06:04:22 2015'
p904
sg14
S'5676834'
p905
sg16
g899
ssS'Verbena_plicata'
p906
(dp907
g4
I18
sg5
S'Verbenaceae'
p908
sg7
I4326
sg8
S'117'
p909
sg10
S'shape'
p910
sg12
S'Thu Jan 29 03:35:49 2015'
p911
sg14
S'5666567'
p912
sg16
g906
ssS'Xyris_montana'
p913
(dp914
g4
I18
sg5
S'Xyridaceae'
p915
sg7
I4326
sg8
S'178'
p916
sg10
S'shape'
p917
sg12
S'Thu Jan 29 03:47:44 2015'
p918
sg14
S'5676922'
p919
sg16
g913
ssS'Phyla_stoechadifolia'
p920
(dp921
g4
I18
sg5
S'Verbenaceae'
p922
sg7
I4326
sg8
S'97'
p923
sg10
S'shape'
p924
sg12
S'Thu Jan 29 00:23:26 2015'
p925
sg14
S'5676942'
p926
sg16
g920
ssS'Verbena_rigida'
p927
(dp928
g4
I18
sg5
S'Verbenaceae'
p929
sg7
I4326
sg8
S'175'
p930
sg10
S'shape'
p931
sg12
S'Thu Jan 29 03:35:50 2015'
p932
sg14
S'5676949'
p933
sg16
g927
ssS'Priva_lappulacea'
p934
(dp935
g4
I18
sg5
S'Verbenaceae'
p936
sg7
I4326
sg8
S'201'
p937
sg10
S'shape'
p938
sg12
S'Thu Jan 29 01:17:56 2015'
p939
sg14
S'5676766'
p940
sg16
g934
ssS'Ampelopsis_arborea'
p941
(dp942
g4
I18
sg5
S'Vitaceae'
p943
sg7
I4326
sg8
S'1286'
p944
sg10
S'shape'
p945
sg12
S'Wed Jan 28 16:57:40 2015'
p946
sg14
S'5677059'
p947
sg16
g941
ssS'Aloysia_gratissima'
p948
(dp949
g4
I18
sg5
S'Verbenaceae'
p950
sg7
I4326
sg8
S'170'
p951
sg10
S'shape'
p952
sg12
S'Wed Jan 28 16:52:23 2015'
p953
sg14
S'5677061'
p954
sg16
g948
ssS'Viola_purpurea'
p955
(dp956
g4
I18
sg5
S'Violaceae'
p957
sg7
I4326
sg8
S'687'
p958
sg10
S'shape'
p959
sg12
S'Thu Jan 29 03:42:22 2015'
p960
sg14
S'5679665'
p961
sg16
g955
ssS'Woodsia_oregana'
p962
(dp963
g4
I18
sg5
S'Woodsiaceae'
p964
sg7
I4326
sg8
S'569'
p965
sg10
S'shape'
p966
sg12
S'Thu Jan 29 03:46:22 2015'
p967
sg14
S'5677327'
p968
sg16
g962
ssS'Vitis_rupestris'
p969
(dp970
g4
I18
sg5
S'Vitaceae'
p971
sg7
I4326
sg8
S'179'
p972
sg10
S'shape'
p973
sg12
S'Thu Jan 29 03:42:48 2015'
p974
sg14
S'5677381'
p975
sg16
g969
ssS'Xyris_serotina'
p976
(dp977
g4
I18
sg5
S'Xyridaceae'
p978
sg7
I4326
sg8
S'41'
p979
sg10
S'shape'
p980
sg12
S'Thu Jan 29 04:36:08 2015'
p981
sg14
S'5677470'
p982
sg16
g976
ssS'Viola_langsdorffii'
p983
(dp984
g4
I18
sg5
S'Violaceae'
p985
sg7
I4326
sg8
S'200'
p986
sg10
S'shape'
p987
sg12
S'Thu Jan 29 03:40:08 2015'
p988
sg14
S'5677481'
p989
sg16
g983
ssS'Pilea_microphylla'
p990
(dp991
g4
I18
sg5
S'Urticaceae'
p992
sg7
I4326
sg8
S'286'
p993
sg10
S'shape'
p994
sg12
S'Thu Jan 29 00:40:21 2015'
p995
sg14
S'5669315'
p996
sg16
g990
ssS'Verbena_macdougalii'
p997
(dp998
g4
I18
sg5
S'Verbenaceae'
p999
sg7
I4326
sg8
S'177'
p1000
sg10
S'shape'
p1001
sg12
S'Thu Jan 29 03:35:01 2015'
p1002
sg14
S'5670703'
p1003
sg16
g997
ssS'Vitis_aestivalis'
p1004
(dp1005
g4
I18
sg5
S'Vitaceae'
p1006
sg7
I4326
sg8
S'4278'
p1007
sg10
S'shape'
p1008
sg12
S'Thu Jan 29 03:37:15 2015'
p1009
sg14
S'5667130'
p1010
sg16
g1004
ssS'Xyris_elliottii'
p1011
(dp1012
g4
I18
sg5
S'Xyridaceae'
p1013
sg7
I4326
sg8
S'153'
p1014
sg10
S'shape'
p1015
sg12
S'Thu Jan 29 03:47:25 2015'
p1016
sg14
S'5677630'
p1017
sg16
g1011
ssS'Hybanthus_attenuatus'
p1018
(dp1019
g4
I18
sg5
S'Violaceae'
p1020
sg7
I4326
sg8
S'205'
p1021
sg10
S'shape'
p1022
sg12
S'Wed Jan 28 21:42:16 2015'
p1023
sg14
S'5677720'
p1024
sg16
g1018
ssS'Glandularia_canadensis'
p1025
(dp1026
g4
I18
sg5
S'Verbenaceae'
p1027
sg7
I4326
sg8
S'771'
p1028
sg10
S'shape'
p1029
sg12
S'Thu Jan 29 04:10:36 2015'
p1030
sg14
S'5677742'
p1031
sg16
g1025
ssS'Viola_cuneata'
p1032
(dp1033
g4
I18
sg5
S'Violaceae'
p1034
sg7
I4326
sg8
S'88'
p1035
sg10
S'shape'
p1036
sg12
S'Thu Jan 29 03:38:39 2015'
p1037
sg14
S'5677861'
p1038
sg16
g1032
ssS'Verbena_xutha'
p1039
(dp1040
g4
I18
sg5
S'Verbenaceae'
p1041
sg7
I4326
sg8
S'92'
p1042
sg10
S'shape'
p1043
sg12
S'Thu Jan 29 03:36:53 2015'
p1044
sg14
S'5666914'
p1045
sg16
g1039
ssS'Viola_rostrata'
p1046
(dp1047
g4
I18
sg5
S'Violaceae'
p1048
sg7
I4326
sg8
S'428'
p1049
sg10
S'shape'
p1050
sg12
S'Thu Jan 29 03:42:23 2015'
p1051
sg14
S'5673046'
p1052
sg16
g1046
ssS'Phyla_cuneifolia'
p1053
(dp1054
g4
I18
sg5
S'Verbenaceae'
p1055
sg7
I4326
sg8
S'359'
p1056
sg10
S'shape'
p1057
sg12
S'Thu Jan 29 00:28:56 2015'
p1058
sg14
S'5677985'
p1059
sg16
g1053
ssS'Woodsia_alpina'
p1060
(dp1061
g4
I18
sg5
S'Woodsiaceae'
p1062
sg7
I4326
sg8
S'44'
p1063
sg10
S'shape'
p1064
sg12
S'Thu Jan 29 03:46:17 2015'
p1065
sg14
S'5667819'
p1066
sg16
g1060
ssS'Laportea_canadensis'
p1067
(dp1068
g4
I18
sg5
S'Urticaceae'
p1069
sg7
I4326
sg8
S'2625'
p1070
sg10
S'shape'
p1071
sg12
S'Wed Jan 28 22:12:22 2015'
p1072
sg14
S'5678015'
p1073
sg16
g1067
ssS'Planera_aquatica'
p1074
(dp1075
g4
I18
sg5
S'Ulmaceae'
p1076
sg7
I4326
sg8
S'4641'
p1077
sg10
S'shape'
p1078
sg12
S'Thu Jan 29 00:47:36 2015'
p1079
sg14
S'5678036'
p1080
sg16
g1074
ssS'Verbena_brasiliensis'
p1081
(dp1082
g4
I18
sg5
S'Verbenaceae'
p1083
sg7
I4326
sg8
S'344'
p1084
sg10
S'shape'
p1085
sg12
S'Thu Jan 29 03:33:32 2015'
p1086
sg14
S'5674184'
p1087
sg16
g1081
ssS'Ulmus_minor'
p1088
(dp1089
g4
I18
sg5
S'Ulmaceae'
p1090
sg7
I4326
sg8
S'58'
p1091
sg10
S'shape'
p1092
sg12
S'Thu Jan 29 03:26:38 2015'
p1093
sg14
S'5671159'
p1094
sg16
g1088
ssS'Viola_palmata'
p1095
(dp1096
g4
I18
sg5
S'Violaceae'
p1097
sg7
I4326
sg8
S'595'
p1098
sg10
S'shape'
p1099
sg12
S'Thu Jan 29 03:41:35 2015'
p1100
sg14
S'5678151'
p1101
sg16
g1095
ssS'Vitis_vinifera'
p1102
(dp1103
g4
I18
sg5
S'Vitaceae'
p1104
sg7
I4326
sg8
S'36'
p1105
sg10
S'shape'
p1106
sg12
S'Thu Jan 29 03:43:05 2015'
p1107
sg14
S'5678200'
p1108
sg16
g1102
ssS'Woodsia_obtusa'
p1109
(dp1110
g4
I18
sg5
S'Woodsiaceae'
p1111
sg7
I4326
sg8
S'1679'
p1112
sg10
S'shape'
p1113
sg12
S'Thu Jan 29 03:46:14 2015'
p1114
sg14
S'5674176'
p1115
sg16
g1109
ssS'Viola_tricolor'
p1116
(dp1117
g4
I18
sg5
S'Violaceae'
p1118
sg7
I4326
sg8
S'223'
p1119
sg10
S'shape'
p1120
sg12
S'Thu Jan 29 03:43:23 2015'
p1121
sg14
S'5674332'
p1122
sg16
g1116
ssS'Priva_mexicana'
p1123
(dp1124
g4
I18
sg5
S'Verbenaceae'
p1125
sg7
I4326
sg8
S'164'
p1126
sg10
S'shape'
p1127
sg12
S'Thu Jan 29 01:15:40 2015'
p1128
sg14
S'5678382'
p1129
sg16
g1123
ssS'Viola_beckwithii'
p1130
(dp1131
g4
I18
sg5
S'Violaceae'
p1132
sg7
I4326
sg8
S'176'
p1133
sg10
S'shape'
p1134
sg12
S'Thu Jan 29 03:37:54 2015'
p1135
sg14
S'5670452'
p1136
sg16
g1130
ssS'Viola_rotundifolia'
p1137
(dp1138
g4
I18
sg5
S'Violaceae'
p1139
sg7
I4326
sg8
S'953'
p1140
sg10
S'shape'
p1141
sg12
S'Thu Jan 29 03:42:32 2015'
p1142
sg14
S'5673864'
p1143
sg16
g1137
ssS'Sparganium_natans'
p1144
(dp1145
g4
I18
sg5
S'Typhaceae'
p1146
sg7
I4326
sg8
S'269'
p1147
sg10
S'shape'
p1148
sg12
S'Thu Jan 29 02:44:34 2015'
p1149
sg14
S'5669879'
p1150
sg16
g1144
ssS'Verbena_scabra'
p1151
(dp1152
g4
I18
sg5
S'Verbenaceae'
p1153
sg7
I4326
sg8
S'134'
p1154
sg10
S'shape'
p1155
sg12
S'Thu Jan 29 03:36:06 2015'
p1156
sg14
S'5678582'
p1157
sg16
g1151
ssS'Sparganium_hyperboreum'
p1158
(dp1159
g4
I18
sg5
S'Typhaceae'
p1160
sg7
I4326
sg8
S'162'
p1161
sg10
S'shape'
p1162
sg12
S'Thu Jan 29 05:57:53 2015'
p1163
sg14
S'5674759'
p1164
sg16
g1158
ssS'Lantana_velutina'
p1165
(dp1166
g4
I18
sg5
S'Verbenaceae'
p1167
sg7
I4326
sg8
S'168'
p1168
sg10
S'shape'
p1169
sg12
S'Wed Jan 28 22:19:27 2015'
p1170
sg14
S'5678760'
p1171
sg16
g1165
ssS'Typha_domingensis'
p1172
(dp1173
g4
I18
sg5
S'Typhaceae'
p1174
sg7
I4326
sg8
S'935'
p1175
sg10
S'shape'
p1176
sg12
S'Thu Jan 29 03:26:00 2015'
p1177
sg14
S'5670419'
p1178
sg16
g1172
ssS'Woodsia_plummerae'
p1179
(dp1180
g4
I18
sg5
S'Woodsiaceae'
p1181
sg7
I4326
sg8
S'103'
p1182
sg10
S'shape'
p1183
sg12
S'Thu Jan 29 03:46:22 2015'
p1184
sg14
S'5667922'
p1185
sg16
g1179
ssS'Viola_nephrophylla'
p1186
(dp1187
g4
I18
sg5
S'Violaceae'
p1188
sg7
I4326
sg8
S'643'
p1189
sg10
S'shape'
p1190
sg12
S'Thu Jan 29 04:35:52 2015'
p1191
sg14
S'5678807'
p1192
sg16
g1186
ssS'Viola_selkirkii'
p1193
(dp1194
g4
I18
sg5
S'Violaceae'
p1195
sg7
I4326
sg8
S'162'
p1196
sg10
S'shape'
p1197
sg12
S'Thu Jan 29 03:42:53 2015'
p1198
sg14
S'5681905'
p1199
sg16
g1193
ssS'Ulmus_crassifolia'
p1200
(dp1201
g4
I18
sg5
S'Ulmaceae'
p1202
sg7
I4326
sg8
S'6443'
p1203
sg10
S'shape'
p1204
sg12
S'Thu Jan 29 03:27:17 2015'
p1205
sg14
S'5678917'
p1206
sg16
g1200
ssS'Viola_viarum'
p1207
(dp1208
g4
I18
sg5
S'Violaceae'
p1209
sg7
I4326
sg8
S'34'
p1210
sg10
S'shape'
p1211
sg12
S'Thu Jan 29 03:43:37 2015'
p1212
sg14
S'5679058'
p1213
sg16
g1207
ssS'Xyris_fimbriata'
p1214
(dp1215
g4
I18
sg5
S'Xyridaceae'
p1216
sg7
I4326
sg8
S'231'
p1217
sg10
S'shape'
p1218
sg12
S'Thu Jan 29 03:47:27 2015'
p1219
sg14
S'5674611'
p1220
sg16
g1214
ssS'Viola_sagittata'
p1221
(dp1222
g4
I18
sg5
S'Violaceae'
p1223
sg7
I4326
sg8
S'1215'
p1224
sg10
S'shape'
p1225
sg12
S'Thu Jan 29 03:42:33 2015'
p1226
sg14
S'5674520'
p1227
sg16
g1221
ssS'Cissus_verticillata'
p1228
(dp1229
g4
I18
sg5
S'Vitaceae'
p1230
sg7
I4326
sg8
S'728'
p1231
sg10
S'shape'
p1232
sg12
S'Wed Jan 28 19:01:54 2015'
p1233
sg14
S'5679363'
p1234
sg16
g1228
ssS'Viola_villosa'
p1235
(dp1236
g4
I18
sg5
S'Violaceae'
p1237
sg7
I4326
sg8
S'77'
p1238
sg10
S'shape'
p1239
sg12
S'Thu Jan 29 06:03:59 2015'
p1240
sg14
S'5679455'
p1241
sg16
g1235
ssS'Zygophyllum_fabago'
p1242
(dp1243
g4
I18
sg5
S'Zygophyllaceae'
p1244
sg7
I4326
sg8
S'28'
p1245
sg10
S'shape'
p1246
sg12
S'Thu Jan 29 03:51:01 2015'
p1247
sg14
S'5679516'
p1248
sg16
g1242
ssS'Vitis_rotundifolia'
p1249
(dp1250
g4
I18
sg5
S'Vitaceae'
p1251
sg7
I4326
sg8
S'7023'
p1252
sg10
S'shape'
p1253
sg12
S'Thu Jan 29 03:41:16 2015'
p1254
sg14
S'5679588'
p1255
sg16
g1249
ssS'Viola_pubescens'
p1256
(dp1257
g4
I18
sg5
S'Violaceae'
p1258
sg7
I4326
sg8
S'2201'
p1259
sg10
S'shape'
p1260
sg12
S'Thu Jan 29 03:40:20 2015'
p1261
sg14
S'5669726'
p1262
sg16
g1256
ssS'Viola_novae-angliae'
p1263
(dp1264
g4
I18
sg5
S'Violaceae'
p1265
sg7
I4326
sg8
S'39'
p1266
sg10
S'shape'
p1267
sg12
S'Thu Jan 29 03:41:06 2015'
p1268
sg14
S'5676145'
p1269
sg16
g1263
ssS'Viola_labradorica'
p1270
(dp1271
g4
I18
sg5
S'Violaceae'
p1272
sg7
I4326
sg8
S'475'
p1273
sg10
S'shape'
p1274
sg12
S'Thu Jan 29 03:39:47 2015'
p1275
sg14
S'5679717'
p1276
sg16
g1270
ssS'Viola_blanda'
p1277
(dp1278
g4
I18
sg5
S'Violaceae'
p1279
sg7
I4326
sg8
S'902'
p1280
sg10
S'shape'
p1281
sg12
S'Thu Jan 29 06:03:07 2015'
p1282
sg14
S'5679731'
p1283
sg16
g1277
ssS'Ulmus_serotina'
p1284
(dp1285
g4
I18
sg5
S'Ulmaceae'
p1286
sg7
I4326
sg8
S'297'
p1287
sg10
S'shape'
p1288
sg12
S'Thu Jan 29 03:27:16 2015'
p1289
sg14
S'5679832'
p1290
sg16
g1284
ssS'Pilea_fontana'
p1291
(dp1292
g4
I18
sg5
S'Urticaceae'
p1293
sg7
I4326
sg8
S'217'
p1294
sg10
S'shape'
p1295
sg12
S'Thu Jan 29 00:42:53 2015'
p1296
sg14
S'5679912'
p1297
sg16
g1291
ssS'Verbena_neomexicana'
p1298
(dp1299
g4
I18
sg5
S'Verbenaceae'
p1300
sg7
I4326
sg8
S'224'
p1301
sg10
S'shape'
p1302
sg12
S'Thu Jan 29 03:35:17 2015'
p1303
sg14
S'5679964'
p1304
sg16
g1298
ssS'Tribulus_terrestris'
p1305
(dp1306
g4
I18
sg5
S'Zygophyllaceae'
p1307
sg7
I4326
sg8
S'1260'
p1308
sg10
S'shape'
p1309
sg12
S'Thu Jan 29 03:15:31 2015'
p1310
sg14
S'5677989'
p1311
sg16
g1305
ssS'Boehmeria_cylindrica'
p1312
(dp1313
g4
I18
sg5
S'Urticaceae'
p1314
sg7
I4326
sg8
S'3627'
p1315
sg10
S'shape'
p1316
sg12
S'Wed Jan 28 17:22:31 2015'
p1317
sg14
S'5676064'
p1318
sg16
g1312
ssS'Viola_pedunculata'
p1319
(dp1320
g4
I18
sg5
S'Violaceae'
p1321
sg7
I4326
sg8
S'85'
p1322
sg10
S'shape'
p1323
sg12
S'Thu Jan 29 03:38:14 2015'
p1324
sg14
S'5673715'
p1325
sg16
g1319
ssS'Viola_douglasii'
p1326
(dp1327
g4
I18
sg5
S'Violaceae'
p1328
sg7
I4326
sg8
S'135'
p1329
sg10
S'shape'
p1330
sg12
S'Thu Jan 29 03:38:49 2015'
p1331
sg14
S'5674049'
p1332
sg16
g1326
ssS'Vitis_monticola'
p1333
(dp1334
g4
I18
sg5
S'Vitaceae'
p1335
sg7
I4326
sg8
S'109'
p1336
sg10
S'shape'
p1337
sg12
S'Thu Jan 29 03:40:14 2015'
p1338
sg14
S'5679683'
p1339
sg16
g1333
ssS'Triantha_racemosa'
p1340
(dp1341
g4
I18
sg5
S'Tofieldiaceae'
p1342
sg7
I4326
sg8
S'278'
p1343
sg10
S'shape'
p1344
sg12
S'Thu Jan 29 03:20:25 2015'
p1345
sg14
S'5680295'
p1346
sg16
g1340
ssS'Vitis_cinerea'
p1347
(dp1348
g4
I18
sg5
S'Vitaceae'
p1349
sg7
I4326
sg8
S'2013'
p1350
sg10
S'shape'
p1351
sg12
S'Thu Jan 29 03:38:22 2015'
p1352
sg14
S'5680430'
p1353
sg16
g1347
ssS'Phyllospadix_torreyi'
p1354
(dp1355
g4
I18
sg5
S'Zosteraceae'
p1356
sg7
I4326
sg8
S'45'
p1357
sg10
S'shape'
p1358
sg12
S'Thu Jan 29 05:39:38 2015'
p1359
sg14
S'5668855'
p1360
sg16
g1354
ssS'Viola_pedata'
p1361
(dp1362
g4
I18
sg5
S'Violaceae'
p1363
sg7
I4326
sg8
S'1316'
p1364
sg10
S'shape'
p1365
sg12
S'Thu Jan 29 03:41:39 2015'
p1366
sg14
S'5680531'
p1367
sg16
g1361
ssS'Viola_sempervirens'
p1368
(dp1369
g4
I18
sg5
S'Violaceae'
p1370
sg7
I4326
sg8
S'291'
p1371
sg10
S'shape'
p1372
sg12
S'Thu Jan 29 03:42:57 2015'
p1373
sg14
S'5680586'
p1374
sg16
g1368
ssS'Xyris_drummondii'
p1375
(dp1376
g4
I18
sg5
S'Xyridaceae'
p1377
sg7
I4326
sg8
S'40'
p1378
sg10
S'shape'
p1379
sg12
S'Thu Jan 29 04:36:04 2015'
p1380
sg14
S'5669361'
p1381
sg16
g1375
ssS'Viola_primulifolia'
p1382
(dp1383
g4
I18
sg5
S'Violaceae'
p1384
sg7
I4326
sg8
S'482'
p1385
sg10
S'shape'
p1386
sg12
S'Thu Jan 29 03:42:14 2015'
p1387
sg14
S'5674430'
p1388
sg16
g1382
ssS'Duranta_erecta'
p1389
(dp1390
g4
I18
sg5
S'Verbenaceae'
p1391
sg7
I4326
sg8
S'346'
p1392
sg10
S'shape'
p1393
sg12
S'Wed Jan 28 20:06:42 2015'
p1394
sg14
S'5680675'
p1395
sg16
g1389
ssS'Viola_hastata'
p1396
(dp1397
g4
I18
sg5
S'Violaceae'
p1398
sg7
I4326
sg8
S'1215'
p1399
sg10
S'shape'
p1400
sg12
S'Thu Jan 29 03:39:33 2015'
p1401
sg14
S'5680728'
p1402
sg16
g1396
ssS'Verbena_canescens'
p1403
(dp1404
g4
I18
sg5
S'Verbenaceae'
p1405
sg7
I4326
sg8
S'203'
p1406
sg10
S'shape'
p1407
sg12
S'Thu Jan 29 03:33:37 2015'
p1408
sg14
S'5680780'
p1409
sg16
g1403
ssS'Vitis_acerifolia'
p1410
(dp1411
g4
I18
sg5
S'Vitaceae'
p1412
sg7
I4326
sg8
S'121'
p1413
sg10
S'shape'
p1414
sg12
S'Thu Jan 29 03:42:39 2015'
p1415
sg14
S'5680854'
p1416
sg16
g1410
ssS'Viola_ocellata'
p1417
(dp1418
g4
I18
sg5
S'Violaceae'
p1419
sg7
I4326
sg8
S'53'
p1420
sg10
S'shape'
p1421
sg12
S'Thu Jan 29 03:38:52 2015'
p1422
sg14
S'5670787'
p1423
sg16
g1417
ssS'Lippia_alba'
p1424
(dp1425
g4
I18
sg5
S'Verbenaceae'
p1426
sg7
I4326
sg8
S'113'
p1427
sg10
S'shape'
p1428
sg12
S'Wed Jan 28 22:34:10 2015'
p1429
sg14
S'5671661'
p1430
sg16
g1424
ssS'Viola_sororia'
p1431
(dp1432
g4
I18
sg5
S'Violaceae'
p1433
sg7
I4326
sg8
S'4823'
p1434
sg10
S'shape'
p1435
sg12
S'Thu Jan 29 03:43:01 2015'
p1436
sg14
S'5674960'
p1437
sg16
g1431
ssS'Viola_umbraticola'
p1438
(dp1439
g4
I18
sg5
S'Violaceae'
p1440
sg7
I4326
sg8
S'34'
p1441
sg10
S'shape'
p1442
sg12
S'Thu Jan 29 03:43:27 2015'
p1443
sg14
S'5672247'
p1444
sg16
g1438
ssS'Triantha_glutinosa'
p1445
(dp1446
g4
I18
sg5
S'Tofieldiaceae'
p1447
sg7
I4326
sg8
S'311'
p1448
sg10
S'shape'
p1449
sg12
S'Thu Jan 29 03:23:18 2015'
p1450
sg14
S'5681034'
p1451
sg16
g1445
ssS'Woodsia_neomexicana'
p1452
(dp1453
g4
I18
sg5
S'Woodsiaceae'
p1454
sg7
I4326
sg8
S'103'
p1455
sg10
S'shape'
p1456
sg12
S'Thu Jan 29 03:46:15 2015'
p1457
sg14
S'5674031'
p1458
sg16
g1452
ssS'Viola_septemloba'
p1459
(dp1460
g4
I18
sg5
S'Violaceae'
p1461
sg7
I4326
sg8
S'170'
p1462
sg10
S'shape'
p1463
sg12
S'Thu Jan 29 03:41:38 2015'
p1464
sg14
S'5674424'
p1465
sg16
g1459
ssS'Larrea_tridentata'
p1466
(dp1467
g4
I18
sg5
S'Zygophyllaceae'
p1468
sg7
I4326
sg8
S'3087'
p1469
sg10
S'shape'
p1470
sg12
S'Wed Jan 28 22:17:00 2015'
p1471
sg14
S'5681187'
p1472
sg16
g1466
ssS'Sparganium_americanum'
p1473
(dp1474
g4
I18
sg5
S'Typhaceae'
p1475
sg7
I4326
sg8
S'1235'
p1476
sg10
S'shape'
p1477
sg12
S'Thu Jan 29 04:06:29 2015'
p1478
sg14
S'5669837'
p1479
sg16
g1473
ssS'Ulmus_thomasii'
p1480
(dp1481
g4
I18
sg5
S'Ulmaceae'
p1482
sg7
I4326
sg8
S'1106'
p1483
sg10
S'shape'
p1484
sg12
S'Thu Jan 29 03:26:58 2015'
p1485
sg14
S'5675353'
p1486
sg16
g1480
ssS'Urtica_gracilenta'
p1487
(dp1488
g4
I18
sg5
S'Urticaceae'
p1489
sg7
I4326
sg8
S'69'
p1490
sg10
S'shape'
p1491
sg12
S'Thu Jan 29 03:28:36 2015'
p1492
sg14
S'5678020'
p1493
sg16
g1487
ssS'Viola_lobata'
p1494
(dp1495
g4
I18
sg5
S'Violaceae'
p1496
sg7
I4326
sg8
S'178'
p1497
sg10
S'shape'
p1498
sg12
S'Thu Jan 29 03:40:27 2015'
p1499
sg14
S'5671572'
p1500
sg16
g1494
ssS'Woodsia_appalachiana'
p1501
(dp1502
g4
I18
sg5
S'Woodsiaceae'
p1503
sg7
I4326
sg8
S'29'
p1504
sg10
S'shape'
p1505
sg12
S'Thu Jan 29 03:45:42 2015'
p1506
sg14
S'5674459'
p1507
sg16
g1501
ssS'Lantana_urticoides'
p1508
(dp1509
g4
I18
sg5
S'Verbenaceae'
p1510
sg7
I4326
sg8
S'63'
p1511
sg10
S'shape'
p1512
sg12
S'Wed Jan 28 22:13:13 2015'
p1513
sg14
S'5681525'
p1514
sg16
g1508
ssS'Parthenocissus_tricuspidata'
p1515
(dp1516
g4
I18
sg5
S'Vitaceae'
p1517
sg7
I4326
sg8
S'48'
p1518
sg10
S'shape'
p1519
sg12
S'Thu Jan 29 00:01:32 2015'
p1520
sg14
S'5681576'
p1521
sg16
g1515
ssS'Woodsia_glabella'
p1522
(dp1523
g4
I18
sg5
S'Woodsiaceae'
p1524
sg7
I4326
sg8
S'196'
p1525
sg10
S'shape'
p1526
sg12
S'Thu Jan 29 03:46:01 2015'
p1527
sg14
S'5671382'
p1528
sg16
g1522
ssS'Phyla_nodiflora'
p1529
(dp1530
g4
I18
sg5
S'Verbenaceae'
p1531
sg7
I4326
sg8
S'734'
p1532
sg10
S'shape'
p1533
sg12
S'Thu Jan 29 00:28:33 2015'
p1534
sg14
S'5671725'
p1535
sg16
g1529
ssS'Zostera_marina'
p1536
(dp1537
g4
I18
sg5
S'Zosteraceae'
p1538
sg7
I4326
sg8
S'292'
p1539
sg10
S'shape'
p1540
sg12
S'Thu Jan 29 04:26:39 2015'
p1541
sg14
S'5681817'
p1542
sg16
g1536
ssS'Fagonia_laevis'
p1543
(dp1544
g4
I18
sg5
S'Zygophyllaceae'
p1545
sg7
I4326
sg8
S'308'
p1546
sg10
S'shape'
p1547
sg12
S'Wed Jan 28 20:49:40 2015'
p1548
sg14
S'5681887'
p1549
sg16
g1543
ssS'Woodsia_cochisensis'
p1550
(dp1551
g4
I18
sg5
S'Woodsiaceae'
p1552
sg7
I4326
sg8
S'72'
p1553
sg10
S'shape'
p1554
sg12
S'Thu Jan 29 03:45:43 2015'
p1555
sg14
S'5681911'
p1556
sg16
g1550
ssS'Triantha_occidentalis'
p1557
(dp1558
g4
I18
sg5
S'Tofieldiaceae'
p1559
sg7
I4326
sg8
S'223'
p1560
sg10
S'shape'
p1561
sg12
S'Thu Jan 29 03:17:18 2015'
p1562
sg14
S'5681917'
p1563
sg16
g1557
ssS'Verbena_bonariensis'
p1564
(dp1565
g4
I18
sg5
S'Verbenaceae'
p1566
sg7
I4326
sg8
S'219'
p1567
sg10
S'shape'
p1568
sg12
S'Thu Jan 29 03:36:59 2015'
p1569
sg14
S'5681968'
p1570
sg16
g1564
ssS'Tropaeolum_majus'
p1571
(dp1572
g4
I18
sg5
S'Tropaeolaceae'
p1573
sg7
I4326
sg8
S'60'
p1574
sg10
S'shape'
p1575
sg12
S'Thu Jan 29 03:18:49 2015'
p1576
sg14
S'5681992'
p1577
sg16
g1571
ssS'Viola_hallii'
p1578
(dp1579
g4
I18
sg5
S'Violaceae'
p1580
sg7
I4326
sg8
S'76'
p1581
sg10
S'shape'
p1582
sg12
S'Thu Jan 29 03:39:32 2015'
p1583
sg14
S'5682028'
p1584
sg16
g1578
ssS'Viola_biflora'
p1585
(dp1586
g4
I18
sg5
S'Violaceae'
p1587
sg7
I4326
sg8
S'114'
p1588
sg10
S'shape'
p1589
sg12
S'Thu Jan 29 03:38:06 2015'
p1590
sg14
S'5670302'
p1591
sg16
g1585
ssS'Pilea_pumila'
p1592
(dp1593
g4
I18
sg5
S'Urticaceae'
p1594
sg7
I4326
sg8
S'2012'
p1595
sg10
S'shape'
p1596
sg12
S'Thu Jan 29 00:42:26 2015'
p1597
sg14
S'5676712'
p1598
sg16
g1592
ssS'Fagonia_pachyacantha'
p1599
(dp1600
g4
I18
sg5
S'Zygophyllaceae'
p1601
sg7
I4326
sg8
S'48'
p1602
sg10
S'shape'
p1603
sg12
S'Wed Jan 28 20:50:00 2015'
p1604
sg14
S'5682230'
p1605
sg16
g1599
ssS'Viola_bicolor'
p1606
(dp1607
g4
I18
sg5
S'Violaceae'
p1608
sg7
I4326
sg8
S'1406'
p1609
sg10
S'shape'
p1610
sg12
S'Thu Jan 29 03:38:01 2015'
p1611
sg14
S'5680962'
p1612
sg16
g1606
ssS'Lippia_graveolens'
p1613
(dp1614
g4
I18
sg5
S'Verbenaceae'
p1615
sg7
I4326
sg8
S'280'
p1616
sg10
S'shape'
p1617
sg12
S'Wed Jan 28 22:28:53 2015'
p1618
sg14
S'5674731'
p1619
sg16
g1613
ssS'Viola_odorata'
p1620
(dp1621
g4
I18
sg5
S'Violaceae'
p1622
sg7
I4326
sg8
S'181'
p1623
sg10
S'shape'
p1624
sg12
S'Thu Jan 29 03:41:24 2015'
p1625
sg14
S'5673753'
p1626
sg16
g1620
ssS'Kallstroemia_californica'
p1627
(dp1628
g4
I18
sg5
S'Zygophyllaceae'
p1629
sg7
I4326
sg8
S'267'
p1630
sg10
S'shape'
p1631
sg12
S'Wed Jan 28 22:09:00 2015'
p1632
sg14
S'5682427'
p1633
sg16
g1627
ssS'Urtica_dioica'
p1634
(dp1635
g4
I18
sg5
S'Urticaceae'
p1636
sg7
I4326
sg8
S'2710'
p1637
sg10
S'shape'
p1638
sg12
S'Thu Jan 29 03:27:43 2015'
p1639
sg14
S'5682488'
p1640
sg16
g1634
ss.