(dp1
S'Bupleurum_odontites'
p2
(dp3
S'group'
p4
I2
sS'family'
p5
S'Apiaceae'
p6
sS'epsgCode'
p7
I4326
sS'occurencesCount'
p8
S'1'
sS'dataFormat'
p9
S'shape'
p10
sS'downloadedTime'
p11
S'Thu Jan 29 04:58:30 2015'
p12
sS'occurrenceID'
p13
S'5665579'
p14
sS'species'
p15
S'Bupleurum_odontites'
p16
ssS'Eriogonum_alpinum'
p17
(dp18
g4
I15
sg5
S'Polygonaceae'
p19
sg7
I4326
sg8
S'6'
sg9
S'shape'
p20
sg11
S'Wed Jan 28 20:21:34 2015'
p21
sg13
S'5665581'
p22
sg15
S'Eriogonum_alpinum'
p23
ss.