(dp1
S'Bupleurum_odontites'
p2
(dp3
S'group'
p4
I-9999
sS'family'
p5
S'NULL'
p6
sS'shapefile'
p7
g6
sS'epsgCode'
p8
I4326
sS'occurencesCount'
p9
g6
sS'downloadedTime'
p10
g6
sS'occurrenceID'
p11
S'5665579'
p12
sS'species'
p13
S'Bupleurum_odontites'
p14
ssS'Eriogonum_alpinum'
p15
(dp16
g4
I-9999
sg5
g6
sg7
g6
sg8
I4326
sg9
g6
sg10
g6
sg11
S'5665581'
p17
sg13
S'Eriogonum_alpinum'
p18
ss.