(dp1
S'Zephyranthes_jonesii'
p2
(dp3
S'group'
p4
I1
sS'family'
p5
S'Amaryllidaceae'
p6
sS'epsgCode'
p7
I4326
sS'occurencesCount'
p8
S'34'
p9
sS'dataFormat'
p10
S'shape'
p11
sS'downloadedTime'
p12
S'Wed Jan 28 19:17:03 2015'
p13
sS'occurrenceID'
p14
S'5665583'
p15
sS'species'
p16
g2
ssS'Yeatesia_viridiflora'
p17
(dp18
g4
I1
sg5
S'Acanthaceae'
p19
sg7
I4326
sg8
S'30'
p20
sg10
S'shape'
p21
sg12
S'Thu Jan 29 03:48:08 2015'
p22
sg14
S'5670470'
p23
sg16
g17
ssS'Allium_drummondii'
p24
(dp25
g4
I1
sg5
S'Amaryllidaceae'
p26
sg7
I4326
sg8
S'335'
p27
sg10
S'shape'
p28
sg12
S'Wed Jan 28 16:51:32 2015'
p29
sg14
S'5665612'
p30
sg16
g24
ssS'Atriplex_obovata'
p31
(dp32
g4
I1
sg5
S'Amaranthaceae'
p33
sg7
I4326
sg8
S'281'
p34
sg10
S'shape'
p35
sg12
S'Wed Jan 28 17:39:40 2015'
p36
sg14
S'5665623'
p37
sg16
g31
ssS'Sagittaria_longiloba'
p38
(dp39
g4
I1
sg5
S'Alismataceae'
p40
sg7
I4326
sg8
S'175'
p41
sg10
S'shape'
p42
sg12
S'Thu Jan 29 02:05:19 2015'
p43
sg14
S'5665645'
p44
sg16
g38
ssS'Allium_ampeloprasum'
p45
(dp46
g4
I1
sg5
S'Amaryllidaceae'
p47
sg7
I4326
sg8
S'98'
p48
sg10
S'shape'
p49
sg12
S'Wed Jan 28 16:49:50 2015'
p50
sg14
S'5665654'
p51
sg16
g45
ssS'Viburnum_ellipticum'
p52
(dp53
g4
I1
sg5
S'Adoxaceae'
p54
sg7
I4326
sg8
S'103'
p55
sg10
S'shape'
p56
sg12
S'Thu Jan 29 03:39:09 2015'
p57
sg14
S'5665718'
p58
sg16
g52
ssS'Sambucus_racemosa'
p59
(dp60
g4
I1
sg5
S'Adoxaceae'
p61
sg7
I4326
sg8
S'2322'
p62
sg10
S'shape'
p63
sg12
S'Thu Jan 29 02:07:25 2015'
p64
sg14
S'5673521'
p65
sg16
g59
ssS'Mesembryanthemum_nodiflorum'
p66
(dp67
g4
I1
sg5
S'Aizoaceae'
p68
sg7
I4326
sg8
S'32'
p69
sg10
S'shape'
p70
sg12
S'Wed Jan 28 23:09:56 2015'
p71
sg14
S'5665827'
p72
sg16
g66
ssS'Allium_perdulce'
p73
(dp74
g4
I1
sg5
S'Amaryllidaceae'
p75
sg7
I4326
sg8
S'86'
p76
sg10
S'shape'
p77
sg12
S'Wed Jan 28 16:54:45 2015'
p78
sg14
S'5675324'
p79
sg16
g73
ssS'Dysphania_multifida'
p80
(dp81
g4
I1
sg5
S'Amaranthaceae'
p82
sg7
I4326
sg8
S'45'
p83
sg10
S'shape'
p84
sg12
S'Wed Jan 28 20:07:36 2015'
p85
sg14
S'5665953'
p86
sg16
g80
ssS'Phaulothamnus_spinescens'
p87
(dp88
g4
I1
sg5
S'Achatocarpaceae'
p89
sg7
I4326
sg8
S'84'
p90
sg10
S'shape'
p91
sg12
S'Thu Jan 29 00:34:29 2015'
p92
sg14
S'5673686'
p93
sg16
g87
ssS'Atriplex_confertifolia'
p94
(dp95
g4
I1
sg5
S'Amaranthaceae'
p96
sg7
I4326
sg8
S'4210'
p97
sg10
S'shape'
p98
sg12
S'Wed Jan 28 17:38:36 2015'
p99
sg14
S'5666051'
p100
sg16
g94
ssS'Hymenocallis_littoralis'
p101
(dp102
g4
I1
sg5
S'Amaryllidaceae'
p103
sg7
I4326
sg8
S'67'
p104
sg10
S'shape'
p105
sg12
S'Wed Jan 28 21:41:06 2015'
p106
sg14
S'5666053'
p107
sg16
g101
ssS'Nothoscordum_bivalve'
p108
(dp109
g4
I1
sg5
S'Amaryllidaceae'
p110
sg7
I4326
sg8
S'1247'
p111
sg10
S'shape'
p112
sg12
S'Thu Jan 29 05:36:02 2015'
p113
sg14
S'5666093'
p114
sg16
g108
ssS'Chenopodium_leptophyllum'
p115
(dp116
g4
I1
sg5
S'Amaranthaceae'
p117
sg7
I4326
sg8
S'347'
p118
sg10
S'shape'
p119
sg12
S'Wed Jan 28 18:52:16 2015'
p120
sg14
S'5666104'
p121
sg16
g115
ssS'Alternanthera_philoxeroides'
p122
(dp123
g4
I1
sg5
S'Amaranthaceae'
p124
sg7
I4326
sg8
S'391'
p125
sg10
S'shape'
p126
sg12
S'Wed Jan 28 16:54:49 2015'
p127
sg14
S'5666141'
p128
sg16
g122
ssS'Cotinus_coggygria'
p129
(dp130
g4
I1
sg5
S'Anacardiaceae'
p131
sg7
I4326
sg8
S'31'
p132
sg10
S'shape'
p133
sg12
S'Wed Jan 28 17:08:36 2015'
p134
sg14
S'5679123'
p135
sg16
g129
ssS'Froelichia_interrupta'
p136
(dp137
g4
I1
sg5
S'Amaranthaceae'
p138
sg7
I4326
sg8
S'109'
p139
sg10
S'shape'
p140
sg12
S'Wed Jan 28 20:56:28 2015'
p141
sg14
S'5666260'
p142
sg16
g136
ssS'Dysphania_ambrosioides'
p143
(dp144
g4
I1
sg5
S'Amaranthaceae'
p145
sg7
I4326
sg8
S'1570'
p146
sg10
S'shape'
p147
sg12
S'Wed Jan 28 20:07:51 2015'
p148
sg14
S'5665757'
p149
sg16
g143
ssS'Allium_obtusum'
p150
(dp151
g4
I1
sg5
S'Amaryllidaceae'
p152
sg7
I4326
sg8
S'47'
p153
sg10
S'shape'
p154
sg12
S'Wed Jan 28 16:54:20 2015'
p155
sg14
S'5666364'
p156
sg16
g150
ssS'Atriplex_hortensis'
p157
(dp158
g4
I1
sg5
S'Amaranthaceae'
p159
sg7
I4326
sg8
S'162'
p160
sg10
S'shape'
p161
sg12
S'Thu Jan 29 04:55:47 2015'
p162
sg14
S'5666458'
p163
sg16
g157
ssS'Helanthium_tenellum'
p164
(dp165
g4
I1
sg5
S'Alismataceae'
p166
sg7
I4326
sg8
S'81'
p167
sg10
S'shape'
p168
sg12
S'Wed Jan 28 21:28:07 2015'
p169
sg14
S'5666488'
p170
sg16
g164
ssS'Justicia_pectoralis'
p171
(dp172
g4
I1
sg5
S'Acanthaceae'
p173
sg7
I4326
sg8
S'35'
p174
sg10
S'shape'
p175
sg12
S'Wed Jan 28 21:59:56 2015'
p176
sg14
S'5666523'
p177
sg16
g171
ssS'Atriplex_argentea'
p178
(dp179
g4
I1
sg5
S'Amaranthaceae'
p180
sg7
I4326
sg8
S'434'
p181
sg10
S'shape'
p182
sg12
S'Thu Jan 29 04:55:40 2015'
p183
sg14
S'5680980'
p184
sg16
g178
ssS'Allium_brandegeei'
p185
(dp186
g4
I1
sg5
S'Amaryllidaceae'
p187
sg7
I4326
sg8
S'134'
p188
sg10
S'shape'
p189
sg12
S'Wed Jan 28 16:50:18 2015'
p190
sg14
S'5666550'
p191
sg16
g185
ssS'Allium_madidum'
p192
(dp193
g4
I1
sg5
S'Amaryllidaceae'
p194
sg7
I4326
sg8
S'37'
p195
sg10
S'shape'
p196
sg12
S'Wed Jan 28 16:53:33 2015'
p197
sg14
S'5666558'
p198
sg16
g192
ssS'Atriplex_acanthocarpa'
p199
(dp200
g4
I1
sg5
S'Amaranthaceae'
p201
sg7
I4326
sg8
S'72'
p202
sg10
S'shape'
p203
sg12
S'Wed Jan 28 17:39:46 2015'
p204
sg14
S'5668540'
p205
sg16
g199
ssS'Ruellia_noctiflora'
p206
(dp207
g4
I1
sg5
S'Acanthaceae'
p208
sg7
I4326
sg8
S'25'
p209
sg10
S'shape'
p210
sg12
S'Thu Jan 29 01:56:07 2015'
p211
sg14
S'5666599'
p212
sg16
g206
ssS'Viburnum_lantanoides'
p213
(dp214
g4
I1
sg5
S'Adoxaceae'
p215
sg7
I4326
sg8
S'699'
p216
sg10
S'shape'
p217
sg12
S'Thu Jan 29 03:40:19 2015'
p218
sg14
S'5673739'
p219
sg16
g213
ssS'Allium_simillimum'
p220
(dp221
g4
I1
sg5
S'Amaryllidaceae'
p222
sg7
I4326
sg8
S'34'
p223
sg10
S'shape'
p224
sg12
S'Wed Jan 28 16:56:06 2015'
p225
sg14
S'5675448'
p226
sg16
g220
ssS'Iresine_diffusa'
p227
(dp228
g4
I1
sg5
S'Amaranthaceae'
p229
sg7
I4326
sg8
S'1027'
p230
sg10
S'shape'
p231
sg12
S'Wed Jan 28 21:52:10 2015'
p232
sg14
S'5666675'
p233
sg16
g227
ssS'Atriplex_tridentata'
p234
(dp235
g4
I1
sg5
S'Amaranthaceae'
p236
sg7
I4326
sg8
S'52'
p237
sg10
S'shape'
p238
sg12
S'Wed Jan 28 17:40:17 2015'
p239
sg14
S'5666683'
p240
sg16
g234
ssS'Atriplex_suberecta'
p241
(dp242
g4
I1
sg5
S'Amaranthaceae'
p243
sg7
I4326
sg8
S'29'
p244
sg10
S'shape'
p245
sg12
S'Wed Jan 28 17:40:06 2015'
p246
sg14
S'5666740'
p247
sg16
g241
ssS'Thunbergia_alata'
p248
(dp249
g4
I1
sg5
S'Acanthaceae'
p250
sg7
I4326
sg8
S'92'
p251
sg10
S'shape'
p252
sg12
S'Thu Jan 29 03:07:46 2015'
p253
sg14
S'5666800'
p254
sg16
g248
ssS'Allium_stellatum'
p255
(dp256
g4
I1
sg5
S'Amaryllidaceae'
p257
sg7
I4326
sg8
S'318'
p258
sg10
S'shape'
p259
sg12
S'Wed Jan 28 16:56:15 2015'
p260
sg14
S'5666842'
p261
sg16
g255
ssS'Allium_geyeri'
p262
(dp263
g4
I1
sg5
S'Amaryllidaceae'
p264
sg7
I4326
sg8
S'510'
p265
sg10
S'shape'
p266
sg12
S'Wed Jan 28 16:51:55 2015'
p267
sg14
S'5675469'
p268
sg16
g262
ssS'Iresine_heterophylla'
p269
(dp270
g4
I1
sg5
S'Amaranthaceae'
p271
sg7
I4326
sg8
S'133'
p272
sg10
S'shape'
p273
sg12
S'Wed Jan 28 21:52:42 2015'
p274
sg14
S'5674251'
p275
sg16
g269
ssS'Liquidambar_styraciflua'
p276
(dp277
g4
I1
sg5
S'Altingiaceae'
p278
sg7
I4326
sg8
S'641248'
p279
sg10
S'shape'
p280
sg12
S'Wed Jan 28 22:32:18 2015'
p281
sg14
S'5666983'
p282
sg16
g276
ssS'Acorus_calamus'
p283
(dp284
g4
I1
sg5
S'Acoraceae'
p285
sg7
I4326
sg8
S'1172'
p286
sg10
S'shape'
p287
sg12
S'Wed Jan 28 16:33:06 2015'
p288
sg14
S'5666992'
p289
sg16
g283
ssS'Allium_macrum'
p290
(dp291
g4
I1
sg5
S'Amaryllidaceae'
p292
sg7
I4326
sg8
S'55'
p293
sg10
S'shape'
p294
sg12
S'Wed Jan 28 16:53:29 2015'
p295
sg14
S'5674490'
p296
sg16
g290
ssS'Chenopodium_foliosum'
p297
(dp298
g4
I1
sg5
S'Amaranthaceae'
p299
sg7
I4326
sg8
S'108'
p300
sg10
S'shape'
p301
sg12
S'Wed Jan 28 18:51:42 2015'
p302
sg14
S'5667044'
p303
sg16
g297
ssS'Allium_haematochiton'
p304
(dp305
g4
I1
sg5
S'Amaryllidaceae'
p306
sg7
I4326
sg8
S'42'
p307
sg10
S'shape'
p308
sg12
S'Wed Jan 28 16:52:24 2015'
p309
sg14
S'5681052'
p310
sg16
g304
ssS'Rhus_virens'
p311
(dp312
g4
I1
sg5
S'Anacardiaceae'
p313
sg7
I4326
sg8
S'274'
p314
sg10
S'shape'
p315
sg12
S'Thu Jan 29 01:46:42 2015'
p316
sg14
S'5667119'
p317
sg16
g311
ssS'Chenopodium_cycloides'
p318
(dp319
g4
I1
sg5
S'Amaranthaceae'
p320
sg7
I4326
sg8
S'38'
p321
sg10
S'shape'
p322
sg12
S'Thu Jan 29 04:16:57 2015'
p323
sg14
S'5667224'
p324
sg16
g318
ssS'Zephyranthes_candida'
p325
(dp326
g4
I1
sg5
S'Amaryllidaceae'
p327
sg7
I4326
sg8
S'54'
p328
sg10
S'shape'
p329
sg12
S'Thu Jan 29 03:49:56 2015'
p330
sg14
S'5667263'
p331
sg16
g325
ssS'Salicornia_rubra'
p332
(dp333
g4
I1
sg5
S'Amaranthaceae'
p334
sg7
I4326
sg8
S'147'
p335
sg10
S'shape'
p336
sg12
S'Thu Jan 29 02:02:34 2015'
p337
sg14
S'5667304'
p338
sg16
g332
ssS'Alternanthera_sessilis'
p339
(dp340
g4
I1
sg5
S'Amaranthaceae'
p341
sg7
I4326
sg8
S'60'
p342
sg10
S'shape'
p343
sg12
S'Wed Jan 28 16:56:10 2015'
p344
sg14
S'5667425'
p345
sg16
g339
ssS'Chenopodium_subglabrum'
p346
(dp347
g4
I1
sg5
S'Amaranthaceae'
p348
sg7
I4326
sg8
S'37'
p349
sg10
S'shape'
p350
sg12
S'Wed Jan 28 18:48:51 2015'
p351
sg14
S'5667577'
p352
sg16
g346
ssS'Justicia_ovata'
p353
(dp354
g4
I1
sg5
S'Acanthaceae'
p355
sg7
I4326
sg8
S'318'
p356
sg10
S'shape'
p357
sg12
S'Wed Jan 28 22:05:24 2015'
p358
sg14
S'5667583'
p359
sg16
g353
ssS'Allium_acuminatum'
p360
(dp361
g4
I1
sg5
S'Amaryllidaceae'
p362
sg7
I4326
sg8
S'557'
p363
sg10
S'shape'
p364
sg12
S'Wed Jan 28 16:49:26 2015'
p365
sg14
S'5667667'
p366
sg16
g360
ssS'Alisma_lanceolatum'
p367
(dp368
g4
I1
sg5
S'Alismataceae'
p369
sg7
I4326
sg8
S'46'
p370
sg10
S'shape'
p371
sg12
S'Wed Jan 28 16:52:23 2015'
p372
sg14
S'5667718'
p373
sg16
g367
ssS'Salsola_collina'
p374
(dp375
g4
I1
sg5
S'Amaranthaceae'
p376
sg7
I4326
sg8
S'154'
p377
sg10
S'shape'
p378
sg12
S'Thu Jan 29 04:39:28 2015'
p379
sg14
S'5667761'
p380
sg16
g374
ssS'Allium_serra'
p381
(dp382
g4
I1
sg5
S'Amaryllidaceae'
p383
sg7
I4326
sg8
S'49'
p384
sg10
S'shape'
p385
sg12
S'Wed Jan 28 16:55:58 2015'
p386
sg14
S'5679675'
p387
sg16
g381
ssS'Atriplex_fruticulosa'
p388
(dp389
g4
I1
sg5
S'Amaranthaceae'
p390
sg7
I4326
sg8
S'39'
p391
sg10
S'shape'
p392
sg12
S'Thu Jan 29 04:55:46 2015'
p393
sg14
S'5667882'
p394
sg16
g388
ssS'Narcissus_tazetta'
p395
(dp396
g4
I1
sg5
S'Amaryllidaceae'
p397
sg7
I4326
sg8
S'42'
p398
sg10
S'shape'
p399
sg12
S'Wed Jan 28 23:34:54 2015'
p400
sg14
S'5681063'
p401
sg16
g395
ssS'Amaranthus_greggii'
p402
(dp403
g4
I1
sg5
S'Amaranthaceae'
p404
sg7
I4326
sg8
S'99'
p405
sg10
S'shape'
p406
sg12
S'Wed Jan 28 16:59:51 2015'
p407
sg14
S'5668019'
p408
sg16
g402
ssS'Atriplex_leucophylla'
p409
(dp410
g4
I1
sg5
S'Amaranthaceae'
p411
sg7
I4326
sg8
S'37'
p412
sg10
S'shape'
p413
sg12
S'Wed Jan 28 17:39:13 2015'
p414
sg14
S'5668050'
p415
sg16
g409
ssS'Salsola_paulsenii'
p416
(dp417
g4
I1
sg5
S'Amaranthaceae'
p418
sg7
I4326
sg8
S'63'
p419
sg10
S'shape'
p420
sg12
S'Thu Jan 29 04:31:16 2015'
p421
sg14
S'5668110'
p422
sg16
g416
ssS'Allium_amplectens'
p423
(dp424
g4
I1
sg5
S'Amaryllidaceae'
p425
sg7
I4326
sg8
S'292'
p426
sg10
S'shape'
p427
sg12
S'Wed Jan 28 16:49:51 2015'
p428
sg14
S'5680422'
p429
sg16
g423
ssS'Carpobrotus_chilensis'
p430
(dp431
g4
I1
sg5
S'Aizoaceae'
p432
sg7
I4326
sg8
S'30'
p433
sg10
S'shape'
p434
sg12
S'Wed Jan 28 18:11:10 2015'
p435
sg14
S'5668178'
p436
sg16
g430
ssS'Dicliptera_brachiata'
p437
(dp438
g4
I1
sg5
S'Acanthaceae'
p439
sg7
I4326
sg8
S'416'
p440
sg10
S'shape'
p441
sg12
S'Wed Jan 28 19:55:08 2015'
p442
sg14
S'5668248'
p443
sg16
g437
ssS'Atriplex_phyllostegia'
p444
(dp445
g4
I1
sg5
S'Amaranthaceae'
p446
sg7
I4326
sg8
S'49'
p447
sg10
S'shape'
p448
sg12
S'Wed Jan 28 17:38:33 2015'
p449
sg14
S'5668274'
p450
sg16
g444
ssS'Sagittaria_demersa'
p451
(dp452
g4
I1
sg5
S'Alismataceae'
p453
sg7
I4326
sg8
S'27'
p454
sg10
S'shape'
p455
sg12
S'Thu Jan 29 02:02:27 2015'
p456
sg14
S'5681665'
p457
sg16
g451
ssS'Gomphrena_caespitosa'
p458
(dp459
g4
I1
sg5
S'Amaranthaceae'
p460
sg7
I4326
sg8
S'163'
p461
sg10
S'shape'
p462
sg12
S'Wed Jan 28 17:23:45 2015'
p463
sg14
S'5668319'
p464
sg16
g458
ssS'Suaeda_linearis'
p465
(dp466
g4
I1
sg5
S'Amaranthaceae'
p467
sg7
I4326
sg8
S'195'
p468
sg10
S'shape'
p469
sg12
S'Thu Jan 29 02:55:41 2015'
p470
sg14
S'5668345'
p471
sg16
g465
ssS'Zephyranthes_simpsonii'
p472
(dp473
g4
I1
sg5
S'Amaryllidaceae'
p474
sg7
I4326
sg8
S'86'
p475
sg10
S'shape'
p476
sg12
S'Thu Jan 29 03:49:57 2015'
p477
sg14
S'5674536'
p478
sg16
g472
ssS'Sagittaria_papillosa'
p479
(dp480
g4
I1
sg5
S'Alismataceae'
p481
sg7
I4326
sg8
S'66'
p482
sg10
S'shape'
p483
sg12
S'Thu Jan 29 02:01:43 2015'
p484
sg14
S'5668506'
p485
sg16
g479
ssS'Schinus_molle'
p486
(dp487
g4
I1
sg5
S'Anacardiaceae'
p488
sg7
I4326
sg8
S'142'
p489
sg10
S'shape'
p490
sg12
S'Thu Jan 29 02:12:04 2015'
p491
sg14
S'5668536'
p492
sg16
g486
ssS'Adoxa_moschatellina'
p493
(dp494
g4
I1
sg5
S'Adoxaceae'
p495
sg7
I4326
sg8
S'170'
p496
sg10
S'shape'
p497
sg12
S'Wed Jan 28 16:40:08 2015'
p498
sg14
S'5668617'
p499
sg16
g493
ssS'Justicia_angusta'
p500
(dp501
g4
I1
sg5
S'Acanthaceae'
p502
sg7
I4326
sg8
S'37'
p503
sg10
S'shape'
p504
sg12
S'Wed Jan 28 21:59:47 2015'
p505
sg14
S'5668679'
p506
sg16
g500
ssS'Apassalus_humistratus'
p507
(dp508
g4
I1
sg5
S'Acanthaceae'
p509
sg7
I4326
sg8
S'38'
p510
sg10
S'shape'
p511
sg12
S'Thu Jan 29 05:11:09 2015'
p512
sg14
S'5668686'
p513
sg16
g507
ssS'Atriplex_littoralis'
p514
(dp515
g4
I1
sg5
S'Amaranthaceae'
p516
sg7
I4326
sg8
S'39'
p517
sg10
S'shape'
p518
sg12
S'Wed Jan 28 17:39:28 2015'
p519
sg14
S'5668689'
p520
sg16
g514
ssS'Atriplex_serenana'
p521
(dp522
g4
I1
sg5
S'Amaranthaceae'
p523
sg7
I4326
sg8
S'38'
p524
sg10
S'shape'
p525
sg12
S'Wed Jan 28 17:40:00 2015'
p526
sg14
S'5668699'
p527
sg16
g521
ssS'Atriplex_wrightii'
p528
(dp529
g4
I1
sg5
S'Amaranthaceae'
p530
sg7
I4326
sg8
S'78'
p531
sg10
S'shape'
p532
sg12
S'Wed Jan 28 17:40:13 2015'
p533
sg14
S'5668709'
p534
sg16
g528
ssS'Atriplex_elegans'
p535
(dp536
g4
I1
sg5
S'Amaranthaceae'
p537
sg7
I4326
sg8
S'253'
p538
sg10
S'shape'
p539
sg12
S'Wed Jan 28 17:38:51 2015'
p540
sg14
S'5682174'
p541
sg16
g535
ssS'Chenopodium_fremontii'
p542
(dp543
g4
I1
sg5
S'Amaranthaceae'
p544
sg7
I4326
sg8
S'571'
p545
sg10
S'shape'
p546
sg12
S'Thu Jan 29 04:17:17 2015'
p547
sg14
S'5668874'
p548
sg16
g542
ssS'Grayia_spinosa'
p549
(dp550
g4
I1
sg5
S'Amaranthaceae'
p551
sg7
I4326
sg8
S'1252'
p552
sg10
S'shape'
p553
sg12
S'Wed Jan 28 21:15:46 2015'
p554
sg14
S'5668878'
p555
sg16
g549
ssS'Cotinus_obovatus'
p556
(dp557
g4
I1
sg5
S'Anacardiaceae'
p558
sg7
I4326
sg8
S'163'
p559
sg10
S'shape'
p560
sg12
S'Wed Jan 28 19:10:53 2015'
p561
sg14
S'5668949'
p562
sg16
g556
ssS'Allium_peninsulare'
p563
(dp564
g4
I1
sg5
S'Amaryllidaceae'
p565
sg7
I4326
sg8
S'83'
p566
sg10
S'shape'
p567
sg12
S'Wed Jan 28 16:51:15 2015'
p568
sg14
S'5668951'
p569
sg16
g563
ssS'Atriplex_coronata'
p570
(dp571
g4
I1
sg5
S'Amaranthaceae'
p572
sg7
I4326
sg8
S'57'
p573
sg10
S'shape'
p574
sg12
S'Wed Jan 28 17:38:40 2015'
p575
sg14
S'5669045'
p576
sg16
g570
ssS'Froelichia_gracilis'
p577
(dp578
g4
I1
sg5
S'Amaranthaceae'
p579
sg7
I4326
sg8
S'782'
p580
sg10
S'shape'
p581
sg12
S'Wed Jan 28 20:56:19 2015'
p582
sg14
S'5678206'
p583
sg16
g577
ssS'Froelichia_floridana'
p584
(dp585
g4
I1
sg5
S'Amaranthaceae'
p586
sg7
I4326
sg8
S'522'
p587
sg10
S'shape'
p588
sg12
S'Wed Jan 28 20:55:53 2015'
p589
sg14
S'5669101'
p590
sg16
g584
ssS'Elytraria_bromoides'
p591
(dp592
g4
I1
sg5
S'Acanthaceae'
p593
sg7
I4326
sg8
S'94'
p594
sg10
S'shape'
p595
sg12
S'Wed Jan 28 20:15:42 2015'
p596
sg14
S'5671753'
p597
sg16
g591
ssS'Amaranthus_pumilus'
p598
(dp599
g4
I1
sg5
S'Amaranthaceae'
p600
sg7
I4326
sg8
S'39'
p601
sg10
S'shape'
p602
sg12
S'Wed Jan 28 17:01:25 2015'
p603
sg14
S'5680583'
p604
sg16
g598
ssS'Sagittaria_cristata'
p605
(dp606
g4
I1
sg5
S'Alismataceae'
p607
sg7
I4326
sg8
S'31'
p608
sg10
S'shape'
p609
sg12
S'Thu Jan 29 02:00:55 2015'
p610
sg14
S'5669274'
p611
sg16
g605
ssS'Amaranthus_cruentus'
p612
(dp613
g4
I1
sg5
S'Amaranthaceae'
p614
sg7
I4326
sg8
S'88'
p615
sg10
S'shape'
p616
sg12
S'Wed Jan 28 16:59:08 2015'
p617
sg14
S'5669365'
p618
sg16
g612
ssS'Atriplex_cristata'
p619
(dp620
g4
I1
sg5
S'Amaranthaceae'
p621
sg7
I4326
sg8
S'136'
p622
sg10
S'shape'
p623
sg12
S'Wed Jan 28 17:38:43 2015'
p624
sg14
S'5672379'
p625
sg16
g619
ssS'Blutaparon_vermiculare'
p626
(dp627
g4
I1
sg5
S'Amaranthaceae'
p628
sg7
I4326
sg8
S'90'
p629
sg10
S'shape'
p630
sg12
S'Thu Jan 29 04:57:29 2015'
p631
sg14
S'5669484'
p632
sg16
g626
ssS'Elytraria_imbricata'
p633
(dp634
g4
I1
sg5
S'Acanthaceae'
p635
sg7
I4326
sg8
S'618'
p636
sg10
S'shape'
p637
sg12
S'Wed Jan 28 20:11:58 2015'
p638
sg14
S'5678294'
p639
sg16
g633
ssS'Allium_tolmiei'
p640
(dp641
g4
I1
sg5
S'Amaryllidaceae'
p642
sg7
I4326
sg8
S'276'
p643
sg10
S'shape'
p644
sg12
S'Thu Jan 29 04:11:42 2015'
p645
sg14
S'5669744'
p646
sg16
g640
ssS'Avicennia_germinans'
p647
(dp648
g4
I1
sg5
S'Acanthaceae'
p649
sg7
I4326
sg8
S'519'
p650
sg10
S'shape'
p651
sg12
S'Wed Jan 28 17:41:22 2015'
p652
sg14
S'5669851'
p653
sg16
g647
ssS'Atriplex_pusilla'
p654
(dp655
g4
I1
sg5
S'Amaranthaceae'
p656
sg7
I4326
sg8
S'34'
p657
sg10
S'shape'
p658
sg12
S'Wed Jan 28 17:40:10 2015'
p659
sg14
S'5670035'
p660
sg16
g654
ssS'Beta_vulgaris'
p661
(dp662
g4
I1
sg5
S'Amaranthaceae'
p663
sg7
I4326
sg8
S'77'
p664
sg10
S'shape'
p665
sg12
S'Wed Jan 28 17:46:14 2015'
p666
sg14
S'5670065'
p667
sg16
g661
ssS'Atriplex_parishii'
p668
(dp669
g4
I1
sg5
S'Amaranthaceae'
p670
sg7
I4326
sg8
S'129'
p671
sg10
S'shape'
p672
sg12
S'Wed Jan 28 17:39:43 2015'
p673
sg14
S'5670066'
p674
sg16
g668
ssS'Anisacanthus_quadrifidus'
p675
(dp676
g4
I1
sg5
S'Acanthaceae'
p677
sg7
I4326
sg8
S'139'
p678
sg10
S'shape'
p679
sg12
S'Wed Jan 28 17:07:41 2015'
p680
sg14
S'5670089'
p681
sg16
g675
ssS'Bassia_hyssopifolia'
p682
(dp683
g4
I1
sg5
S'Amaranthaceae'
p684
sg7
I4326
sg8
S'289'
p685
sg10
S'shape'
p686
sg12
S'Wed Jan 28 17:41:55 2015'
p687
sg14
S'5670131'
p688
sg16
g682
ssS'Allium_anceps'
p689
(dp690
g4
I1
sg5
S'Amaryllidaceae'
p691
sg7
I4326
sg8
S'63'
p692
sg10
S'shape'
p693
sg12
S'Wed Jan 28 16:49:58 2015'
p694
sg14
S'5670196'
p695
sg16
g689
ssS'Ruellia_parryi'
p696
(dp697
g4
I1
sg5
S'Acanthaceae'
p698
sg7
I4326
sg8
S'36'
p699
sg10
S'shape'
p700
sg12
S'Thu Jan 29 01:56:45 2015'
p701
sg14
S'5671013'
p702
sg16
g696
ssS'Iresine_rhizomatosa'
p703
(dp704
g4
I1
sg5
S'Amaranthaceae'
p705
sg7
I4326
sg8
S'334'
p706
sg10
S'shape'
p707
sg12
S'Wed Jan 28 21:53:08 2015'
p708
sg14
S'5670256'
p709
sg16
g703
ssS'Amaranthus_viridis'
p710
(dp711
g4
I1
sg5
S'Amaranthaceae'
p712
sg7
I4326
sg8
S'160'
p713
sg10
S'shape'
p714
sg12
S'Wed Jan 28 16:58:14 2015'
p715
sg14
S'5670267'
p716
sg16
g710
ssS'Allium_canadense'
p717
(dp718
g4
I1
sg5
S'Amaryllidaceae'
p719
sg7
I4326
sg8
S'1935'
p720
sg10
S'shape'
p721
sg12
S'Wed Jan 28 16:50:49 2015'
p722
sg14
S'5680742'
p723
sg16
g717
ssS'Amaranthus_blitoides'
p724
(dp725
g4
I1
sg5
S'Amaranthaceae'
p726
sg7
I4326
sg8
S'979'
p727
sg10
S'shape'
p728
sg12
S'Wed Jan 28 16:58:13 2015'
p729
sg14
S'5670304'
p730
sg16
g724
ssS'Viburnum_dentatum'
p731
(dp732
g4
I1
sg5
S'Adoxaceae'
p733
sg7
I4326
sg8
S'1304'
p734
sg10
S'shape'
p735
sg12
S'Thu Jan 29 06:03:08 2015'
p736
sg14
S'5670377'
p737
sg16
g731
ssS'Dysphania_botrys'
p738
(dp739
g4
I1
sg5
S'Amaranthaceae'
p740
sg7
I4326
sg8
S'664'
p741
sg10
S'shape'
p742
sg12
S'Wed Jan 28 20:07:28 2015'
p743
sg14
S'5670550'
p744
sg16
g738
ssS'Alisma_subcordatum'
p745
(dp746
g4
I1
sg5
S'Alismataceae'
p747
sg7
I4326
sg8
S'1105'
p748
sg10
S'shape'
p749
sg12
S'Wed Jan 28 16:56:23 2015'
p750
sg14
S'5670641'
p751
sg16
g745
ssS'Amaranthus_tucsonensis'
p752
(dp753
g4
I1
sg5
S'Amaranthaceae'
p754
sg7
I4326
sg8
S'28'
p755
sg10
S'shape'
p756
sg12
S'Wed Jan 28 17:02:26 2015'
p757
sg14
S'5670665'
p758
sg16
g752
ssS'Celosia_nitida'
p759
(dp760
g4
I1
sg5
S'Amaranthaceae'
p761
sg7
I4326
sg8
S'70'
p762
sg10
S'shape'
p763
sg12
S'Wed Jan 28 18:41:33 2015'
p764
sg14
S'5670711'
p765
sg16
g759
ssS'Allenrolfea_occidentalis'
p766
(dp767
g4
I1
sg5
S'Amaranthaceae'
p768
sg7
I4326
sg8
S'373'
p769
sg10
S'shape'
p770
sg12
S'Wed Jan 28 16:54:23 2015'
p771
sg14
S'5670792'
p772
sg16
g766
ssS'Amaranthus_blitum'
p773
(dp774
g4
I1
sg5
S'Amaranthaceae'
p775
sg7
I4326
sg8
S'73'
p776
sg10
S'shape'
p777
sg12
S'Wed Jan 28 16:58:11 2015'
p778
sg14
S'5670833'
p779
sg16
g773
ssS'Allium_crispum'
p780
(dp781
g4
I1
sg5
S'Amaryllidaceae'
p782
sg7
I4326
sg8
S'38'
p783
sg10
S'shape'
p784
sg12
S'Wed Jan 28 16:51:12 2015'
p785
sg14
S'5670911'
p786
sg16
g780
ssS'Chenopodium_atrovirens'
p787
(dp788
g4
I1
sg5
S'Amaranthaceae'
p789
sg7
I4326
sg8
S'213'
p790
sg10
S'shape'
p791
sg12
S'Wed Jan 28 18:49:10 2015'
p792
sg14
S'5680842'
p793
sg16
g787
ssS'Narcissus_jonquilla'
p794
(dp795
g4
I1
sg5
S'Amaryllidaceae'
p796
sg7
I4326
sg8
S'36'
p797
sg10
S'shape'
p798
sg12
S'Wed Jan 28 23:33:57 2015'
p799
sg14
S'5671035'
p800
sg16
g794
ssS'Allium_nevadense'
p801
(dp802
g4
I1
sg5
S'Amaryllidaceae'
p803
sg7
I4326
sg8
S'81'
p804
sg10
S'shape'
p805
sg12
S'Wed Jan 28 16:50:05 2015'
p806
sg14
S'5671037'
p807
sg16
g801
ssS'Atriplex_polycarpa'
p808
(dp809
g4
I1
sg5
S'Amaranthaceae'
p810
sg7
I4326
sg8
S'293'
p811
sg10
S'shape'
p812
sg12
S'Thu Jan 29 04:29:45 2015'
p813
sg14
S'5671073'
p814
sg16
g808
ssS'Suaeda_calceoliformis'
p815
(dp816
g4
I1
sg5
S'Amaranthaceae'
p817
sg7
I4326
sg8
S'495'
p818
sg10
S'shape'
p819
sg12
S'Thu Jan 29 02:53:49 2015'
p820
sg14
S'5671169'
p821
sg16
g815
ssS'Celosia_argentea'
p822
(dp823
g4
I1
sg5
S'Amaranthaceae'
p824
sg7
I4326
sg8
S'91'
p825
sg10
S'shape'
p826
sg12
S'Wed Jan 28 18:47:21 2015'
p827
sg14
S'5671212'
p828
sg16
g822
ssS'Allium_siskiyouense'
p829
(dp830
g4
I1
sg5
S'Amaryllidaceae'
p831
sg7
I4326
sg8
S'73'
p832
sg10
S'shape'
p833
sg12
S'Wed Jan 28 16:56:07 2015'
p834
sg14
S'5671236'
p835
sg16
g829
ssS'Tetramerium_nervosum'
p836
(dp837
g4
I1
sg5
S'Acanthaceae'
p838
sg7
I4326
sg8
S'574'
p839
sg10
S'shape'
p840
sg12
S'Thu Jan 29 03:04:45 2015'
p841
sg14
S'5672142'
p842
sg16
g836
ssS'Sagittaria_graminea'
p843
(dp844
g4
I1
sg5
S'Alismataceae'
p845
sg7
I4326
sg8
S'865'
p846
sg10
S'shape'
p847
sg12
S'Thu Jan 29 02:03:30 2015'
p848
sg14
S'5671401'
p849
sg16
g843
ssS'Amaranthus_arenicola'
p850
(dp851
g4
I1
sg5
S'Amaranthaceae'
p852
sg7
I4326
sg8
S'311'
p853
sg10
S'shape'
p854
sg12
S'Wed Jan 28 16:57:33 2015'
p855
sg14
S'5671413'
p856
sg16
g850
ssS'Atriplex_corrugata'
p857
(dp858
g4
I1
sg5
S'Amaranthaceae'
p859
sg7
I4326
sg8
S'264'
p860
sg10
S'shape'
p861
sg12
S'Wed Jan 28 17:38:47 2015'
p862
sg14
S'5671417'
p863
sg16
g857
ssS'Sagittaria_cuneata'
p864
(dp865
g4
I1
sg5
S'Alismataceae'
p866
sg7
I4326
sg8
S'806'
p867
sg10
S'shape'
p868
sg12
S'Thu Jan 29 02:02:21 2015'
p869
sg14
S'5671435'
p870
sg16
g864
ssS'Mangifera_indica'
p871
(dp872
g4
I1
sg5
S'Anacardiaceae'
p873
sg7
I4326
sg8
S'184'
p874
sg10
S'shape'
p875
sg12
S'Wed Jan 28 23:07:23 2015'
p876
sg14
S'5667482'
p877
sg16
g871
ssS'Amaranthus_californicus'
p878
(dp879
g4
I1
sg5
S'Amaranthaceae'
p880
sg7
I4326
sg8
S'106'
p881
sg10
S'shape'
p882
sg12
S'Wed Jan 28 16:58:26 2015'
p883
sg14
S'5671459'
p884
sg16
g878
ssS'Hymenocallis_palmeri'
p885
(dp886
g4
I1
sg5
S'Amaryllidaceae'
p887
sg7
I4326
sg8
S'29'
p888
sg10
S'shape'
p889
sg12
S'Wed Jan 28 21:41:16 2015'
p890
sg14
S'5678532'
p891
sg16
g885
ssS'Allium_campanulatum'
p892
(dp893
g4
I1
sg5
S'Amaryllidaceae'
p894
sg7
I4326
sg8
S'195'
p895
sg10
S'shape'
p896
sg12
S'Wed Jan 28 16:50:31 2015'
p897
sg14
S'5671480'
p898
sg16
g892
ssS'Nitrophila_occidentalis'
p899
(dp900
g4
I1
sg5
S'Amaranthaceae'
p901
sg7
I4326
sg8
S'114'
p902
sg10
S'shape'
p903
sg12
S'Wed Jan 28 23:38:08 2015'
p904
sg14
S'5671542'
p905
sg16
g899
ssS'Chenopodium_nevadense'
p906
(dp907
g4
I1
sg5
S'Amaranthaceae'
p908
sg7
I4326
sg8
S'37'
p909
sg10
S'shape'
p910
sg12
S'Wed Jan 28 18:54:21 2015'
p911
sg14
S'5671559'
p912
sg16
g906
ssS'Chenopodium_desiccatum'
p913
(dp914
g4
I1
sg5
S'Amaranthaceae'
p915
sg7
I4326
sg8
S'466'
p916
sg10
S'shape'
p917
sg12
S'Wed Jan 28 18:50:33 2015'
p918
sg14
S'5671574'
p919
sg16
g913
ssS'Sagittaria_sanfordii'
p920
(dp921
g4
I1
sg5
S'Alismataceae'
p922
sg7
I4326
sg8
S'24'
p923
sg10
S'shape'
p924
sg12
S'Thu Jan 29 02:09:16 2015'
p925
sg14
S'5668891'
p926
sg16
g920
ssS'Ruellia_occidentalis'
p927
(dp928
g4
I1
sg5
S'Acanthaceae'
p929
sg7
I4326
sg8
S'65'
p930
sg10
S'shape'
p931
sg12
S'Thu Jan 29 01:54:51 2015'
p932
sg14
S'5671772'
p933
sg16
g927
ssS'Viburnum_lantana'
p934
(dp935
g4
I1
sg5
S'Adoxaceae'
p936
sg7
I4326
sg8
S'55'
p937
sg10
S'shape'
p938
sg12
S'Thu Jan 29 03:39:10 2015'
p939
sg14
S'5671779'
p940
sg16
g934
ssS'Chenopodium_pallescens'
p941
(dp942
g4
I1
sg5
S'Amaranthaceae'
p943
sg7
I4326
sg8
S'116'
p944
sg10
S'shape'
p945
sg12
S'Wed Jan 28 18:54:46 2015'
p946
sg14
S'5671787'
p947
sg16
g941
ssS'Damasonium_californicum'
p948
(dp949
g4
I1
sg5
S'Alismataceae'
p950
sg7
I4326
sg8
S'104'
p951
sg10
S'shape'
p952
sg12
S'Wed Jan 28 19:47:10 2015'
p953
sg14
S'5671854'
p954
sg16
g948
ssS'Allium_unifolium'
p955
(dp956
g4
I1
sg5
S'Amaryllidaceae'
p957
sg7
I4326
sg8
S'29'
p958
sg10
S'shape'
p959
sg12
S'Wed Jan 28 16:56:42 2015'
p960
sg14
S'5671874'
p961
sg16
g955
ssS'Justicia_candicans'
p962
(dp963
g4
I1
sg5
S'Acanthaceae'
p964
sg7
I4326
sg8
S'251'
p965
sg10
S'shape'
p966
sg12
S'Wed Jan 28 22:02:11 2015'
p967
sg14
S'5671912'
p968
sg16
g962
ssS'Chenopodium_watsonii'
p969
(dp970
g4
I1
sg5
S'Amaranthaceae'
p971
sg7
I4326
sg8
S'144'
p972
sg10
S'shape'
p973
sg12
S'Wed Jan 28 18:58:07 2015'
p974
sg14
S'5671939'
p975
sg16
g969
ssS'Amaranthus_albus'
p976
(dp977
g4
I1
sg5
S'Amaranthaceae'
p978
sg7
I4326
sg8
S'1508'
p979
sg10
S'shape'
p980
sg12
S'Wed Jan 28 16:57:24 2015'
p981
sg14
S'5671963'
p982
sg16
g976
ssS'Alternanthera_flavescens'
p983
(dp984
g4
I1
sg5
S'Amaranthaceae'
p985
sg7
I4326
sg8
S'25'
p986
sg10
S'shape'
p987
sg12
S'Wed Jan 28 16:51:48 2015'
p988
sg14
S'5672049'
p989
sg16
g983
ssS'Allium_platycaule'
p990
(dp991
g4
I1
sg5
S'Amaryllidaceae'
p992
sg7
I4326
sg8
S'72'
p993
sg10
S'shape'
p994
sg12
S'Wed Jan 28 16:54:56 2015'
p995
sg14
S'5672076'
p996
sg16
g990
ssS'Chenopodium_chenopodioides'
p997
(dp998
g4
I1
sg5
S'Amaranthaceae'
p999
sg7
I4326
sg8
S'39'
p1000
sg10
S'shape'
p1001
sg12
S'Wed Jan 28 18:50:06 2015'
p1002
sg14
S'5678923'
p1003
sg16
g997
ssS'Tetragonia_tetragonioides'
p1004
(dp1005
g4
I1
sg5
S'Aizoaceae'
p1006
sg7
I4326
sg8
S'35'
p1007
sg10
S'shape'
p1008
sg12
S'Thu Jan 29 06:00:07 2015'
p1009
sg14
S'5672168'
p1010
sg16
g1004
ssS'Gomphrena_serrata'
p1011
(dp1012
g4
I1
sg5
S'Amaranthaceae'
p1013
sg7
I4326
sg8
S'612'
p1014
sg10
S'shape'
p1015
sg12
S'Wed Jan 28 21:14:14 2015'
p1016
sg14
S'5672223'
p1017
sg16
g1011
ssS'Chenopodium_strictum'
p1018
(dp1019
g4
I1
sg5
S'Amaranthaceae'
p1020
sg7
I4326
sg8
S'133'
p1021
sg10
S'shape'
p1022
sg12
S'Wed Jan 28 18:56:39 2015'
p1023
sg14
S'5672273'
p1024
sg16
g1018
ssS'Atriplex_gardneri'
p1025
(dp1026
g4
I1
sg5
S'Amaranthaceae'
p1027
sg7
I4326
sg8
S'335'
p1028
sg10
S'shape'
p1029
sg12
S'Wed Jan 28 17:39:07 2015'
p1030
sg14
S'5672338'
p1031
sg16
g1025
ssS'Toxicodendron_vernix'
p1032
(dp1033
g4
I1
sg5
S'Anacardiaceae'
p1034
sg7
I4326
sg8
S'696'
p1035
sg10
S'shape'
p1036
sg12
S'Thu Jan 29 03:12:46 2015'
p1037
sg14
S'5672360'
p1038
sg16
g1032
ssS'Corispermum_villosum'
p1039
(dp1040
g4
I1
sg5
S'Amaranthaceae'
p1041
sg7
I4326
sg8
S'38'
p1042
sg10
S'shape'
p1043
sg12
S'Wed Jan 28 19:16:55 2015'
p1044
sg14
S'5672389'
p1045
sg16
g1039
ssS'Salicornia_maritima'
p1046
(dp1047
g4
I1
sg5
S'Amaranthaceae'
p1048
sg7
I4326
sg8
S'67'
p1049
sg10
S'shape'
p1050
sg12
S'Thu Jan 29 02:02:33 2015'
p1051
sg14
S'5672503'
p1052
sg16
g1046
ssS'Viburnum_prunifolium'
p1053
(dp1054
g4
I1
sg5
S'Adoxaceae'
p1055
sg7
I4326
sg8
S'2419'
p1056
sg10
S'shape'
p1057
sg12
S'Thu Jan 29 03:42:06 2015'
p1058
sg14
S'5666931'
p1059
sg16
g1053
ssS'Spondias_purpurea'
p1060
(dp1061
g4
I1
sg5
S'Anacardiaceae'
p1062
sg7
I4326
sg8
S'266'
p1063
sg10
S'shape'
p1064
sg12
S'Thu Jan 29 04:43:58 2015'
p1065
sg14
S'5668205'
p1066
sg16
g1060
ssS'Sagittaria_ambigua'
p1067
(dp1068
g4
I1
sg5
S'Alismataceae'
p1069
sg7
I4326
sg8
S'45'
p1070
sg10
S'shape'
p1071
sg12
S'Thu Jan 29 02:10:31 2015'
p1072
sg14
S'5668922'
p1073
sg16
g1067
ssS'Allium_bisceptrum'
p1074
(dp1075
g4
I1
sg5
S'Amaryllidaceae'
p1076
sg7
I4326
sg8
S'182'
p1077
sg10
S'shape'
p1078
sg12
S'Wed Jan 28 16:50:12 2015'
p1079
sg14
S'5672560'
p1080
sg16
g1074
ssS'Atriplex_californica'
p1081
(dp1082
g4
I1
sg5
S'Amaranthaceae'
p1083
sg7
I4326
sg8
S'35'
p1084
sg10
S'shape'
p1085
sg12
S'Thu Jan 29 04:55:42 2015'
p1086
sg14
S'5672643'
p1087
sg16
g1081
ssS'Allium_nevii'
p1088
(dp1089
g4
I1
sg5
S'Amaryllidaceae'
p1090
sg7
I4326
sg8
S'31'
p1091
sg10
S'shape'
p1092
sg12
S'Wed Jan 28 16:54:05 2015'
p1093
sg14
S'5672687'
p1094
sg16
g1088
ssS'Allium_gooddingii'
p1095
(dp1096
g4
I1
sg5
S'Amaryllidaceae'
p1097
sg7
I4326
sg8
S'41'
p1098
sg10
S'shape'
p1099
sg12
S'Wed Jan 28 16:52:06 2015'
p1100
sg14
S'5672697'
p1101
sg16
g1095
ssS'Stenandrium_barbatum'
p1102
(dp1103
g4
I1
sg5
S'Acanthaceae'
p1104
sg7
I4326
sg8
S'42'
p1105
sg10
S'shape'
p1106
sg12
S'Thu Jan 29 02:54:20 2015'
p1107
sg14
S'5671786'
p1108
sg16
g1102
ssS'Rhus_michauxii'
p1109
(dp1110
g4
I1
sg5
S'Anacardiaceae'
p1111
sg7
I4326
sg8
S'32'
p1112
sg10
S'shape'
p1113
sg12
S'Thu Jan 29 01:44:14 2015'
p1114
sg14
S'5672723'
p1115
sg16
g1109
ssS'Suaeda_occidentalis'
p1116
(dp1117
g4
I1
sg5
S'Amaranthaceae'
p1118
sg7
I4326
sg8
S'42'
p1119
sg10
S'shape'
p1120
sg12
S'Thu Jan 29 02:55:56 2015'
p1121
sg14
S'5668609'
p1122
sg16
g1116
ssS'Froelichia_arizonica'
p1123
(dp1124
g4
I1
sg5
S'Amaranthaceae'
p1125
sg7
I4326
sg8
S'162'
p1126
sg10
S'shape'
p1127
sg12
S'Thu Jan 29 05:17:22 2015'
p1128
sg14
S'5677717'
p1129
sg16
g1123
ssS'Amaranthus_palmeri'
p1130
(dp1131
g4
I1
sg5
S'Amaranthaceae'
p1132
sg7
I4326
sg8
S'828'
p1133
sg10
S'shape'
p1134
sg12
S'Wed Jan 28 17:01:05 2015'
p1135
sg14
S'5672761'
p1136
sg16
g1130
ssS'Amaranthus_deflexus'
p1137
(dp1138
g4
I1
sg5
S'Amaranthaceae'
p1139
sg7
I4326
sg8
S'48'
p1140
sg10
S'shape'
p1141
sg12
S'Wed Jan 28 16:59:11 2015'
p1142
sg14
S'5680133'
p1143
sg16
g1137
ssS'Amaranthus_spinosus'
p1144
(dp1145
g4
I1
sg5
S'Amaranthaceae'
p1146
sg7
I4326
sg8
S'1075'
p1147
sg10
S'shape'
p1148
sg12
S'Wed Jan 28 17:01:57 2015'
p1149
sg14
S'5672891'
p1150
sg16
g1144
ssS'Echinodorus_berteroi'
p1151
(dp1152
g4
I1
sg5
S'Alismataceae'
p1153
sg7
I4326
sg8
S'404'
p1154
sg10
S'shape'
p1155
sg12
S'Wed Jan 28 20:09:22 2015'
p1156
sg14
S'5678742'
p1157
sg16
g1151
ssS'Allium_parvum'
p1158
(dp1159
g4
I1
sg5
S'Amaryllidaceae'
p1160
sg7
I4326
sg8
S'130'
p1161
sg10
S'shape'
p1162
sg12
S'Wed Jan 28 16:51:08 2015'
p1163
sg14
S'5679383'
p1164
sg16
g1158
ssS'Halogeton_glomeratus'
p1165
(dp1166
g4
I1
sg5
S'Amaranthaceae'
p1167
sg7
I4326
sg8
S'1018'
p1168
sg10
S'shape'
p1169
sg12
S'Thu Jan 29 04:42:54 2015'
p1170
sg14
S'5673016'
p1171
sg16
g1165
ssS'Dysphania_pumilio'
p1172
(dp1173
g4
I1
sg5
S'Amaranthaceae'
p1174
sg7
I4326
sg8
S'201'
p1175
sg10
S'shape'
p1176
sg12
S'Thu Jan 29 05:11:11 2015'
p1177
sg14
S'5678767'
p1178
sg16
g1172
ssS'Dyschoriste_schiedeana'
p1179
(dp1180
g4
I1
sg5
S'Acanthaceae'
p1181
sg7
I4326
sg8
S'331'
p1182
sg10
S'shape'
p1183
sg12
S'Wed Jan 28 20:07:28 2015'
p1184
sg14
S'5673243'
p1185
sg16
g1179
ssS'Viburnum_plicatum'
p1186
(dp1187
g4
I1
sg5
S'Adoxaceae'
p1188
sg7
I4326
sg8
S'76'
p1189
sg10
S'shape'
p1190
sg12
S'Thu Jan 29 03:41:44 2015'
p1191
sg14
S'5673268'
p1192
sg16
g1186
ssS'Allium_textile'
p1193
(dp1194
g4
I1
sg5
S'Amaryllidaceae'
p1195
sg7
I4326
sg8
S'673'
p1196
sg10
S'shape'
p1197
sg12
S'Wed Jan 28 16:56:32 2015'
p1198
sg14
S'5673303'
p1199
sg16
g1193
ssS'Allium_atrorubens'
p1200
(dp1201
g4
I1
sg5
S'Amaryllidaceae'
p1202
sg7
I4326
sg8
S'53'
p1203
sg10
S'shape'
p1204
sg12
S'Wed Jan 28 16:50:03 2015'
p1205
sg14
S'5678795'
p1206
sg16
g1200
ssS'Ruellia_nudiflora'
p1207
(dp1208
g4
I1
sg5
S'Acanthaceae'
p1209
sg7
I4326
sg8
S'482'
p1210
sg10
S'shape'
p1211
sg12
S'Thu Jan 29 01:56:37 2015'
p1212
sg14
S'5673333'
p1213
sg16
g1207
ssS'Allium_bigelovii'
p1214
(dp1215
g4
I1
sg5
S'Amaryllidaceae'
p1216
sg7
I4326
sg8
S'30'
p1217
sg10
S'shape'
p1218
sg12
S'Wed Jan 28 16:50:10 2015'
p1219
sg14
S'5673350'
p1220
sg16
g1214
ssS'Amaranthus_powellii'
p1221
(dp1222
g4
I1
sg5
S'Amaranthaceae'
p1223
sg7
I4326
sg8
S'518'
p1224
sg10
S'shape'
p1225
sg12
S'Wed Jan 28 17:01:17 2015'
p1226
sg14
S'5673372'
p1227
sg16
g1221
ssS'Dicliptera_sexangularis'
p1228
(dp1229
g4
I1
sg5
S'Acanthaceae'
p1230
sg7
I4326
sg8
S'187'
p1231
sg10
S'shape'
p1232
sg12
S'Wed Jan 28 19:58:13 2015'
p1233
sg14
S'5674876'
p1234
sg16
g1228
ssS'Amaranthus_crassipes'
p1235
(dp1236
g4
I1
sg5
S'Amaranthaceae'
p1237
sg7
I4326
sg8
S'39'
p1238
sg10
S'shape'
p1239
sg12
S'Wed Jan 28 16:59:07 2015'
p1240
sg14
S'5674879'
p1241
sg16
g1235
ssS'Suaeda_taxifolia'
p1242
(dp1243
g4
I1
sg5
S'Amaranthaceae'
p1244
sg7
I4326
sg8
S'26'
p1245
sg10
S'shape'
p1246
sg12
S'Thu Jan 29 02:56:09 2015'
p1247
sg14
S'5674883'
p1248
sg16
g1242
ssS'Sagittaria_platyphylla'
p1249
(dp1250
g4
I1
sg5
S'Alismataceae'
p1251
sg7
I4326
sg8
S'225'
p1252
sg10
S'shape'
p1253
sg12
S'Thu Jan 29 02:07:50 2015'
p1254
sg14
S'5674905'
p1255
sg16
g1249
ssS'Amaranthus_cannabinus'
p1256
(dp1257
g4
I1
sg5
S'Amaranthaceae'
p1258
sg7
I4326
sg8
S'220'
p1259
sg10
S'shape'
p1260
sg12
S'Wed Jan 28 16:58:33 2015'
p1261
sg14
S'5680617'
p1262
sg16
g1256
ssS'Allium_fibrillum'
p1263
(dp1264
g4
I1
sg5
S'Amaryllidaceae'
p1265
sg7
I4326
sg8
S'82'
p1266
sg10
S'shape'
p1267
sg12
S'Wed Jan 28 16:51:40 2015'
p1268
sg14
S'5680927'
p1269
sg16
g1263
ssS'Narcissus_poeticus'
p1270
(dp1271
g4
I1
sg5
S'Amaryllidaceae'
p1272
sg7
I4326
sg8
S'136'
p1273
sg10
S'shape'
p1274
sg12
S'Wed Jan 28 23:34:37 2015'
p1275
sg14
S'5675164'
p1276
sg16
g1270
ssS'Chenopodium_ficifolium'
p1277
(dp1278
g4
I1
sg5
S'Amaranthaceae'
p1279
sg7
I4326
sg8
S'39'
p1280
sg10
S'shape'
p1281
sg12
S'Wed Jan 28 18:50:38 2015'
p1282
sg14
S'5675208'
p1283
sg16
g1277
ssS'Carlowrightia_parviflora'
p1284
(dp1285
g4
I1
sg5
S'Acanthaceae'
p1286
sg7
I4326
sg8
S'45'
p1287
sg10
S'shape'
p1288
sg12
S'Wed Jan 28 18:24:56 2015'
p1289
sg14
S'5679541'
p1290
sg16
g1284
ssS'Anisacanthus_thurberi'
p1291
(dp1292
g4
I1
sg5
S'Acanthaceae'
p1293
sg7
I4326
sg8
S'364'
p1294
sg10
S'shape'
p1295
sg12
S'Wed Jan 28 17:08:22 2015'
p1296
sg14
S'5675300'
p1297
sg16
g1291
ssS'Salicornia_bigelovii'
p1298
(dp1299
g4
I1
sg5
S'Amaranthaceae'
p1300
sg7
I4326
sg8
S'184'
p1301
sg10
S'shape'
p1302
sg12
S'Thu Jan 29 05:54:57 2015'
p1303
sg14
S'5675301'
p1304
sg16
g1298
ssS'Thunbergia_fragrans'
p1305
(dp1306
g4
I1
sg5
S'Acanthaceae'
p1307
sg7
I4326
sg8
S'27'
p1308
sg10
S'shape'
p1309
sg12
S'Thu Jan 29 03:06:10 2015'
p1310
sg14
S'5675341'
p1311
sg16
g1305
ssS'Allium_sanbornii'
p1312
(dp1313
g4
I1
sg5
S'Amaryllidaceae'
p1314
sg7
I4326
sg8
S'31'
p1315
sg10
S'shape'
p1316
sg12
S'Wed Jan 28 16:52:54 2015'
p1317
sg14
S'5675382'
p1318
sg16
g1312
ssS'Sagittaria_isoetiformis'
p1319
(dp1320
g4
I1
sg5
S'Alismataceae'
p1321
sg7
I4326
sg8
S'57'
p1322
sg10
S'shape'
p1323
sg12
S'Thu Jan 29 02:04:20 2015'
p1324
sg14
S'5666218'
p1325
sg16
g1319
ssS'Justicia_californica'
p1326
(dp1327
g4
I1
sg5
S'Acanthaceae'
p1328
sg7
I4326
sg8
S'344'
p1329
sg10
S'shape'
p1330
sg12
S'Thu Jan 29 04:43:48 2015'
p1331
sg14
S'5675437'
p1332
sg16
g1326
ssS'Ruellia_pedunculata'
p1333
(dp1334
g4
I1
sg5
S'Acanthaceae'
p1335
sg7
I4326
sg8
S'249'
p1336
sg10
S'shape'
p1337
sg12
S'Thu Jan 29 01:57:06 2015'
p1338
sg14
S'5674561'
p1339
sg16
g1333
ssS'Atriplex_hymenelytra'
p1340
(dp1341
g4
I1
sg5
S'Amaranthaceae'
p1342
sg7
I4326
sg8
S'159'
p1343
sg10
S'shape'
p1344
sg12
S'Wed Jan 28 17:39:14 2015'
p1345
sg14
S'5672330'
p1346
sg16
g1340
ssS'Alisma_triviale'
p1347
(dp1348
g4
I1
sg5
S'Alismataceae'
p1349
sg7
I4326
sg8
S'972'
p1350
sg10
S'shape'
p1351
sg12
S'Wed Jan 28 16:56:40 2015'
p1352
sg14
S'5675479'
p1353
sg16
g1347
ssS'Salicornia_depressa'
p1354
(dp1355
g4
I1
sg5
S'Amaranthaceae'
p1356
sg7
I4326
sg8
S'121'
p1357
sg10
S'shape'
p1358
sg12
S'Thu Jan 29 02:00:36 2015'
p1359
sg14
S'5673902'
p1360
sg16
g1354
ssS'Metopium_toxiferum'
p1361
(dp1362
g4
I1
sg5
S'Anacardiaceae'
p1363
sg7
I4326
sg8
S'33'
p1364
sg10
S'shape'
p1365
sg12
S'Wed Jan 28 19:39:10 2015'
p1366
sg14
S'5675575'
p1367
sg16
g1361
ssS'Allium_cratericola'
p1368
(dp1369
g4
I1
sg5
S'Amaryllidaceae'
p1370
sg7
I4326
sg8
S'44'
p1371
sg10
S'shape'
p1372
sg12
S'Wed Jan 28 16:51:07 2015'
p1373
sg14
S'5672556'
p1374
sg16
g1368
ssS'Allium_tricoccum'
p1375
(dp1376
g4
I1
sg5
S'Amaryllidaceae'
p1377
sg7
I4326
sg8
S'1136'
p1378
sg10
S'shape'
p1379
sg12
S'Wed Jan 28 16:50:29 2015'
p1380
sg14
S'5675783'
p1381
sg16
g1375
ssS'Hymenocallis_crassifolia'
p1382
(dp1383
g4
I1
sg5
S'Amaryllidaceae'
p1384
sg7
I4326
sg8
S'52'
p1385
sg10
S'shape'
p1386
sg12
S'Wed Jan 28 21:38:58 2015'
p1387
sg14
S'5675853'
p1388
sg16
g1382
ssS'Aphelandra_aurantiaca'
p1389
(dp1390
g4
I1
sg5
S'Acanthaceae'
p1391
sg7
I4326
sg8
S'125'
p1392
sg10
S'shape'
p1393
sg12
S'Thu Jan 29 03:51:10 2015'
p1394
sg14
S'5675877'
p1395
sg16
g1389
ssS'Allium_rhizomatum'
p1396
(dp1397
g4
I1
sg5
S'Amaryllidaceae'
p1398
sg7
I4326
sg8
S'24'
p1399
sg10
S'shape'
p1400
sg12
S'Wed Jan 28 16:51:58 2015'
p1401
sg14
S'5681396'
p1402
sg16
g1396
ssS'Dicliptera_resupinata'
p1403
(dp1404
g4
I1
sg5
S'Acanthaceae'
p1405
sg7
I4326
sg8
S'284'
p1406
sg10
S'shape'
p1407
sg12
S'Wed Jan 28 19:54:28 2015'
p1408
sg14
S'5675920'
p1409
sg16
g1403
ssS'Sagittaria_montevidensis'
p1410
(dp1411
g4
I1
sg5
S'Alismataceae'
p1412
sg7
I4326
sg8
S'126'
p1413
sg10
S'shape'
p1414
sg12
S'Thu Jan 29 05:53:36 2015'
p1415
sg14
S'5675954'
p1416
sg16
g1410
ssS'Allium_bolanderi'
p1417
(dp1418
g4
I1
sg5
S'Amaryllidaceae'
p1419
sg7
I4326
sg8
S'74'
p1420
sg10
S'shape'
p1421
sg12
S'Wed Jan 28 16:50:13 2015'
p1422
sg14
S'5681228'
p1423
sg16
g1417
ssS'Salsola_kali'
p1424
(dp1425
g4
I1
sg5
S'Amaranthaceae'
p1426
sg7
I4326
sg8
S'645'
p1427
sg10
S'shape'
p1428
sg12
S'Thu Jan 29 02:02:13 2015'
p1429
sg14
S'5670217'
p1430
sg16
g1424
ssS'Allium_longifolium'
p1431
(dp1432
g4
I1
sg5
S'Amaryllidaceae'
p1433
sg7
I4326
sg8
S'81'
p1434
sg10
S'shape'
p1435
sg12
S'Wed Jan 28 16:53:02 2015'
p1436
sg14
S'5679007'
p1437
sg16
g1431
ssS'Atriplex_lentiformis'
p1438
(dp1439
g4
I1
sg5
S'Amaranthaceae'
p1440
sg7
I4326
sg8
S'227'
p1441
sg10
S'shape'
p1442
sg12
S'Thu Jan 29 04:13:57 2015'
p1443
sg14
S'5675985'
p1444
sg16
g1438
ssS'Tidestromia_lanuginosa'
p1445
(dp1446
g4
I1
sg5
S'Amaranthaceae'
p1447
sg7
I4326
sg8
S'520'
p1448
sg10
S'shape'
p1449
sg12
S'Thu Jan 29 03:09:46 2015'
p1450
sg14
S'5675995'
p1451
sg16
g1445
ssS'Hygrophila_polysperma'
p1452
(dp1453
g4
I1
sg5
S'Acanthaceae'
p1454
sg7
I4326
sg8
S'24'
p1455
sg10
S'shape'
p1456
sg12
S'Wed Jan 28 21:39:14 2015'
p1457
sg14
S'5671722'
p1458
sg16
g1452
ssS'Toxicodendron_radicans'
p1459
(dp1460
g4
I1
sg5
S'Anacardiaceae'
p1461
sg7
I4326
sg8
S'9809'
p1462
sg10
S'shape'
p1463
sg12
S'Thu Jan 29 03:12:44 2015'
p1464
sg14
S'5676179'
p1465
sg16
g1459
ssS'Chenopodium_vulvaria'
p1466
(dp1467
g4
I1
sg5
S'Amaranthaceae'
p1468
sg7
I4326
sg8
S'133'
p1469
sg10
S'shape'
p1470
sg12
S'Wed Jan 28 18:56:47 2015'
p1471
sg14
S'5676194'
p1472
sg16
g1466
ssS'Gomphrena_globosa'
p1473
(dp1474
g4
I1
sg5
S'Amaranthaceae'
p1475
sg7
I4326
sg8
S'62'
p1476
sg10
S'shape'
p1477
sg12
S'Thu Jan 29 04:13:28 2015'
p1478
sg14
S'5672040'
p1479
sg16
g1473
ssS'Carlowrightia_linearifolia'
p1480
(dp1481
g4
I1
sg5
S'Acanthaceae'
p1482
sg7
I4326
sg8
S'52'
p1483
sg10
S'shape'
p1484
sg12
S'Wed Jan 28 18:05:26 2015'
p1485
sg14
S'5672766'
p1486
sg16
g1480
ssS'Atriplex_glabriuscula'
p1487
(dp1488
g4
I1
sg5
S'Amaranthaceae'
p1489
sg7
I4326
sg8
S'72'
p1490
sg10
S'shape'
p1491
sg12
S'Wed Jan 28 17:38:29 2015'
p1492
sg14
S'5676252'
p1493
sg16
g1487
ssS'Chenopodium_incisum'
p1494
(dp1495
g4
I1
sg5
S'Amaranthaceae'
p1496
sg7
I4326
sg8
S'224'
p1497
sg10
S'shape'
p1498
sg12
S'Wed Jan 28 18:52:48 2015'
p1499
sg14
S'5676267'
p1500
sg16
g1494
ssS'Amaranthus_hypochondriacus'
p1501
(dp1502
g4
I1
sg5
S'Amaranthaceae'
p1503
sg7
I4326
sg8
S'33'
p1504
sg10
S'shape'
p1505
sg12
S'Wed Jan 28 17:00:04 2015'
p1506
sg14
S'5681667'
p1507
sg16
g1501
ssS'Sagittaria_lancifolia'
p1508
(dp1509
g4
I1
sg5
S'Alismataceae'
p1510
sg7
I4326
sg8
S'371'
p1511
sg10
S'shape'
p1512
sg12
S'Thu Jan 29 02:05:14 2015'
p1513
sg14
S'5675663'
p1514
sg16
g1508
ssS'Sagittaria_subulata'
p1515
(dp1516
g4
I1
sg5
S'Alismataceae'
p1517
sg7
I4326
sg8
S'118'
p1518
sg10
S'shape'
p1519
sg12
S'Thu Jan 29 02:09:51 2015'
p1520
sg14
S'5673388'
p1521
sg16
g1515
ssS'Amaranthus_retroflexus'
p1522
(dp1523
g4
I1
sg5
S'Amaranthaceae'
p1524
sg7
I4326
sg8
S'1720'
p1525
sg10
S'shape'
p1526
sg12
S'Wed Jan 28 17:01:26 2015'
p1527
sg14
S'5676041'
p1528
sg16
g1522
ssS'Allium_plummerae'
p1529
(dp1530
g4
I1
sg5
S'Amaryllidaceae'
p1531
sg7
I4326
sg8
S'46'
p1532
sg10
S'shape'
p1533
sg12
S'Wed Jan 28 16:54:57 2015'
p1534
sg14
S'5679049'
p1535
sg16
g1529
ssS'Amaranthus_fimbriatus'
p1536
(dp1537
g4
I1
sg5
S'Amaranthaceae'
p1538
sg7
I4326
sg8
S'235'
p1539
sg10
S'shape'
p1540
sg12
S'Wed Jan 28 16:59:34 2015'
p1541
sg14
S'5676723'
p1542
sg16
g1536
ssS'Justicia_spicigera'
p1543
(dp1544
g4
I1
sg5
S'Acanthaceae'
p1545
sg7
I4326
sg8
S'145'
p1546
sg10
S'shape'
p1547
sg12
S'Wed Jan 28 22:07:59 2015'
p1548
sg14
S'5676744'
p1549
sg16
g1543
ssS'Carlowrightia_arizonica'
p1550
(dp1551
g4
I1
sg5
S'Acanthaceae'
p1552
sg7
I4326
sg8
S'366'
p1553
sg10
S'shape'
p1554
sg12
S'Wed Jan 28 18:40:35 2015'
p1555
sg14
S'5676765'
p1556
sg16
g1550
ssS'Atriplex_semibaccata'
p1557
(dp1558
g4
I1
sg5
S'Amaranthaceae'
p1559
sg7
I4326
sg8
S'163'
p1560
sg10
S'shape'
p1561
sg12
S'Thu Jan 29 04:13:42 2015'
p1562
sg14
S'5676814'
p1563
sg16
g1557
ssS'Allium_cepa'
p1564
(dp1565
g4
I1
sg5
S'Amaryllidaceae'
p1566
sg7
I4326
sg8
S'93'
p1567
sg10
S'shape'
p1568
sg12
S'Wed Jan 28 16:50:51 2015'
p1569
sg14
S'5676327'
p1570
sg16
g1564
ssS'Justicia_brandegeeana'
p1571
(dp1572
g4
I1
sg5
S'Acanthaceae'
p1573
sg7
I4326
sg8
S'45'
p1574
sg10
S'shape'
p1575
sg12
S'Wed Jan 28 21:59:44 2015'
p1576
sg14
S'5676854'
p1577
sg16
g1571
ssS'Toxicodendron_diversilobum'
p1578
(dp1579
g4
I1
sg5
S'Anacardiaceae'
p1580
sg7
I4326
sg8
S'434'
p1581
sg10
S'shape'
p1582
sg12
S'Thu Jan 29 06:00:51 2015'
p1583
sg14
S'5676873'
p1584
sg16
g1578
ssS'Atriplex_prostrata'
p1585
(dp1586
g4
I1
sg5
S'Amaranthaceae'
p1587
sg7
I4326
sg8
S'497'
p1588
sg10
S'shape'
p1589
sg12
S'Thu Jan 29 04:14:05 2015'
p1590
sg14
S'5676881'
p1591
sg16
g1585
ssS'Rhus_microphylla'
p1592
(dp1593
g4
I1
sg5
S'Anacardiaceae'
p1594
sg7
I4326
sg8
S'437'
p1595
sg10
S'shape'
p1596
sg12
S'Thu Jan 29 01:44:49 2015'
p1597
sg14
S'5673865'
p1598
sg16
g1592
ssS'Allium_punctum'
p1599
(dp1600
g4
I1
sg5
S'Amaryllidaceae'
p1601
sg7
I4326
sg8
S'33'
p1602
sg10
S'shape'
p1603
sg12
S'Wed Jan 28 16:55:12 2015'
p1604
sg14
S'5672894'
p1605
sg16
g1599
ssS'Henrya_insularis'
p1606
(dp1607
g4
I1
sg5
S'Acanthaceae'
p1608
sg7
I4326
sg8
S'310'
p1609
sg10
S'shape'
p1610
sg12
S'Thu Jan 29 04:23:00 2015'
p1611
sg14
S'5677058'
p1612
sg16
g1606
ssS'Sagittaria_filiformis'
p1613
(dp1614
g4
I1
sg5
S'Alismataceae'
p1615
sg7
I4326
sg8
S'37'
p1616
sg10
S'shape'
p1617
sg12
S'Thu Jan 29 02:03:29 2015'
p1618
sg14
S'5677787'
p1619
sg16
g1613
ssS'Rhus_integrifolia'
p1620
(dp1621
g4
I1
sg5
S'Anacardiaceae'
p1622
sg7
I4326
sg8
S'73'
p1623
sg10
S'shape'
p1624
sg12
S'Thu Jan 29 01:43:35 2015'
p1625
sg14
S'5677166'
p1626
sg16
g1620
ssS'Nothoscordum_gracile'
p1627
(dp1628
g4
I1
sg5
S'Amaryllidaceae'
p1629
sg7
I4326
sg8
S'27'
p1630
sg10
S'shape'
p1631
sg12
S'Wed Jan 28 23:39:05 2015'
p1632
sg14
S'5677236'
p1633
sg16
g1627
ssS'Gomphrena_nitida'
p1634
(dp1635
g4
I1
sg5
S'Amaranthaceae'
p1636
sg7
I4326
sg8
S'193'
p1637
sg10
S'shape'
p1638
sg12
S'Wed Jan 28 21:13:58 2015'
p1639
sg14
S'5677331'
p1640
sg16
g1634
ssS'Lycoris_radiata'
p1641
(dp1642
g4
I1
sg5
S'Amaryllidaceae'
p1643
sg7
I4326
sg8
S'24'
p1644
sg10
S'shape'
p1645
sg12
S'Wed Jan 28 22:58:58 2015'
p1646
sg14
S'5667114'
p1647
sg16
g1641
ssS'Odontonema_cuspidatum'
p1648
(dp1649
g4
I1
sg5
S'Acanthaceae'
p1650
sg7
I4326
sg8
S'69'
p1651
sg10
S'shape'
p1652
sg12
S'Thu Jan 29 05:36:17 2015'
p1653
sg14
S'5677516'
p1654
sg16
g1648
ssS'Carlowrightia_texana'
p1655
(dp1656
g4
I1
sg5
S'Acanthaceae'
p1657
sg7
I4326
sg8
S'25'
p1658
sg10
S'shape'
p1659
sg12
S'Wed Jan 28 18:35:27 2015'
p1660
sg14
S'5677467'
p1661
sg16
g1655
ssS'Chenopodium_capitatum'
p1662
(dp1663
g4
I1
sg5
S'Amaranthaceae'
p1664
sg7
I4326
sg8
S'408'
p1665
sg10
S'shape'
p1666
sg12
S'Wed Jan 28 18:50:00 2015'
p1667
sg14
S'5673020'
p1668
sg16
g1662
ssS'Viburnum_edule'
p1669
(dp1670
g4
I1
sg5
S'Adoxaceae'
p1671
sg7
I4326
sg8
S'640'
p1672
sg10
S'shape'
p1673
sg12
S'Thu Jan 29 03:39:02 2015'
p1674
sg14
S'5671557'
p1675
sg16
g1669
ssS'Viburnum_nudum'
p1676
(dp1677
g4
I1
sg5
S'Adoxaceae'
p1678
sg7
I4326
sg8
S'990'
p1679
sg10
S'shape'
p1680
sg12
S'Thu Jan 29 03:40:52 2015'
p1681
sg14
S'5677791'
p1682
sg16
g1676
ssS'Chenopodium_standleyanum'
p1683
(dp1684
g4
I1
sg5
S'Amaranthaceae'
p1685
sg7
I4326
sg8
S'500'
p1686
sg10
S'shape'
p1687
sg12
S'Wed Jan 28 18:55:46 2015'
p1688
sg14
S'5666467'
p1689
sg16
g1683
ssS'Allium_validum'
p1690
(dp1691
g4
I1
sg5
S'Amaryllidaceae'
p1692
sg7
I4326
sg8
S'211'
p1693
sg10
S'shape'
p1694
sg12
S'Wed Jan 28 16:56:47 2015'
p1695
sg14
S'5677849'
p1696
sg16
g1690
ssS'Amaranthus_hybridus'
p1697
(dp1698
g4
I1
sg5
S'Amaranthaceae'
p1699
sg7
I4326
sg8
S'1652'
p1700
sg10
S'shape'
p1701
sg12
S'Wed Jan 28 16:59:17 2015'
p1702
sg14
S'5677918'
p1703
sg16
g1697
ssS'Alisma_gramineum'
p1704
(dp1705
g4
I1
sg5
S'Alismataceae'
p1706
sg7
I4326
sg8
S'213'
p1707
sg10
S'shape'
p1708
sg12
S'Wed Jan 28 16:52:16 2015'
p1709
sg14
S'5676917'
p1710
sg16
g1704
ssS'Talinopsis_frutescens'
p1711
(dp1712
g4
I1
sg5
S'Anacampserotaceae'
p1713
sg7
I4326
sg8
S'42'
p1714
sg10
S'shape'
p1715
sg12
S'Thu Jan 29 03:01:40 2015'
p1716
sg14
S'5677947'
p1717
sg16
g1711
ssS'Atriplex_falcata'
p1718
(dp1719
g4
I1
sg5
S'Amaranthaceae'
p1720
sg7
I4326
sg8
S'86'
p1721
sg10
S'shape'
p1722
sg12
S'Wed Jan 28 17:39:00 2015'
p1723
sg14
S'5677958'
p1724
sg16
g1718
ssS'Viburnum_acerifolium'
p1725
(dp1726
g4
I1
sg5
S'Adoxaceae'
p1727
sg7
I4326
sg8
S'2962'
p1728
sg10
S'shape'
p1729
sg12
S'Thu Jan 29 03:37:02 2015'
p1730
sg14
S'5678017'
p1731
sg16
g1725
ssS'Sesuvium_maritimum'
p1732
(dp1733
g4
I1
sg5
S'Aizoaceae'
p1734
sg7
I4326
sg8
S'81'
p1735
sg10
S'shape'
p1736
sg12
S'Thu Jan 29 02:22:35 2015'
p1737
sg14
S'5678024'
p1738
sg16
g1732
ssS'Atriplex_gmelinii'
p1739
(dp1740
g4
I1
sg5
S'Amaranthaceae'
p1741
sg7
I4326
sg8
S'103'
p1742
sg10
S'shape'
p1743
sg12
S'Thu Jan 29 04:55:47 2015'
p1744
sg14
S'5678031'
p1745
sg16
g1739
ssS'Sagittaria_australis'
p1746
(dp1747
g4
I1
sg5
S'Alismataceae'
p1748
sg7
I4326
sg8
S'143'
p1749
sg10
S'shape'
p1750
sg12
S'Thu Jan 29 01:59:08 2015'
p1751
sg14
S'5678107'
p1752
sg16
g1746
ssS'Sesuvium_portulacastrum'
p1753
(dp1754
g4
I1
sg5
S'Aizoaceae'
p1755
sg7
I4326
sg8
S'315'
p1756
sg10
S'shape'
p1757
sg12
S'Thu Jan 29 02:22:54 2015'
p1758
sg14
S'5668914'
p1759
sg16
g1753
ssS'Dyschoriste_oblongifolia'
p1760
(dp1761
g4
I1
sg5
S'Acanthaceae'
p1762
sg7
I4326
sg8
S'228'
p1763
sg10
S'shape'
p1764
sg12
S'Wed Jan 28 20:07:41 2015'
p1765
sg14
S'5668625'
p1766
sg16
g1760
ssS'Sagittaria_brevirostra'
p1767
(dp1768
g4
I1
sg5
S'Alismataceae'
p1769
sg7
I4326
sg8
S'486'
p1770
sg10
S'shape'
p1771
sg12
S'Thu Jan 29 02:00:00 2015'
p1772
sg14
S'5678178'
p1773
sg16
g1767
ssS'Echinodorus_cordifolius'
p1774
(dp1775
g4
I1
sg5
S'Alismataceae'
p1776
sg7
I4326
sg8
S'383'
p1777
sg10
S'shape'
p1778
sg12
S'Wed Jan 28 20:08:04 2015'
p1779
sg14
S'5678280'
p1780
sg16
g1774
ssS'Pistacia_mexicana'
p1781
(dp1782
g4
I1
sg5
S'Anacardiaceae'
p1783
sg7
I4326
sg8
S'192'
p1784
sg10
S'shape'
p1785
sg12
S'Thu Jan 29 00:36:10 2015'
p1786
sg14
S'5668245'
p1787
sg16
g1781
ssS'Atriplex_micrantha'
p1788
(dp1789
g4
I1
sg5
S'Amaranthaceae'
p1790
sg7
I4326
sg8
S'181'
p1791
sg10
S'shape'
p1792
sg12
S'Wed Jan 28 17:38:54 2015'
p1793
sg14
S'5678523'
p1794
sg16
g1788
ssS'Leucojum_aestivum'
p1795
(dp1796
g4
I1
sg5
S'Amaryllidaceae'
p1797
sg7
I4326
sg8
S'81'
p1798
sg10
S'shape'
p1799
sg12
S'Wed Jan 28 22:25:05 2015'
p1800
sg14
S'5678316'
p1801
sg16
g1795
ssS'Chenopodium_album'
p1802
(dp1803
g4
I1
sg5
S'Amaranthaceae'
p1804
sg7
I4326
sg8
S'2948'
p1805
sg10
S'shape'
p1806
sg12
S'Wed Jan 28 18:54:35 2015'
p1807
sg14
S'5678400'
p1808
sg16
g1802
ssS'Sagittaria_teres'
p1809
(dp1810
g4
I1
sg5
S'Alismataceae'
p1811
sg7
I4326
sg8
S'24'
p1812
sg10
S'shape'
p1813
sg12
S'Thu Jan 29 02:03:35 2015'
p1814
sg14
S'5670629'
p1815
sg16
g1809
ssS'Stenandrium_dulce'
p1816
(dp1817
g4
I1
sg5
S'Acanthaceae'
p1818
sg7
I4326
sg8
S'94'
p1819
sg10
S'shape'
p1820
sg12
S'Thu Jan 29 02:48:22 2015'
p1821
sg14
S'5671460'
p1822
sg16
g1816
ssS'Amaranthus_australis'
p1823
(dp1824
g4
I1
sg5
S'Amaranthaceae'
p1825
sg7
I4326
sg8
S'93'
p1826
sg10
S'shape'
p1827
sg12
S'Wed Jan 28 16:57:48 2015'
p1828
sg14
S'5679415'
p1829
sg16
g1823
ssS'Viburnum_dilatatum'
p1830
(dp1831
g4
I1
sg5
S'Adoxaceae'
p1832
sg7
I4326
sg8
S'101'
p1833
sg10
S'shape'
p1834
sg12
S'Thu Jan 29 03:38:59 2015'
p1835
sg14
S'5671565'
p1836
sg16
g1830
ssS'Allium_falcifolium'
p1837
(dp1838
g4
I1
sg5
S'Amaryllidaceae'
p1839
sg7
I4326
sg8
S'113'
p1840
sg10
S'shape'
p1841
sg12
S'Wed Jan 28 16:51:40 2015'
p1842
sg14
S'5678568'
p1843
sg16
g1837
ssS'Narcissus_pseudonarcissus'
p1844
(dp1845
g4
I1
sg5
S'Amaryllidaceae'
p1846
sg7
I4326
sg8
S'194'
p1847
sg10
S'shape'
p1848
sg12
S'Wed Jan 28 23:34:42 2015'
p1849
sg14
S'5671932'
p1850
sg16
g1844
ssS'Allium_sativum'
p1851
(dp1852
g4
I1
sg5
S'Amaryllidaceae'
p1853
sg7
I4326
sg8
S'181'
p1854
sg10
S'shape'
p1855
sg12
S'Wed Jan 28 16:55:45 2015'
p1856
sg14
S'5672219'
p1857
sg16
g1851
ssS'Atriplex_wolfii'
p1858
(dp1859
g4
I1
sg5
S'Amaranthaceae'
p1860
sg7
I4326
sg8
S'25'
p1861
sg10
S'shape'
p1862
sg12
S'Thu Jan 29 04:56:02 2015'
p1863
sg14
S'5678646'
p1864
sg16
g1858
ssS'Sagittaria_latifolia'
p1865
(dp1866
g4
I1
sg5
S'Alismataceae'
p1867
sg7
I4326
sg8
S'2431'
p1868
sg10
S'shape'
p1869
sg12
S'Thu Jan 29 02:05:28 2015'
p1870
sg14
S'5674755'
p1871
sg16
g1865
ssS'Allium_vineale'
p1872
(dp1873
g4
I1
sg5
S'Amaryllidaceae'
p1874
sg7
I4326
sg8
S'1048'
p1875
sg10
S'shape'
p1876
sg12
S'Wed Jan 28 16:57:10 2015'
p1877
sg14
S'5678714'
p1878
sg16
g1872
ssS'Tristagma_uniflorum'
p1879
(dp1880
g4
I1
sg5
S'Amaryllidaceae'
p1881
sg7
I4326
sg8
S'41'
p1882
sg10
S'shape'
p1883
sg12
S'Thu Jan 29 03:15:11 2015'
p1884
sg14
S'5678756'
p1885
sg16
g1879
ssS'Amaranthus_caudatus'
p1886
(dp1887
g4
I1
sg5
S'Amaranthaceae'
p1888
sg7
I4326
sg8
S'81'
p1889
sg10
S'shape'
p1890
sg12
S'Wed Jan 28 16:58:37 2015'
p1891
sg14
S'5678863'
p1892
sg16
g1886
ssS'Suaeda_maritima'
p1893
(dp1894
g4
I1
sg5
S'Amaranthaceae'
p1895
sg7
I4326
sg8
S'187'
p1896
sg10
S'shape'
p1897
sg12
S'Thu Jan 29 02:55:48 2015'
p1898
sg14
S'5677107'
p1899
sg16
g1893
ssS'Allium_lemmonii'
p1900
(dp1901
g4
I1
sg5
S'Amaryllidaceae'
p1902
sg7
I4326
sg8
S'86'
p1903
sg10
S'shape'
p1904
sg12
S'Wed Jan 28 16:53:13 2015'
p1905
sg14
S'5676246'
p1906
sg16
g1900
ssS'Suaeda_californica'
p1907
(dp1908
g4
I1
sg5
S'Amaranthaceae'
p1909
sg7
I4326
sg8
S'47'
p1910
sg10
S'shape'
p1911
sg12
S'Thu Jan 29 02:55:33 2015'
p1912
sg14
S'5679040'
p1913
sg16
g1907
ssS'Atriplex_saccaria'
p1914
(dp1915
g4
I1
sg5
S'Amaranthaceae'
p1916
sg7
I4326
sg8
S'101'
p1917
sg10
S'shape'
p1918
sg12
S'Wed Jan 28 17:39:58 2015'
p1919
sg14
S'5679083'
p1920
sg16
g1914
ssS'Viburnum_sieboldii'
p1921
(dp1922
g4
I1
sg5
S'Adoxaceae'
p1923
sg7
I4326
sg8
S'29'
p1924
sg10
S'shape'
p1925
sg12
S'Thu Jan 29 03:42:51 2015'
p1926
sg14
S'5667693'
p1927
sg16
g1921
ssS'Malosma_laurina'
p1928
(dp1929
g4
I1
sg5
S'Anacardiaceae'
p1930
sg7
I4326
sg8
S'61'
p1931
sg10
S'shape'
p1932
sg12
S'Wed Jan 28 23:01:14 2015'
p1933
sg14
S'5679126'
p1934
sg16
g1928
ssS'Alternanthera_caracasana'
p1935
(dp1936
g4
I1
sg5
S'Amaranthaceae'
p1937
sg7
I4326
sg8
S'114'
p1938
sg10
S'shape'
p1939
sg12
S'Wed Jan 28 16:50:40 2015'
p1940
sg14
S'5679188'
p1941
sg16
g1935
ssS'Allium_hyalinum'
p1942
(dp1943
g4
I1
sg5
S'Amaryllidaceae'
p1944
sg7
I4326
sg8
S'29'
p1945
sg10
S'shape'
p1946
sg12
S'Wed Jan 28 16:52:46 2015'
p1947
sg14
S'5679515'
p1948
sg16
g1942
ssS'Alternanthera_pungens'
p1949
(dp1950
g4
I1
sg5
S'Amaranthaceae'
p1951
sg7
I4326
sg8
S'41'
p1952
sg10
S'shape'
p1953
sg12
S'Wed Jan 28 16:55:17 2015'
p1954
sg14
S'5679240'
p1955
sg16
g1949
ssS'Atriplex_cuneata'
p1956
(dp1957
g4
I1
sg5
S'Amaranthaceae'
p1958
sg7
I4326
sg8
S'83'
p1959
sg10
S'shape'
p1960
sg12
S'Wed Jan 28 17:38:49 2015'
p1961
sg14
S'5679261'
p1962
sg16
g1956
ssS'Tidestromia_suffruticosa'
p1963
(dp1964
g4
I1
sg5
S'Amaranthaceae'
p1965
sg7
I4326
sg8
S'43'
p1966
sg10
S'shape'
p1967
sg12
S'Thu Jan 29 03:09:51 2015'
p1968
sg14
S'5679263'
p1969
sg16
g1963
ssS'Allium_membranaceum'
p1970
(dp1971
g4
I1
sg5
S'Amaryllidaceae'
p1972
sg7
I4326
sg8
S'25'
p1973
sg10
S'shape'
p1974
sg12
S'Wed Jan 28 16:53:41 2015'
p1975
sg14
S'5679291'
p1976
sg16
g1970
ssS'Trianthema_portulacastrum'
p1977
(dp1978
g4
I1
sg5
S'Aizoaceae'
p1979
sg7
I4326
sg8
S'408'
p1980
sg10
S'shape'
p1981
sg12
S'Thu Jan 29 03:22:00 2015'
p1982
sg14
S'5679339'
p1983
sg16
g1977
ssS'Ruellia_strepens'
p1984
(dp1985
g4
I1
sg5
S'Acanthaceae'
p1986
sg7
I4326
sg8
S'878'
p1987
sg10
S'shape'
p1988
sg12
S'Thu Jan 29 01:53:49 2015'
p1989
sg14
S'5678337'
p1990
sg16
g1984
ssS'Atriplex_cordulata'
p1991
(dp1992
g4
I1
sg5
S'Amaranthaceae'
p1993
sg7
I4326
sg8
S'47'
p1994
sg10
S'shape'
p1995
sg12
S'Wed Jan 28 17:38:40 2015'
p1996
sg14
S'5679412'
p1997
sg16
g1991
ssS'Allium_douglasii'
p1998
(dp1999
g4
I1
sg5
S'Amaryllidaceae'
p2000
sg7
I4326
sg8
S'30'
p2001
sg10
S'shape'
p2002
sg12
S'Wed Jan 28 16:51:04 2015'
p2003
sg14
S'5679417'
p2004
sg16
g1998
ssS'Rhus_kearneyi'
p2005
(dp2006
g4
I1
sg5
S'Anacardiaceae'
p2007
sg7
I4326
sg8
S'63'
p2008
sg10
S'shape'
p2009
sg12
S'Thu Jan 29 01:43:50 2015'
p2010
sg14
S'5679439'
p2011
sg16
g2005
ssS'Amaranthus_polygonoides'
p2012
(dp2013
g4
I1
sg5
S'Amaranthaceae'
p2014
sg7
I4326
sg8
S'43'
p2015
sg10
S'shape'
p2016
sg12
S'Wed Jan 28 17:01:12 2015'
p2017
sg14
S'5665866'
p2018
sg16
g2012
ssS'Crinum_americanum'
p2019
(dp2020
g4
I1
sg5
S'Amaryllidaceae'
p2021
sg7
I4326
sg8
S'93'
p2022
sg10
S'shape'
p2023
sg12
S'Wed Jan 28 19:28:23 2015'
p2024
sg14
S'5673237'
p2025
sg16
g2019
ssS'Justicia_pilosella'
p2026
(dp2027
g4
I1
sg5
S'Acanthaceae'
p2028
sg7
I4326
sg8
S'94'
p2029
sg10
S'shape'
p2030
sg12
S'Wed Jan 28 22:07:03 2015'
p2031
sg14
S'5679476'
p2032
sg16
g2026
ssS'Iresine_palmeri'
p2033
(dp2034
g4
I1
sg5
S'Amaranthaceae'
p2035
sg7
I4326
sg8
S'47'
p2036
sg10
S'shape'
p2037
sg12
S'Wed Jan 28 21:52:57 2015'
p2038
sg14
S'5679500'
p2039
sg16
g2033
ssS'Sesuvium_verrucosum'
p2040
(dp2041
g4
I1
sg5
S'Aizoaceae'
p2042
sg7
I4326
sg8
S'224'
p2043
sg10
S'shape'
p2044
sg12
S'Thu Jan 29 02:26:13 2015'
p2045
sg14
S'5679506'
p2046
sg16
g2040
ssS'Zephyranthes_pulchella'
p2047
(dp2048
g4
I1
sg5
S'Amaryllidaceae'
p2049
sg7
I4326
sg8
S'33'
p2050
sg10
S'shape'
p2051
sg12
S'Thu Jan 29 04:48:17 2015'
p2052
sg14
S'5679511'
p2053
sg16
g2047
ssS'Atriplex_patula'
p2054
(dp2055
g4
I1
sg5
S'Amaranthaceae'
p2056
sg7
I4326
sg8
S'713'
p2057
sg10
S'shape'
p2058
sg12
S'Wed Jan 28 17:39:45 2015'
p2059
sg14
S'5679976'
p2060
sg16
g2054
ssS'Viburnum_obovatum'
p2061
(dp2062
g4
I1
sg5
S'Adoxaceae'
p2063
sg7
I4326
sg8
S'149'
p2064
sg10
S'shape'
p2065
sg12
S'Thu Jan 29 03:41:19 2015'
p2066
sg14
S'5679601'
p2067
sg16
g2061
ssS'Amaranthus_acanthochiton'
p2068
(dp2069
g4
I1
sg5
S'Amaranthaceae'
p2070
sg7
I4326
sg8
S'41'
p2071
sg10
S'shape'
p2072
sg12
S'Wed Jan 28 16:57:06 2015'
p2073
sg14
S'5679730'
p2074
sg16
g2068
ssS'Ruellia_simplex'
p2075
(dp2076
g4
I1
sg5
S'Acanthaceae'
p2077
sg7
I4326
sg8
S'66'
p2078
sg10
S'shape'
p2079
sg12
S'Thu Jan 29 01:57:27 2015'
p2080
sg14
S'5679783'
p2081
sg16
g2075
ssS'Chenopodium_incanum'
p2082
(dp2083
g4
I1
sg5
S'Amaranthaceae'
p2084
sg7
I4326
sg8
S'345'
p2085
sg10
S'shape'
p2086
sg12
S'Wed Jan 28 18:52:24 2015'
p2087
sg14
S'5679945'
p2088
sg16
g2082
ssS'Dyschoriste_linearis'
p2089
(dp2090
g4
I1
sg5
S'Acanthaceae'
p2091
sg7
I4326
sg8
S'104'
p2092
sg10
S'shape'
p2093
sg12
S'Wed Jan 28 20:07:35 2015'
p2094
sg14
S'5671213'
p2095
sg16
g2089
ssS'Rhus_copallinum'
p2096
(dp2097
g4
I1
sg5
S'Anacardiaceae'
p2098
sg7
I4326
sg8
S'2832'
p2099
sg10
S'shape'
p2100
sg12
S'Thu Jan 29 05:47:14 2015'
p2101
sg14
S'5679978'
p2102
sg16
g2096
ssS'Rhus_aromatica'
p2103
(dp2104
g4
I1
sg5
S'Anacardiaceae'
p2105
sg7
I4326
sg8
S'1756'
p2106
sg10
S'shape'
p2107
sg12
S'Thu Jan 29 01:46:12 2015'
p2108
sg14
S'5680013'
p2109
sg16
g2103
ssS'Sambucus_nigra'
p2110
(dp2111
g4
I1
sg5
S'Adoxaceae'
p2112
sg7
I4326
sg8
S'2138'
p2113
sg10
S'shape'
p2114
sg12
S'Thu Jan 29 01:59:59 2015'
p2115
sg14
S'5680024'
p2116
sg16
g2110
ssS'Viburnum_lentago'
p2117
(dp2118
g4
I1
sg5
S'Adoxaceae'
p2119
sg7
I4326
sg8
S'846'
p2120
sg10
S'shape'
p2121
sg12
S'Thu Jan 29 03:39:57 2015'
p2122
sg14
S'5680075'
p2123
sg16
g2117
ssS'Justicia_americana'
p2124
(dp2125
g4
I1
sg5
S'Acanthaceae'
p2126
sg7
I4326
sg8
S'1135'
p2127
sg10
S'shape'
p2128
sg12
S'Wed Jan 28 22:07:14 2015'
p2129
sg14
S'5680078'
p2130
sg16
g2124
ssS'Atriplex_pacifica'
p2131
(dp2132
g4
I1
sg5
S'Amaranthaceae'
p2133
sg7
I4326
sg8
S'27'
p2134
sg10
S'shape'
p2135
sg12
S'Thu Jan 29 04:55:54 2015'
p2136
sg14
S'5676086'
p2137
sg16
g2131
ssS'Amaranthus_graecizans'
p2138
(dp2139
g4
I1
sg5
S'Amaranthaceae'
p2140
sg7
I4326
sg8
S'109'
p2141
sg10
S'shape'
p2142
sg12
S'Wed Jan 28 16:57:21 2015'
p2143
sg14
S'5680097'
p2144
sg16
g2138
ssS'Viburnum_opulus'
p2145
(dp2146
g4
I1
sg5
S'Adoxaceae'
p2147
sg7
I4326
sg8
S'642'
p2148
sg10
S'shape'
p2149
sg12
S'Thu Jan 29 03:41:21 2015'
p2150
sg14
S'5665965'
p2151
sg16
g2145
ssS'Suckleya_suckleyana'
p2152
(dp2153
g4
I1
sg5
S'Amaranthaceae'
p2154
sg7
I4326
sg8
S'71'
p2155
sg10
S'shape'
p2156
sg12
S'Thu Jan 29 05:58:53 2015'
p2157
sg14
S'5680187'
p2158
sg16
g2152
ssS'Allium_cuthbertii'
p2159
(dp2160
g4
I1
sg5
S'Amaryllidaceae'
p2161
sg7
I4326
sg8
S'57'
p2162
sg10
S'shape'
p2163
sg12
S'Wed Jan 28 16:51:20 2015'
p2164
sg14
S'5666590'
p2165
sg16
g2159
ssS'Guilleminea_lanuginosa'
p2166
(dp2167
g4
I1
sg5
S'Amaranthaceae'
p2168
sg7
I4326
sg8
S'46'
p2169
sg10
S'shape'
p2170
sg12
S'Wed Jan 28 21:16:27 2015'
p2171
sg14
S'5674218'
p2172
sg16
g2166
ssS'Atriplex_truncata'
p2173
(dp2174
g4
I1
sg5
S'Amaranthaceae'
p2175
sg7
I4326
sg8
S'121'
p2176
sg10
S'shape'
p2177
sg12
S'Thu Jan 29 04:56:01 2015'
p2178
sg14
S'5680255'
p2179
sg16
g2173
ssS'Allium_macropetalum'
p2180
(dp2181
g4
I1
sg5
S'Amaryllidaceae'
p2182
sg7
I4326
sg8
S'204'
p2183
sg10
S'shape'
p2184
sg12
S'Wed Jan 28 16:53:29 2015'
p2185
sg14
S'5680258'
p2186
sg16
g2180
ssS'Chenopodium_berlandieri'
p2187
(dp2188
g4
I1
sg5
S'Amaranthaceae'
p2189
sg7
I4326
sg8
S'1238'
p2190
sg10
S'shape'
p2191
sg12
S'Wed Jan 28 18:49:17 2015'
p2192
sg14
S'5680293'
p2193
sg16
g2187
ssS'Cypselea_humifusa'
p2194
(dp2195
g4
I1
sg5
S'Aizoaceae'
p2196
sg7
I4326
sg8
S'45'
p2197
sg10
S'shape'
p2198
sg12
S'Wed Jan 28 19:42:10 2015'
p2199
sg14
S'5680315'
p2200
sg16
g2194
ssS'Sagittaria_rigida'
p2201
(dp2202
g4
I1
sg5
S'Alismataceae'
p2203
sg7
I4326
sg8
S'435'
p2204
sg10
S'shape'
p2205
sg12
S'Thu Jan 29 02:08:31 2015'
p2206
sg14
S'5680329'
p2207
sg16
g2201
ssS'Justicia_lanceolata'
p2208
(dp2209
g4
I1
sg5
S'Acanthaceae'
p2210
sg7
I4326
sg8
S'45'
p2211
sg10
S'shape'
p2212
sg12
S'Thu Jan 29 05:25:29 2015'
p2213
sg14
S'5674646'
p2214
sg16
g2208
ssS'Ruellia_caroliniensis'
p2215
(dp2216
g4
I1
sg5
S'Acanthaceae'
p2217
sg7
I4326
sg8
S'1208'
p2218
sg10
S'shape'
p2219
sg12
S'Thu Jan 29 01:53:40 2015'
p2220
sg14
S'5680343'
p2221
sg16
g2215
ssS'Rhus_typhina'
p2222
(dp2223
g4
I1
sg5
S'Anacardiaceae'
p2224
sg7
I4326
sg8
S'748'
p2225
sg10
S'shape'
p2226
sg12
S'Thu Jan 29 01:45:21 2015'
p2227
sg14
S'5673316'
p2228
sg16
g2222
ssS'Sagittaria_engelmanniana'
p2229
(dp2230
g4
I1
sg5
S'Alismataceae'
p2231
sg7
I4326
sg8
S'93'
p2232
sg10
S'shape'
p2233
sg12
S'Thu Jan 29 02:02:35 2015'
p2234
sg14
S'5668157'
p2235
sg16
g2229
ssS'Rhus_ovata'
p2236
(dp2237
g4
I1
sg5
S'Anacardiaceae'
p2238
sg7
I4326
sg8
S'260'
p2239
sg10
S'shape'
p2240
sg12
S'Thu Jan 29 01:44:52 2015'
p2241
sg14
S'5680445'
p2242
sg16
g2236
ssS'Gomphrena_sonorae'
p2243
(dp2244
g4
I1
sg5
S'Amaranthaceae'
p2245
sg7
I4326
sg8
S'231'
p2246
sg10
S'shape'
p2247
sg12
S'Wed Jan 28 21:14:22 2015'
p2248
sg14
S'5680446'
p2249
sg16
g2243
ssS'Neokochia_americana'
p2250
(dp2251
g4
I1
sg5
S'Amaranthaceae'
p2252
sg7
I4326
sg8
S'319'
p2253
sg10
S'shape'
p2254
sg12
S'Wed Jan 28 23:36:02 2015'
p2255
sg14
S'5680497'
p2256
sg16
g2250
ssS'Allium_schoenoprasum'
p2257
(dp2258
g4
I1
sg5
S'Amaryllidaceae'
p2259
sg7
I4326
sg8
S'448'
p2260
sg10
S'shape'
p2261
sg12
S'Wed Jan 28 16:55:59 2015'
p2262
sg14
S'5671953'
p2263
sg16
g2257
ssS'Achyranthes_aspera'
p2264
(dp2265
g4
I1
sg5
S'Amaranthaceae'
p2266
sg7
I4326
sg8
S'271'
p2267
sg10
S'shape'
p2268
sg12
S'Wed Jan 28 16:33:37 2015'
p2269
sg14
S'5680526'
p2270
sg16
g2264
ssS'Carlowrightia_serpyllifolia'
p2271
(dp2272
g4
I1
sg5
S'Acanthaceae'
p2273
sg7
I4326
sg8
S'28'
p2274
sg10
S'shape'
p2275
sg12
S'Wed Jan 28 18:29:34 2015'
p2276
sg14
S'5680720'
p2277
sg16
g2271
ssS'Atriplex_rosea'
p2278
(dp2279
g4
I1
sg5
S'Amaranthaceae'
p2280
sg7
I4326
sg8
S'394'
p2281
sg10
S'shape'
p2282
sg12
S'Thu Jan 29 04:55:55 2015'
p2283
sg14
S'5680846'
p2284
sg16
g2278
ssS'Axyris_amaranthoides'
p2285
(dp2286
g4
I1
sg5
S'Amaranthaceae'
p2287
sg7
I4326
sg8
S'52'
p2288
sg10
S'shape'
p2289
sg12
S'Wed Jan 28 17:41:29 2015'
p2290
sg14
S'5680906'
p2291
sg16
g2285
ssS'Ruellia_drummondiana'
p2292
(dp2293
g4
I1
sg5
S'Acanthaceae'
p2294
sg7
I4326
sg8
S'36'
p2295
sg10
S'shape'
p2296
sg12
S'Thu Jan 29 05:48:46 2015'
p2297
sg14
S'5682271'
p2298
sg16
g2292
ssS'Corispermum_americanum'
p2299
(dp2300
g4
I1
sg5
S'Amaranthaceae'
p2301
sg7
I4326
sg8
S'203'
p2302
sg10
S'shape'
p2303
sg12
S'Wed Jan 28 19:18:03 2015'
p2304
sg14
S'5680982'
p2305
sg16
g2299
ssS'Bassia_scoparia'
p2306
(dp2307
g4
I1
sg5
S'Amaranthaceae'
p2308
sg7
I4326
sg8
S'1258'
p2309
sg10
S'shape'
p2310
sg12
S'Wed Jan 28 17:42:59 2015'
p2311
sg14
S'5681004'
p2312
sg16
g2306
ssS'Cycloloma_atriplicifolium'
p2313
(dp2314
g4
I1
sg5
S'Amaranthaceae'
p2315
sg7
I4326
sg8
S'769'
p2316
sg10
S'shape'
p2317
sg12
S'Wed Jan 28 19:34:46 2015'
p2318
sg14
S'5678558'
p2319
sg16
g2313
ssS'Sarcocornia_utahensis'
p2320
(dp2321
g4
I1
sg5
S'Amaranthaceae'
p2322
sg7
I4326
sg8
S'25'
p2323
sg10
S'shape'
p2324
sg12
S'Thu Jan 29 02:07:54 2015'
p2325
sg14
S'5672489'
p2326
sg16
g2320
ssS'Allium_fimbriatum'
p2327
(dp2328
g4
I1
sg5
S'Amaryllidaceae'
p2329
sg7
I4326
sg8
S'42'
p2330
sg10
S'shape'
p2331
sg12
S'Wed Jan 28 16:49:18 2015'
p2332
sg14
S'5677458'
p2333
sg16
g2327
ssS'Allium_cernuum'
p2334
(dp2335
g4
I1
sg5
S'Amaryllidaceae'
p2336
sg7
I4326
sg8
S'2372'
p2337
sg10
S'shape'
p2338
sg12
S'Thu Jan 29 04:11:38 2015'
p2339
sg14
S'5681152'
p2340
sg16
g2334
ssS'Allium_brevistylum'
p2341
(dp2342
g4
I1
sg5
S'Amaryllidaceae'
p2343
sg7
I4326
sg8
S'140'
p2344
sg10
S'shape'
p2345
sg12
S'Wed Jan 28 16:50:20 2015'
p2346
sg14
S'5681182'
p2347
sg16
g2341
ssS'Chenopodium_hians'
p2348
(dp2349
g4
I1
sg5
S'Amaranthaceae'
p2350
sg7
I4326
sg8
S'44'
p2351
sg10
S'shape'
p2352
sg12
S'Wed Jan 28 18:49:19 2015'
p2353
sg14
S'5681258'
p2354
sg16
g2348
ssS'Atriplex_powellii'
p2355
(dp2356
g4
I1
sg5
S'Amaranthaceae'
p2357
sg7
I4326
sg8
S'110'
p2358
sg10
S'shape'
p2359
sg12
S'Wed Jan 28 17:39:49 2015'
p2360
sg14
S'5681279'
p2361
sg16
g2355
ssS'Chenopodium_polyspermum'
p2362
(dp2363
g4
I1
sg5
S'Amaranthaceae'
p2364
sg7
I4326
sg8
S'54'
p2365
sg10
S'shape'
p2366
sg12
S'Wed Jan 28 18:55:07 2015'
p2367
sg14
S'5682338'
p2368
sg16
g2362
ssS'Viburnum_recognitum'
p2369
(dp2370
g4
I1
sg5
S'Adoxaceae'
p2371
sg7
I4326
sg8
S'349'
p2372
sg10
S'shape'
p2373
sg12
S'Thu Jan 29 03:51:20 2015'
p2374
sg14
S'5681368'
p2375
sg16
g2369
ssS'Amaranthus_watsonii'
p2376
(dp2377
g4
I1
sg5
S'Amaranthaceae'
p2378
sg7
I4326
sg8
S'87'
p2379
sg10
S'shape'
p2380
sg12
S'Wed Jan 28 17:02:41 2015'
p2381
sg14
S'5672526'
p2382
sg16
g2376
ssS'Mesembryanthemum_crystallinum'
p2383
(dp2384
g4
I1
sg5
S'Aizoaceae'
p2385
sg7
I4326
sg8
S'40'
p2386
sg10
S'shape'
p2387
sg12
S'Wed Jan 28 23:11:52 2015'
p2388
sg14
S'5681458'
p2389
sg16
g2383
ssS'Toxicodendron_pubescens'
p2390
(dp2391
g4
I1
sg5
S'Anacardiaceae'
p2392
sg7
I4326
sg8
S'680'
p2393
sg10
S'shape'
p2394
sg12
S'Thu Jan 29 03:11:40 2015'
p2395
sg14
S'5681468'
p2396
sg16
g2390
ssS'Rhus_glabra'
p2397
(dp2398
g4
I1
sg5
S'Anacardiaceae'
p2399
sg7
I4326
sg8
S'2483'
p2400
sg10
S'shape'
p2401
sg12
S'Thu Jan 29 01:42:48 2015'
p2402
sg14
S'5680116'
p2403
sg16
g2397
ssS'Justicia_longii'
p2404
(dp2405
g4
I1
sg5
S'Acanthaceae'
p2406
sg7
I4326
sg8
S'127'
p2407
sg10
S'shape'
p2408
sg12
S'Thu Jan 29 05:25:52 2015'
p2409
sg14
S'5681487'
p2410
sg16
g2404
ssS'Hygrophila_costata'
p2411
(dp2412
g4
I1
sg5
S'Acanthaceae'
p2413
sg7
I4326
sg8
S'24'
p2414
sg10
S'shape'
p2415
sg12
S'Wed Jan 28 21:45:04 2015'
p2416
sg14
S'5681506'
p2417
sg16
g2411
ssS'Gomphrena_nealleyi'
p2418
(dp2419
g4
I1
sg5
S'Amaranthaceae'
p2420
sg7
I4326
sg8
S'25'
p2421
sg10
S'shape'
p2422
sg12
S'Wed Jan 28 21:13:58 2015'
p2423
sg14
S'5681533'
p2424
sg16
g2418
ssS'Suaeda_nigra'
p2425
(dp2426
g4
I1
sg5
S'Amaranthaceae'
p2427
sg7
I4326
sg8
S'137'
p2428
sg10
S'shape'
p2429
sg12
S'Thu Jan 29 02:55:54 2015'
p2430
sg14
S'5681547'
p2431
sg16
g2425
ssS'Viburnum_rufidulum'
p2432
(dp2433
g4
I1
sg5
S'Adoxaceae'
p2434
sg7
I4326
sg8
S'1575'
p2435
sg10
S'shape'
p2436
sg12
S'Thu Jan 29 03:42:24 2015'
p2437
sg14
S'5669132'
p2438
sg16
g2432
ssS'Viburnum_molle'
p2439
(dp2440
g4
I1
sg5
S'Adoxaceae'
p2441
sg7
I4326
sg8
S'110'
p2442
sg10
S'shape'
p2443
sg12
S'Thu Jan 29 03:40:24 2015'
p2444
sg14
S'5677257'
p2445
sg16
g2439
ssS'Hymenocallis_liriosme'
p2446
(dp2447
g4
I1
sg5
S'Amaryllidaceae'
p2448
sg7
I4326
sg8
S'92'
p2449
sg10
S'shape'
p2450
sg12
S'Wed Jan 28 21:40:27 2015'
p2451
sg14
S'5681637'
p2452
sg16
g2446
ssS'Amaranthus_dubius'
p2453
(dp2454
g4
I1
sg5
S'Amaranthaceae'
p2455
sg7
I4326
sg8
S'62'
p2456
sg10
S'shape'
p2457
sg12
S'Wed Jan 28 16:59:24 2015'
p2458
sg14
S'5681693'
p2459
sg16
g2453
ssS'Allium_crenulatum'
p2460
(dp2461
g4
I1
sg5
S'Amaryllidaceae'
p2462
sg7
I4326
sg8
S'99'
p2463
sg10
S'shape'
p2464
sg12
S'Wed Jan 28 16:51:12 2015'
p2465
sg14
S'5681900'
p2466
sg16
g2460
ssS'Chenopodium_californicum'
p2467
(dp2468
g4
I1
sg5
S'Amaranthaceae'
p2469
sg7
I4326
sg8
S'87'
p2470
sg10
S'shape'
p2471
sg12
S'Wed Jan 28 18:49:44 2015'
p2472
sg14
S'5681983'
p2473
sg16
g2467
ssS'Guilleminea_densa'
p2474
(dp2475
g4
I1
sg5
S'Amaranthaceae'
p2476
sg7
I4326
sg8
S'297'
p2477
sg10
S'shape'
p2478
sg12
S'Wed Jan 28 21:16:04 2015'
p2479
sg14
S'5682021'
p2480
sg16
g2474
ssS'Rhus_lanceolata'
p2481
(dp2482
g4
I1
sg5
S'Anacardiaceae'
p2483
sg7
I4326
sg8
S'138'
p2484
sg10
S'shape'
p2485
sg12
S'Thu Jan 29 01:44:09 2015'
p2486
sg14
S'5670675'
p2487
sg16
g2481
ssS'Monolepis_nuttalliana'
p2488
(dp2489
g4
I1
sg5
S'Amaranthaceae'
p2490
sg7
I4326
sg8
S'913'
p2491
sg10
S'shape'
p2492
sg12
S'Wed Jan 28 23:26:54 2015'
p2493
sg14
S'5682133'
p2494
sg16
g2488
ssS'Atriplex_canescens'
p2495
(dp2496
g4
I1
sg5
S'Amaranthaceae'
p2497
sg7
I4326
sg8
S'2968'
p2498
sg10
S'shape'
p2499
sg12
S'Thu Jan 29 04:13:48 2015'
p2500
sg14
S'5682176'
p2501
sg16
g2495
ssS'Ruellia_humilis'
p2502
(dp2503
g4
I1
sg5
S'Acanthaceae'
p2504
sg7
I4326
sg8
S'1043'
p2505
sg10
S'shape'
p2506
sg12
S'Thu Jan 29 01:54:44 2015'
p2507
sg14
S'5682203'
p2508
sg16
g2502
ssS'Zephyranthes_drummondii'
p2509
(dp2510
g4
I1
sg5
S'Amaryllidaceae'
p2511
sg7
I4326
sg8
S'44'
p2512
sg10
S'shape'
p2513
sg12
S'Thu Jan 29 03:49:41 2015'
p2514
sg14
S'5682214'
p2515
sg16
g2509
ssS'Elytraria_caroliniensis'
p2516
(dp2517
g4
I1
sg5
S'Acanthaceae'
p2518
sg7
I4326
sg8
S'58'
p2519
sg10
S'shape'
p2520
sg12
S'Thu Jan 29 05:11:46 2015'
p2521
sg14
S'5676185'
p2522
sg16
g2516
ssS'Ruellia_purshiana'
p2523
(dp2524
g4
I1
sg5
S'Acanthaceae'
p2525
sg7
I4326
sg8
S'52'
p2526
sg10
S'shape'
p2527
sg12
S'Thu Jan 29 01:57:17 2015'
p2528
sg14
S'5682276'
p2529
sg16
g2523
ssS'Chenopodium_neomexicanum'
p2530
(dp2531
g4
I1
sg5
S'Amaranthaceae'
p2532
sg7
I4326
sg8
S'108'
p2533
sg10
S'shape'
p2534
sg12
S'Wed Jan 28 18:50:40 2015'
p2535
sg14
S'5682299'
p2536
sg16
g2530
ssS'Zephyranthes_treatiae'
p2537
(dp2538
g4
I1
sg5
S'Amaryllidaceae'
p2539
sg7
I4326
sg8
S'111'
p2540
sg10
S'shape'
p2541
sg12
S'Thu Jan 29 04:18:32 2015'
p2542
sg14
S'5673634'
p2543
sg16
g2537
ssS'Toxicodendron_rydbergii'
p2544
(dp2545
g4
I1
sg5
S'Anacardiaceae'
p2546
sg7
I4326
sg8
S'734'
p2547
sg10
S'shape'
p2548
sg12
S'Thu Jan 29 03:11:56 2015'
p2549
sg14
S'5674495'
p2550
sg16
g2544
ssS'Chenopodium_bonus-henricus'
p2551
(dp2552
g4
I1
sg5
S'Amaranthaceae'
p2553
sg7
I4326
sg8
S'27'
p2554
sg10
S'shape'
p2555
sg12
S'Wed Jan 28 18:49:34 2015'
p2556
sg14
S'5680044'
p2557
sg16
g2551
ssS'Amaranthus_tuberculatus'
p2558
(dp2559
g4
I1
sg5
S'Amaranthaceae'
p2560
sg7
I4326
sg8
S'1145'
p2561
sg10
S'shape'
p2562
sg12
S'Wed Jan 28 17:02:26 2015'
p2563
sg14
S'5682484'
p2564
sg16
g2558
ssS'Blechum_pyramidatum'
p2565
(dp2566
g4
I1
sg5
S'Acanthaceae'
p2567
sg7
I4326
sg8
S'430'
p2568
sg10
S'shape'
p2569
sg12
S'Wed Jan 28 17:50:48 2015'
p2570
sg14
S'5677699'
p2571
sg16
g2565
ssS'Galanthus_nivalis'
p2572
(dp2573
g4
I1
sg5
S'Amaryllidaceae'
p2574
sg7
I4326
sg8
S'39'
p2575
sg10
S'shape'
p2576
sg12
S'Wed Jan 28 21:05:24 2015'
p2577
sg14
S'5682503'
p2578
sg16
g2572
ssS'Atriplex_graciliflora'
p2579
(dp2580
g4
I1
sg5
S'Amaranthaceae'
p2581
sg7
I4326
sg8
S'26'
p2582
sg10
S'shape'
p2583
sg12
S'Wed Jan 28 17:38:20 2015'
p2584
sg14
S'5682521'
p2585
sg16
g2579
ss.