(dp1
S'Bupleurum_odontites'
p2
(dp3
S'group'
p4
I2
sS'family'
p5
S'Apiaceae'
p6
sS'epsgCode'
p7
I4326
sS'occurencesCount'
p8
S'1'
sS'dataFormat'
p9
S'shape'
p10
sS'downloadedTime'
p11
S'Thu Jan 29 04:58:30 2015'
p12
sS'occurrenceID'
p13
S'5665579'
p14
sS'species'
p15
S'Bupleurum_odontites'
p16
ssS'Zephyranthes_jonesii'
p17
(dp18
g4
I1
sg5
S'Amaryllidaceae'
p19
sg7
I4326
sg8
S'34'
p20
sg9
S'shape'
p21
sg11
S'Wed Jan 28 19:17:03 2015'
p22
sg13
S'5665583'
p23
sg15
S'Zephyranthes_jonesii'
p24
ssS'Allium_hickmanii'
p25
(dp26
g4
I1
sg5
S'Amaryllidaceae'
p27
sg7
I4326
sg8
S'5'
sg9
S'shape'
p28
sg11
S'Wed Jan 28 16:52:31 2015'
p29
sg13
S'5665584'
p30
sg15
S'Allium_hickmanii'
p31
ssS'Eriogonum_alpinum'
p32
(dp33
g4
I15
sg5
S'Polygonaceae'
p34
sg7
I4326
sg8
S'6'
sg9
S'shape'
p35
sg11
S'Wed Jan 28 20:21:34 2015'
p36
sg13
S'5665581'
p37
sg15
S'Eriogonum_alpinum'
p38
ss.