(dp1
S'Zephyranthes_jonesii'
p2
(dp3
S'group'
p4
I1
sS'family'
p5
S'Amaryllidaceae'
p6
sS'epsgCode'
p7
I4326
sS'occurencesCount'
p8
S'34'
p9
sS'dataFormat'
p10
S'shape'
p11
sS'downloadedTime'
p12
S'Wed Jan 28 19:17:03 2015'
p13
sS'occurrenceID'
p14
S'5665583'
p15
sS'species'
p16
g2
ssS'Allium_hickmanii'
p17
(dp18
g4
I1
sg5
S'Amaryllidaceae'
p19
sg7
I4326
sg8
S'5'
sg10
S'shape'
p20
sg12
S'Wed Jan 28 16:52:31 2015'
p21
sg14
S'5665584'
p22
sg16
g17
ssS'Yeatesia_viridiflora'
p23
(dp24
g4
I1
sg5
S'Acanthaceae'
p25
sg7
I4326
sg8
S'30'
p26
sg10
S'shape'
p27
sg12
S'Thu Jan 29 03:48:08 2015'
p28
sg14
S'5670470'
p29
sg16
g23
ssS'Allium_drummondii'
p30
(dp31
g4
I1
sg5
S'Amaryllidaceae'
p32
sg7
I4326
sg8
S'335'
p33
sg10
S'shape'
p34
sg12
S'Wed Jan 28 16:51:32 2015'
p35
sg14
S'5665612'
p36
sg16
g30
ssS'Atriplex_obovata'
p37
(dp38
g4
I1
sg5
S'Amaranthaceae'
p39
sg7
I4326
sg8
S'281'
p40
sg10
S'shape'
p41
sg12
S'Wed Jan 28 17:39:40 2015'
p42
sg14
S'5665623'
p43
sg16
g37
ssS'Sagittaria_longiloba'
p44
(dp45
g4
I1
sg5
S'Alismataceae'
p46
sg7
I4326
sg8
S'175'
p47
sg10
S'shape'
p48
sg12
S'Thu Jan 29 02:05:19 2015'
p49
sg14
S'5665645'
p50
sg16
g44
ssS'Allium_ampeloprasum'
p51
(dp52
g4
I1
sg5
S'Amaryllidaceae'
p53
sg7
I4326
sg8
S'98'
p54
sg10
S'shape'
p55
sg12
S'Wed Jan 28 16:49:50 2015'
p56
sg14
S'5665654'
p57
sg16
g51
ssS'Viburnum_ellipticum'
p58
(dp59
g4
I1
sg5
S'Adoxaceae'
p60
sg7
I4326
sg8
S'103'
p61
sg10
S'shape'
p62
sg12
S'Thu Jan 29 03:39:09 2015'
p63
sg14
S'5665718'
p64
sg16
g58
ssS'Sambucus_racemosa'
p65
(dp66
g4
I1
sg5
S'Adoxaceae'
p67
sg7
I4326
sg8
S'2322'
p68
sg10
S'shape'
p69
sg12
S'Thu Jan 29 02:07:25 2015'
p70
sg14
S'5673521'
p71
sg16
g65
ssS'Mesembryanthemum_nodiflorum'
p72
(dp73
g4
I1
sg5
S'Aizoaceae'
p74
sg7
I4326
sg8
S'32'
p75
sg10
S'shape'
p76
sg12
S'Wed Jan 28 23:09:56 2015'
p77
sg14
S'5665827'
p78
sg16
g72
ssS'Allium_perdulce'
p79
(dp80
g4
I1
sg5
S'Amaryllidaceae'
p81
sg7
I4326
sg8
S'86'
p82
sg10
S'shape'
p83
sg12
S'Wed Jan 28 16:54:45 2015'
p84
sg14
S'5675324'
p85
sg16
g79
ssS'Allium_munzii'
p86
(dp87
g4
I1
sg5
S'Amaryllidaceae'
p88
sg7
I4326
sg8
S'3'
sg10
S'shape'
p89
sg12
S'Wed Jan 28 16:53:56 2015'
p90
sg14
S'5677755'
p91
sg16
g86
ssS'Dysphania_multifida'
p92
(dp93
g4
I1
sg5
S'Amaranthaceae'
p94
sg7
I4326
sg8
S'45'
p95
sg10
S'shape'
p96
sg12
S'Wed Jan 28 20:07:36 2015'
p97
sg14
S'5665953'
p98
sg16
g92
ssS'Phaulothamnus_spinescens'
p99
(dp100
g4
I1
sg5
S'Achatocarpaceae'
p101
sg7
I4326
sg8
S'84'
p102
sg10
S'shape'
p103
sg12
S'Thu Jan 29 00:34:29 2015'
p104
sg14
S'5673686'
p105
sg16
g99
ssS'Atriplex_confertifolia'
p106
(dp107
g4
I1
sg5
S'Amaranthaceae'
p108
sg7
I4326
sg8
S'4210'
p109
sg10
S'shape'
p110
sg12
S'Wed Jan 28 17:38:36 2015'
p111
sg14
S'5666051'
p112
sg16
g106
ssS'Hymenocallis_littoralis'
p113
(dp114
g4
I1
sg5
S'Amaryllidaceae'
p115
sg7
I4326
sg8
S'67'
p116
sg10
S'shape'
p117
sg12
S'Wed Jan 28 21:41:06 2015'
p118
sg14
S'5666053'
p119
sg16
g113
ssS'Hydrocleys_nymphoides'
p120
(dp121
g4
I1
sg5
S'Alismataceae'
p122
sg7
I4326
sg8
S'6'
sg10
S'shape'
p123
sg12
S'Wed Jan 28 21:45:01 2015'
p124
sg14
S'5666063'
p125
sg16
g120
ssS'Monolepis_spathulata'
p126
(dp127
g4
I1
sg5
S'Amaranthaceae'
p128
sg7
I4326
sg8
S'14'
p129
sg10
S'shape'
p130
sg12
S'Wed Jan 28 23:25:46 2015'
p131
sg14
S'5666088'
p132
sg16
g126
ssS'Nothoscordum_bivalve'
p133
(dp134
g4
I1
sg5
S'Amaryllidaceae'
p135
sg7
I4326
sg8
S'1247'
p136
sg10
S'shape'
p137
sg12
S'Thu Jan 29 05:36:02 2015'
p138
sg14
S'5666093'
p139
sg16
g133
ssS'Chenopodium_leptophyllum'
p140
(dp141
g4
I1
sg5
S'Amaranthaceae'
p142
sg7
I4326
sg8
S'347'
p143
sg10
S'shape'
p144
sg12
S'Wed Jan 28 18:52:16 2015'
p145
sg14
S'5666104'
p146
sg16
g140
ssS'Alternanthera_philoxeroides'
p147
(dp148
g4
I1
sg5
S'Amaranthaceae'
p149
sg7
I4326
sg8
S'391'
p150
sg10
S'shape'
p151
sg12
S'Wed Jan 28 16:54:49 2015'
p152
sg14
S'5666141'
p153
sg16
g147
ssS'Cotinus_coggygria'
p154
(dp155
g4
I1
sg5
S'Anacardiaceae'
p156
sg7
I4326
sg8
S'31'
p157
sg10
S'shape'
p158
sg12
S'Wed Jan 28 17:08:36 2015'
p159
sg14
S'5679123'
p160
sg16
g154
ssS'Amaranthus_venulosus'
p161
(dp162
g4
I1
sg5
S'Amaranthaceae'
p163
sg7
I4326
sg8
S'12'
p164
sg10
S'shape'
p165
sg12
S'Wed Jan 28 17:02:34 2015'
p166
sg14
S'5666230'
p167
sg16
g161
ssS'Hymenocallis_rotata'
p168
(dp169
g4
I1
sg5
S'Amaryllidaceae'
p170
sg7
I4326
sg8
S'18'
p171
sg10
S'shape'
p172
sg12
S'Wed Jan 28 21:42:42 2015'
p173
sg14
S'5681605'
p174
sg16
g168
ssS'Froelichia_interrupta'
p175
(dp176
g4
I1
sg5
S'Amaranthaceae'
p177
sg7
I4326
sg8
S'109'
p178
sg10
S'shape'
p179
sg12
S'Wed Jan 28 20:56:28 2015'
p180
sg14
S'5666260'
p181
sg16
g175
ssS'Allium_dichlamydeum'
p182
(dp183
g4
I1
sg5
S'Amaryllidaceae'
p184
sg7
I4326
sg8
S'14'
p185
sg10
S'shape'
p186
sg12
S'Wed Jan 28 16:51:27 2015'
p187
sg14
S'5666261'
p188
sg16
g182
ssS'Dysphania_ambrosioides'
p189
(dp190
g4
I1
sg5
S'Amaranthaceae'
p191
sg7
I4326
sg8
S'1570'
p192
sg10
S'shape'
p193
sg12
S'Wed Jan 28 20:07:51 2015'
p194
sg14
S'5665757'
p195
sg16
g189
ssS'Alstroemeria_pulchella'
p196
(dp197
g4
I1
sg5
S'Alstroemeriaceae'
p198
sg7
I4326
sg8
S'6'
sg10
S'shape'
p199
sg12
S'Wed Jan 28 16:55:12 2015'
p200
sg14
S'5666325'
p201
sg16
g196
ssS'Sagittaria_guayanensis'
p202
(dp203
g4
I1
sg5
S'Alismataceae'
p204
sg7
I4326
sg8
S'17'
p205
sg10
S'shape'
p206
sg12
S'Thu Jan 29 02:02:25 2015'
p207
sg14
S'5666354'
p208
sg16
g202
ssS'Allium_obtusum'
p209
(dp210
g4
I1
sg5
S'Amaryllidaceae'
p211
sg7
I4326
sg8
S'47'
p212
sg10
S'shape'
p213
sg12
S'Wed Jan 28 16:54:20 2015'
p214
sg14
S'5666364'
p215
sg16
g209
ssS'Atriplex_hortensis'
p216
(dp217
g4
I1
sg5
S'Amaranthaceae'
p218
sg7
I4326
sg8
S'162'
p219
sg10
S'shape'
p220
sg12
S'Thu Jan 29 04:55:47 2015'
p221
sg14
S'5666458'
p222
sg16
g216
ssS'Helanthium_tenellum'
p223
(dp224
g4
I1
sg5
S'Alismataceae'
p225
sg7
I4326
sg8
S'81'
p226
sg10
S'shape'
p227
sg12
S'Wed Jan 28 21:28:07 2015'
p228
sg14
S'5666488'
p229
sg16
g223
ssS'Justicia_pectoralis'
p230
(dp231
g4
I1
sg5
S'Acanthaceae'
p232
sg7
I4326
sg8
S'35'
p233
sg10
S'shape'
p234
sg12
S'Wed Jan 28 21:59:56 2015'
p235
sg14
S'5666523'
p236
sg16
g230
ssS'Atriplex_argentea'
p237
(dp238
g4
I1
sg5
S'Amaranthaceae'
p239
sg7
I4326
sg8
S'434'
p240
sg10
S'shape'
p241
sg12
S'Thu Jan 29 04:55:40 2015'
p242
sg14
S'5680980'
p243
sg16
g237
ssS'Allium_brandegeei'
p244
(dp245
g4
I1
sg5
S'Amaryllidaceae'
p246
sg7
I4326
sg8
S'134'
p247
sg10
S'shape'
p248
sg12
S'Wed Jan 28 16:50:18 2015'
p249
sg14
S'5666550'
p250
sg16
g244
ssS'Allium_madidum'
p251
(dp252
g4
I1
sg5
S'Amaryllidaceae'
p253
sg7
I4326
sg8
S'37'
p254
sg10
S'shape'
p255
sg12
S'Wed Jan 28 16:53:33 2015'
p256
sg14
S'5666558'
p257
sg16
g251
ssS'Atriplex_acanthocarpa'
p258
(dp259
g4
I1
sg5
S'Amaranthaceae'
p260
sg7
I4326
sg8
S'72'
p261
sg10
S'shape'
p262
sg12
S'Wed Jan 28 17:39:46 2015'
p263
sg14
S'5668540'
p264
sg16
g258
ssS'Ruellia_noctiflora'
p265
(dp266
g4
I1
sg5
S'Acanthaceae'
p267
sg7
I4326
sg8
S'25'
p268
sg10
S'shape'
p269
sg12
S'Thu Jan 29 01:56:07 2015'
p270
sg14
S'5666599'
p271
sg16
g265
ssS'Viburnum_lantanoides'
p272
(dp273
g4
I1
sg5
S'Adoxaceae'
p274
sg7
I4326
sg8
S'699'
p275
sg10
S'shape'
p276
sg12
S'Thu Jan 29 03:40:19 2015'
p277
sg14
S'5673739'
p278
sg16
g272
ssS'Allium_simillimum'
p279
(dp280
g4
I1
sg5
S'Amaryllidaceae'
p281
sg7
I4326
sg8
S'34'
p282
sg10
S'shape'
p283
sg12
S'Wed Jan 28 16:56:06 2015'
p284
sg14
S'5675448'
p285
sg16
g279
ssS'Hymenocallis_latifolia'
p286
(dp287
g4
I1
sg5
S'Amaryllidaceae'
p288
sg7
I4326
sg8
S'18'
p289
sg10
S'shape'
p290
sg12
S'Wed Jan 28 21:40:11 2015'
p291
sg14
S'5666630'
p292
sg16
g286
ssS'Iresine_diffusa'
p293
(dp294
g4
I1
sg5
S'Amaranthaceae'
p295
sg7
I4326
sg8
S'1027'
p296
sg10
S'shape'
p297
sg12
S'Wed Jan 28 21:52:10 2015'
p298
sg14
S'5666675'
p299
sg16
g293
ssS'Atriplex_tridentata'
p300
(dp301
g4
I1
sg5
S'Amaranthaceae'
p302
sg7
I4326
sg8
S'52'
p303
sg10
S'shape'
p304
sg12
S'Wed Jan 28 17:40:17 2015'
p305
sg14
S'5666683'
p306
sg16
g300
ssS'Atriplex_watsonii'
p307
(dp308
g4
I1
sg5
S'Amaranthaceae'
p309
sg7
I4326
sg8
S'7'
sg10
S'shape'
p310
sg12
S'Wed Jan 28 17:40:19 2015'
p311
sg14
S'5666732'
p312
sg16
g307
ssS'Atriplex_suberecta'
p313
(dp314
g4
I1
sg5
S'Amaranthaceae'
p315
sg7
I4326
sg8
S'29'
p316
sg10
S'shape'
p317
sg12
S'Wed Jan 28 17:40:06 2015'
p318
sg14
S'5666740'
p319
sg16
g313
ssS'Dyschoriste_angusta'
p320
(dp321
g4
I1
sg5
S'Acanthaceae'
p322
sg7
I4326
sg8
S'12'
p323
sg10
S'shape'
p324
sg12
S'Wed Jan 28 20:07:43 2015'
p325
sg14
S'5666778'
p326
sg16
g320
ssS'Thunbergia_alata'
p327
(dp328
g4
I1
sg5
S'Acanthaceae'
p329
sg7
I4326
sg8
S'92'
p330
sg10
S'shape'
p331
sg12
S'Thu Jan 29 03:07:46 2015'
p332
sg14
S'5666800'
p333
sg16
g327
ssS'Carlowrightia_mexicana'
p334
(dp335
g4
I1
sg5
S'Acanthaceae'
p336
sg7
I4326
sg8
S'5'
sg10
S'shape'
p337
sg12
S'Wed Jan 28 18:23:18 2015'
p338
sg14
S'5666807'
p339
sg16
g334
ssS'Echinodorus_grandiflorus'
p340
(dp341
g4
I1
sg5
S'Alismataceae'
p342
sg7
I4326
sg8
S'4'
sg10
S'shape'
p343
sg12
S'Wed Jan 28 20:08:24 2015'
p344
sg14
S'5678287'
p345
sg16
g340
ssS'Allium_stellatum'
p346
(dp347
g4
I1
sg5
S'Amaryllidaceae'
p348
sg7
I4326
sg8
S'318'
p349
sg10
S'shape'
p350
sg12
S'Wed Jan 28 16:56:15 2015'
p351
sg14
S'5666842'
p352
sg16
g346
ssS'Allium_geyeri'
p353
(dp354
g4
I1
sg5
S'Amaryllidaceae'
p355
sg7
I4326
sg8
S'510'
p356
sg10
S'shape'
p357
sg12
S'Wed Jan 28 16:51:55 2015'
p358
sg14
S'5675469'
p359
sg16
g353
ssS'Amaranthus_tricolor'
p360
(dp361
g4
I1
sg5
S'Amaranthaceae'
p362
sg7
I4326
sg8
S'10'
p363
sg10
S'shape'
p364
sg12
S'Wed Jan 28 17:02:20 2015'
p365
sg14
S'5666867'
p366
sg16
g360
ssS'Iresine_heterophylla'
p367
(dp368
g4
I1
sg5
S'Amaranthaceae'
p369
sg7
I4326
sg8
S'133'
p370
sg10
S'shape'
p371
sg12
S'Wed Jan 28 21:52:42 2015'
p372
sg14
S'5674251'
p373
sg16
g367
ssS'Allium_tribracteatum'
p374
(dp375
g4
I1
sg5
S'Amaryllidaceae'
p376
sg7
I4326
sg8
S'10'
p377
sg10
S'shape'
p378
sg12
S'Wed Jan 28 16:50:18 2015'
p379
sg14
S'5666913'
p380
sg16
g374
ssS'Chenopodium_quinoa'
p381
(dp382
g4
I1
sg5
S'Amaranthaceae'
p383
sg7
I4326
sg8
S'5'
sg10
S'shape'
p384
sg12
S'Thu Jan 29 04:17:35 2015'
p385
sg14
S'5666918'
p386
sg16
g381
ssS'Allium_monticola'
p387
(dp388
g4
I1
sg5
S'Amaryllidaceae'
p389
sg7
I4326
sg8
S'3'
sg10
S'shape'
p390
sg12
S'Wed Jan 28 16:53:49 2015'
p391
sg14
S'5666982'
p392
sg16
g387
ssS'Liquidambar_styraciflua'
p393
(dp394
g4
I1
sg5
S'Altingiaceae'
p395
sg7
I4326
sg8
S'641248'
p396
sg10
S'shape'
p397
sg12
S'Wed Jan 28 22:32:18 2015'
p398
sg14
S'5666983'
p399
sg16
g393
ssS'Acorus_calamus'
p400
(dp401
g4
I1
sg5
S'Acoraceae'
p402
sg7
I4326
sg8
S'1172'
p403
sg10
S'shape'
p404
sg12
S'Wed Jan 28 16:33:06 2015'
p405
sg14
S'5666992'
p406
sg16
g400
ssS'Allium_macrum'
p407
(dp408
g4
I1
sg5
S'Amaryllidaceae'
p409
sg7
I4326
sg8
S'55'
p410
sg10
S'shape'
p411
sg12
S'Wed Jan 28 16:53:29 2015'
p412
sg14
S'5674490'
p413
sg16
g407
ssS'Chenopodium_foliosum'
p414
(dp415
g4
I1
sg5
S'Amaranthaceae'
p416
sg7
I4326
sg8
S'108'
p417
sg10
S'shape'
p418
sg12
S'Wed Jan 28 18:51:42 2015'
p419
sg14
S'5667044'
p420
sg16
g414
ssS'Baldellia_ranunculoides'
p421
(dp422
g4
I1
sg5
S'Alismataceae'
p423
sg7
I4326
sg8
S'1'
sg10
S'shape'
p424
sg12
S'Wed Jan 28 17:43:56 2015'
p425
sg14
S'5667076'
p426
sg16
g421
ssS'Allium_haematochiton'
p427
(dp428
g4
I1
sg5
S'Amaryllidaceae'
p429
sg7
I4326
sg8
S'42'
p430
sg10
S'shape'
p431
sg12
S'Wed Jan 28 16:52:24 2015'
p432
sg14
S'5681052'
p433
sg16
g427
ssS'Rhus_virens'
p434
(dp435
g4
I1
sg5
S'Anacardiaceae'
p436
sg7
I4326
sg8
S'274'
p437
sg10
S'shape'
p438
sg12
S'Thu Jan 29 01:46:42 2015'
p439
sg14
S'5667119'
p440
sg16
g434
ssS'Chenopodium_cycloides'
p441
(dp442
g4
I1
sg5
S'Amaranthaceae'
p443
sg7
I4326
sg8
S'38'
p444
sg10
S'shape'
p445
sg12
S'Thu Jan 29 04:16:57 2015'
p446
sg14
S'5667224'
p447
sg16
g441
ssS'Chenopodium_foggii'
p448
(dp449
g4
I1
sg5
S'Amaranthaceae'
p450
sg7
I4326
sg8
S'11'
p451
sg10
S'shape'
p452
sg12
S'Wed Jan 28 18:51:25 2015'
p453
sg14
S'5678495'
p454
sg16
g448
ssS'Zephyranthes_candida'
p455
(dp456
g4
I1
sg5
S'Amaryllidaceae'
p457
sg7
I4326
sg8
S'54'
p458
sg10
S'shape'
p459
sg12
S'Thu Jan 29 03:49:56 2015'
p460
sg14
S'5667263'
p461
sg16
g455
ssS'Salicornia_rubra'
p462
(dp463
g4
I1
sg5
S'Amaranthaceae'
p464
sg7
I4326
sg8
S'147'
p465
sg10
S'shape'
p466
sg12
S'Thu Jan 29 02:02:34 2015'
p467
sg14
S'5667304'
p468
sg16
g462
ssS'Hymenocallis_godfreyi'
p469
(dp470
g4
I1
sg5
S'Amaryllidaceae'
p471
sg7
I4326
sg8
S'1'
sg10
S'shape'
p472
sg12
S'Thu Jan 29 05:23:24 2015'
p473
sg14
S'5667318'
p474
sg16
g469
ssS'Alternanthera_sessilis'
p475
(dp476
g4
I1
sg5
S'Amaranthaceae'
p477
sg7
I4326
sg8
S'60'
p478
sg10
S'shape'
p479
sg12
S'Wed Jan 28 16:56:10 2015'
p480
sg14
S'5667425'
p481
sg16
g475
ssS'Lampranthus_coccineus'
p482
(dp483
g4
I1
sg5
S'Aizoaceae'
p484
sg7
I4326
sg8
S'3'
sg10
S'shape'
p485
sg12
S'Wed Jan 28 22:18:03 2015'
p486
sg14
S'5667525'
p487
sg16
g482
ssS'Atriplex_neomexicana'
p488
(dp489
g4
I1
sg5
S'Amaranthaceae'
p490
sg7
I4326
sg8
S'1'
sg10
S'shape'
p491
sg12
S'Thu Jan 29 04:38:38 2015'
p492
sg14
S'5667539'
p493
sg16
g488
ssS'Chenopodium_subglabrum'
p494
(dp495
g4
I1
sg5
S'Amaranthaceae'
p496
sg7
I4326
sg8
S'37'
p497
sg10
S'shape'
p498
sg12
S'Wed Jan 28 18:48:51 2015'
p499
sg14
S'5667577'
p500
sg16
g494
ssS'Justicia_ovata'
p501
(dp502
g4
I1
sg5
S'Acanthaceae'
p503
sg7
I4326
sg8
S'318'
p504
sg10
S'shape'
p505
sg12
S'Wed Jan 28 22:05:24 2015'
p506
sg14
S'5667583'
p507
sg16
g501
ssS'Allium_acuminatum'
p508
(dp509
g4
I1
sg5
S'Amaryllidaceae'
p510
sg7
I4326
sg8
S'557'
p511
sg10
S'shape'
p512
sg12
S'Wed Jan 28 16:49:26 2015'
p513
sg14
S'5667667'
p514
sg16
g508
ssS'Leucojum_vernum'
p515
(dp516
g4
I1
sg5
S'Amaryllidaceae'
p517
sg7
I4326
sg8
S'2'
sg10
S'shape'
p518
sg12
S'Wed Jan 28 22:19:53 2015'
p519
sg14
S'5667676'
p520
sg16
g515
ssS'Alisma_lanceolatum'
p521
(dp522
g4
I1
sg5
S'Alismataceae'
p523
sg7
I4326
sg8
S'46'
p524
sg10
S'shape'
p525
sg12
S'Wed Jan 28 16:52:23 2015'
p526
sg14
S'5667718'
p527
sg16
g521
ssS'Atriplex_tatarica'
p528
(dp529
g4
I1
sg5
S'Amaranthaceae'
p530
sg7
I4326
sg8
S'4'
sg10
S'shape'
p531
sg12
S'Wed Jan 28 17:40:09 2015'
p532
sg14
S'5667735'
p533
sg16
g528
ssS'Salsola_collina'
p534
(dp535
g4
I1
sg5
S'Amaranthaceae'
p536
sg7
I4326
sg8
S'154'
p537
sg10
S'shape'
p538
sg12
S'Thu Jan 29 04:39:28 2015'
p539
sg14
S'5667761'
p540
sg16
g534
ssS'Zephyranthes_citrina'
p541
(dp542
g4
I1
sg5
S'Amaryllidaceae'
p543
sg7
I4326
sg8
S'10'
p544
sg10
S'shape'
p545
sg12
S'Thu Jan 29 04:18:16 2015'
p546
sg14
S'5673580'
p547
sg16
g541
ssS'Carlowrightia_parvifolia'
p548
(dp549
g4
I1
sg5
S'Acanthaceae'
p550
sg7
I4326
sg8
S'5'
sg10
S'shape'
p551
sg12
S'Wed Jan 28 18:29:22 2015'
p552
sg14
S'5667848'
p553
sg16
g548
ssS'Allium_serra'
p554
(dp555
g4
I1
sg5
S'Amaryllidaceae'
p556
sg7
I4326
sg8
S'49'
p557
sg10
S'shape'
p558
sg12
S'Wed Jan 28 16:55:58 2015'
p559
sg14
S'5679675'
p560
sg16
g554
ssS'Atriplex_fruticulosa'
p561
(dp562
g4
I1
sg5
S'Amaranthaceae'
p563
sg7
I4326
sg8
S'39'
p564
sg10
S'shape'
p565
sg12
S'Thu Jan 29 04:55:46 2015'
p566
sg14
S'5667882'
p567
sg16
g561
ssS'Atriplex_nudicaulis'
p568
(dp569
g4
I1
sg5
S'Amaranthaceae'
p570
sg7
I4326
sg8
S'1'
sg10
S'shape'
p571
sg12
S'Wed Jan 28 17:39:35 2015'
p572
sg14
S'5667948'
p573
sg16
g568
ssS'Narcissus_tazetta'
p574
(dp575
g4
I1
sg5
S'Amaryllidaceae'
p576
sg7
I4326
sg8
S'42'
p577
sg10
S'shape'
p578
sg12
S'Wed Jan 28 23:34:54 2015'
p579
sg14
S'5681063'
p580
sg16
g574
ssS'Amaranthus_greggii'
p581
(dp582
g4
I1
sg5
S'Amaranthaceae'
p583
sg7
I4326
sg8
S'99'
p584
sg10
S'shape'
p585
sg12
S'Wed Jan 28 16:59:51 2015'
p586
sg14
S'5668019'
p587
sg16
g581
ssS'Atriplex_leucophylla'
p588
(dp589
g4
I1
sg5
S'Amaranthaceae'
p590
sg7
I4326
sg8
S'37'
p591
sg10
S'shape'
p592
sg12
S'Wed Jan 28 17:39:13 2015'
p593
sg14
S'5668050'
p594
sg16
g588
ssS'Salsola_paulsenii'
p595
(dp596
g4
I1
sg5
S'Amaranthaceae'
p597
sg7
I4326
sg8
S'63'
p598
sg10
S'shape'
p599
sg12
S'Thu Jan 29 04:31:16 2015'
p600
sg14
S'5668110'
p601
sg16
g595
ssS'Allium_amplectens'
p602
(dp603
g4
I1
sg5
S'Amaryllidaceae'
p604
sg7
I4326
sg8
S'292'
p605
sg10
S'shape'
p606
sg12
S'Wed Jan 28 16:49:51 2015'
p607
sg14
S'5680422'
p608
sg16
g602
ssS'Carpobrotus_chilensis'
p609
(dp610
g4
I1
sg5
S'Aizoaceae'
p611
sg7
I4326
sg8
S'30'
p612
sg10
S'shape'
p613
sg12
S'Wed Jan 28 18:11:10 2015'
p614
sg14
S'5668178'
p615
sg16
g609
ssS'Atriplex_pachypoda'
p616
(dp617
g4
I1
sg5
S'Amaranthaceae'
p618
sg7
I4326
sg8
S'4'
sg10
S'shape'
p619
sg12
S'Wed Jan 28 17:39:37 2015'
p620
sg14
S'5668212'
p621
sg16
g616
ssS'Dicliptera_brachiata'
p622
(dp623
g4
I1
sg5
S'Acanthaceae'
p624
sg7
I4326
sg8
S'416'
p625
sg10
S'shape'
p626
sg12
S'Wed Jan 28 19:55:08 2015'
p627
sg14
S'5668248'
p628
sg16
g622
ssS'Allium_passeyi'
p629
(dp630
g4
I1
sg5
S'Amaryllidaceae'
p631
sg7
I4326
sg8
S'11'
p632
sg10
S'shape'
p633
sg12
S'Wed Jan 28 16:54:38 2015'
p634
sg14
S'5668268'
p635
sg16
g629
ssS'Corispermum_hookeri'
p636
(dp637
g4
I1
sg5
S'Amaranthaceae'
p638
sg7
I4326
sg8
S'7'
sg10
S'shape'
p639
sg12
S'Wed Jan 28 19:08:51 2015'
p640
sg14
S'5668271'
p641
sg16
g636
ssS'Atriplex_phyllostegia'
p642
(dp643
g4
I1
sg5
S'Amaranthaceae'
p644
sg7
I4326
sg8
S'49'
p645
sg10
S'shape'
p646
sg12
S'Wed Jan 28 17:38:33 2015'
p647
sg14
S'5668274'
p648
sg16
g642
ssS'Sagittaria_demersa'
p649
(dp650
g4
I1
sg5
S'Alismataceae'
p651
sg7
I4326
sg8
S'27'
p652
sg10
S'shape'
p653
sg12
S'Thu Jan 29 02:02:27 2015'
p654
sg14
S'5681665'
p655
sg16
g649
ssS'Gomphrena_caespitosa'
p656
(dp657
g4
I1
sg5
S'Amaranthaceae'
p658
sg7
I4326
sg8
S'163'
p659
sg10
S'shape'
p660
sg12
S'Wed Jan 28 17:23:45 2015'
p661
sg14
S'5668319'
p662
sg16
g656
ssS'Suaeda_linearis'
p663
(dp664
g4
I1
sg5
S'Amaranthaceae'
p665
sg7
I4326
sg8
S'195'
p666
sg10
S'shape'
p667
sg12
S'Thu Jan 29 02:55:41 2015'
p668
sg14
S'5668345'
p669
sg16
g663
ssS'Zephyranthes_simpsonii'
p670
(dp671
g4
I1
sg5
S'Amaryllidaceae'
p672
sg7
I4326
sg8
S'86'
p673
sg10
S'shape'
p674
sg12
S'Thu Jan 29 03:49:57 2015'
p675
sg14
S'5674536'
p676
sg16
g670
ssS'Sagittaria_papillosa'
p677
(dp678
g4
I1
sg5
S'Alismataceae'
p679
sg7
I4326
sg8
S'66'
p680
sg10
S'shape'
p681
sg12
S'Thu Jan 29 02:01:43 2015'
p682
sg14
S'5668506'
p683
sg16
g677
ssS'Asystasia_gangetica'
p684
(dp685
g4
I1
sg5
S'Acanthaceae'
p686
sg7
I4326
sg8
S'10'
p687
sg10
S'shape'
p688
sg12
S'Wed Jan 28 17:24:10 2015'
p689
sg14
S'5668534'
p690
sg16
g684
ssS'Schinus_molle'
p691
(dp692
g4
I1
sg5
S'Anacardiaceae'
p693
sg7
I4326
sg8
S'142'
p694
sg10
S'shape'
p695
sg12
S'Thu Jan 29 02:12:04 2015'
p696
sg14
S'5668536'
p697
sg16
g691
ssS'Adoxa_moschatellina'
p698
(dp699
g4
I1
sg5
S'Adoxaceae'
p700
sg7
I4326
sg8
S'170'
p701
sg10
S'shape'
p702
sg12
S'Wed Jan 28 16:40:08 2015'
p703
sg14
S'5668617'
p704
sg16
g698
ssS'Justicia_turneri'
p705
(dp706
g4
I1
sg5
S'Acanthaceae'
p707
sg7
I4326
sg8
S'17'
p708
sg10
S'shape'
p709
sg12
S'Wed Jan 28 22:08:03 2015'
p710
sg14
S'5668631'
p711
sg16
g705
ssS'Drosanthemum_floribundum'
p712
(dp713
g4
I1
sg5
S'Aizoaceae'
p714
sg7
I4326
sg8
S'1'
sg10
S'shape'
p715
sg12
S'Wed Jan 28 20:06:06 2015'
p716
sg14
S'5668641'
p717
sg16
g712
ssS'Allium_columbianum'
p718
(dp719
g4
I1
sg5
S'Amaryllidaceae'
p720
sg7
I4326
sg8
S'9'
sg10
S'shape'
p721
sg12
S'Wed Jan 28 16:51:01 2015'
p722
sg14
S'5668675'
p723
sg16
g718
ssS'Justicia_angusta'
p724
(dp725
g4
I1
sg5
S'Acanthaceae'
p726
sg7
I4326
sg8
S'37'
p727
sg10
S'shape'
p728
sg12
S'Wed Jan 28 21:59:47 2015'
p729
sg14
S'5668679'
p730
sg16
g724
ssS'Apassalus_humistratus'
p731
(dp732
g4
I1
sg5
S'Acanthaceae'
p733
sg7
I4326
sg8
S'38'
p734
sg10
S'shape'
p735
sg12
S'Thu Jan 29 05:11:09 2015'
p736
sg14
S'5668686'
p737
sg16
g731
ssS'Atriplex_littoralis'
p738
(dp739
g4
I1
sg5
S'Amaranthaceae'
p740
sg7
I4326
sg8
S'39'
p741
sg10
S'shape'
p742
sg12
S'Wed Jan 28 17:39:28 2015'
p743
sg14
S'5668689'
p744
sg16
g738
ssS'Atriplex_serenana'
p745
(dp746
g4
I1
sg5
S'Amaranthaceae'
p747
sg7
I4326
sg8
S'38'
p748
sg10
S'shape'
p749
sg12
S'Wed Jan 28 17:40:00 2015'
p750
sg14
S'5668699'
p751
sg16
g745
ssS'Atriplex_wrightii'
p752
(dp753
g4
I1
sg5
S'Amaranthaceae'
p754
sg7
I4326
sg8
S'78'
p755
sg10
S'shape'
p756
sg12
S'Wed Jan 28 17:40:13 2015'
p757
sg14
S'5668709'
p758
sg16
g752
ssS'Atriplex_elegans'
p759
(dp760
g4
I1
sg5
S'Amaranthaceae'
p761
sg7
I4326
sg8
S'253'
p762
sg10
S'shape'
p763
sg12
S'Wed Jan 28 17:38:51 2015'
p764
sg14
S'5682174'
p765
sg16
g759
ssS'Arthrocnemum_subterminale'
p766
(dp767
g4
I1
sg5
S'Amaranthaceae'
p768
sg7
I4326
sg8
S'8'
sg10
S'shape'
p769
sg12
S'Wed Jan 28 17:16:46 2015'
p770
sg14
S'5669942'
p771
sg16
g766
ssS'Hymenocallis_occidentalis'
p772
(dp773
g4
I1
sg5
S'Amaryllidaceae'
p774
sg7
I4326
sg8
S'5'
sg10
S'shape'
p775
sg12
S'Wed Jan 28 21:41:10 2015'
p776
sg14
S'5668800'
p777
sg16
g772
ssS'Dysphania_aristata'
p778
(dp779
g4
I1
sg5
S'Amaranthaceae'
p780
sg7
I4326
sg8
S'2'
sg10
S'shape'
p781
sg12
S'Wed Jan 28 20:07:33 2015'
p782
sg14
S'5668842'
p783
sg16
g778
ssS'Chenopodium_fremontii'
p784
(dp785
g4
I1
sg5
S'Amaranthaceae'
p786
sg7
I4326
sg8
S'571'
p787
sg10
S'shape'
p788
sg12
S'Thu Jan 29 04:17:17 2015'
p789
sg14
S'5668874'
p790
sg16
g784
ssS'Grayia_spinosa'
p791
(dp792
g4
I1
sg5
S'Amaranthaceae'
p793
sg7
I4326
sg8
S'1252'
p794
sg10
S'shape'
p795
sg12
S'Wed Jan 28 21:15:46 2015'
p796
sg14
S'5668878'
p797
sg16
g791
ssS'Viburnum_bracteatum'
p798
(dp799
g4
I1
sg5
S'Adoxaceae'
p800
sg7
I4326
sg8
S'4'
sg10
S'shape'
p801
sg12
S'Thu Jan 29 03:37:46 2015'
p802
sg14
S'5668911'
p803
sg16
g798
ssS'Cotinus_obovatus'
p804
(dp805
g4
I1
sg5
S'Anacardiaceae'
p806
sg7
I4326
sg8
S'163'
p807
sg10
S'shape'
p808
sg12
S'Wed Jan 28 19:10:53 2015'
p809
sg14
S'5668949'
p810
sg16
g804
ssS'Allium_peninsulare'
p811
(dp812
g4
I1
sg5
S'Amaryllidaceae'
p813
sg7
I4326
sg8
S'83'
p814
sg10
S'shape'
p815
sg12
S'Wed Jan 28 16:51:15 2015'
p816
sg14
S'5668951'
p817
sg16
g811
ssS'Galenia_pubescens'
p818
(dp819
g4
I1
sg5
S'Aizoaceae'
p820
sg7
I4326
sg8
S'1'
sg10
S'shape'
p821
sg12
S'Wed Jan 28 21:04:31 2015'
p822
sg14
S'5669018'
p823
sg16
g818
ssS'Ruellia_davisiorum'
p824
(dp825
g4
I1
sg5
S'Acanthaceae'
p826
sg7
I4326
sg8
S'2'
sg10
S'shape'
p827
sg12
S'Thu Jan 29 01:54:18 2015'
p828
sg14
S'5669022'
p829
sg16
g824
ssS'Atriplex_coronata'
p830
(dp831
g4
I1
sg5
S'Amaranthaceae'
p832
sg7
I4326
sg8
S'57'
p833
sg10
S'shape'
p834
sg12
S'Wed Jan 28 17:38:40 2015'
p835
sg14
S'5669045'
p836
sg16
g830
ssS'Froelichia_gracilis'
p837
(dp838
g4
I1
sg5
S'Amaranthaceae'
p839
sg7
I4326
sg8
S'782'
p840
sg10
S'shape'
p841
sg12
S'Wed Jan 28 20:56:19 2015'
p842
sg14
S'5678206'
p843
sg16
g837
ssS'Suaeda_mexicana'
p844
(dp845
g4
I1
sg5
S'Amaranthaceae'
p846
sg7
I4326
sg8
S'23'
p847
sg10
S'shape'
p848
sg12
S'Thu Jan 29 02:55:43 2015'
p849
sg14
S'5672295'
p850
sg16
g844
ssS'Froelichia_floridana'
p851
(dp852
g4
I1
sg5
S'Amaranthaceae'
p853
sg7
I4326
sg8
S'522'
p854
sg10
S'shape'
p855
sg12
S'Wed Jan 28 20:55:53 2015'
p856
sg14
S'5669101'
p857
sg16
g851
ssS'Tidestromia_carnosa'
p858
(dp859
g4
I1
sg5
S'Amaranthaceae'
p860
sg7
I4326
sg8
S'5'
sg10
S'shape'
p861
sg12
S'Thu Jan 29 03:11:00 2015'
p862
sg14
S'5670074'
p863
sg16
g858
ssS'Dyschoriste_crenulata'
p864
(dp865
g4
I1
sg5
S'Acanthaceae'
p866
sg7
I4326
sg8
S'5'
sg10
S'shape'
p867
sg12
S'Wed Jan 28 20:07:25 2015'
p868
sg14
S'5669117'
p869
sg16
g864
ssS'Amaranthus_viscidulus'
p870
(dp871
g4
I1
sg5
S'Amaranthaceae'
p872
sg7
I4326
sg8
S'2'
sg10
S'shape'
p873
sg12
S'Wed Jan 28 17:01:19 2015'
p874
sg14
S'5680147'
p875
sg16
g870
ssS'Elytraria_bromoides'
p876
(dp877
g4
I1
sg5
S'Acanthaceae'
p878
sg7
I4326
sg8
S'94'
p879
sg10
S'shape'
p880
sg12
S'Wed Jan 28 20:15:42 2015'
p881
sg14
S'5671753'
p882
sg16
g876
ssS'Amaranthus_pumilus'
p883
(dp884
g4
I1
sg5
S'Amaranthaceae'
p885
sg7
I4326
sg8
S'39'
p886
sg10
S'shape'
p887
sg12
S'Wed Jan 28 17:01:25 2015'
p888
sg14
S'5680583'
p889
sg16
g883
ssS'Allium_aaseae'
p890
(dp891
g4
I1
sg5
S'Amaryllidaceae'
p892
sg7
I4326
sg8
S'7'
sg10
S'shape'
p893
sg12
S'Wed Jan 28 16:49:11 2015'
p894
sg14
S'5669215'
p895
sg16
g890
ssS'Allium_howellii'
p896
(dp897
g4
I1
sg5
S'Amaryllidaceae'
p898
sg7
I4326
sg8
S'13'
p899
sg10
S'shape'
p900
sg12
S'Wed Jan 28 16:52:38 2015'
p901
sg14
S'5666032'
p902
sg16
g896
ssS'Sagittaria_cristata'
p903
(dp904
g4
I1
sg5
S'Alismataceae'
p905
sg7
I4326
sg8
S'31'
p906
sg10
S'shape'
p907
sg12
S'Thu Jan 29 02:00:55 2015'
p908
sg14
S'5669274'
p909
sg16
g903
ssS'Amaranthus_cruentus'
p910
(dp911
g4
I1
sg5
S'Amaranthaceae'
p912
sg7
I4326
sg8
S'88'
p913
sg10
S'shape'
p914
sg12
S'Wed Jan 28 16:59:08 2015'
p915
sg14
S'5669365'
p916
sg16
g910
ssS'Allium_triquetrum'
p917
(dp918
g4
I1
sg5
S'Amaryllidaceae'
p919
sg7
I4326
sg8
S'22'
p920
sg10
S'shape'
p921
sg12
S'Wed Jan 28 16:56:34 2015'
p922
sg14
S'5669380'
p923
sg16
g917
ssS'Atriplex_navajoensis'
p924
(dp925
g4
I1
sg5
S'Amaranthaceae'
p926
sg7
I4326
sg8
S'9'
sg10
S'shape'
p927
sg12
S'Wed Jan 28 17:39:32 2015'
p928
sg14
S'5680622'
p929
sg16
g924
ssS'Atriplex_cristata'
p930
(dp931
g4
I1
sg5
S'Amaranthaceae'
p932
sg7
I4326
sg8
S'136'
p933
sg10
S'shape'
p934
sg12
S'Wed Jan 28 17:38:43 2015'
p935
sg14
S'5672379'
p936
sg16
g930
ssS'Blutaparon_vermiculare'
p937
(dp938
g4
I1
sg5
S'Amaranthaceae'
p939
sg7
I4326
sg8
S'90'
p940
sg10
S'shape'
p941
sg12
S'Thu Jan 29 04:57:29 2015'
p942
sg14
S'5669484'
p943
sg16
g937
ssS'Justicia_sonorae'
p944
(dp945
g4
I1
sg5
S'Acanthaceae'
p946
sg7
I4326
sg8
S'6'
sg10
S'shape'
p947
sg12
S'Wed Jan 28 22:07:11 2015'
p948
sg14
S'5669509'
p949
sg16
g944
ssS'Allium_robinsonii'
p950
(dp951
g4
I1
sg5
S'Amaryllidaceae'
p952
sg7
I4326
sg8
S'16'
p953
sg10
S'shape'
p954
sg12
S'Wed Jan 28 16:55:27 2015'
p955
sg14
S'5669571'
p956
sg16
g950
ssS'Elytraria_imbricata'
p957
(dp958
g4
I1
sg5
S'Acanthaceae'
p959
sg7
I4326
sg8
S'618'
p960
sg10
S'shape'
p961
sg12
S'Wed Jan 28 20:11:58 2015'
p962
sg14
S'5678294'
p963
sg16
g957
ssS'Allium_tolmiei'
p964
(dp965
g4
I1
sg5
S'Amaryllidaceae'
p966
sg7
I4326
sg8
S'276'
p967
sg10
S'shape'
p968
sg12
S'Thu Jan 29 04:11:42 2015'
p969
sg14
S'5669744'
p970
sg16
g964
ssS'Zephyranthes_refugiensis'
p971
(dp972
g4
I1
sg5
S'Amaryllidaceae'
p973
sg7
I4326
sg8
S'19'
p974
sg10
S'shape'
p975
sg12
S'Thu Jan 29 03:49:49 2015'
p976
sg14
S'5669749'
p977
sg16
g971
ssS'Avicennia_germinans'
p978
(dp979
g4
I1
sg5
S'Acanthaceae'
p980
sg7
I4326
sg8
S'519'
p981
sg10
S'shape'
p982
sg12
S'Wed Jan 28 17:41:22 2015'
p983
sg14
S'5669851'
p984
sg16
g978
ssS'Atriplex_pusilla'
p985
(dp986
g4
I1
sg5
S'Amaranthaceae'
p987
sg7
I4326
sg8
S'34'
p988
sg10
S'shape'
p989
sg12
S'Wed Jan 28 17:40:10 2015'
p990
sg14
S'5670035'
p991
sg16
g985
ssS'Beta_vulgaris'
p992
(dp993
g4
I1
sg5
S'Amaranthaceae'
p994
sg7
I4326
sg8
S'77'
p995
sg10
S'shape'
p996
sg12
S'Wed Jan 28 17:46:14 2015'
p997
sg14
S'5670065'
p998
sg16
g992
ssS'Atriplex_parishii'
p999
(dp1000
g4
I1
sg5
S'Amaranthaceae'
p1001
sg7
I4326
sg8
S'129'
p1002
sg10
S'shape'
p1003
sg12
S'Wed Jan 28 17:39:43 2015'
p1004
sg14
S'5670066'
p1005
sg16
g999
ssS'Anisacanthus_quadrifidus'
p1006
(dp1007
g4
I1
sg5
S'Acanthaceae'
p1008
sg7
I4326
sg8
S'139'
p1009
sg10
S'shape'
p1010
sg12
S'Wed Jan 28 17:07:41 2015'
p1011
sg14
S'5670089'
p1012
sg16
g1006
ssS'Hymenocallis_duvalensis'
p1013
(dp1014
g4
I1
sg5
S'Amaryllidaceae'
p1015
sg7
I4326
sg8
S'7'
sg10
S'shape'
p1016
sg12
S'Wed Jan 28 21:38:46 2015'
p1017
sg14
S'5670095'
p1018
sg16
g1013
ssS'Bassia_hyssopifolia'
p1019
(dp1020
g4
I1
sg5
S'Amaranthaceae'
p1021
sg7
I4326
sg8
S'289'
p1022
sg10
S'shape'
p1023
sg12
S'Wed Jan 28 17:41:55 2015'
p1024
sg14
S'5670131'
p1025
sg16
g1019
ssS'Allium_paniculatum'
p1026
(dp1027
g4
I1
sg5
S'Amaryllidaceae'
p1028
sg7
I4326
sg8
S'7'
sg10
S'shape'
p1029
sg12
S'Wed Jan 28 16:54:37 2015'
p1030
sg14
S'5675948'
p1031
sg16
g1026
ssS'Allium_anceps'
p1032
(dp1033
g4
I1
sg5
S'Amaryllidaceae'
p1034
sg7
I4326
sg8
S'63'
p1035
sg10
S'shape'
p1036
sg12
S'Wed Jan 28 16:49:58 2015'
p1037
sg14
S'5670196'
p1038
sg16
g1032
ssS'Ruellia_parryi'
p1039
(dp1040
g4
I1
sg5
S'Acanthaceae'
p1041
sg7
I4326
sg8
S'36'
p1042
sg10
S'shape'
p1043
sg12
S'Thu Jan 29 01:56:45 2015'
p1044
sg14
S'5671013'
p1045
sg16
g1039
ssS'Suaeda_rolandii'
p1046
(dp1047
g4
I1
sg5
S'Amaranthaceae'
p1048
sg7
I4326
sg8
S'4'
sg10
S'shape'
p1049
sg12
S'Thu Jan 29 02:55:39 2015'
p1050
sg14
S'5670246'
p1051
sg16
g1046
ssS'Iresine_rhizomatosa'
p1052
(dp1053
g4
I1
sg5
S'Amaranthaceae'
p1054
sg7
I4326
sg8
S'334'
p1055
sg10
S'shape'
p1056
sg12
S'Wed Jan 28 21:53:08 2015'
p1057
sg14
S'5670256'
p1058
sg16
g1052
ssS'Amaranthus_viridis'
p1059
(dp1060
g4
I1
sg5
S'Amaranthaceae'
p1061
sg7
I4326
sg8
S'160'
p1062
sg10
S'shape'
p1063
sg12
S'Wed Jan 28 16:58:14 2015'
p1064
sg14
S'5670267'
p1065
sg16
g1059
ssS'Allium_canadense'
p1066
(dp1067
g4
I1
sg5
S'Amaryllidaceae'
p1068
sg7
I4326
sg8
S'1935'
p1069
sg10
S'shape'
p1070
sg12
S'Wed Jan 28 16:50:49 2015'
p1071
sg14
S'5680742'
p1072
sg16
g1066
ssS'Amaranthus_blitoides'
p1073
(dp1074
g4
I1
sg5
S'Amaranthaceae'
p1075
sg7
I4326
sg8
S'979'
p1076
sg10
S'shape'
p1077
sg12
S'Wed Jan 28 16:58:13 2015'
p1078
sg14
S'5670304'
p1079
sg16
g1073
ssS'Atriplex_tularensis'
p1080
(dp1081
g4
I1
sg5
S'Amaranthaceae'
p1082
sg7
I4326
sg8
S'2'
sg10
S'shape'
p1083
sg12
S'Wed Jan 28 17:40:18 2015'
p1084
sg14
S'5670329'
p1085
sg16
g1080
ssS'Aphanisma_blitoides'
p1086
(dp1087
g4
I1
sg5
S'Amaranthaceae'
p1088
sg7
I4326
sg8
S'6'
sg10
S'shape'
p1089
sg12
S'Wed Jan 28 17:09:23 2015'
p1090
sg14
S'5670337'
p1091
sg16
g1086
ssS'Barleria_cristata'
p1092
(dp1093
g4
I1
sg5
S'Acanthaceae'
p1094
sg7
I4326
sg8
S'11'
p1095
sg10
S'shape'
p1096
sg12
S'Wed Jan 28 17:44:23 2015'
p1097
sg14
S'5670362'
p1098
sg16
g1092
ssS'Viburnum_dentatum'
p1099
(dp1100
g4
I1
sg5
S'Adoxaceae'
p1101
sg7
I4326
sg8
S'1304'
p1102
sg10
S'shape'
p1103
sg12
S'Thu Jan 29 06:03:08 2015'
p1104
sg14
S'5670377'
p1105
sg16
g1099
ssS'Justicia_crassifolia'
p1106
(dp1107
g4
I1
sg5
S'Acanthaceae'
p1108
sg7
I4326
sg8
S'8'
sg10
S'shape'
p1109
sg12
S'Wed Jan 28 22:02:40 2015'
p1110
sg14
S'5675982'
p1111
sg16
g1106
ssS'Eranthemum_pulchellum'
p1112
(dp1113
g4
I1
sg5
S'Acanthaceae'
p1114
sg7
I4326
sg8
S'2'
sg10
S'shape'
p1115
sg12
S'Wed Jan 28 20:39:18 2015'
p1116
sg14
S'5670543'
p1117
sg16
g1112
ssS'Dysphania_botrys'
p1118
(dp1119
g4
I1
sg5
S'Amaranthaceae'
p1120
sg7
I4326
sg8
S'664'
p1121
sg10
S'shape'
p1122
sg12
S'Wed Jan 28 20:07:28 2015'
p1123
sg14
S'5670550'
p1124
sg16
g1118
ssS'Corispermum_pacificum'
p1125
(dp1126
g4
I1
sg5
S'Amaranthaceae'
p1127
sg7
I4326
sg8
S'12'
p1128
sg10
S'shape'
p1129
sg12
S'Thu Jan 29 05:04:51 2015'
p1130
sg14
S'5678411'
p1131
sg16
g1125
ssS'Alisma_subcordatum'
p1132
(dp1133
g4
I1
sg5
S'Alismataceae'
p1134
sg7
I4326
sg8
S'1105'
p1135
sg10
S'shape'
p1136
sg12
S'Wed Jan 28 16:56:23 2015'
p1137
sg14
S'5670641'
p1138
sg16
g1132
ssS'Atriplex_pleiantha'
p1139
(dp1140
g4
I1
sg5
S'Amaranthaceae'
p1141
sg7
I4326
sg8
S'11'
p1142
sg10
S'shape'
p1143
sg12
S'Thu Jan 29 04:14:03 2015'
p1144
sg14
S'5670650'
p1145
sg16
g1139
ssS'Amaranthus_tucsonensis'
p1146
(dp1147
g4
I1
sg5
S'Amaranthaceae'
p1148
sg7
I4326
sg8
S'28'
p1149
sg10
S'shape'
p1150
sg12
S'Wed Jan 28 17:02:26 2015'
p1151
sg14
S'5670665'
p1152
sg16
g1146
ssS'Celosia_nitida'
p1153
(dp1154
g4
I1
sg5
S'Amaranthaceae'
p1155
sg7
I4326
sg8
S'70'
p1156
sg10
S'shape'
p1157
sg12
S'Wed Jan 28 18:41:33 2015'
p1158
sg14
S'5670711'
p1159
sg16
g1153
ssS'Allenrolfea_occidentalis'
p1160
(dp1161
g4
I1
sg5
S'Amaranthaceae'
p1162
sg7
I4326
sg8
S'373'
p1163
sg10
S'shape'
p1164
sg12
S'Wed Jan 28 16:54:23 2015'
p1165
sg14
S'5670792'
p1166
sg16
g1160
ssS'Amaranthus_blitum'
p1167
(dp1168
g4
I1
sg5
S'Amaranthaceae'
p1169
sg7
I4326
sg8
S'73'
p1170
sg10
S'shape'
p1171
sg12
S'Wed Jan 28 16:58:11 2015'
p1172
sg14
S'5670833'
p1173
sg16
g1167
ssS'Allium_crispum'
p1174
(dp1175
g4
I1
sg5
S'Amaryllidaceae'
p1176
sg7
I4326
sg8
S'38'
p1177
sg10
S'shape'
p1178
sg12
S'Wed Jan 28 16:51:12 2015'
p1179
sg14
S'5670911'
p1180
sg16
g1174
ssS'Allium_speculae'
p1181
(dp1182
g4
I1
sg5
S'Amaryllidaceae'
p1183
sg7
I4326
sg8
S'6'
sg10
S'shape'
p1184
sg12
S'Wed Jan 28 16:56:13 2015'
p1185
sg14
S'5680140'
p1186
sg16
g1181
ssS'Chenopodium_atrovirens'
p1187
(dp1188
g4
I1
sg5
S'Amaranthaceae'
p1189
sg7
I4326
sg8
S'213'
p1190
sg10
S'shape'
p1191
sg12
S'Wed Jan 28 18:49:10 2015'
p1192
sg14
S'5680842'
p1193
sg16
g1187
ssS'Narcissus_jonquilla'
p1194
(dp1195
g4
I1
sg5
S'Amaryllidaceae'
p1196
sg7
I4326
sg8
S'36'
p1197
sg10
S'shape'
p1198
sg12
S'Wed Jan 28 23:33:57 2015'
p1199
sg14
S'5671035'
p1200
sg16
g1194
ssS'Allium_nevadense'
p1201
(dp1202
g4
I1
sg5
S'Amaryllidaceae'
p1203
sg7
I4326
sg8
S'81'
p1204
sg10
S'shape'
p1205
sg12
S'Wed Jan 28 16:50:05 2015'
p1206
sg14
S'5671037'
p1207
sg16
g1201
ssS'Atriplex_polycarpa'
p1208
(dp1209
g4
I1
sg5
S'Amaranthaceae'
p1210
sg7
I4326
sg8
S'293'
p1211
sg10
S'shape'
p1212
sg12
S'Thu Jan 29 04:29:45 2015'
p1213
sg14
S'5671073'
p1214
sg16
g1208
ssS'Atriplex_lindleyi'
p1215
(dp1216
g4
I1
sg5
S'Amaranthaceae'
p1217
sg7
I4326
sg8
S'4'
sg10
S'shape'
p1218
sg12
S'Wed Jan 28 17:39:24 2015'
p1219
sg14
S'5671158'
p1220
sg16
g1215
ssS'Suaeda_calceoliformis'
p1221
(dp1222
g4
I1
sg5
S'Amaranthaceae'
p1223
sg7
I4326
sg8
S'495'
p1224
sg10
S'shape'
p1225
sg12
S'Thu Jan 29 02:53:49 2015'
p1226
sg14
S'5671169'
p1227
sg16
g1221
ssS'Celosia_argentea'
p1228
(dp1229
g4
I1
sg5
S'Amaranthaceae'
p1230
sg7
I4326
sg8
S'91'
p1231
sg10
S'shape'
p1232
sg12
S'Wed Jan 28 18:47:21 2015'
p1233
sg14
S'5671212'
p1234
sg16
g1228
ssS'Alternanthera_ficoidea'
p1235
(dp1236
g4
I1
sg5
S'Amaranthaceae'
p1237
sg7
I4326
sg8
S'9'
sg10
S'shape'
p1238
sg12
S'Wed Jan 28 16:51:46 2015'
p1239
sg14
S'5676081'
p1240
sg16
g1235
ssS'Allium_siskiyouense'
p1241
(dp1242
g4
I1
sg5
S'Amaryllidaceae'
p1243
sg7
I4326
sg8
S'73'
p1244
sg10
S'shape'
p1245
sg12
S'Wed Jan 28 16:56:07 2015'
p1246
sg14
S'5671236'
p1247
sg16
g1241
ssS'Tetramerium_nervosum'
p1248
(dp1249
g4
I1
sg5
S'Acanthaceae'
p1250
sg7
I4326
sg8
S'574'
p1251
sg10
S'shape'
p1252
sg12
S'Thu Jan 29 03:04:45 2015'
p1253
sg14
S'5672142'
p1254
sg16
g1248
ssS'Sagittaria_graminea'
p1255
(dp1256
g4
I1
sg5
S'Alismataceae'
p1257
sg7
I4326
sg8
S'865'
p1258
sg10
S'shape'
p1259
sg12
S'Thu Jan 29 02:03:30 2015'
p1260
sg14
S'5671401'
p1261
sg16
g1255
ssS'Amaranthus_arenicola'
p1262
(dp1263
g4
I1
sg5
S'Amaranthaceae'
p1264
sg7
I4326
sg8
S'311'
p1265
sg10
S'shape'
p1266
sg12
S'Wed Jan 28 16:57:33 2015'
p1267
sg14
S'5671413'
p1268
sg16
g1262
ssS'Atriplex_corrugata'
p1269
(dp1270
g4
I1
sg5
S'Amaranthaceae'
p1271
sg7
I4326
sg8
S'264'
p1272
sg10
S'shape'
p1273
sg12
S'Wed Jan 28 17:38:47 2015'
p1274
sg14
S'5671417'
p1275
sg16
g1269
ssS'Sagittaria_cuneata'
p1276
(dp1277
g4
I1
sg5
S'Alismataceae'
p1278
sg7
I4326
sg8
S'806'
p1279
sg10
S'shape'
p1280
sg12
S'Thu Jan 29 02:02:21 2015'
p1281
sg14
S'5671435'
p1282
sg16
g1276
ssS'Mangifera_indica'
p1283
(dp1284
g4
I1
sg5
S'Anacardiaceae'
p1285
sg7
I4326
sg8
S'184'
p1286
sg10
S'shape'
p1287
sg12
S'Wed Jan 28 23:07:23 2015'
p1288
sg14
S'5667482'
p1289
sg16
g1283
ssS'Amaranthus_californicus'
p1290
(dp1291
g4
I1
sg5
S'Amaranthaceae'
p1292
sg7
I4326
sg8
S'106'
p1293
sg10
S'shape'
p1294
sg12
S'Wed Jan 28 16:58:26 2015'
p1295
sg14
S'5671459'
p1296
sg16
g1290
ssS'Hymenocallis_palmeri'
p1297
(dp1298
g4
I1
sg5
S'Amaryllidaceae'
p1299
sg7
I4326
sg8
S'29'
p1300
sg10
S'shape'
p1301
sg12
S'Wed Jan 28 21:41:16 2015'
p1302
sg14
S'5678532'
p1303
sg16
g1297
ssS'Allium_campanulatum'
p1304
(dp1305
g4
I1
sg5
S'Amaryllidaceae'
p1306
sg7
I4326
sg8
S'195'
p1307
sg10
S'shape'
p1308
sg12
S'Wed Jan 28 16:50:31 2015'
p1309
sg14
S'5671480'
p1310
sg16
g1304
ssS'Nitrophila_occidentalis'
p1311
(dp1312
g4
I1
sg5
S'Amaranthaceae'
p1313
sg7
I4326
sg8
S'114'
p1314
sg10
S'shape'
p1315
sg12
S'Wed Jan 28 23:38:08 2015'
p1316
sg14
S'5671542'
p1317
sg16
g1311
ssS'Chenopodium_nevadense'
p1318
(dp1319
g4
I1
sg5
S'Amaranthaceae'
p1320
sg7
I4326
sg8
S'37'
p1321
sg10
S'shape'
p1322
sg12
S'Wed Jan 28 18:54:21 2015'
p1323
sg14
S'5671559'
p1324
sg16
g1318
ssS'Ruellia_corzoi'
p1325
(dp1326
g4
I1
sg5
S'Acanthaceae'
p1327
sg7
I4326
sg8
S'11'
p1328
sg10
S'shape'
p1329
sg12
S'Thu Jan 29 01:54:00 2015'
p1330
sg14
S'5674402'
p1331
sg16
g1325
ssS'Chenopodium_desiccatum'
p1332
(dp1333
g4
I1
sg5
S'Amaranthaceae'
p1334
sg7
I4326
sg8
S'466'
p1335
sg10
S'shape'
p1336
sg12
S'Wed Jan 28 18:50:33 2015'
p1337
sg14
S'5671574'
p1338
sg16
g1332
ssS'Atriplex_joaquinana'
p1339
(dp1340
g4
I1
sg5
S'Amaranthaceae'
p1341
sg7
I4326
sg8
S'2'
sg10
S'shape'
p1342
sg12
S'Wed Jan 28 17:39:18 2015'
p1343
sg14
S'5671588'
p1344
sg16
g1339
ssS'Galanthus_elwesii'
p1345
(dp1346
g4
I1
sg5
S'Amaryllidaceae'
p1347
sg7
I4326
sg8
S'2'
sg10
S'shape'
p1348
sg12
S'Wed Jan 28 21:04:51 2015'
p1349
sg14
S'5671601'
p1350
sg16
g1345
ssS'Allium_oleraceum'
p1351
(dp1352
g4
I1
sg5
S'Amaryllidaceae'
p1353
sg7
I4326
sg8
S'7'
sg10
S'shape'
p1354
sg12
S'Wed Jan 28 16:54:34 2015'
p1355
sg14
S'5671614'
p1356
sg16
g1351
ssS'Viburnum_setigerum'
p1357
(dp1358
g4
I1
sg5
S'Adoxaceae'
p1359
sg7
I4326
sg8
S'9'
sg10
S'shape'
p1360
sg12
S'Thu Jan 29 03:42:43 2015'
p1361
sg14
S'5671637'
p1362
sg16
g1357
ssS'Sagittaria_sanfordii'
p1363
(dp1364
g4
I1
sg5
S'Alismataceae'
p1365
sg7
I4326
sg8
S'24'
p1366
sg10
S'shape'
p1367
sg12
S'Thu Jan 29 02:09:16 2015'
p1368
sg14
S'5668891'
p1369
sg16
g1363
ssS'Ruellia_occidentalis'
p1370
(dp1371
g4
I1
sg5
S'Acanthaceae'
p1372
sg7
I4326
sg8
S'65'
p1373
sg10
S'shape'
p1374
sg12
S'Thu Jan 29 01:54:51 2015'
p1375
sg14
S'5671772'
p1376
sg16
g1370
ssS'Viburnum_lantana'
p1377
(dp1378
g4
I1
sg5
S'Adoxaceae'
p1379
sg7
I4326
sg8
S'55'
p1380
sg10
S'shape'
p1381
sg12
S'Thu Jan 29 03:39:10 2015'
p1382
sg14
S'5671779'
p1383
sg16
g1377
ssS'Chenopodium_pallescens'
p1384
(dp1385
g4
I1
sg5
S'Amaranthaceae'
p1386
sg7
I4326
sg8
S'116'
p1387
sg10
S'shape'
p1388
sg12
S'Wed Jan 28 18:54:46 2015'
p1389
sg14
S'5671787'
p1390
sg16
g1384
ssS'Galenia_secunda'
p1391
(dp1392
g4
I1
sg5
S'Aizoaceae'
p1393
sg7
I4326
sg8
S'1'
sg10
S'shape'
p1394
sg12
S'Wed Jan 28 21:03:16 2015'
p1395
sg14
S'5671829'
p1396
sg16
g1391
ssS'Damasonium_californicum'
p1397
(dp1398
g4
I1
sg5
S'Alismataceae'
p1399
sg7
I4326
sg8
S'104'
p1400
sg10
S'shape'
p1401
sg12
S'Wed Jan 28 19:47:10 2015'
p1402
sg14
S'5671854'
p1403
sg16
g1397
ssS'Allium_unifolium'
p1404
(dp1405
g4
I1
sg5
S'Amaryllidaceae'
p1406
sg7
I4326
sg8
S'29'
p1407
sg10
S'shape'
p1408
sg12
S'Wed Jan 28 16:56:42 2015'
p1409
sg14
S'5671874'
p1410
sg16
g1404
ssS'Allium_tuolumnense'
p1411
(dp1412
g4
I1
sg5
S'Amaryllidaceae'
p1413
sg7
I4326
sg8
S'3'
sg10
S'shape'
p1414
sg12
S'Wed Jan 28 16:56:39 2015'
p1415
sg14
S'5671900'
p1416
sg16
g1411
ssS'Justicia_candicans'
p1417
(dp1418
g4
I1
sg5
S'Acanthaceae'
p1419
sg7
I4326
sg8
S'251'
p1420
sg10
S'shape'
p1421
sg12
S'Wed Jan 28 22:02:11 2015'
p1422
sg14
S'5671912'
p1423
sg16
g1417
ssS'Chenopodium_watsonii'
p1424
(dp1425
g4
I1
sg5
S'Amaranthaceae'
p1426
sg7
I4326
sg8
S'144'
p1427
sg10
S'shape'
p1428
sg12
S'Wed Jan 28 18:58:07 2015'
p1429
sg14
S'5671939'
p1430
sg16
g1424
ssS'Atriplex_coulteri'
p1431
(dp1432
g4
I1
sg5
S'Amaranthaceae'
p1433
sg7
I4326
sg8
S'10'
p1434
sg10
S'shape'
p1435
sg12
S'Wed Jan 28 17:38:41 2015'
p1436
sg14
S'5671948'
p1437
sg16
g1431
ssS'Amaranthus_albus'
p1438
(dp1439
g4
I1
sg5
S'Amaranthaceae'
p1440
sg7
I4326
sg8
S'1508'
p1441
sg10
S'shape'
p1442
sg12
S'Wed Jan 28 16:57:24 2015'
p1443
sg14
S'5671963'
p1444
sg16
g1438
ssS'Alternanthera_flavescens'
p1445
(dp1446
g4
I1
sg5
S'Amaranthaceae'
p1447
sg7
I4326
sg8
S'25'
p1448
sg10
S'shape'
p1449
sg12
S'Wed Jan 28 16:51:48 2015'
p1450
sg14
S'5672049'
p1451
sg16
g1445
ssS'Allium_platycaule'
p1452
(dp1453
g4
I1
sg5
S'Amaryllidaceae'
p1454
sg7
I4326
sg8
S'72'
p1455
sg10
S'shape'
p1456
sg12
S'Wed Jan 28 16:54:56 2015'
p1457
sg14
S'5672076'
p1458
sg16
g1452
ssS'Chenopodium_chenopodioides'
p1459
(dp1460
g4
I1
sg5
S'Amaranthaceae'
p1461
sg7
I4326
sg8
S'39'
p1462
sg10
S'shape'
p1463
sg12
S'Wed Jan 28 18:50:06 2015'
p1464
sg14
S'5678923'
p1465
sg16
g1459
ssS'Tetragonia_tetragonioides'
p1466
(dp1467
g4
I1
sg5
S'Aizoaceae'
p1468
sg7
I4326
sg8
S'35'
p1469
sg10
S'shape'
p1470
sg12
S'Thu Jan 29 06:00:07 2015'
p1471
sg14
S'5672168'
p1472
sg16
g1466
ssS'Gomphrena_serrata'
p1473
(dp1474
g4
I1
sg5
S'Amaranthaceae'
p1475
sg7
I4326
sg8
S'612'
p1476
sg10
S'shape'
p1477
sg12
S'Wed Jan 28 21:14:14 2015'
p1478
sg14
S'5672223'
p1479
sg16
g1473
ssS'Allium_lacunosum'
p1480
(dp1481
g4
I1
sg5
S'Amaryllidaceae'
p1482
sg7
I4326
sg8
S'22'
p1483
sg10
S'shape'
p1484
sg12
S'Wed Jan 28 16:53:01 2015'
p1485
sg14
S'5672001'
p1486
sg16
g1480
ssS'Viburnum_australe'
p1487
(dp1488
g4
I1
sg5
S'Adoxaceae'
p1489
sg7
I4326
sg8
S'2'
sg10
S'shape'
p1490
sg12
S'Thu Jan 29 03:37:17 2015'
p1491
sg14
S'5671777'
p1492
sg16
g1487
ssS'Chenopodium_strictum'
p1493
(dp1494
g4
I1
sg5
S'Amaranthaceae'
p1495
sg7
I4326
sg8
S'133'
p1496
sg10
S'shape'
p1497
sg12
S'Wed Jan 28 18:56:39 2015'
p1498
sg14
S'5672273'
p1499
sg16
g1493
ssS'Atriplex_gardneri'
p1500
(dp1501
g4
I1
sg5
S'Amaranthaceae'
p1502
sg7
I4326
sg8
S'335'
p1503
sg10
S'shape'
p1504
sg12
S'Wed Jan 28 17:39:07 2015'
p1505
sg14
S'5672338'
p1506
sg16
g1500
ssS'Toxicodendron_vernix'
p1507
(dp1508
g4
I1
sg5
S'Anacardiaceae'
p1509
sg7
I4326
sg8
S'696'
p1510
sg10
S'shape'
p1511
sg12
S'Thu Jan 29 03:12:46 2015'
p1512
sg14
S'5672360'
p1513
sg16
g1507
ssS'Corispermum_villosum'
p1514
(dp1515
g4
I1
sg5
S'Amaranthaceae'
p1516
sg7
I4326
sg8
S'38'
p1517
sg10
S'shape'
p1518
sg12
S'Wed Jan 28 19:16:55 2015'
p1519
sg14
S'5672389'
p1520
sg16
g1514
ssS'Salicornia_maritima'
p1521
(dp1522
g4
I1
sg5
S'Amaranthaceae'
p1523
sg7
I4326
sg8
S'67'
p1524
sg10
S'shape'
p1525
sg12
S'Thu Jan 29 02:02:33 2015'
p1526
sg14
S'5672503'
p1527
sg16
g1521
ssS'Viburnum_prunifolium'
p1528
(dp1529
g4
I1
sg5
S'Adoxaceae'
p1530
sg7
I4326
sg8
S'2419'
p1531
sg10
S'shape'
p1532
sg12
S'Thu Jan 29 03:42:06 2015'
p1533
sg14
S'5666931'
p1534
sg16
g1528
ssS'Spondias_purpurea'
p1535
(dp1536
g4
I1
sg5
S'Anacardiaceae'
p1537
sg7
I4326
sg8
S'266'
p1538
sg10
S'shape'
p1539
sg12
S'Thu Jan 29 04:43:58 2015'
p1540
sg14
S'5668205'
p1541
sg16
g1535
ssS'Sagittaria_ambigua'
p1542
(dp1543
g4
I1
sg5
S'Alismataceae'
p1544
sg7
I4326
sg8
S'45'
p1545
sg10
S'shape'
p1546
sg12
S'Thu Jan 29 02:10:31 2015'
p1547
sg14
S'5668922'
p1548
sg16
g1542
ssS'Allium_bisceptrum'
p1549
(dp1550
g4
I1
sg5
S'Amaryllidaceae'
p1551
sg7
I4326
sg8
S'182'
p1552
sg10
S'shape'
p1553
sg12
S'Wed Jan 28 16:50:12 2015'
p1554
sg14
S'5672560'
p1555
sg16
g1549
ssS'Amaranthus_crispus'
p1556
(dp1557
g4
I1
sg5
S'Amaranthaceae'
p1558
sg7
I4326
sg8
S'5'
sg10
S'shape'
p1559
sg12
S'Wed Jan 28 16:59:01 2015'
p1560
sg14
S'5672640'
p1561
sg16
g1556
ssS'Atriplex_californica'
p1562
(dp1563
g4
I1
sg5
S'Amaranthaceae'
p1564
sg7
I4326
sg8
S'35'
p1565
sg10
S'shape'
p1566
sg12
S'Thu Jan 29 04:55:42 2015'
p1567
sg14
S'5672643'
p1568
sg16
g1562
ssS'Allium_nevii'
p1569
(dp1570
g4
I1
sg5
S'Amaryllidaceae'
p1571
sg7
I4326
sg8
S'31'
p1572
sg10
S'shape'
p1573
sg12
S'Wed Jan 28 16:54:05 2015'
p1574
sg14
S'5672687'
p1575
sg16
g1569
ssS'Allium_gooddingii'
p1576
(dp1577
g4
I1
sg5
S'Amaryllidaceae'
p1578
sg7
I4326
sg8
S'41'
p1579
sg10
S'shape'
p1580
sg12
S'Wed Jan 28 16:52:06 2015'
p1581
sg14
S'5672697'
p1582
sg16
g1576
ssS'Stenandrium_barbatum'
p1583
(dp1584
g4
I1
sg5
S'Acanthaceae'
p1585
sg7
I4326
sg8
S'42'
p1586
sg10
S'shape'
p1587
sg12
S'Thu Jan 29 02:54:20 2015'
p1588
sg14
S'5671786'
p1589
sg16
g1583
ssS'Schinus_terebinthifolia'
p1590
(dp1591
g4
I1
sg5
S'Anacardiaceae'
p1592
sg7
I4326
sg8
S'11'
p1593
sg10
S'shape'
p1594
sg12
S'Thu Jan 29 02:16:00 2015'
p1595
sg14
S'5672722'
p1596
sg16
g1590
ssS'Rhus_michauxii'
p1597
(dp1598
g4
I1
sg5
S'Anacardiaceae'
p1599
sg7
I4326
sg8
S'32'
p1600
sg10
S'shape'
p1601
sg12
S'Thu Jan 29 01:44:14 2015'
p1602
sg14
S'5672723'
p1603
sg16
g1597
ssS'Corispermum_navicula'
p1604
(dp1605
g4
I1
sg5
S'Amaranthaceae'
p1606
sg7
I4326
sg8
S'1'
sg10
S'shape'
p1607
sg12
S'Wed Jan 28 19:14:10 2015'
p1608
sg14
S'5672729'
p1609
sg16
g1604
ssS'Suaeda_occidentalis'
p1610
(dp1611
g4
I1
sg5
S'Amaranthaceae'
p1612
sg7
I4326
sg8
S'42'
p1613
sg10
S'shape'
p1614
sg12
S'Thu Jan 29 02:55:56 2015'
p1615
sg14
S'5668609'
p1616
sg16
g1610
ssS'Froelichia_arizonica'
p1617
(dp1618
g4
I1
sg5
S'Amaranthaceae'
p1619
sg7
I4326
sg8
S'162'
p1620
sg10
S'shape'
p1621
sg12
S'Thu Jan 29 05:17:22 2015'
p1622
sg14
S'5677717'
p1623
sg16
g1617
ssS'Amaranthus_palmeri'
p1624
(dp1625
g4
I1
sg5
S'Amaranthaceae'
p1626
sg7
I4326
sg8
S'828'
p1627
sg10
S'shape'
p1628
sg12
S'Wed Jan 28 17:01:05 2015'
p1629
sg14
S'5672761'
p1630
sg16
g1624
ssS'Allium_hoffmanii'
p1631
(dp1632
g4
I1
sg5
S'Amaryllidaceae'
p1633
sg7
I4326
sg8
S'15'
p1634
sg10
S'shape'
p1635
sg12
S'Wed Jan 28 16:52:32 2015'
p1636
sg14
S'5672809'
p1637
sg16
g1631
ssS'Amaranthus_deflexus'
p1638
(dp1639
g4
I1
sg5
S'Amaranthaceae'
p1640
sg7
I4326
sg8
S'48'
p1641
sg10
S'shape'
p1642
sg12
S'Wed Jan 28 16:59:11 2015'
p1643
sg14
S'5680133'
p1644
sg16
g1638
ssS'Amaranthus_spinosus'
p1645
(dp1646
g4
I1
sg5
S'Amaranthaceae'
p1647
sg7
I4326
sg8
S'1075'
p1648
sg10
S'shape'
p1649
sg12
S'Wed Jan 28 17:01:57 2015'
p1650
sg14
S'5672891'
p1651
sg16
g1645
ssS'Echinodorus_berteroi'
p1652
(dp1653
g4
I1
sg5
S'Alismataceae'
p1654
sg7
I4326
sg8
S'404'
p1655
sg10
S'shape'
p1656
sg12
S'Wed Jan 28 20:09:22 2015'
p1657
sg14
S'5678742'
p1658
sg16
g1652
ssS'Allium_abramsii'
p1659
(dp1660
g4
I1
sg5
S'Amaryllidaceae'
p1661
sg7
I4326
sg8
S'9'
sg10
S'shape'
p1662
sg12
S'Wed Jan 28 16:49:17 2015'
p1663
sg14
S'5673995'
p1664
sg16
g1659
ssS'Allium_parvum'
p1665
(dp1666
g4
I1
sg5
S'Amaryllidaceae'
p1667
sg7
I4326
sg8
S'130'
p1668
sg10
S'shape'
p1669
sg12
S'Wed Jan 28 16:51:08 2015'
p1670
sg14
S'5679383'
p1671
sg16
g1665
ssS'Halogeton_glomeratus'
p1672
(dp1673
g4
I1
sg5
S'Amaranthaceae'
p1674
sg7
I4326
sg8
S'1018'
p1675
sg10
S'shape'
p1676
sg12
S'Thu Jan 29 04:42:54 2015'
p1677
sg14
S'5673016'
p1678
sg16
g1672
ssS'Gomphrena_haageana'
p1679
(dp1680
g4
I1
sg5
S'Amaranthaceae'
p1681
sg7
I4326
sg8
S'2'
sg10
S'shape'
p1682
sg12
S'Wed Jan 28 21:13:51 2015'
p1683
sg14
S'5673095'
p1684
sg16
g1679
ssS'Hemigraphis_reptans'
p1685
(dp1686
g4
I1
sg5
S'Acanthaceae'
p1687
sg7
I4326
sg8
S'1'
sg10
S'shape'
p1688
sg12
S'Wed Jan 28 21:24:50 2015'
p1689
sg14
S'5673147'
p1690
sg16
g1685
ssS'Suaeda_conferta'
p1691
(dp1692
g4
I1
sg5
S'Amaranthaceae'
p1693
sg7
I4326
sg8
S'6'
sg10
S'shape'
p1694
sg12
S'Thu Jan 29 02:55:32 2015'
p1695
sg14
S'5673153'
p1696
sg16
g1691
ssS'Amaranthus_muricatus'
p1697
(dp1698
g4
I1
sg5
S'Amaranthaceae'
p1699
sg7
I4326
sg8
S'1'
sg10
S'shape'
p1700
sg12
S'Wed Jan 28 17:00:46 2015'
p1701
sg14
S'5673197'
p1702
sg16
g1697
ssS'Dysphania_pumilio'
p1703
(dp1704
g4
I1
sg5
S'Amaranthaceae'
p1705
sg7
I4326
sg8
S'201'
p1706
sg10
S'shape'
p1707
sg12
S'Thu Jan 29 05:11:11 2015'
p1708
sg14
S'5678767'
p1709
sg16
g1703
ssS'Dyschoriste_schiedeana'
p1710
(dp1711
g4
I1
sg5
S'Acanthaceae'
p1712
sg7
I4326
sg8
S'331'
p1713
sg10
S'shape'
p1714
sg12
S'Wed Jan 28 20:07:28 2015'
p1715
sg14
S'5673243'
p1716
sg16
g1710
ssS'Pistacia_chinensis'
p1717
(dp1718
g4
I1
sg5
S'Anacardiaceae'
p1719
sg7
I4326
sg8
S'8'
sg10
S'shape'
p1720
sg12
S'Thu Jan 29 00:35:19 2015'
p1721
sg14
S'5673254'
p1722
sg16
g1717
ssS'Iresine_leptoclada'
p1723
(dp1724
g4
I1
sg5
S'Amaranthaceae'
p1725
sg7
I4326
sg8
S'13'
p1726
sg10
S'shape'
p1727
sg12
S'Wed Jan 28 21:52:49 2015'
p1728
sg14
S'5673260'
p1729
sg16
g1723
ssS'Allium_runyonii'
p1730
(dp1731
g4
I1
sg5
S'Amaryllidaceae'
p1732
sg7
I4326
sg8
S'7'
sg10
S'shape'
p1733
sg12
S'Wed Jan 28 16:55:35 2015'
p1734
sg14
S'5673264'
p1735
sg16
g1730
ssS'Viburnum_plicatum'
p1736
(dp1737
g4
I1
sg5
S'Adoxaceae'
p1738
sg7
I4326
sg8
S'76'
p1739
sg10
S'shape'
p1740
sg12
S'Thu Jan 29 03:41:44 2015'
p1741
sg14
S'5673268'
p1742
sg16
g1736
ssS'Carlowrightia_torreyana'
p1743
(dp1744
g4
I1
sg5
S'Acanthaceae'
p1745
sg7
I4326
sg8
S'11'
p1746
sg10
S'shape'
p1747
sg12
S'Wed Jan 28 18:37:57 2015'
p1748
sg14
S'5681579'
p1749
sg16
g1743
ssS'Pseuderanthemum_variabile'
p1750
(dp1751
g4
I1
sg5
S'Acanthaceae'
p1752
sg7
I4326
sg8
S'2'
sg10
S'shape'
p1753
sg12
S'Thu Jan 29 01:20:53 2015'
p1754
sg14
S'5673301'
p1755
sg16
g1750
ssS'Allium_textile'
p1756
(dp1757
g4
I1
sg5
S'Amaryllidaceae'
p1758
sg7
I4326
sg8
S'673'
p1759
sg10
S'shape'
p1760
sg12
S'Wed Jan 28 16:56:32 2015'
p1761
sg14
S'5673303'
p1762
sg16
g1756
ssS'Allium_atrorubens'
p1763
(dp1764
g4
I1
sg5
S'Amaryllidaceae'
p1765
sg7
I4326
sg8
S'53'
p1766
sg10
S'shape'
p1767
sg12
S'Wed Jan 28 16:50:03 2015'
p1768
sg14
S'5678795'
p1769
sg16
g1763
ssS'Ruellia_nudiflora'
p1770
(dp1771
g4
I1
sg5
S'Acanthaceae'
p1772
sg7
I4326
sg8
S'482'
p1773
sg10
S'shape'
p1774
sg12
S'Thu Jan 29 01:56:37 2015'
p1775
sg14
S'5673333'
p1776
sg16
g1770
ssS'Allium_bigelovii'
p1777
(dp1778
g4
I1
sg5
S'Amaryllidaceae'
p1779
sg7
I4326
sg8
S'30'
p1780
sg10
S'shape'
p1781
sg12
S'Wed Jan 28 16:50:10 2015'
p1782
sg14
S'5673350'
p1783
sg16
g1777
ssS'Amaranthus_powellii'
p1784
(dp1785
g4
I1
sg5
S'Amaranthaceae'
p1786
sg7
I4326
sg8
S'518'
p1787
sg10
S'shape'
p1788
sg12
S'Wed Jan 28 17:01:17 2015'
p1789
sg14
S'5673372'
p1790
sg16
g1784
ssS'Atriplex_parryi'
p1791
(dp1792
g4
I1
sg5
S'Amaranthaceae'
p1793
sg7
I4326
sg8
S'20'
p1794
sg10
S'shape'
p1795
sg12
S'Thu Jan 29 04:13:48 2015'
p1796
sg14
S'5679709'
p1797
sg16
g1791
ssS'Anisacanthus_puberulus'
p1798
(dp1799
g4
I1
sg5
S'Acanthaceae'
p1800
sg7
I4326
sg8
S'9'
sg10
S'shape'
p1801
sg12
S'Wed Jan 28 17:07:39 2015'
p1802
sg14
S'5679927'
p1803
sg16
g1798
ssS'Dicliptera_sexangularis'
p1804
(dp1805
g4
I1
sg5
S'Acanthaceae'
p1806
sg7
I4326
sg8
S'187'
p1807
sg10
S'shape'
p1808
sg12
S'Wed Jan 28 19:58:13 2015'
p1809
sg14
S'5674876'
p1810
sg16
g1804
ssS'Amaranthus_crassipes'
p1811
(dp1812
g4
I1
sg5
S'Amaranthaceae'
p1813
sg7
I4326
sg8
S'39'
p1814
sg10
S'shape'
p1815
sg12
S'Wed Jan 28 16:59:07 2015'
p1816
sg14
S'5674879'
p1817
sg16
g1811
ssS'Suaeda_taxifolia'
p1818
(dp1819
g4
I1
sg5
S'Amaranthaceae'
p1820
sg7
I4326
sg8
S'26'
p1821
sg10
S'shape'
p1822
sg12
S'Thu Jan 29 02:56:09 2015'
p1823
sg14
S'5674883'
p1824
sg16
g1818
ssS'Sagittaria_platyphylla'
p1825
(dp1826
g4
I1
sg5
S'Alismataceae'
p1827
sg7
I4326
sg8
S'225'
p1828
sg10
S'shape'
p1829
sg12
S'Thu Jan 29 02:07:50 2015'
p1830
sg14
S'5674905'
p1831
sg16
g1825
ssS'Lycoris_squamigera'
p1832
(dp1833
g4
I1
sg5
S'Amaryllidaceae'
p1834
sg7
I4326
sg8
S'4'
sg10
S'shape'
p1835
sg12
S'Wed Jan 28 22:57:58 2015'
p1836
sg14
S'5674939'
p1837
sg16
g1832
ssS'Amaranthus_cannabinus'
p1838
(dp1839
g4
I1
sg5
S'Amaranthaceae'
p1840
sg7
I4326
sg8
S'220'
p1841
sg10
S'shape'
p1842
sg12
S'Wed Jan 28 16:58:33 2015'
p1843
sg14
S'5680617'
p1844
sg16
g1838
ssS'Allium_fibrillum'
p1845
(dp1846
g4
I1
sg5
S'Amaryllidaceae'
p1847
sg7
I4326
sg8
S'82'
p1848
sg10
S'shape'
p1849
sg12
S'Wed Jan 28 16:51:40 2015'
p1850
sg14
S'5680927'
p1851
sg16
g1845
ssS'Thunbergia_erecta'
p1852
(dp1853
g4
I1
sg5
S'Acanthaceae'
p1854
sg7
I4326
sg8
S'3'
sg10
S'shape'
p1855
sg12
S'Thu Jan 29 03:05:06 2015'
p1856
sg14
S'5675051'
p1857
sg16
g1852
ssS'Corispermum_pallidum'
p1858
(dp1859
g4
I1
sg5
S'Amaranthaceae'
p1860
sg7
I4326
sg8
S'4'
sg10
S'shape'
p1861
sg12
S'Wed Jan 28 19:16:55 2015'
p1862
sg14
S'5678317'
p1863
sg16
g1858
ssS'Atriplex_amnicola'
p1864
(dp1865
g4
I1
sg5
S'Amaranthaceae'
p1866
sg7
I4326
sg8
S'2'
sg10
S'shape'
p1867
sg12
S'Wed Jan 28 17:38:19 2015'
p1868
sg14
S'5677800'
p1869
sg16
g1864
ssS'Narcissus_poeticus'
p1870
(dp1871
g4
I1
sg5
S'Amaryllidaceae'
p1872
sg7
I4326
sg8
S'136'
p1873
sg10
S'shape'
p1874
sg12
S'Wed Jan 28 23:34:37 2015'
p1875
sg14
S'5675164'
p1876
sg16
g1870
ssS'Chenopodium_ficifolium'
p1877
(dp1878
g4
I1
sg5
S'Amaranthaceae'
p1879
sg7
I4326
sg8
S'39'
p1880
sg10
S'shape'
p1881
sg12
S'Wed Jan 28 18:50:38 2015'
p1882
sg14
S'5675208'
p1883
sg16
g1877
ssS'Carlowrightia_parviflora'
p1884
(dp1885
g4
I1
sg5
S'Acanthaceae'
p1886
sg7
I4326
sg8
S'45'
p1887
sg10
S'shape'
p1888
sg12
S'Wed Jan 28 18:24:56 2015'
p1889
sg14
S'5679541'
p1890
sg16
g1884
ssS'Sagittaria_kurziana'
p1891
(dp1892
g4
I1
sg5
S'Alismataceae'
p1893
sg7
I4326
sg8
S'13'
p1894
sg10
S'shape'
p1895
sg12
S'Thu Jan 29 02:04:54 2015'
p1896
sg14
S'5675296'
p1897
sg16
g1891
ssS'Anisacanthus_thurberi'
p1898
(dp1899
g4
I1
sg5
S'Acanthaceae'
p1900
sg7
I4326
sg8
S'364'
p1901
sg10
S'shape'
p1902
sg12
S'Wed Jan 28 17:08:22 2015'
p1903
sg14
S'5675300'
p1904
sg16
g1898
ssS'Salicornia_bigelovii'
p1905
(dp1906
g4
I1
sg5
S'Amaranthaceae'
p1907
sg7
I4326
sg8
S'184'
p1908
sg10
S'shape'
p1909
sg12
S'Thu Jan 29 05:54:57 2015'
p1910
sg14
S'5675301'
p1911
sg16
g1905
ssS'Atriplex_nuttallii'
p1912
(dp1913
g4
I1
sg5
S'Amaranthaceae'
p1914
sg7
I4326
sg8
S'8'
sg10
S'shape'
p1915
sg12
S'Wed Jan 28 17:39:38 2015'
p1916
sg14
S'5675307'
p1917
sg16
g1912
ssS'Thunbergia_fragrans'
p1918
(dp1919
g4
I1
sg5
S'Acanthaceae'
p1920
sg7
I4326
sg8
S'27'
p1921
sg10
S'shape'
p1922
sg12
S'Thu Jan 29 03:06:10 2015'
p1923
sg14
S'5675341'
p1924
sg16
g1918
ssS'Thunbergia_grandiflora'
p1925
(dp1926
g4
I1
sg5
S'Acanthaceae'
p1927
sg7
I4326
sg8
S'8'
sg10
S'shape'
p1928
sg12
S'Thu Jan 29 03:06:19 2015'
p1929
sg14
S'5675367'
p1930
sg16
g1925
ssS'Allium_sanbornii'
p1931
(dp1932
g4
I1
sg5
S'Amaryllidaceae'
p1933
sg7
I4326
sg8
S'31'
p1934
sg10
S'shape'
p1935
sg12
S'Wed Jan 28 16:52:54 2015'
p1936
sg14
S'5675382'
p1937
sg16
g1931
ssS'Sagittaria_isoetiformis'
p1938
(dp1939
g4
I1
sg5
S'Alismataceae'
p1940
sg7
I4326
sg8
S'57'
p1941
sg10
S'shape'
p1942
sg12
S'Thu Jan 29 02:04:20 2015'
p1943
sg14
S'5666218'
p1944
sg16
g1938
ssS'Grayia_brandegeei'
p1945
(dp1946
g4
I1
sg5
S'Amaranthaceae'
p1947
sg7
I4326
sg8
S'22'
p1948
sg10
S'shape'
p1949
sg12
S'Wed Jan 28 21:15:48 2015'
p1950
sg14
S'5666503'
p1951
sg16
g1945
ssS'Justicia_californica'
p1952
(dp1953
g4
I1
sg5
S'Acanthaceae'
p1954
sg7
I4326
sg8
S'344'
p1955
sg10
S'shape'
p1956
sg12
S'Thu Jan 29 04:43:48 2015'
p1957
sg14
S'5675437'
p1958
sg16
g1952
ssS'Atriplex_griffithsii'
p1959
(dp1960
g4
I1
sg5
S'Amaranthaceae'
p1961
sg7
I4326
sg8
S'23'
p1962
sg10
S'shape'
p1963
sg12
S'Wed Jan 28 17:39:10 2015'
p1964
sg14
S'5675445'
p1965
sg16
g1959
ssS'Ruellia_pedunculata'
p1966
(dp1967
g4
I1
sg5
S'Acanthaceae'
p1968
sg7
I4326
sg8
S'249'
p1969
sg10
S'shape'
p1970
sg12
S'Thu Jan 29 01:57:06 2015'
p1971
sg14
S'5674561'
p1972
sg16
g1966
ssS'Conicosia_pugioniformis'
p1973
(dp1974
g4
I1
sg5
S'Aizoaceae'
p1975
sg7
I4326
sg8
S'4'
sg10
S'shape'
p1976
sg12
S'Wed Jan 28 19:19:48 2015'
p1977
sg14
S'5675451'
p1978
sg16
g1973
ssS'Atriplex_hymenelytra'
p1979
(dp1980
g4
I1
sg5
S'Amaranthaceae'
p1981
sg7
I4326
sg8
S'159'
p1982
sg10
S'shape'
p1983
sg12
S'Wed Jan 28 17:39:14 2015'
p1984
sg14
S'5672330'
p1985
sg16
g1979
ssS'Alisma_triviale'
p1986
(dp1987
g4
I1
sg5
S'Alismataceae'
p1988
sg7
I4326
sg8
S'972'
p1989
sg10
S'shape'
p1990
sg12
S'Wed Jan 28 16:56:40 2015'
p1991
sg14
S'5675479'
p1992
sg16
g1986
ssS'Salicornia_depressa'
p1993
(dp1994
g4
I1
sg5
S'Amaranthaceae'
p1995
sg7
I4326
sg8
S'121'
p1996
sg10
S'shape'
p1997
sg12
S'Thu Jan 29 02:00:36 2015'
p1998
sg14
S'5673902'
p1999
sg16
g1993
ssS'Metopium_toxiferum'
p2000
(dp2001
g4
I1
sg5
S'Anacardiaceae'
p2002
sg7
I4326
sg8
S'33'
p2003
sg10
S'shape'
p2004
sg12
S'Wed Jan 28 19:39:10 2015'
p2005
sg14
S'5675575'
p2006
sg16
g2000
ssS'Narcissus_incomparabilis'
p2007
(dp2008
g4
I1
sg5
S'Amaryllidaceae'
p2009
sg7
I4326
sg8
S'5'
sg10
S'shape'
p2010
sg12
S'Thu Jan 29 05:35:08 2015'
p2011
sg14
S'5668222'
p2012
sg16
g2007
ssS'Allium_tuberosum'
p2013
(dp2014
g4
I1
sg5
S'Amaryllidaceae'
p2015
sg7
I4326
sg8
S'2'
sg10
S'shape'
p2016
sg12
S'Wed Jan 28 16:56:42 2015'
p2017
sg14
S'5675707'
p2018
sg16
g2013
ssS'Allium_cratericola'
p2019
(dp2020
g4
I1
sg5
S'Amaryllidaceae'
p2021
sg7
I4326
sg8
S'44'
p2022
sg10
S'shape'
p2023
sg12
S'Wed Jan 28 16:51:07 2015'
p2024
sg14
S'5672556'
p2025
sg16
g2019
ssS'Allium_nigrum'
p2026
(dp2027
g4
I1
sg5
S'Amaryllidaceae'
p2028
sg7
I4326
sg8
S'8'
sg10
S'shape'
p2029
sg12
S'Wed Jan 28 16:54:13 2015'
p2030
sg14
S'5675760'
p2031
sg16
g2026
ssS'Allium_tricoccum'
p2032
(dp2033
g4
I1
sg5
S'Amaryllidaceae'
p2034
sg7
I4326
sg8
S'1136'
p2035
sg10
S'shape'
p2036
sg12
S'Wed Jan 28 16:50:29 2015'
p2037
sg14
S'5675783'
p2038
sg16
g2032
ssS'Nitrophila_mohavensis'
p2039
(dp2040
g4
I1
sg5
S'Amaranthaceae'
p2041
sg7
I4326
sg8
S'13'
p2042
sg10
S'shape'
p2043
sg12
S'Wed Jan 28 23:38:43 2015'
p2044
sg14
S'5675787'
p2045
sg16
g2039
ssS'Hymenocallis_crassifolia'
p2046
(dp2047
g4
I1
sg5
S'Amaryllidaceae'
p2048
sg7
I4326
sg8
S'52'
p2049
sg10
S'shape'
p2050
sg12
S'Wed Jan 28 21:38:58 2015'
p2051
sg14
S'5675853'
p2052
sg16
g2046
ssS'Aphelandra_aurantiaca'
p2053
(dp2054
g4
I1
sg5
S'Acanthaceae'
p2055
sg7
I4326
sg8
S'125'
p2056
sg10
S'shape'
p2057
sg12
S'Thu Jan 29 03:51:10 2015'
p2058
sg14
S'5675877'
p2059
sg16
g2053
ssS'Allium_rhizomatum'
p2060
(dp2061
g4
I1
sg5
S'Amaryllidaceae'
p2062
sg7
I4326
sg8
S'24'
p2063
sg10
S'shape'
p2064
sg12
S'Wed Jan 28 16:51:58 2015'
p2065
sg14
S'5681396'
p2066
sg16
g2060
ssS'Atriplex_texana'
p2067
(dp2068
g4
I1
sg5
S'Amaranthaceae'
p2069
sg7
I4326
sg8
S'19'
p2070
sg10
S'shape'
p2071
sg12
S'Wed Jan 28 17:40:11 2015'
p2072
sg14
S'5678994'
p2073
sg16
g2067
ssS'Dicliptera_resupinata'
p2074
(dp2075
g4
I1
sg5
S'Acanthaceae'
p2076
sg7
I4326
sg8
S'284'
p2077
sg10
S'shape'
p2078
sg12
S'Wed Jan 28 19:54:28 2015'
p2079
sg14
S'5675920'
p2080
sg16
g2074
ssS'Sagittaria_montevidensis'
p2081
(dp2082
g4
I1
sg5
S'Alismataceae'
p2083
sg7
I4326
sg8
S'126'
p2084
sg10
S'shape'
p2085
sg12
S'Thu Jan 29 05:53:36 2015'
p2086
sg14
S'5675954'
p2087
sg16
g2081
ssS'Allium_bolanderi'
p2088
(dp2089
g4
I1
sg5
S'Amaryllidaceae'
p2090
sg7
I4326
sg8
S'74'
p2091
sg10
S'shape'
p2092
sg12
S'Wed Jan 28 16:50:13 2015'
p2093
sg14
S'5681228'
p2094
sg16
g2088
ssS'Amaranthus_obcordatus'
p2095
(dp2096
g4
I1
sg5
S'Amaranthaceae'
p2097
sg7
I4326
sg8
S'20'
p2098
sg10
S'shape'
p2099
sg12
S'Wed Jan 28 17:00:56 2015'
p2100
sg14
S'5675965'
p2101
sg16
g2095
ssS'Salsola_kali'
p2102
(dp2103
g4
I1
sg5
S'Amaranthaceae'
p2104
sg7
I4326
sg8
S'645'
p2105
sg10
S'shape'
p2106
sg12
S'Thu Jan 29 02:02:13 2015'
p2107
sg14
S'5670217'
p2108
sg16
g2102
ssS'Allium_longifolium'
p2109
(dp2110
g4
I1
sg5
S'Amaryllidaceae'
p2111
sg7
I4326
sg8
S'81'
p2112
sg10
S'shape'
p2113
sg12
S'Wed Jan 28 16:53:02 2015'
p2114
sg14
S'5679007'
p2115
sg16
g2109
ssS'Atriplex_lentiformis'
p2116
(dp2117
g4
I1
sg5
S'Amaranthaceae'
p2118
sg7
I4326
sg8
S'227'
p2119
sg10
S'shape'
p2120
sg12
S'Thu Jan 29 04:13:57 2015'
p2121
sg14
S'5675985'
p2122
sg16
g2116
ssS'Amaranthus_wrightii'
p2123
(dp2124
g4
I1
sg5
S'Amaranthaceae'
p2125
sg7
I4326
sg8
S'17'
p2126
sg10
S'shape'
p2127
sg12
S'Wed Jan 28 17:02:41 2015'
p2128
sg14
S'5675992'
p2129
sg16
g2123
ssS'Tidestromia_lanuginosa'
p2130
(dp2131
g4
I1
sg5
S'Amaranthaceae'
p2132
sg7
I4326
sg8
S'520'
p2133
sg10
S'shape'
p2134
sg12
S'Thu Jan 29 03:09:46 2015'
p2135
sg14
S'5675995'
p2136
sg16
g2130
ssS'Atriplex_spinifera'
p2137
(dp2138
g4
I1
sg5
S'Amaranthaceae'
p2139
sg7
I4326
sg8
S'17'
p2140
sg10
S'shape'
p2141
sg12
S'Wed Jan 28 17:40:03 2015'
p2142
sg14
S'5675998'
p2143
sg16
g2137
ssS'Zephyranthes_rosea'
p2144
(dp2145
g4
I1
sg5
S'Amaryllidaceae'
p2146
sg7
I4326
sg8
S'5'
sg10
S'shape'
p2147
sg12
S'Thu Jan 29 03:49:57 2015'
p2148
sg14
S'5676010'
p2149
sg16
g2144
ssS'Hymenocallis_choctawensis'
p2150
(dp2151
g4
I1
sg5
S'Amaryllidaceae'
p2152
sg7
I4326
sg8
S'15'
p2153
sg10
S'shape'
p2154
sg12
S'Wed Jan 28 21:44:37 2015'
p2155
sg14
S'5675063'
p2156
sg16
g2150
ssS'Crinum_asiaticum'
p2157
(dp2158
g4
I1
sg5
S'Amaryllidaceae'
p2159
sg7
I4326
sg8
S'3'
sg10
S'shape'
p2160
sg12
S'Wed Jan 28 19:20:18 2015'
p2161
sg14
S'5676072'
p2162
sg16
g2157
ssS'Hygrophila_polysperma'
p2163
(dp2164
g4
I1
sg5
S'Acanthaceae'
p2165
sg7
I4326
sg8
S'24'
p2166
sg10
S'shape'
p2167
sg12
S'Wed Jan 28 21:39:14 2015'
p2168
sg14
S'5671722'
p2169
sg16
g2163
ssS'Atriplex_aptera'
p2170
(dp2171
g4
I1
sg5
S'Amaranthaceae'
p2172
sg7
I4326
sg8
S'6'
sg10
S'shape'
p2173
sg12
S'Thu Jan 29 04:55:38 2015'
p2174
sg14
S'5676166'
p2175
sg16
g2170
ssS'Toxicodendron_radicans'
p2176
(dp2177
g4
I1
sg5
S'Anacardiaceae'
p2178
sg7
I4326
sg8
S'9809'
p2179
sg10
S'shape'
p2180
sg12
S'Thu Jan 29 03:12:44 2015'
p2181
sg14
S'5676179'
p2182
sg16
g2176
ssS'Chenopodium_vulvaria'
p2183
(dp2184
g4
I1
sg5
S'Amaranthaceae'
p2185
sg7
I4326
sg8
S'133'
p2186
sg10
S'shape'
p2187
sg12
S'Wed Jan 28 18:56:47 2015'
p2188
sg14
S'5676194'
p2189
sg16
g2183
ssS'Gomphrena_globosa'
p2190
(dp2191
g4
I1
sg5
S'Amaranthaceae'
p2192
sg7
I4326
sg8
S'62'
p2193
sg10
S'shape'
p2194
sg12
S'Thu Jan 29 04:13:28 2015'
p2195
sg14
S'5672040'
p2196
sg16
g2190
ssS'Carlowrightia_linearifolia'
p2197
(dp2198
g4
I1
sg5
S'Acanthaceae'
p2199
sg7
I4326
sg8
S'52'
p2200
sg10
S'shape'
p2201
sg12
S'Wed Jan 28 18:05:26 2015'
p2202
sg14
S'5672766'
p2203
sg16
g2197
ssS'Atriplex_glabriuscula'
p2204
(dp2205
g4
I1
sg5
S'Amaranthaceae'
p2206
sg7
I4326
sg8
S'72'
p2207
sg10
S'shape'
p2208
sg12
S'Wed Jan 28 17:38:29 2015'
p2209
sg14
S'5676252'
p2210
sg16
g2204
ssS'Chenopodium_incisum'
p2211
(dp2212
g4
I1
sg5
S'Amaranthaceae'
p2213
sg7
I4326
sg8
S'224'
p2214
sg10
S'shape'
p2215
sg12
S'Wed Jan 28 18:52:48 2015'
p2216
sg14
S'5676267'
p2217
sg16
g2211
ssS'Justicia_carnea'
p2218
(dp2219
g4
I1
sg5
S'Acanthaceae'
p2220
sg7
I4326
sg8
S'2'
sg10
S'shape'
p2221
sg12
S'Wed Jan 28 22:02:20 2015'
p2222
sg14
S'5676275'
p2223
sg16
g2218
ssS'Amaranthus_hypochondriacus'
p2224
(dp2225
g4
I1
sg5
S'Amaranthaceae'
p2226
sg7
I4326
sg8
S'33'
p2227
sg10
S'shape'
p2228
sg12
S'Wed Jan 28 17:00:04 2015'
p2229
sg14
S'5681667'
p2230
sg16
g2224
ssS'Allium_fistulosum'
p2231
(dp2232
g4
I1
sg5
S'Amaryllidaceae'
p2233
sg7
I4326
sg8
S'1'
sg10
S'shape'
p2234
sg12
S'Wed Jan 28 16:51:43 2015'
p2235
sg14
S'5676532'
p2236
sg16
g2231
ssS'Sagittaria_lancifolia'
p2237
(dp2238
g4
I1
sg5
S'Alismataceae'
p2239
sg7
I4326
sg8
S'371'
p2240
sg10
S'shape'
p2241
sg12
S'Thu Jan 29 02:05:14 2015'
p2242
sg14
S'5675663'
p2243
sg16
g2237
ssS'Sagittaria_subulata'
p2244
(dp2245
g4
I1
sg5
S'Alismataceae'
p2246
sg7
I4326
sg8
S'118'
p2247
sg10
S'shape'
p2248
sg12
S'Thu Jan 29 02:09:51 2015'
p2249
sg14
S'5673388'
p2250
sg16
g2244
ssS'Krascheninnikovia_ceratoides'
p2251
(dp2252
g4
I1
sg5
S'Amaranthaceae'
p2253
sg7
I4326
sg8
S'9'
sg10
S'shape'
p2254
sg12
S'Wed Jan 28 22:11:42 2015'
p2255
sg14
S'5676627'
p2256
sg16
g2251
ssS'Amaranthus_retroflexus'
p2257
(dp2258
g4
I1
sg5
S'Amaranthaceae'
p2259
sg7
I4326
sg8
S'1720'
p2260
sg10
S'shape'
p2261
sg12
S'Wed Jan 28 17:01:26 2015'
p2262
sg14
S'5676041'
p2263
sg16
g2257
ssS'Allium_plummerae'
p2264
(dp2265
g4
I1
sg5
S'Amaryllidaceae'
p2266
sg7
I4326
sg8
S'46'
p2267
sg10
S'shape'
p2268
sg12
S'Wed Jan 28 16:54:57 2015'
p2269
sg14
S'5679049'
p2270
sg16
g2264
ssS'Amaranthus_fimbriatus'
p2271
(dp2272
g4
I1
sg5
S'Amaranthaceae'
p2273
sg7
I4326
sg8
S'235'
p2274
sg10
S'shape'
p2275
sg12
S'Wed Jan 28 16:59:34 2015'
p2276
sg14
S'5676723'
p2277
sg16
g2271
ssS'Hymenocallis_pygmaea'
p2278
(dp2279
g4
I1
sg5
S'Amaryllidaceae'
p2280
sg7
I4326
sg8
S'10'
p2281
sg10
S'shape'
p2282
sg12
S'Wed Jan 28 21:38:54 2015'
p2283
sg14
S'5676724'
p2284
sg16
g2278
ssS'Justicia_spicigera'
p2285
(dp2286
g4
I1
sg5
S'Acanthaceae'
p2287
sg7
I4326
sg8
S'145'
p2288
sg10
S'shape'
p2289
sg12
S'Wed Jan 28 22:07:59 2015'
p2290
sg14
S'5676744'
p2291
sg16
g2285
ssS'Carlowrightia_arizonica'
p2292
(dp2293
g4
I1
sg5
S'Acanthaceae'
p2294
sg7
I4326
sg8
S'366'
p2295
sg10
S'shape'
p2296
sg12
S'Wed Jan 28 18:40:35 2015'
p2297
sg14
S'5676765'
p2298
sg16
g2292
ssS'Hypoestes_phyllostachya'
p2299
(dp2300
g4
I1
sg5
S'Acanthaceae'
p2301
sg7
I4326
sg8
S'13'
p2302
sg10
S'shape'
p2303
sg12
S'Wed Jan 28 21:41:40 2015'
p2304
sg14
S'5676721'
p2305
sg16
g2299
ssS'Atriplex_semibaccata'
p2306
(dp2307
g4
I1
sg5
S'Amaranthaceae'
p2308
sg7
I4326
sg8
S'163'
p2309
sg10
S'shape'
p2310
sg12
S'Thu Jan 29 04:13:42 2015'
p2311
sg14
S'5676814'
p2312
sg16
g2306
ssS'Actinidia_arguta'
p2313
(dp2314
g4
I1
sg5
S'Actinidiaceae'
p2315
sg7
I4326
sg8
S'1'
sg10
S'shape'
p2316
sg12
S'Wed Jan 28 16:33:16 2015'
p2317
sg14
S'5676819'
p2318
sg16
g2313
ssS'Allium_cepa'
p2319
(dp2320
g4
I1
sg5
S'Amaryllidaceae'
p2321
sg7
I4326
sg8
S'93'
p2322
sg10
S'shape'
p2323
sg12
S'Wed Jan 28 16:50:51 2015'
p2324
sg14
S'5676327'
p2325
sg16
g2319
ssS'Allium_parryi'
p2326
(dp2327
g4
I1
sg5
S'Amaryllidaceae'
p2328
sg7
I4326
sg8
S'8'
sg10
S'shape'
p2329
sg12
S'Thu Jan 29 04:50:23 2015'
p2330
sg14
S'5676734'
p2331
sg16
g2326
ssS'Justicia_brandegeeana'
p2332
(dp2333
g4
I1
sg5
S'Acanthaceae'
p2334
sg7
I4326
sg8
S'45'
p2335
sg10
S'shape'
p2336
sg12
S'Wed Jan 28 21:59:44 2015'
p2337
sg14
S'5676854'
p2338
sg16
g2332
ssS'Toxicodendron_diversilobum'
p2339
(dp2340
g4
I1
sg5
S'Anacardiaceae'
p2341
sg7
I4326
sg8
S'434'
p2342
sg10
S'shape'
p2343
sg12
S'Thu Jan 29 06:00:51 2015'
p2344
sg14
S'5676873'
p2345
sg16
g2339
ssS'Atriplex_prostrata'
p2346
(dp2347
g4
I1
sg5
S'Amaranthaceae'
p2348
sg7
I4326
sg8
S'497'
p2349
sg10
S'shape'
p2350
sg12
S'Thu Jan 29 04:14:05 2015'
p2351
sg14
S'5676881'
p2352
sg16
g2346
ssS'Chenopodium_carnosulum'
p2353
(dp2354
g4
I1
sg5
S'Amaranthaceae'
p2355
sg7
I4326
sg8
S'1'
sg10
S'shape'
p2356
sg12
S'Thu Jan 29 04:16:57 2015'
p2357
sg14
S'5676888'
p2358
sg16
g2353
ssS'Rhus_microphylla'
p2359
(dp2360
g4
I1
sg5
S'Anacardiaceae'
p2361
sg7
I4326
sg8
S'437'
p2362
sg10
S'shape'
p2363
sg12
S'Thu Jan 29 01:44:49 2015'
p2364
sg14
S'5673865'
p2365
sg16
g2359
ssS'Allium_shevockii'
p2366
(dp2367
g4
I1
sg5
S'Amaryllidaceae'
p2368
sg7
I4326
sg8
S'2'
sg10
S'shape'
p2369
sg12
S'Thu Jan 29 04:50:33 2015'
p2370
sg14
S'5676901'
p2371
sg16
g2366
ssS'Allium_punctum'
p2372
(dp2373
g4
I1
sg5
S'Amaryllidaceae'
p2374
sg7
I4326
sg8
S'33'
p2375
sg10
S'shape'
p2376
sg12
S'Wed Jan 28 16:55:12 2015'
p2377
sg14
S'5672894'
p2378
sg16
g2372
ssS'Crinum_zeylanicum'
p2379
(dp2380
g4
I1
sg5
S'Amaryllidaceae'
p2381
sg7
I4326
sg8
S'7'
sg10
S'shape'
p2382
sg12
S'Wed Jan 28 19:21:12 2015'
p2383
sg14
S'5671063'
p2384
sg16
g2379
ssS'Henrya_insularis'
p2385
(dp2386
g4
I1
sg5
S'Acanthaceae'
p2387
sg7
I4326
sg8
S'310'
p2388
sg10
S'shape'
p2389
sg12
S'Thu Jan 29 04:23:00 2015'
p2390
sg14
S'5677058'
p2391
sg16
g2385
ssS'Allium_parishii'
p2392
(dp2393
g4
I1
sg5
S'Amaryllidaceae'
p2394
sg7
I4326
sg8
S'17'
p2395
sg10
S'shape'
p2396
sg12
S'Wed Jan 28 16:53:49 2015'
p2397
sg14
S'5677092'
p2398
sg16
g2392
ssS'Carpobrotus_edulis'
p2399
(dp2400
g4
I1
sg5
S'Aizoaceae'
p2401
sg7
I4326
sg8
S'23'
p2402
sg10
S'shape'
p2403
sg12
S'Wed Jan 28 18:10:19 2015'
p2404
sg14
S'5677111'
p2405
sg16
g2399
ssS'Sagittaria_filiformis'
p2406
(dp2407
g4
I1
sg5
S'Alismataceae'
p2408
sg7
I4326
sg8
S'37'
p2409
sg10
S'shape'
p2410
sg12
S'Thu Jan 29 02:03:29 2015'
p2411
sg14
S'5677787'
p2412
sg16
g2406
ssS'Rhus_integrifolia'
p2413
(dp2414
g4
I1
sg5
S'Anacardiaceae'
p2415
sg7
I4326
sg8
S'73'
p2416
sg10
S'shape'
p2417
sg12
S'Thu Jan 29 01:43:35 2015'
p2418
sg14
S'5677166'
p2419
sg16
g2413
ssS'Zephyranthes_minuta'
p2420
(dp2421
g4
I1
sg5
S'Amaryllidaceae'
p2422
sg7
I4326
sg8
S'12'
p2423
sg10
S'shape'
p2424
sg12
S'Thu Jan 29 04:18:20 2015'
p2425
sg14
S'5676804'
p2426
sg16
g2420
ssS'Nothoscordum_gracile'
p2427
(dp2428
g4
I1
sg5
S'Amaryllidaceae'
p2429
sg7
I4326
sg8
S'27'
p2430
sg10
S'shape'
p2431
sg12
S'Wed Jan 28 23:39:05 2015'
p2432
sg14
S'5677236'
p2433
sg16
g2427
ssS'Pistacia_atlantica'
p2434
(dp2435
g4
I1
sg5
S'Anacardiaceae'
p2436
sg7
I4326
sg8
S'15'
p2437
sg10
S'shape'
p2438
sg12
S'Thu Jan 29 00:43:45 2015'
p2439
sg14
S'5677284'
p2440
sg16
g2434
ssS'Amaryllis_belladonna'
p2441
(dp2442
g4
I1
sg5
S'Amaryllidaceae'
p2443
sg7
I4326
sg8
S'9'
sg10
S'shape'
p2444
sg12
S'Wed Jan 28 16:58:01 2015'
p2445
sg14
S'5677300'
p2446
sg16
g2441
ssS'Gomphrena_nitida'
p2447
(dp2448
g4
I1
sg5
S'Amaranthaceae'
p2449
sg7
I4326
sg8
S'193'
p2450
sg10
S'shape'
p2451
sg12
S'Wed Jan 28 21:13:58 2015'
p2452
sg14
S'5677331'
p2453
sg16
g2447
ssS'Habranthus_tubispathus'
p2454
(dp2455
g4
I1
sg5
S'Amaryllidaceae'
p2456
sg7
I4326
sg8
S'23'
p2457
sg10
S'shape'
p2458
sg12
S'Thu Jan 29 04:36:12 2015'
p2459
sg14
S'5677344'
p2460
sg16
g2454
ssS'Sarcocornia_pacifica'
p2461
(dp2462
g4
I1
sg5
S'Amaranthaceae'
p2463
sg7
I4326
sg8
S'5'
sg10
S'shape'
p2464
sg12
S'Thu Jan 29 02:11:16 2015'
p2465
sg14
S'5671122'
p2466
sg16
g2461
ssS'Lycoris_radiata'
p2467
(dp2468
g4
I1
sg5
S'Amaryllidaceae'
p2469
sg7
I4326
sg8
S'24'
p2470
sg10
S'shape'
p2471
sg12
S'Wed Jan 28 22:58:58 2015'
p2472
sg14
S'5667114'
p2473
sg16
g2467
ssS'Odontonema_cuspidatum'
p2474
(dp2475
g4
I1
sg5
S'Acanthaceae'
p2476
sg7
I4326
sg8
S'69'
p2477
sg10
S'shape'
p2478
sg12
S'Thu Jan 29 05:36:17 2015'
p2479
sg14
S'5677516'
p2480
sg16
g2474
ssS'Carlowrightia_texana'
p2481
(dp2482
g4
I1
sg5
S'Acanthaceae'
p2483
sg7
I4326
sg8
S'25'
p2484
sg10
S'shape'
p2485
sg12
S'Wed Jan 28 18:35:27 2015'
p2486
sg14
S'5677467'
p2487
sg16
g2481
ssS'Chenopodium_capitatum'
p2488
(dp2489
g4
I1
sg5
S'Amaranthaceae'
p2490
sg7
I4326
sg8
S'408'
p2491
sg10
S'shape'
p2492
sg12
S'Wed Jan 28 18:50:00 2015'
p2493
sg14
S'5673020'
p2494
sg16
g2488
ssS'Viburnum_edule'
p2495
(dp2496
g4
I1
sg5
S'Adoxaceae'
p2497
sg7
I4326
sg8
S'640'
p2498
sg10
S'shape'
p2499
sg12
S'Thu Jan 29 03:39:02 2015'
p2500
sg14
S'5671557'
p2501
sg16
g2495
ssS'Sagittaria_secundifolia'
p2502
(dp2503
g4
I1
sg5
S'Alismataceae'
p2504
sg7
I4326
sg8
S'3'
sg10
S'shape'
p2505
sg12
S'Thu Jan 29 02:09:34 2015'
p2506
sg14
S'5677746'
p2507
sg16
g2502
ssS'Habranthus_robustus'
p2508
(dp2509
g4
I1
sg5
S'Amaryllidaceae'
p2510
sg7
I4326
sg8
S'1'
sg10
S'shape'
p2511
sg12
S'Wed Jan 28 21:19:40 2015'
p2512
sg14
S'5677770'
p2513
sg16
g2508
ssS'Viburnum_nudum'
p2514
(dp2515
g4
I1
sg5
S'Adoxaceae'
p2516
sg7
I4326
sg8
S'990'
p2517
sg10
S'shape'
p2518
sg12
S'Thu Jan 29 03:40:52 2015'
p2519
sg14
S'5677791'
p2520
sg16
g2514
ssS'Chenopodium_standleyanum'
p2521
(dp2522
g4
I1
sg5
S'Amaranthaceae'
p2523
sg7
I4326
sg8
S'500'
p2524
sg10
S'shape'
p2525
sg12
S'Wed Jan 28 18:55:46 2015'
p2526
sg14
S'5666467'
p2527
sg16
g2521
ssS'Allium_validum'
p2528
(dp2529
g4
I1
sg5
S'Amaryllidaceae'
p2530
sg7
I4326
sg8
S'211'
p2531
sg10
S'shape'
p2532
sg12
S'Wed Jan 28 16:56:47 2015'
p2533
sg14
S'5677849'
p2534
sg16
g2528
ssS'Amaranthus_hybridus'
p2535
(dp2536
g4
I1
sg5
S'Amaranthaceae'
p2537
sg7
I4326
sg8
S'1652'
p2538
sg10
S'shape'
p2539
sg12
S'Wed Jan 28 16:59:17 2015'
p2540
sg14
S'5677918'
p2541
sg16
g2535
ssS'Alisma_gramineum'
p2542
(dp2543
g4
I1
sg5
S'Alismataceae'
p2544
sg7
I4326
sg8
S'213'
p2545
sg10
S'shape'
p2546
sg12
S'Wed Jan 28 16:52:16 2015'
p2547
sg14
S'5676917'
p2548
sg16
g2542
ssS'Atriplex_oblongifolia'
p2549
(dp2550
g4
I1
sg5
S'Amaranthaceae'
p2551
sg7
I4326
sg8
S'6'
sg10
S'shape'
p2552
sg12
S'Wed Jan 28 17:38:55 2015'
p2553
sg14
S'5681708'
p2554
sg16
g2549
ssS'Talinopsis_frutescens'
p2555
(dp2556
g4
I1
sg5
S'Anacampserotaceae'
p2557
sg7
I4326
sg8
S'42'
p2558
sg10
S'shape'
p2559
sg12
S'Thu Jan 29 03:01:40 2015'
p2560
sg14
S'5677947'
p2561
sg16
g2555
ssS'Atriplex_falcata'
p2562
(dp2563
g4
I1
sg5
S'Amaranthaceae'
p2564
sg7
I4326
sg8
S'86'
p2565
sg10
S'shape'
p2566
sg12
S'Wed Jan 28 17:39:00 2015'
p2567
sg14
S'5677958'
p2568
sg16
g2562
ssS'Viburnum_acerifolium'
p2569
(dp2570
g4
I1
sg5
S'Adoxaceae'
p2571
sg7
I4326
sg8
S'2962'
p2572
sg10
S'shape'
p2573
sg12
S'Thu Jan 29 03:37:02 2015'
p2574
sg14
S'5678017'
p2575
sg16
g2569
ssS'Sesuvium_maritimum'
p2576
(dp2577
g4
I1
sg5
S'Aizoaceae'
p2578
sg7
I4326
sg8
S'81'
p2579
sg10
S'shape'
p2580
sg12
S'Thu Jan 29 02:22:35 2015'
p2581
sg14
S'5678024'
p2582
sg16
g2576
ssS'Atriplex_gmelinii'
p2583
(dp2584
g4
I1
sg5
S'Amaranthaceae'
p2585
sg7
I4326
sg8
S'103'
p2586
sg10
S'shape'
p2587
sg12
S'Thu Jan 29 04:55:47 2015'
p2588
sg14
S'5678031'
p2589
sg16
g2583
ssS'Allium_dictuon'
p2590
(dp2591
g4
I1
sg5
S'Amaryllidaceae'
p2592
sg7
I4326
sg8
S'4'
sg10
S'shape'
p2593
sg12
S'Thu Jan 29 04:49:56 2015'
p2594
sg14
S'5681921'
p2595
sg16
g2590
ssS'Sagittaria_australis'
p2596
(dp2597
g4
I1
sg5
S'Alismataceae'
p2598
sg7
I4326
sg8
S'143'
p2599
sg10
S'shape'
p2600
sg12
S'Thu Jan 29 01:59:08 2015'
p2601
sg14
S'5678107'
p2602
sg16
g2596
ssS'Sesuvium_portulacastrum'
p2603
(dp2604
g4
I1
sg5
S'Aizoaceae'
p2605
sg7
I4326
sg8
S'315'
p2606
sg10
S'shape'
p2607
sg12
S'Thu Jan 29 02:22:54 2015'
p2608
sg14
S'5668914'
p2609
sg16
g2603
ssS'Dyschoriste_oblongifolia'
p2610
(dp2611
g4
I1
sg5
S'Acanthaceae'
p2612
sg7
I4326
sg8
S'228'
p2613
sg10
S'shape'
p2614
sg12
S'Wed Jan 28 20:07:41 2015'
p2615
sg14
S'5668625'
p2616
sg16
g2610
ssS'Allium_coryi'
p2617
(dp2618
g4
I1
sg5
S'Amaryllidaceae'
p2619
sg7
I4326
sg8
S'6'
sg10
S'shape'
p2620
sg12
S'Wed Jan 28 16:50:57 2015'
p2621
sg14
S'5682207'
p2622
sg16
g2617
ssS'Corispermum_pallasii'
p2623
(dp2624
g4
I1
sg5
S'Amaranthaceae'
p2625
sg7
I4326
sg8
S'19'
p2626
sg10
S'shape'
p2627
sg12
S'Wed Jan 28 19:16:54 2015'
p2628
sg14
S'5678161'
p2629
sg16
g2623
ssS'Sagittaria_brevirostra'
p2630
(dp2631
g4
I1
sg5
S'Alismataceae'
p2632
sg7
I4326
sg8
S'486'
p2633
sg10
S'shape'
p2634
sg12
S'Thu Jan 29 02:00:00 2015'
p2635
sg14
S'5678178'
p2636
sg16
g2630
ssS'Ruellia_metziae'
p2637
(dp2638
g4
I1
sg5
S'Acanthaceae'
p2639
sg7
I4326
sg8
S'23'
p2640
sg10
S'shape'
p2641
sg12
S'Thu Jan 29 01:53:59 2015'
p2642
sg14
S'5674712'
p2643
sg16
g2637
ssS'Suaeda_tampicensis'
p2644
(dp2645
g4
I1
sg5
S'Amaranthaceae'
p2646
sg7
I4326
sg8
S'5'
sg10
S'shape'
p2647
sg12
S'Thu Jan 29 02:56:02 2015'
p2648
sg14
S'5674149'
p2649
sg16
g2644
ssS'Malephora_crocea'
p2650
(dp2651
g4
I1
sg5
S'Aizoaceae'
p2652
sg7
I4326
sg8
S'6'
sg10
S'shape'
p2653
sg12
S'Wed Jan 28 23:03:42 2015'
p2654
sg14
S'5680659'
p2655
sg16
g2650
ssS'Ruellia_brevifolia'
p2656
(dp2657
g4
I1
sg5
S'Acanthaceae'
p2658
sg7
I4326
sg8
S'18'
p2659
sg10
S'shape'
p2660
sg12
S'Thu Jan 29 01:58:16 2015'
p2661
sg14
S'5672136'
p2662
sg16
g2656
ssS'Alternanthera_brasiliana'
p2663
(dp2664
g4
I1
sg5
S'Amaranthaceae'
p2665
sg7
I4326
sg8
S'12'
p2666
sg10
S'shape'
p2667
sg12
S'Wed Jan 28 16:50:23 2015'
p2668
sg14
S'5678267'
p2669
sg16
g2663
ssS'Echinodorus_cordifolius'
p2670
(dp2671
g4
I1
sg5
S'Alismataceae'
p2672
sg7
I4326
sg8
S'383'
p2673
sg10
S'shape'
p2674
sg12
S'Wed Jan 28 20:08:04 2015'
p2675
sg14
S'5678280'
p2676
sg16
g2670
ssS'Pistacia_mexicana'
p2677
(dp2678
g4
I1
sg5
S'Anacardiaceae'
p2679
sg7
I4326
sg8
S'192'
p2680
sg10
S'shape'
p2681
sg12
S'Thu Jan 29 00:36:10 2015'
p2682
sg14
S'5668245'
p2683
sg16
g2677
ssS'Atriplex_micrantha'
p2684
(dp2685
g4
I1
sg5
S'Amaranthaceae'
p2686
sg7
I4326
sg8
S'181'
p2687
sg10
S'shape'
p2688
sg12
S'Wed Jan 28 17:38:54 2015'
p2689
sg14
S'5678523'
p2690
sg16
g2684
ssS'Leucojum_aestivum'
p2691
(dp2692
g4
I1
sg5
S'Amaryllidaceae'
p2693
sg7
I4326
sg8
S'81'
p2694
sg10
S'shape'
p2695
sg12
S'Wed Jan 28 22:25:05 2015'
p2696
sg14
S'5678316'
p2697
sg16
g2691
ssS'Justicia_wrightii'
p2698
(dp2699
g4
I1
sg5
S'Acanthaceae'
p2700
sg7
I4326
sg8
S'10'
p2701
sg10
S'shape'
p2702
sg12
S'Wed Jan 28 22:08:42 2015'
p2703
sg14
S'5678358'
p2704
sg16
g2698
ssS'Zephyranthes_chlorosolen'
p2705
(dp2706
g4
I1
sg5
S'Amaryllidaceae'
p2707
sg7
I4326
sg8
S'4'
sg10
S'shape'
p2708
sg12
S'Thu Jan 29 03:49:35 2015'
p2709
sg14
S'5674340'
p2710
sg16
g2705
ssS'Chenopodium_album'
p2711
(dp2712
g4
I1
sg5
S'Amaranthaceae'
p2713
sg7
I4326
sg8
S'2948'
p2714
sg10
S'shape'
p2715
sg12
S'Wed Jan 28 18:54:35 2015'
p2716
sg14
S'5678400'
p2717
sg16
g2711
ssS'Sagittaria_teres'
p2718
(dp2719
g4
I1
sg5
S'Alismataceae'
p2720
sg7
I4326
sg8
S'24'
p2721
sg10
S'shape'
p2722
sg12
S'Thu Jan 29 02:03:35 2015'
p2723
sg14
S'5670629'
p2724
sg16
g2718
ssS'Stenandrium_dulce'
p2725
(dp2726
g4
I1
sg5
S'Acanthaceae'
p2727
sg7
I4326
sg8
S'94'
p2728
sg10
S'shape'
p2729
sg12
S'Thu Jan 29 02:48:22 2015'
p2730
sg14
S'5671460'
p2731
sg16
g2725
ssS'Amaranthus_australis'
p2732
(dp2733
g4
I1
sg5
S'Amaranthaceae'
p2734
sg7
I4326
sg8
S'93'
p2735
sg10
S'shape'
p2736
sg12
S'Wed Jan 28 16:57:48 2015'
p2737
sg14
S'5679415'
p2738
sg16
g2732
ssS'Viburnum_dilatatum'
p2739
(dp2740
g4
I1
sg5
S'Adoxaceae'
p2741
sg7
I4326
sg8
S'101'
p2742
sg10
S'shape'
p2743
sg12
S'Thu Jan 29 03:38:59 2015'
p2744
sg14
S'5671565'
p2745
sg16
g2739
ssS'Allium_falcifolium'
p2746
(dp2747
g4
I1
sg5
S'Amaryllidaceae'
p2748
sg7
I4326
sg8
S'113'
p2749
sg10
S'shape'
p2750
sg12
S'Wed Jan 28 16:51:40 2015'
p2751
sg14
S'5678568'
p2752
sg16
g2746
ssS'Narcissus_pseudonarcissus'
p2753
(dp2754
g4
I1
sg5
S'Amaryllidaceae'
p2755
sg7
I4326
sg8
S'194'
p2756
sg10
S'shape'
p2757
sg12
S'Wed Jan 28 23:34:42 2015'
p2758
sg14
S'5671932'
p2759
sg16
g2753
ssS'Atriplex_klebergorum'
p2760
(dp2761
g4
I1
sg5
S'Amaranthaceae'
p2762
sg7
I4326
sg8
S'5'
sg10
S'shape'
p2763
sg12
S'Thu Jan 29 04:13:55 2015'
p2764
sg14
S'5678623'
p2765
sg16
g2760
ssS'Allium_sativum'
p2766
(dp2767
g4
I1
sg5
S'Amaryllidaceae'
p2768
sg7
I4326
sg8
S'181'
p2769
sg10
S'shape'
p2770
sg12
S'Wed Jan 28 16:55:45 2015'
p2771
sg14
S'5672219'
p2772
sg16
g2766
ssS'Atriplex_wolfii'
p2773
(dp2774
g4
I1
sg5
S'Amaranthaceae'
p2775
sg7
I4326
sg8
S'25'
p2776
sg10
S'shape'
p2777
sg12
S'Thu Jan 29 04:56:02 2015'
p2778
sg14
S'5678646'
p2779
sg16
g2773
ssS'Sagittaria_latifolia'
p2780
(dp2781
g4
I1
sg5
S'Alismataceae'
p2782
sg7
I4326
sg8
S'2431'
p2783
sg10
S'shape'
p2784
sg12
S'Thu Jan 29 02:05:28 2015'
p2785
sg14
S'5674755'
p2786
sg16
g2780
ssS'Allium_vineale'
p2787
(dp2788
g4
I1
sg5
S'Amaryllidaceae'
p2789
sg7
I4326
sg8
S'1048'
p2790
sg10
S'shape'
p2791
sg12
S'Wed Jan 28 16:57:10 2015'
p2792
sg14
S'5678714'
p2793
sg16
g2787
ssS'Tristagma_uniflorum'
p2794
(dp2795
g4
I1
sg5
S'Amaryllidaceae'
p2796
sg7
I4326
sg8
S'41'
p2797
sg10
S'shape'
p2798
sg12
S'Thu Jan 29 03:15:11 2015'
p2799
sg14
S'5678756'
p2800
sg16
g2794
ssS'Sanchezia_parvibracteata'
p2801
(dp2802
g4
I1
sg5
S'Acanthaceae'
p2803
sg7
I4326
sg8
S'1'
sg10
S'shape'
p2804
sg12
S'Thu Jan 29 04:32:06 2015'
p2805
sg14
S'5673402'
p2806
sg16
g2801
ssS'Amaranthus_caudatus'
p2807
(dp2808
g4
I1
sg5
S'Amaranthaceae'
p2809
sg7
I4326
sg8
S'81'
p2810
sg10
S'shape'
p2811
sg12
S'Wed Jan 28 16:58:37 2015'
p2812
sg14
S'5678863'
p2813
sg16
g2807
ssS'Narcissus_papyraceus'
p2814
(dp2815
g4
I1
sg5
S'Amaryllidaceae'
p2816
sg7
I4326
sg8
S'4'
sg10
S'shape'
p2817
sg12
S'Wed Jan 28 23:34:07 2015'
p2818
sg14
S'5678879'
p2819
sg16
g2814
ssS'Suaeda_maritima'
p2820
(dp2821
g4
I1
sg5
S'Amaranthaceae'
p2822
sg7
I4326
sg8
S'187'
p2823
sg10
S'shape'
p2824
sg12
S'Thu Jan 29 02:55:48 2015'
p2825
sg14
S'5677107'
p2826
sg16
g2820
ssS'Allium_lemmonii'
p2827
(dp2828
g4
I1
sg5
S'Amaryllidaceae'
p2829
sg7
I4326
sg8
S'86'
p2830
sg10
S'shape'
p2831
sg12
S'Wed Jan 28 16:53:13 2015'
p2832
sg14
S'5676246'
p2833
sg16
g2827
ssS'Chenopodium_opulifolium'
p2834
(dp2835
g4
I1
sg5
S'Amaranthaceae'
p2836
sg7
I4326
sg8
S'4'
sg10
S'shape'
p2837
sg12
S'Wed Jan 28 18:54:19 2015'
p2838
sg14
S'5678992'
p2839
sg16
g2834
ssS'Hygrophila_corymbosa'
p2840
(dp2841
g4
I1
sg5
S'Acanthaceae'
p2842
sg7
I4326
sg8
S'1'
sg10
S'shape'
p2843
sg12
S'Wed Jan 28 21:44:33 2015'
p2844
sg14
S'5678997'
p2845
sg16
g2840
ssS'Suaeda_californica'
p2846
(dp2847
g4
I1
sg5
S'Amaranthaceae'
p2848
sg7
I4326
sg8
S'47'
p2849
sg10
S'shape'
p2850
sg12
S'Thu Jan 29 02:55:33 2015'
p2851
sg14
S'5679040'
p2852
sg16
g2846
ssS'Suaeda_linifolia'
p2853
(dp2854
g4
I1
sg5
S'Amaranthaceae'
p2855
sg7
I4326
sg8
S'1'
sg10
S'shape'
p2856
sg12
S'Thu Jan 29 02:55:48 2015'
p2857
sg14
S'5667478'
p2858
sg16
g2853
ssS'Atriplex_glauca'
p2859
(dp2860
g4
I1
sg5
S'Amaranthaceae'
p2861
sg7
I4326
sg8
S'4'
sg10
S'shape'
p2862
sg12
S'Thu Jan 29 04:13:53 2015'
p2863
sg14
S'5679066'
p2864
sg16
g2859
ssS'Nelsonia_canescens'
p2865
(dp2866
g4
I1
sg5
S'Acanthaceae'
p2867
sg7
I4326
sg8
S'2'
sg10
S'shape'
p2868
sg12
S'Wed Jan 28 23:36:07 2015'
p2869
sg14
S'5679081'
p2870
sg16
g2865
ssS'Atriplex_saccaria'
p2871
(dp2872
g4
I1
sg5
S'Amaranthaceae'
p2873
sg7
I4326
sg8
S'101'
p2874
sg10
S'shape'
p2875
sg12
S'Wed Jan 28 17:39:58 2015'
p2876
sg14
S'5679083'
p2877
sg16
g2871
ssS'Viburnum_sieboldii'
p2878
(dp2879
g4
I1
sg5
S'Adoxaceae'
p2880
sg7
I4326
sg8
S'29'
p2881
sg10
S'shape'
p2882
sg12
S'Thu Jan 29 03:42:51 2015'
p2883
sg14
S'5667693'
p2884
sg16
g2878
ssS'Allium_constrictum'
p2885
(dp2886
g4
I1
sg5
S'Amaryllidaceae'
p2887
sg7
I4326
sg8
S'3'
sg10
S'shape'
p2888
sg12
S'Wed Jan 28 16:51:05 2015'
p2889
sg14
S'5681960'
p2890
sg16
g2885
ssS'Malosma_laurina'
p2891
(dp2892
g4
I1
sg5
S'Anacardiaceae'
p2893
sg7
I4326
sg8
S'61'
p2894
sg10
S'shape'
p2895
sg12
S'Wed Jan 28 23:01:14 2015'
p2896
sg14
S'5679126'
p2897
sg16
g2891
ssS'Hymenocallis_henryae'
p2898
(dp2899
g4
I1
sg5
S'Amaryllidaceae'
p2900
sg7
I4326
sg8
S'9'
sg10
S'shape'
p2901
sg12
S'Thu Jan 29 05:23:28 2015'
p2902
sg14
S'5679979'
p2903
sg16
g2898
ssS'Alternanthera_caracasana'
p2904
(dp2905
g4
I1
sg5
S'Amaranthaceae'
p2906
sg7
I4326
sg8
S'114'
p2907
sg10
S'shape'
p2908
sg12
S'Wed Jan 28 16:50:40 2015'
p2909
sg14
S'5679188'
p2910
sg16
g2904
ssS'Allium_hyalinum'
p2911
(dp2912
g4
I1
sg5
S'Amaryllidaceae'
p2913
sg7
I4326
sg8
S'29'
p2914
sg10
S'shape'
p2915
sg12
S'Wed Jan 28 16:52:46 2015'
p2916
sg14
S'5679515'
p2917
sg16
g2911
ssS'Alternanthera_pungens'
p2918
(dp2919
g4
I1
sg5
S'Amaranthaceae'
p2920
sg7
I4326
sg8
S'41'
p2921
sg10
S'shape'
p2922
sg12
S'Wed Jan 28 16:55:17 2015'
p2923
sg14
S'5679240'
p2924
sg16
g2918
ssS'Justicia_cooleyi'
p2925
(dp2926
g4
I1
sg5
S'Acanthaceae'
p2927
sg7
I4326
sg8
S'6'
sg10
S'shape'
p2928
sg12
S'Wed Jan 28 22:01:51 2015'
p2929
sg14
S'5677444'
p2930
sg16
g2925
ssS'Neokochia_californica'
p2931
(dp2932
g4
I1
sg5
S'Amaranthaceae'
p2933
sg7
I4326
sg8
S'7'
sg10
S'shape'
p2934
sg12
S'Thu Jan 29 04:56:09 2015'
p2935
sg14
S'5679257'
p2936
sg16
g2931
ssS'Atriplex_cuneata'
p2937
(dp2938
g4
I1
sg5
S'Amaranthaceae'
p2939
sg7
I4326
sg8
S'83'
p2940
sg10
S'shape'
p2941
sg12
S'Wed Jan 28 17:38:49 2015'
p2942
sg14
S'5679261'
p2943
sg16
g2937
ssS'Tidestromia_suffruticosa'
p2944
(dp2945
g4
I1
sg5
S'Amaranthaceae'
p2946
sg7
I4326
sg8
S'43'
p2947
sg10
S'shape'
p2948
sg12
S'Thu Jan 29 03:09:51 2015'
p2949
sg14
S'5679263'
p2950
sg16
g2944
ssS'Polycnemum_majus'
p2951
(dp2952
g4
I1
sg5
S'Amaranthaceae'
p2953
sg7
I4326
sg8
S'3'
sg10
S'shape'
p2954
sg12
S'Thu Jan 29 05:41:21 2015'
p2955
sg14
S'5677567'
p2956
sg16
g2951
ssS'Allium_praecox'
p2957
(dp2958
g4
I1
sg5
S'Amaryllidaceae'
p2959
sg7
I4326
sg8
S'11'
p2960
sg10
S'shape'
p2961
sg12
S'Wed Jan 28 16:55:04 2015'
p2962
sg14
S'5679286'
p2963
sg16
g2957
ssS'Allium_membranaceum'
p2964
(dp2965
g4
I1
sg5
S'Amaryllidaceae'
p2966
sg7
I4326
sg8
S'25'
p2967
sg10
S'shape'
p2968
sg12
S'Wed Jan 28 16:53:41 2015'
p2969
sg14
S'5679291'
p2970
sg16
g2964
ssS'Amaranthus_scleropoides'
p2971
(dp2972
g4
I1
sg5
S'Amaranthaceae'
p2973
sg7
I4326
sg8
S'21'
p2974
sg10
S'shape'
p2975
sg12
S'Wed Jan 28 17:01:43 2015'
p2976
sg14
S'5679324'
p2977
sg16
g2971
ssS'Trianthema_portulacastrum'
p2978
(dp2979
g4
I1
sg5
S'Aizoaceae'
p2980
sg7
I4326
sg8
S'408'
p2981
sg10
S'shape'
p2982
sg12
S'Thu Jan 29 03:22:00 2015'
p2983
sg14
S'5679339'
p2984
sg16
g2978
ssS'Viburnum_tinus'
p2985
(dp2986
g4
I1
sg5
S'Adoxaceae'
p2987
sg7
I4326
sg8
S'6'
sg10
S'shape'
p2988
sg12
S'Thu Jan 29 03:43:09 2015'
p2989
sg14
S'5674578'
p2990
sg16
g2985
ssS'Ruellia_strepens'
p2991
(dp2992
g4
I1
sg5
S'Acanthaceae'
p2993
sg7
I4326
sg8
S'878'
p2994
sg10
S'shape'
p2995
sg12
S'Thu Jan 29 01:53:49 2015'
p2996
sg14
S'5678337'
p2997
sg16
g2991
ssS'Atriplex_cordulata'
p2998
(dp2999
g4
I1
sg5
S'Amaranthaceae'
p3000
sg7
I4326
sg8
S'47'
p3001
sg10
S'shape'
p3002
sg12
S'Wed Jan 28 17:38:40 2015'
p3003
sg14
S'5679412'
p3004
sg16
g2998
ssS'Allium_douglasii'
p3005
(dp3006
g4
I1
sg5
S'Amaryllidaceae'
p3007
sg7
I4326
sg8
S'30'
p3008
sg10
S'shape'
p3009
sg12
S'Wed Jan 28 16:51:04 2015'
p3010
sg14
S'5679417'
p3011
sg16
g3005
ssS'Rhus_kearneyi'
p3012
(dp3013
g4
I1
sg5
S'Anacardiaceae'
p3014
sg7
I4326
sg8
S'63'
p3015
sg10
S'shape'
p3016
sg12
S'Thu Jan 29 01:43:50 2015'
p3017
sg14
S'5679439'
p3018
sg16
g3012
ssS'Amaranthus_polygonoides'
p3019
(dp3020
g4
I1
sg5
S'Amaranthaceae'
p3021
sg7
I4326
sg8
S'43'
p3022
sg10
S'shape'
p3023
sg12
S'Wed Jan 28 17:01:12 2015'
p3024
sg14
S'5665866'
p3025
sg16
g3019
ssS'Crinum_americanum'
p3026
(dp3027
g4
I1
sg5
S'Amaryllidaceae'
p3028
sg7
I4326
sg8
S'93'
p3029
sg10
S'shape'
p3030
sg12
S'Wed Jan 28 19:28:23 2015'
p3031
sg14
S'5673237'
p3032
sg16
g3026
ssS'Justicia_pilosella'
p3033
(dp3034
g4
I1
sg5
S'Acanthaceae'
p3035
sg7
I4326
sg8
S'94'
p3036
sg10
S'shape'
p3037
sg12
S'Wed Jan 28 22:07:03 2015'
p3038
sg14
S'5679476'
p3039
sg16
g3033
ssS'Iresine_palmeri'
p3040
(dp3041
g4
I1
sg5
S'Amaranthaceae'
p3042
sg7
I4326
sg8
S'47'
p3043
sg10
S'shape'
p3044
sg12
S'Wed Jan 28 21:52:57 2015'
p3045
sg14
S'5679500'
p3046
sg16
g3040
ssS'Sesuvium_verrucosum'
p3047
(dp3048
g4
I1
sg5
S'Aizoaceae'
p3049
sg7
I4326
sg8
S'224'
p3050
sg10
S'shape'
p3051
sg12
S'Thu Jan 29 02:26:13 2015'
p3052
sg14
S'5679506'
p3053
sg16
g3047
ssS'Zephyranthes_pulchella'
p3054
(dp3055
g4
I1
sg5
S'Amaryllidaceae'
p3056
sg7
I4326
sg8
S'33'
p3057
sg10
S'shape'
p3058
sg12
S'Thu Jan 29 04:48:17 2015'
p3059
sg14
S'5679511'
p3060
sg16
g3054
ssS'Atriplex_patula'
p3061
(dp3062
g4
I1
sg5
S'Amaranthaceae'
p3063
sg7
I4326
sg8
S'713'
p3064
sg10
S'shape'
p3065
sg12
S'Wed Jan 28 17:39:45 2015'
p3066
sg14
S'5679976'
p3067
sg16
g3061
ssS'Corispermum_welshii'
p3068
(dp3069
g4
I1
sg5
S'Amaranthaceae'
p3070
sg7
I4326
sg8
S'4'
sg10
S'shape'
p3071
sg12
S'Wed Jan 28 19:19:40 2015'
p3072
sg14
S'5679685'
p3073
sg16
g3068
ssS'Viburnum_obovatum'
p3074
(dp3075
g4
I1
sg5
S'Adoxaceae'
p3076
sg7
I4326
sg8
S'149'
p3077
sg10
S'shape'
p3078
sg12
S'Thu Jan 29 03:41:19 2015'
p3079
sg14
S'5679601'
p3080
sg16
g3074
ssS'Zephyranthes_smallii'
p3081
(dp3082
g4
I1
sg5
S'Amaryllidaceae'
p3083
sg7
I4326
sg8
S'6'
sg10
S'shape'
p3084
sg12
S'Thu Jan 29 03:50:04 2015'
p3085
sg14
S'5679711'
p3086
sg16
g3081
ssS'Amaranthus_acanthochiton'
p3087
(dp3088
g4
I1
sg5
S'Amaranthaceae'
p3089
sg7
I4326
sg8
S'41'
p3090
sg10
S'shape'
p3091
sg12
S'Wed Jan 28 16:57:06 2015'
p3092
sg14
S'5679730'
p3093
sg16
g3087
ssS'Atriplex_nummularia'
p3094
(dp3095
g4
I1
sg5
S'Amaranthaceae'
p3096
sg7
I4326
sg8
S'3'
sg10
S'shape'
p3097
sg12
S'Thu Jan 29 04:14:01 2015'
p3098
sg14
S'5679733'
p3099
sg16
g3094
ssS'Ruellia_simplex'
p3100
(dp3101
g4
I1
sg5
S'Acanthaceae'
p3102
sg7
I4326
sg8
S'66'
p3103
sg10
S'shape'
p3104
sg12
S'Thu Jan 29 01:57:27 2015'
p3105
sg14
S'5679783'
p3106
sg16
g3100
ssS'Atriplex_bonnevillensis'
p3107
(dp3108
g4
I1
sg5
S'Amaranthaceae'
p3109
sg7
I4326
sg8
S'11'
p3110
sg10
S'shape'
p3111
sg12
S'Wed Jan 28 17:38:33 2015'
p3112
sg14
S'5679844'
p3113
sg16
g3107
ssS'Hymenocallis_franklinensis'
p3114
(dp3115
g4
I1
sg5
S'Amaryllidaceae'
p3116
sg7
I4326
sg8
S'2'
sg10
S'shape'
p3117
sg12
S'Wed Jan 28 21:39:56 2015'
p3118
sg14
S'5679899'
p3119
sg16
g3114
ssS'Chenopodium_incanum'
p3120
(dp3121
g4
I1
sg5
S'Amaranthaceae'
p3122
sg7
I4326
sg8
S'345'
p3123
sg10
S'shape'
p3124
sg12
S'Wed Jan 28 18:52:24 2015'
p3125
sg14
S'5679945'
p3126
sg16
g3120
ssS'Dyschoriste_linearis'
p3127
(dp3128
g4
I1
sg5
S'Acanthaceae'
p3129
sg7
I4326
sg8
S'104'
p3130
sg10
S'shape'
p3131
sg12
S'Wed Jan 28 20:07:35 2015'
p3132
sg14
S'5671213'
p3133
sg16
g3127
ssS'Rhus_copallinum'
p3134
(dp3135
g4
I1
sg5
S'Anacardiaceae'
p3136
sg7
I4326
sg8
S'2832'
p3137
sg10
S'shape'
p3138
sg12
S'Thu Jan 29 05:47:14 2015'
p3139
sg14
S'5679978'
p3140
sg16
g3134
ssS'Atriplex_welshii'
p3141
(dp3142
g4
I1
sg5
S'Amaranthaceae'
p3143
sg7
I4326
sg8
S'3'
sg10
S'shape'
p3144
sg12
S'Wed Jan 28 17:40:25 2015'
p3145
sg14
S'5679990'
p3146
sg16
g3141
ssS'Rhus_aromatica'
p3147
(dp3148
g4
I1
sg5
S'Anacardiaceae'
p3149
sg7
I4326
sg8
S'1756'
p3150
sg10
S'shape'
p3151
sg12
S'Thu Jan 29 01:46:12 2015'
p3152
sg14
S'5680013'
p3153
sg16
g3147
ssS'Allium_elmendorfii'
p3154
(dp3155
g4
I1
sg5
S'Amaryllidaceae'
p3156
sg7
I4326
sg8
S'12'
p3157
sg10
S'shape'
p3158
sg12
S'Wed Jan 28 16:51:35 2015'
p3159
sg14
S'5670658'
p3160
sg16
g3154
ssS'Sambucus_nigra'
p3161
(dp3162
g4
I1
sg5
S'Adoxaceae'
p3163
sg7
I4326
sg8
S'2138'
p3164
sg10
S'shape'
p3165
sg12
S'Thu Jan 29 01:59:59 2015'
p3166
sg14
S'5680024'
p3167
sg16
g3161
ssS'Viburnum_lentago'
p3168
(dp3169
g4
I1
sg5
S'Adoxaceae'
p3170
sg7
I4326
sg8
S'846'
p3171
sg10
S'shape'
p3172
sg12
S'Thu Jan 29 03:39:57 2015'
p3173
sg14
S'5680075'
p3174
sg16
g3168
ssS'Amaranthus_floridanus'
p3175
(dp3176
g4
I1
sg5
S'Amaranthaceae'
p3177
sg7
I4326
sg8
S'13'
p3178
sg10
S'shape'
p3179
sg12
S'Wed Jan 28 16:59:35 2015'
p3180
sg14
S'5680047'
p3181
sg16
g3175
ssS'Allium_burlewii'
p3182
(dp3183
g4
I1
sg5
S'Amaryllidaceae'
p3184
sg7
I4326
sg8
S'12'
p3185
sg10
S'shape'
p3186
sg12
S'Wed Jan 28 16:50:25 2015'
p3187
sg14
S'5679468'
p3188
sg16
g3182
ssS'Hymenocallis_coronaria'
p3189
(dp3190
g4
I1
sg5
S'Amaryllidaceae'
p3191
sg7
I4326
sg8
S'9'
sg10
S'shape'
p3192
sg12
S'Wed Jan 28 21:37:25 2015'
p3193
sg14
S'5680071'
p3194
sg16
g3189
ssS'Justicia_americana'
p3195
(dp3196
g4
I1
sg5
S'Acanthaceae'
p3197
sg7
I4326
sg8
S'1135'
p3198
sg10
S'shape'
p3199
sg12
S'Wed Jan 28 22:07:14 2015'
p3200
sg14
S'5680078'
p3201
sg16
g3195
ssS'Atriplex_pacifica'
p3202
(dp3203
g4
I1
sg5
S'Amaranthaceae'
p3204
sg7
I4326
sg8
S'27'
p3205
sg10
S'shape'
p3206
sg12
S'Thu Jan 29 04:55:54 2015'
p3207
sg14
S'5676086'
p3208
sg16
g3202
ssS'Amaranthus_graecizans'
p3209
(dp3210
g4
I1
sg5
S'Amaranthaceae'
p3211
sg7
I4326
sg8
S'109'
p3212
sg10
S'shape'
p3213
sg12
S'Wed Jan 28 16:57:21 2015'
p3214
sg14
S'5680097'
p3215
sg16
g3209
ssS'Viburnum_opulus'
p3216
(dp3217
g4
I1
sg5
S'Adoxaceae'
p3218
sg7
I4326
sg8
S'642'
p3219
sg10
S'shape'
p3220
sg12
S'Thu Jan 29 03:41:21 2015'
p3221
sg14
S'5665965'
p3222
sg16
g3216
ssS'Narcissus_bulbocodium'
p3223
(dp3224
g4
I1
sg5
S'Amaryllidaceae'
p3225
sg7
I4326
sg8
S'2'
sg10
S'shape'
p3226
sg12
S'Wed Jan 28 23:33:28 2015'
p3227
sg14
S'5680153'
p3228
sg16
g3223
ssS'Justicia_warnockii'
p3229
(dp3230
g4
I1
sg5
S'Acanthaceae'
p3231
sg7
I4326
sg8
S'4'
sg10
S'shape'
p3232
sg12
S'Wed Jan 28 22:08:35 2015'
p3233
sg14
S'5670686'
p3234
sg16
g3229
ssS'Alternanthera_paronychioides'
p3235
(dp3236
g4
I1
sg5
S'Amaranthaceae'
p3237
sg7
I4326
sg8
S'12'
p3238
sg10
S'shape'
p3239
sg12
S'Wed Jan 28 16:54:40 2015'
p3240
sg14
S'5673374'
p3241
sg16
g3235
ssS'Suckleya_suckleyana'
p3242
(dp3243
g4
I1
sg5
S'Amaranthaceae'
p3244
sg7
I4326
sg8
S'71'
p3245
sg10
S'shape'
p3246
sg12
S'Thu Jan 29 05:58:53 2015'
p3247
sg14
S'5680187'
p3248
sg16
g3242
ssS'Salsola_soda'
p3249
(dp3250
g4
I1
sg5
S'Amaranthaceae'
p3251
sg7
I4326
sg8
S'11'
p3252
sg10
S'shape'
p3253
sg12
S'Thu Jan 29 02:08:04 2015'
p3254
sg14
S'5672211'
p3255
sg16
g3249
ssS'Allium_diabolense'
p3256
(dp3257
g4
I1
sg5
S'Amaryllidaceae'
p3258
sg7
I4326
sg8
S'12'
p3259
sg10
S'shape'
p3260
sg12
S'Wed Jan 28 16:51:23 2015'
p3261
sg14
S'5666556'
p3262
sg16
g3256
ssS'Sternbergia_lutea'
p3263
(dp3264
g4
I1
sg5
S'Amaryllidaceae'
p3265
sg7
I4326
sg8
S'1'
sg10
S'shape'
p3266
sg12
S'Thu Jan 29 02:48:03 2015'
p3267
sg14
S'5680209'
p3268
sg16
g3263
ssS'Allium_cuthbertii'
p3269
(dp3270
g4
I1
sg5
S'Amaryllidaceae'
p3271
sg7
I4326
sg8
S'57'
p3272
sg10
S'shape'
p3273
sg12
S'Wed Jan 28 16:51:20 2015'
p3274
sg14
S'5666590'
p3275
sg16
g3269
ssS'Guilleminea_lanuginosa'
p3276
(dp3277
g4
I1
sg5
S'Amaranthaceae'
p3278
sg7
I4326
sg8
S'46'
p3279
sg10
S'shape'
p3280
sg12
S'Wed Jan 28 21:16:27 2015'
p3281
sg14
S'5674218'
p3282
sg16
g3276
ssS'Atriplex_truncata'
p3283
(dp3284
g4
I1
sg5
S'Amaranthaceae'
p3285
sg7
I4326
sg8
S'121'
p3286
sg10
S'shape'
p3287
sg12
S'Thu Jan 29 04:56:01 2015'
p3288
sg14
S'5680255'
p3289
sg16
g3283
ssS'Allium_macropetalum'
p3290
(dp3291
g4
I1
sg5
S'Amaryllidaceae'
p3292
sg7
I4326
sg8
S'204'
p3293
sg10
S'shape'
p3294
sg12
S'Wed Jan 28 16:53:29 2015'
p3295
sg14
S'5680258'
p3296
sg16
g3290
ssS'Chenopodium_berlandieri'
p3297
(dp3298
g4
I1
sg5
S'Amaranthaceae'
p3299
sg7
I4326
sg8
S'1238'
p3300
sg10
S'shape'
p3301
sg12
S'Wed Jan 28 18:49:17 2015'
p3302
sg14
S'5680293'
p3303
sg16
g3297
ssS'Cypselea_humifusa'
p3304
(dp3305
g4
I1
sg5
S'Aizoaceae'
p3306
sg7
I4326
sg8
S'45'
p3307
sg10
S'shape'
p3308
sg12
S'Wed Jan 28 19:42:10 2015'
p3309
sg14
S'5680315'
p3310
sg16
g3304
ssS'Rhus_borealis'
p3311
(dp3312
g4
I1
sg5
S'Anacardiaceae'
p3313
sg7
I4326
sg8
S'2'
sg10
S'shape'
p3314
sg12
S'Thu Jan 29 01:41:37 2015'
p3315
sg14
S'5679195'
p3316
sg16
g3311
ssS'Sagittaria_rigida'
p3317
(dp3318
g4
I1
sg5
S'Alismataceae'
p3319
sg7
I4326
sg8
S'435'
p3320
sg10
S'shape'
p3321
sg12
S'Thu Jan 29 02:08:31 2015'
p3322
sg14
S'5680329'
p3323
sg16
g3317
ssS'Justicia_lanceolata'
p3324
(dp3325
g4
I1
sg5
S'Acanthaceae'
p3326
sg7
I4326
sg8
S'45'
p3327
sg10
S'shape'
p3328
sg12
S'Thu Jan 29 05:25:29 2015'
p3329
sg14
S'5674646'
p3330
sg16
g3324
ssS'Ruellia_caroliniensis'
p3331
(dp3332
g4
I1
sg5
S'Acanthaceae'
p3333
sg7
I4326
sg8
S'1208'
p3334
sg10
S'shape'
p3335
sg12
S'Thu Jan 29 01:53:40 2015'
p3336
sg14
S'5680343'
p3337
sg16
g3331
ssS'Celosia_trigyna'
p3338
(dp3339
g4
I1
sg5
S'Amaranthaceae'
p3340
sg7
I4326
sg8
S'12'
p3341
sg10
S'shape'
p3342
sg12
S'Wed Jan 28 18:46:35 2015'
p3343
sg14
S'5674915'
p3344
sg16
g3338
ssS'Rhus_typhina'
p3345
(dp3346
g4
I1
sg5
S'Anacardiaceae'
p3347
sg7
I4326
sg8
S'748'
p3348
sg10
S'shape'
p3349
sg12
S'Thu Jan 29 01:45:21 2015'
p3350
sg14
S'5673316'
p3351
sg16
g3345
ssS'Sagittaria_engelmanniana'
p3352
(dp3353
g4
I1
sg5
S'Alismataceae'
p3354
sg7
I4326
sg8
S'93'
p3355
sg10
S'shape'
p3356
sg12
S'Thu Jan 29 02:02:35 2015'
p3357
sg14
S'5668157'
p3358
sg16
g3352
ssS'Rhus_ovata'
p3359
(dp3360
g4
I1
sg5
S'Anacardiaceae'
p3361
sg7
I4326
sg8
S'260'
p3362
sg10
S'shape'
p3363
sg12
S'Thu Jan 29 01:44:52 2015'
p3364
sg14
S'5680445'
p3365
sg16
g3359
ssS'Gomphrena_sonorae'
p3366
(dp3367
g4
I1
sg5
S'Amaranthaceae'
p3368
sg7
I4326
sg8
S'231'
p3369
sg10
S'shape'
p3370
sg12
S'Wed Jan 28 21:14:22 2015'
p3371
sg14
S'5680446'
p3372
sg16
g3366
ssS'Neokochia_americana'
p3373
(dp3374
g4
I1
sg5
S'Amaranthaceae'
p3375
sg7
I4326
sg8
S'319'
p3376
sg10
S'shape'
p3377
sg12
S'Wed Jan 28 23:36:02 2015'
p3378
sg14
S'5680497'
p3379
sg16
g3373
ssS'Allium_schoenoprasum'
p3380
(dp3381
g4
I1
sg5
S'Amaryllidaceae'
p3382
sg7
I4326
sg8
S'448'
p3383
sg10
S'shape'
p3384
sg12
S'Wed Jan 28 16:55:59 2015'
p3385
sg14
S'5671953'
p3386
sg16
g3380
ssS'Achyranthes_aspera'
p3387
(dp3388
g4
I1
sg5
S'Amaranthaceae'
p3389
sg7
I4326
sg8
S'271'
p3390
sg10
S'shape'
p3391
sg12
S'Wed Jan 28 16:33:37 2015'
p3392
sg14
S'5680526'
p3393
sg16
g3387
ssS'Carlowrightia_serpyllifolia'
p3394
(dp3395
g4
I1
sg5
S'Acanthaceae'
p3396
sg7
I4326
sg8
S'28'
p3397
sg10
S'shape'
p3398
sg12
S'Wed Jan 28 18:29:34 2015'
p3399
sg14
S'5680720'
p3400
sg16
g3394
ssS'Viburnum_rafinesquianum'
p3401
(dp3402
g4
I1
sg5
S'Adoxaceae'
p3403
sg7
I4326
sg8
S'5'
sg10
S'shape'
p3404
sg12
S'Thu Jan 29 03:42:15 2015'
p3405
sg14
S'5674699'
p3406
sg16
g3401
ssS'Crinum_bulbispermum'
p3407
(dp3408
g4
I1
sg5
S'Amaryllidaceae'
p3409
sg7
I4326
sg8
S'14'
p3410
sg10
S'shape'
p3411
sg12
S'Wed Jan 28 19:20:39 2015'
p3412
sg14
S'5674711'
p3413
sg16
g3407
ssS'Atriplex_rosea'
p3414
(dp3415
g4
I1
sg5
S'Amaranthaceae'
p3416
sg7
I4326
sg8
S'394'
p3417
sg10
S'shape'
p3418
sg12
S'Thu Jan 29 04:55:55 2015'
p3419
sg14
S'5680846'
p3420
sg16
g3414
ssS'Celosia_palmeri'
p3421
(dp3422
g4
I1
sg5
S'Amaranthaceae'
p3423
sg7
I4326
sg8
S'7'
sg10
S'shape'
p3424
sg12
S'Wed Jan 28 18:45:55 2015'
p3425
sg14
S'5680859'
p3426
sg16
g3421
ssS'Axyris_amaranthoides'
p3427
(dp3428
g4
I1
sg5
S'Amaranthaceae'
p3429
sg7
I4326
sg8
S'52'
p3430
sg10
S'shape'
p3431
sg12
S'Wed Jan 28 17:41:29 2015'
p3432
sg14
S'5680906'
p3433
sg16
g3427
ssS'Sesuvium_trianthemoides'
p3434
(dp3435
g4
I1
sg5
S'Aizoaceae'
p3436
sg7
I4326
sg8
S'1'
sg10
S'shape'
p3437
sg12
S'Thu Jan 29 02:24:16 2015'
p3438
sg14
S'5680919'
p3439
sg16
g3434
ssS'Ruellia_drummondiana'
p3440
(dp3441
g4
I1
sg5
S'Acanthaceae'
p3442
sg7
I4326
sg8
S'36'
p3443
sg10
S'shape'
p3444
sg12
S'Thu Jan 29 05:48:46 2015'
p3445
sg14
S'5682271'
p3446
sg16
g3440
ssS'Corispermum_americanum'
p3447
(dp3448
g4
I1
sg5
S'Amaranthaceae'
p3449
sg7
I4326
sg8
S'203'
p3450
sg10
S'shape'
p3451
sg12
S'Wed Jan 28 19:18:03 2015'
p3452
sg14
S'5680982'
p3453
sg16
g3447
ssS'Bassia_scoparia'
p3454
(dp3455
g4
I1
sg5
S'Amaranthaceae'
p3456
sg7
I4326
sg8
S'1258'
p3457
sg10
S'shape'
p3458
sg12
S'Wed Jan 28 17:42:59 2015'
p3459
sg14
S'5681004'
p3460
sg16
g3454
ssS'Cycloloma_atriplicifolium'
p3461
(dp3462
g4
I1
sg5
S'Amaranthaceae'
p3463
sg7
I4326
sg8
S'769'
p3464
sg10
S'shape'
p3465
sg12
S'Wed Jan 28 19:34:46 2015'
p3466
sg14
S'5678558'
p3467
sg16
g3461
ssS'Froelichia_drummondii'
p3468
(dp3469
g4
I1
sg5
S'Amaranthaceae'
p3470
sg7
I4326
sg8
S'6'
sg10
S'shape'
p3471
sg12
S'Thu Jan 29 05:17:26 2015'
p3472
sg14
S'5681050'
p3473
sg16
g3468
ssS'Sarcocornia_utahensis'
p3474
(dp3475
g4
I1
sg5
S'Amaranthaceae'
p3476
sg7
I4326
sg8
S'25'
p3477
sg10
S'shape'
p3478
sg12
S'Thu Jan 29 02:07:54 2015'
p3479
sg14
S'5672489'
p3480
sg16
g3474
ssS'Allium_fimbriatum'
p3481
(dp3482
g4
I1
sg5
S'Amaryllidaceae'
p3483
sg7
I4326
sg8
S'42'
p3484
sg10
S'shape'
p3485
sg12
S'Wed Jan 28 16:49:18 2015'
p3486
sg14
S'5677458'
p3487
sg16
g3481
ssS'Ruellia_drushelii'
p3488
(dp3489
g4
I1
sg5
S'Acanthaceae'
p3490
sg7
I4326
sg8
S'1'
sg10
S'shape'
p3491
sg12
S'Thu Jan 29 05:49:00 2015'
p3492
sg14
S'5681071'
p3493
sg16
g3488
ssS'Allium_cernuum'
p3494
(dp3495
g4
I1
sg5
S'Amaryllidaceae'
p3496
sg7
I4326
sg8
S'2372'
p3497
sg10
S'shape'
p3498
sg12
S'Thu Jan 29 04:11:38 2015'
p3499
sg14
S'5681152'
p3500
sg16
g3494
ssS'Allium_brevistylum'
p3501
(dp3502
g4
I1
sg5
S'Amaryllidaceae'
p3503
sg7
I4326
sg8
S'140'
p3504
sg10
S'shape'
p3505
sg12
S'Wed Jan 28 16:50:20 2015'
p3506
sg14
S'5681182'
p3507
sg16
g3501
ssS'Anisacanthus_linearis'
p3508
(dp3509
g4
I1
sg5
S'Acanthaceae'
p3510
sg7
I4326
sg8
S'15'
p3511
sg10
S'shape'
p3512
sg12
S'Wed Jan 28 17:06:19 2015'
p3513
sg14
S'5681189'
p3514
sg16
g3508
ssS'Chenopodium_hians'
p3515
(dp3516
g4
I1
sg5
S'Amaranthaceae'
p3517
sg7
I4326
sg8
S'44'
p3518
sg10
S'shape'
p3519
sg12
S'Wed Jan 28 18:49:19 2015'
p3520
sg14
S'5681258'
p3521
sg16
g3515
ssS'Atriplex_powellii'
p3522
(dp3523
g4
I1
sg5
S'Amaranthaceae'
p3524
sg7
I4326
sg8
S'110'
p3525
sg10
S'shape'
p3526
sg12
S'Wed Jan 28 17:39:49 2015'
p3527
sg14
S'5681279'
p3528
sg16
g3522
ssS'Sagittaria_macrocarpa'
p3529
(dp3530
g4
I1
sg5
S'Alismataceae'
p3531
sg7
I4326
sg8
S'4'
sg10
S'shape'
p3532
sg12
S'Thu Jan 29 02:05:36 2015'
p3533
sg14
S'5681341'
p3534
sg16
g3529
ssS'Chenopodium_polyspermum'
p3535
(dp3536
g4
I1
sg5
S'Amaranthaceae'
p3537
sg7
I4326
sg8
S'54'
p3538
sg10
S'shape'
p3539
sg12
S'Wed Jan 28 18:55:07 2015'
p3540
sg14
S'5682338'
p3541
sg16
g3535
ssS'Viburnum_recognitum'
p3542
(dp3543
g4
I1
sg5
S'Adoxaceae'
p3544
sg7
I4326
sg8
S'349'
p3545
sg10
S'shape'
p3546
sg12
S'Thu Jan 29 03:51:20 2015'
p3547
sg14
S'5681368'
p3548
sg16
g3542
ssS'Amaranthus_watsonii'
p3549
(dp3550
g4
I1
sg5
S'Amaranthaceae'
p3551
sg7
I4326
sg8
S'87'
p3552
sg10
S'shape'
p3553
sg12
S'Wed Jan 28 17:02:41 2015'
p3554
sg14
S'5672526'
p3555
sg16
g3549
ssS'Agapanthus_praecox'
p3556
(dp3557
g4
I1
sg5
S'Amaryllidaceae'
p3558
sg7
I4326
sg8
S'1'
sg10
S'shape'
p3559
sg12
S'Wed Jan 28 16:47:41 2015'
p3560
sg14
S'5681432'
p3561
sg16
g3556
ssS'Mesembryanthemum_crystallinum'
p3562
(dp3563
g4
I1
sg5
S'Aizoaceae'
p3564
sg7
I4326
sg8
S'40'
p3565
sg10
S'shape'
p3566
sg12
S'Wed Jan 28 23:11:52 2015'
p3567
sg14
S'5681458'
p3568
sg16
g3562
ssS'Toxicodendron_pubescens'
p3569
(dp3570
g4
I1
sg5
S'Anacardiaceae'
p3571
sg7
I4326
sg8
S'680'
p3572
sg10
S'shape'
p3573
sg12
S'Thu Jan 29 03:11:40 2015'
p3574
sg14
S'5681468'
p3575
sg16
g3569
ssS'Rhus_glabra'
p3576
(dp3577
g4
I1
sg5
S'Anacardiaceae'
p3578
sg7
I4326
sg8
S'2483'
p3579
sg10
S'shape'
p3580
sg12
S'Thu Jan 29 01:42:48 2015'
p3581
sg14
S'5680116'
p3582
sg16
g3576
ssS'Justicia_longii'
p3583
(dp3584
g4
I1
sg5
S'Acanthaceae'
p3585
sg7
I4326
sg8
S'127'
p3586
sg10
S'shape'
p3587
sg12
S'Thu Jan 29 05:25:52 2015'
p3588
sg14
S'5681487'
p3589
sg16
g3583
ssS'Hygrophila_costata'
p3590
(dp3591
g4
I1
sg5
S'Acanthaceae'
p3592
sg7
I4326
sg8
S'24'
p3593
sg10
S'shape'
p3594
sg12
S'Wed Jan 28 21:45:04 2015'
p3595
sg14
S'5681506'
p3596
sg16
g3590
ssS'Gomphrena_nealleyi'
p3597
(dp3598
g4
I1
sg5
S'Amaranthaceae'
p3599
sg7
I4326
sg8
S'25'
p3600
sg10
S'shape'
p3601
sg12
S'Wed Jan 28 21:13:58 2015'
p3602
sg14
S'5681533'
p3603
sg16
g3597
ssS'Suaeda_nigra'
p3604
(dp3605
g4
I1
sg5
S'Amaranthaceae'
p3606
sg7
I4326
sg8
S'137'
p3607
sg10
S'shape'
p3608
sg12
S'Thu Jan 29 02:55:54 2015'
p3609
sg14
S'5681547'
p3610
sg16
g3604
ssS'Viburnum_rufidulum'
p3611
(dp3612
g4
I1
sg5
S'Adoxaceae'
p3613
sg7
I4326
sg8
S'1575'
p3614
sg10
S'shape'
p3615
sg12
S'Thu Jan 29 03:42:24 2015'
p3616
sg14
S'5669132'
p3617
sg16
g3611
ssS'Viburnum_molle'
p3618
(dp3619
g4
I1
sg5
S'Adoxaceae'
p3620
sg7
I4326
sg8
S'110'
p3621
sg10
S'shape'
p3622
sg12
S'Thu Jan 29 03:40:24 2015'
p3623
sg14
S'5677257'
p3624
sg16
g3618
ssS'Hymenocallis_liriosme'
p3625
(dp3626
g4
I1
sg5
S'Amaryllidaceae'
p3627
sg7
I4326
sg8
S'92'
p3628
sg10
S'shape'
p3629
sg12
S'Wed Jan 28 21:40:27 2015'
p3630
sg14
S'5681637'
p3631
sg16
g3625
ssS'Habranthus_longifolius'
p3632
(dp3633
g4
I1
sg5
S'Amaryllidaceae'
p3634
sg7
I4326
sg8
S'10'
p3635
sg10
S'shape'
p3636
sg12
S'Wed Jan 28 21:19:13 2015'
p3637
sg14
S'5681683'
p3638
sg16
g3632
ssS'Amaranthus_dubius'
p3639
(dp3640
g4
I1
sg5
S'Amaranthaceae'
p3641
sg7
I4326
sg8
S'62'
p3642
sg10
S'shape'
p3643
sg12
S'Wed Jan 28 16:59:24 2015'
p3644
sg14
S'5681693'
p3645
sg16
g3639
ssS'Allium_sharsmithiae'
p3646
(dp3647
g4
I1
sg5
S'Amaryllidaceae'
p3648
sg7
I4326
sg8
S'15'
p3649
sg10
S'shape'
p3650
sg12
S'Wed Jan 28 16:56:04 2015'
p3651
sg14
S'5682040'
p3652
sg16
g3646
ssS'Alisma_plantago-aquatica'
p3653
(dp3654
g4
I1
sg5
S'Alismataceae'
p3655
sg7
I4326
sg8
S'8'
sg10
S'shape'
p3656
sg12
S'Wed Jan 28 16:55:07 2015'
p3657
sg14
S'5681799'
p3658
sg16
g3653
ssS'Spinacia_oleracea'
p3659
(dp3660
g4
I1
sg5
S'Amaranthaceae'
p3661
sg7
I4326
sg8
S'23'
p3662
sg10
S'shape'
p3663
sg12
S'Thu Jan 29 02:46:53 2015'
p3664
sg14
S'5681815'
p3665
sg16
g3659
ssS'Allium_crenulatum'
p3666
(dp3667
g4
I1
sg5
S'Amaryllidaceae'
p3668
sg7
I4326
sg8
S'99'
p3669
sg10
S'shape'
p3670
sg12
S'Wed Jan 28 16:51:12 2015'
p3671
sg14
S'5681900'
p3672
sg16
g3666
ssS'Allium_jepsonii'
p3673
(dp3674
g4
I1
sg5
S'Amaryllidaceae'
p3675
sg7
I4326
sg8
S'21'
p3676
sg10
S'shape'
p3677
sg12
S'Wed Jan 28 16:52:53 2015'
p3678
sg14
S'5681677'
p3679
sg16
g3673
ssS'Chenopodium_californicum'
p3680
(dp3681
g4
I1
sg5
S'Amaranthaceae'
p3682
sg7
I4326
sg8
S'87'
p3683
sg10
S'shape'
p3684
sg12
S'Wed Jan 28 18:49:44 2015'
p3685
sg14
S'5681983'
p3686
sg16
g3680
ssS'Graptophyllum_pictum'
p3687
(dp3688
g4
I1
sg5
S'Acanthaceae'
p3689
sg7
I4326
sg8
S'8'
sg10
S'shape'
p3690
sg12
S'Wed Jan 28 21:14:57 2015'
p3691
sg14
S'5682002'
p3692
sg16
g3687
ssS'Atriplex_laciniata'
p3693
(dp3694
g4
I1
sg5
S'Amaranthaceae'
p3695
sg7
I4326
sg8
S'5'
sg10
S'shape'
p3696
sg12
S'Wed Jan 28 17:39:20 2015'
p3697
sg14
S'5682020'
p3698
sg16
g3693
ssS'Guilleminea_densa'
p3699
(dp3700
g4
I1
sg5
S'Amaranthaceae'
p3701
sg7
I4326
sg8
S'297'
p3702
sg10
S'shape'
p3703
sg12
S'Wed Jan 28 21:16:04 2015'
p3704
sg14
S'5682021'
p3705
sg16
g3699
ssS'Yeatesia_platystegia'
p3706
(dp3707
g4
I1
sg5
S'Acanthaceae'
p3708
sg7
I4326
sg8
S'11'
p3709
sg10
S'shape'
p3710
sg12
S'Thu Jan 29 03:48:07 2015'
p3711
sg14
S'5668454'
p3712
sg16
g3706
ssS'Rhus_lanceolata'
p3713
(dp3714
g4
I1
sg5
S'Anacardiaceae'
p3715
sg7
I4326
sg8
S'138'
p3716
sg10
S'shape'
p3717
sg12
S'Thu Jan 29 01:44:09 2015'
p3718
sg14
S'5670675'
p3719
sg16
g3713
ssS'Monolepis_nuttalliana'
p3720
(dp3721
g4
I1
sg5
S'Amaranthaceae'
p3722
sg7
I4326
sg8
S'913'
p3723
sg10
S'shape'
p3724
sg12
S'Wed Jan 28 23:26:54 2015'
p3725
sg14
S'5682133'
p3726
sg16
g3720
ssS'Corispermum_ochotense'
p3727
(dp3728
g4
I1
sg5
S'Amaranthaceae'
p3729
sg7
I4326
sg8
S'16'
p3730
sg10
S'shape'
p3731
sg12
S'Wed Jan 28 19:15:49 2015'
p3732
sg14
S'5682138'
p3733
sg16
g3727
ssS'Atriplex_canescens'
p3734
(dp3735
g4
I1
sg5
S'Amaranthaceae'
p3736
sg7
I4326
sg8
S'2968'
p3737
sg10
S'shape'
p3738
sg12
S'Thu Jan 29 04:13:48 2015'
p3739
sg14
S'5682176'
p3740
sg16
g3734
ssS'Sagittaria_fasciculata'
p3741
(dp3742
g4
I1
sg5
S'Alismataceae'
p3743
sg7
I4326
sg8
S'13'
p3744
sg10
S'shape'
p3745
sg12
S'Thu Jan 29 02:00:04 2015'
p3746
sg14
S'5682180'
p3747
sg16
g3741
ssS'Polycnemum_arvense'
p3748
(dp3749
g4
I1
sg5
S'Amaranthaceae'
p3750
sg7
I4326
sg8
S'1'
sg10
S'shape'
p3751
sg12
S'Thu Jan 29 01:11:58 2015'
p3752
sg14
S'5680491'
p3753
sg16
g3748
ssS'Ruellia_humilis'
p3754
(dp3755
g4
I1
sg5
S'Acanthaceae'
p3756
sg7
I4326
sg8
S'1043'
p3757
sg10
S'shape'
p3758
sg12
S'Thu Jan 29 01:54:44 2015'
p3759
sg14
S'5682203'
p3760
sg16
g3754
ssS'Zephyranthes_drummondii'
p3761
(dp3762
g4
I1
sg5
S'Amaryllidaceae'
p3763
sg7
I4326
sg8
S'44'
p3764
sg10
S'shape'
p3765
sg12
S'Thu Jan 29 03:49:41 2015'
p3766
sg14
S'5682214'
p3767
sg16
g3761
ssS'Avicennia_marina'
p3768
(dp3769
g4
I1
sg5
S'Acanthaceae'
p3770
sg7
I4326
sg8
S'2'
sg10
S'shape'
p3771
sg12
S'Wed Jan 28 17:41:02 2015'
p3772
sg14
S'5682235'
p3773
sg16
g3768
ssS'Suaeda_esteroa'
p3774
(dp3775
g4
I1
sg5
S'Amaranthaceae'
p3776
sg7
I4326
sg8
S'17'
p3777
sg10
S'shape'
p3778
sg12
S'Thu Jan 29 02:55:40 2015'
p3779
sg14
S'5680776'
p3780
sg16
g3774
ssS'Allium_neapolitanum'
p3781
(dp3782
g4
I1
sg5
S'Amaryllidaceae'
p3783
sg7
I4326
sg8
S'13'
p3784
sg10
S'shape'
p3785
sg12
S'Wed Jan 28 16:54:07 2015'
p3786
sg14
S'5671741'
p3787
sg16
g3781
ssS'Elytraria_caroliniensis'
p3788
(dp3789
g4
I1
sg5
S'Acanthaceae'
p3790
sg7
I4326
sg8
S'58'
p3791
sg10
S'shape'
p3792
sg12
S'Thu Jan 29 05:11:46 2015'
p3793
sg14
S'5676185'
p3794
sg16
g3788
ssS'Ruellia_purshiana'
p3795
(dp3796
g4
I1
sg5
S'Acanthaceae'
p3797
sg7
I4326
sg8
S'52'
p3798
sg10
S'shape'
p3799
sg12
S'Thu Jan 29 01:57:17 2015'
p3800
sg14
S'5682276'
p3801
sg16
g3795
ssS'Chenopodium_neomexicanum'
p3802
(dp3803
g4
I1
sg5
S'Amaranthaceae'
p3804
sg7
I4326
sg8
S'108'
p3805
sg10
S'shape'
p3806
sg12
S'Wed Jan 28 18:50:40 2015'
p3807
sg14
S'5682299'
p3808
sg16
g3802
ssS'Zephyranthes_treatiae'
p3809
(dp3810
g4
I1
sg5
S'Amaryllidaceae'
p3811
sg7
I4326
sg8
S'111'
p3812
sg10
S'shape'
p3813
sg12
S'Thu Jan 29 04:18:32 2015'
p3814
sg14
S'5673634'
p3815
sg16
g3809
ssS'Allium_scilloides'
p3816
(dp3817
g4
I1
sg5
S'Amaryllidaceae'
p3818
sg7
I4326
sg8
S'4'
sg10
S'shape'
p3819
sg12
S'Wed Jan 28 16:55:46 2015'
p3820
sg14
S'5682314'
p3821
sg16
g3816
ssS'Toxicodendron_rydbergii'
p3822
(dp3823
g4
I1
sg5
S'Anacardiaceae'
p3824
sg7
I4326
sg8
S'734'
p3825
sg10
S'shape'
p3826
sg12
S'Thu Jan 29 03:11:56 2015'
p3827
sg14
S'5674495'
p3828
sg16
g3822
ssS'Chenopodium_bonus-henricus'
p3829
(dp3830
g4
I1
sg5
S'Amaranthaceae'
p3831
sg7
I4326
sg8
S'27'
p3832
sg10
S'shape'
p3833
sg12
S'Wed Jan 28 18:49:34 2015'
p3834
sg14
S'5680044'
p3835
sg16
g3829
ssS'Allium_yosemitense'
p3836
(dp3837
g4
I1
sg5
S'Amaryllidaceae'
p3838
sg7
I4326
sg8
S'3'
sg10
S'shape'
p3839
sg12
S'Wed Jan 28 16:56:59 2015'
p3840
sg14
S'5682437'
p3841
sg16
g3836
ssS'Amaranthus_tuberculatus'
p3842
(dp3843
g4
I1
sg5
S'Amaranthaceae'
p3844
sg7
I4326
sg8
S'1145'
p3845
sg10
S'shape'
p3846
sg12
S'Wed Jan 28 17:02:26 2015'
p3847
sg14
S'5682484'
p3848
sg16
g3842
ssS'Blechum_pyramidatum'
p3849
(dp3850
g4
I1
sg5
S'Acanthaceae'
p3851
sg7
I4326
sg8
S'430'
p3852
sg10
S'shape'
p3853
sg12
S'Wed Jan 28 17:50:48 2015'
p3854
sg14
S'5677699'
p3855
sg16
g3849
ssS'Galanthus_nivalis'
p3856
(dp3857
g4
I1
sg5
S'Amaryllidaceae'
p3858
sg7
I4326
sg8
S'39'
p3859
sg10
S'shape'
p3860
sg12
S'Wed Jan 28 21:05:24 2015'
p3861
sg14
S'5682503'
p3862
sg16
g3856
ssS'Acanthus_mollis'
p3863
(dp3864
g4
I1
sg5
S'Acanthaceae'
p3865
sg7
I4326
sg8
S'4'
sg10
S'shape'
p3866
sg12
S'Wed Jan 28 16:36:19 2015'
p3867
sg14
S'5680933'
p3868
sg16
g3863
ssS'Atriplex_graciliflora'
p3869
(dp3870
g4
I1
sg5
S'Amaranthaceae'
p3871
sg7
I4326
sg8
S'26'
p3872
sg10
S'shape'
p3873
sg12
S'Wed Jan 28 17:38:20 2015'
p3874
sg14
S'5682521'
p3875
sg16
g3869
ss.