(dp1
S'Hemigraphis_reptans'
p2
(dp3
S'occurrenceID'
p4
S'5673147'
p5
sS'family'
p6
S'Acanthaceae'
p7
sS'downloadedTime'
p8
S'Wed Jan 28 21:24:50 2015'
p9
sS'shapefile'
p10
S'shape'
p11
sS'group'
p12
I1
sS'epsgCode'
p13
I4326
sS'species'
p14
S'Hemigraphis_reptans'
p15
sS'occurencesCount'
p16
S'1'
ssS'Justicia_carnea'
p17
(dp18
g4
S'5676275'
p19
sg6
S'Acanthaceae'
p20
sg8
S'Wed Jan 28 22:02:20 2015'
p21
sg10
S'shape'
p22
sg12
I1
sg13
I4326
sg14
S'Justicia_carnea'
p23
sg16
S'2'
ssS'Sanchezia_parvibracteata'
p24
(dp25
g4
S'5673402'
p26
sg6
S'Acanthaceae'
p27
sg8
S'Thu Jan 29 04:32:06 2015'
p28
sg10
S'shape'
p29
sg12
I1
sg13
I4326
sg14
S'Sanchezia_parvibracteata'
p30
sg16
S'1'
ssS'Eranthemum_pulchellum'
p31
(dp32
g4
S'5670543'
p33
sg6
S'Acanthaceae'
p34
sg8
S'Wed Jan 28 20:39:18 2015'
p35
sg10
S'shape'
p36
sg12
I1
sg13
I4326
sg14
S'Eranthemum_pulchellum'
p37
sg16
S'2'
ssS'Agrimonia_parviflora'
p38
(dp39
g4
S'5668972'
p40
sg6
S'Rosaceae'
p41
sg8
S'Wed Jan 28 16:47:25 2015'
p42
sg10
S'shape'
p43
sg12
I16
sg13
I4326
sg14
S'Agrimonia_parviflora'
p44
sg16
S'949'
p45
ssS'Acalypha_monostachya'
p46
(dp47
g4
S'5667947'
p48
sg6
S'Euphorbiaceae'
p49
sg8
S'Wed Jan 28 16:36:10 2015'
p50
sg10
S'shape'
p51
sg12
I8
sg13
I4326
sg14
S'Acalypha_monostachya'
p52
sg16
S'162'
p53
ss.