(dp1
S'Scenariobf006-gd4570'
p2
(dp3
S'layers'
p4
(lp5
S'6302'
p6
aS'6303'
p7
aS'6306'
p8
aS'6305'
p9
aS'6319'
p10
aS'6308'
p11
aS'6309'
p12
aS'6310'
p13
aS'6311'
p14
aS'6304'
p15
aS'6318'
p16
aS'6307'
p17
aS'6315'
p18
aS'6316'
p19
aS'6317'
p20
aS'6313'
p21
aS'6320'
p22
aS'6312'
p23
aS'6314'
p24
aS'6346'
p25
aS'6348'
p26
aS'6347'
p27
aS'6354'
p28
aS'6345'
p29
aS'6166'
p30
asS'code'
p31
g2
sS'title'
p32
S'Climate Scenariogd4570'
p33
sS'created_at'
p34
S'2015-03-17 10:44:23'
p35
sS'author'
p36
S'CGW'
p37
sS'bioclim'
p38
S'gd4570'
p39
sS'units'
p40
S'dd'
p41
sS'model'
p42
S'clim'
p43
sS'resolution'
p44
S'30'
p45
sS'epsgCode'
p46
I4326
sS'ScenarioID'
p47
S'1343'
p48
ssS'Scenariobf006-he6070'
p49
(dp50
g4
(lp51
S'6356'
p52
aS'6360'
p53
aS'6364'
p54
aS'6362'
p55
aS'6363'
p56
aS'6359'
p57
aS'6365'
p58
aS'6358'
p59
aS'6372'
p60
aS'6361'
p61
aS'6369'
p62
aS'6370'
p63
aS'6371'
p64
aS'6357'
p65
aS'6366'
p66
aS'6374'
p67
aS'6367'
p68
aS'6373'
p69
aS'6368'
p70
ag25
ag26
ag27
ag28
ag29
ag30
asg31
g49
sg32
S'Climate Scenariohe6070'
p71
sg34
S'2015-03-17 10:44:25'
p72
sg36
g37
sg38
S'he6070'
p73
sg40
g41
sg42
S'clim'
p74
sg44
g45
sg46
I4326
sg47
S'1347'
p75
ssS'Scenariobf006-he2670'
p76
(dp77
g4
(lp78
S'6147'
p79
aS'6160'
p80
aS'6155'
p81
aS'6164'
p82
aS'6153'
p83
aS'6154'
p84
aS'6150'
p85
aS'6156'
p86
aS'6149'
p87
aS'6163'
p88
aS'6152'
p89
aS'6151'
p90
aS'6161'
p91
aS'6162'
p92
aS'6148'
p93
aS'6159'
p94
aS'6158'
p95
aS'6157'
p96
aS'6165'
p97
ag25
ag26
ag27
ag28
ag29
ag30
asg31
g76
sg32
S'Climate Scenariohe2670'
p98
sg34
S'2015-03-17 10:44:19'
p99
sg36
g37
sg38
S'he2670'
p100
sg40
g41
sg42
S'clim'
p101
sg44
g45
sg46
I4326
sg47
S'1336'
p102
ssS'Scenariobf006-he8550'
p103
(dp104
g4
(lp105
S'6169'
p106
aS'6182'
p107
aS'6177'
p108
aS'6186'
p109
aS'6178'
p110
aS'6176'
p111
aS'6172'
p112
aS'6175'
p113
aS'6171'
p114
aS'6185'
p115
aS'6181'
p116
aS'6173'
p117
aS'6183'
p118
aS'6184'
p119
aS'6170'
p120
aS'6187'
p121
aS'6180'
p122
aS'6179'
p123
aS'6174'
p124
ag25
ag26
ag27
ag28
ag29
ag30
asg31
g103
sg32
S'Climate Scenariohe8550'
p125
sg34
S'2015-03-17 10:44:18'
p126
sg36
g37
sg38
S'he8550'
p127
sg40
g41
sg42
S'clim'
p128
sg44
g45
sg46
I4326
sg47
S'1335'
p129
ssS'Scenariobf006-gs4550'
p130
(dp131
g4
(lp132
S'6400'
p133
aS'6406'
p134
aS'6401'
p135
aS'6410'
p136
aS'6402'
p137
aS'6397'
p138
aS'6398'
p139
aS'6399'
p140
aS'6403'
p141
aS'6404'
p142
aS'6405'
p143
aS'6382'
p144
aS'6407'
p145
aS'6408'
p146
aS'6409'
p147
aS'6381'
p148
aS'6380'
p149
aS'6379'
p150
aS'6411'
p151
ag25
ag26
ag27
ag28
ag29
ag30
asg31
g130
sg32
S'Climate Scenariogs4550'
p152
sg34
S'2015-03-17 10:44:24'
p153
sg36
g37
sg38
S'gs4550'
p154
sg40
g41
sg42
S'clim'
p155
sg44
g45
sg46
I4326
sg47
S'1345'
p156
ssS'Scenariobf006-he4550'
p157
(dp158
g4
(lp159
S'6321'
p160
aS'6322'
p161
aS'6378'
p162
aS'6389'
p163
aS'6395'
p164
aS'6390'
p165
aS'6388'
p166
aS'6324'
p167
aS'6387'
p168
aS'6323'
p169
aS'6376'
p170
aS'6392'
p171
aS'6325'
p172
aS'6393'
p173
aS'6394'
p174
aS'6391'
p175
aS'6396'
p176
aS'6375'
p177
aS'6377'
p178
ag25
ag26
ag27
ag28
ag29
ag30
asg31
g157
sg32
S'Climate Scenariohe4550'
p179
sg34
S'2015-03-17 10:44:23'
p180
sg36
g37
sg38
S'he4550'
p181
sg40
g41
sg42
S'clim'
p182
sg44
g45
sg46
I4326
sg47
S'1344'
p183
ssS'Scenariobf006-gs4570'
p184
(dp185
g4
(lp186
S'6128'
p187
aS'6129'
p188
aS'6141'
p189
aS'6131'
p190
aS'6145'
p191
aS'6133'
p192
aS'6134'
p193
aS'6135'
p194
aS'6136'
p195
aS'6137'
p196
aS'6130'
p197
aS'6139'
p198
aS'6140'
p199
aS'6132'
p200
aS'6142'
p201
aS'6143'
p202
aS'6144'
p203
aS'6138'
p204
aS'6146'
p205
ag25
ag26
ag27
ag28
ag29
ag30
asg31
g184
sg32
S'Climate Scenariogs4570'
p206
sg34
S'2015-03-17 10:44:22'
p207
sg36
g37
sg38
S'gs4570'
p208
sg40
g41
sg42
S'clim'
p209
sg44
g45
sg46
I4326
sg47
S'1341'
p210
ssS'Scenariobf006-he4570'
p211
(dp212
g4
(lp213
S'6415'
p214
aS'6386'
p215
aS'6416'
p216
aS'6425'
p217
aS'6420'
p218
aS'6417'
p219
aS'6419'
p220
aS'6412'
p221
aS'6413'
p222
aS'6414'
p223
aS'6418'
p224
aS'6384'
p225
aS'6385'
p226
aS'6421'
p227
aS'6422'
p228
aS'6423'
p229
aS'6424'
p230
aS'6383'
p231
aS'6426'
p232
ag25
ag26
ag27
ag28
ag29
ag30
asg31
g211
sg32
S'Climate Scenariohe4570'
p233
sg34
S'2015-03-17 10:44:26'
p234
sg36
g37
sg38
S'he4570'
p235
sg40
g41
sg42
S'clim'
p236
sg44
g45
sg46
I4326
sg47
S'1349'
p237
ssS'Scenariobf006-ac4570'
p238
(dp239
g4
(lp240
S'6283'
p241
aS'6287'
p242
aS'6286'
p243
aS'6292'
p244
aS'6290'
p245
aS'6291'
p246
aS'6289'
p247
aS'6285'
p248
aS'6299'
p249
aS'6288'
p250
aS'6296'
p251
aS'6297'
p252
aS'6298'
p253
aS'6284'
p254
aS'6293'
p255
aS'6301'
p256
aS'6294'
p257
aS'6300'
p258
aS'6295'
p259
ag25
ag26
ag27
ag28
ag29
ag30
asg31
g238
sg32
S'Climate Scenarioac4570'
p260
sg34
S'2015-03-17 10:44:22'
p261
sg36
g37
sg38
S'ac4570'
p262
sg40
g41
sg42
S'clim'
p263
sg44
g45
sg46
I4326
sg47
S'1342'
p264
ssS'Scenariobf006-gd4550'
p265
(dp266
g4
(lp267
S'6188'
p268
aS'6189'
p269
aS'6192'
p270
aS'6196'
p271
aS'6194'
p272
aS'6195'
p273
aS'6191'
p274
aS'6197'
p275
aS'6190'
p276
aS'6204'
p277
aS'6193'
p278
aS'6201'
p279
aS'6202'
p280
aS'6203'
p281
aS'6199'
p282
aS'6198'
p283
aS'6206'
p284
aS'6205'
p285
aS'6200'
p286
ag25
ag26
ag27
ag28
ag29
ag30
asg31
g265
sg32
S'Climate Scenariogd4550'
p287
sg34
S'2015-03-17 10:44:19'
p288
sg36
g37
sg38
S'gd4550'
p289
sg40
g41
sg42
S'clim'
p290
sg44
g45
sg46
I4326
sg47
S'1337'
p291
ssS'Scenariobf006-he6050'
p292
(dp293
g4
(lp294
S'6252'
p295
aS'6258'
p296
aS'6248'
p297
aS'6262'
p298
aS'6254'
p299
aS'6245'
p300
aS'6253'
p301
aS'6251'
p302
aS'6247'
p303
aS'6261'
p304
aS'6250'
p305
aS'6249'
p306
aS'6259'
p307
aS'6260'
p308
aS'6246'
p309
aS'6263'
p310
aS'6256'
p311
aS'6255'
p312
aS'6257'
p313
ag25
ag26
ag27
ag28
ag29
ag30
asg31
g292
sg32
S'Climate Scenariohe6050'
p314
sg34
S'2015-03-17 10:44:21'
p315
sg36
g37
sg38
S'he6050'
p316
sg40
g41
sg42
S'clim'
p317
sg44
g45
sg46
I4326
sg47
S'1340'
p318
ssS'Scenariobf006-ac4550'
p319
(dp320
g4
(lp321
S'6326'
p322
aS'6339'
p323
aS'6334'
p324
aS'6343'
p325
aS'6335'
p326
aS'6333'
p327
aS'6329'
p328
aS'6332'
p329
aS'6328'
p330
aS'6342'
p331
aS'6331'
p332
aS'6330'
p333
aS'6340'
p334
aS'6341'
p335
aS'6327'
p336
aS'6344'
p337
aS'6337'
p338
aS'6336'
p339
aS'6338'
p340
ag25
ag26
ag27
ag28
ag29
ag30
asg31
g319
sg32
S'Climate Scenarioac4550'
p341
sg34
S'2015-03-17 10:44:26'
p342
sg36
g37
sg38
S'ac4550'
p343
sg40
g41
sg42
S'clim'
p344
sg44
g45
sg46
I4326
sg47
S'1348'
p345
ssS'Scenariobf006-he8570'
p346
(dp347
g4
(lp348
S'6214'
p349
aS'6211'
p350
aS'6210'
p351
aS'6224'
p352
aS'6216'
p353
aS'6207'
p354
aS'6215'
p355
aS'6213'
p356
aS'6209'
p357
aS'6223'
p358
aS'6212'
p359
aS'6220'
p360
aS'6221'
p361
aS'6222'
p362
aS'6208'
p363
aS'6225'
p364
aS'6218'
p365
aS'6217'
p366
aS'6219'
p367
ag25
ag26
ag27
ag28
ag29
ag30
asg31
g346
sg32
S'Climate Scenariohe8570'
p368
sg34
S'2015-03-17 10:44:20'
p369
sg36
g37
sg38
S'he8570'
p370
sg40
g41
sg42
S'clim'
p371
sg44
g45
sg46
I4326
sg47
S'1338'
p372
ssS'Scenariobf006-current'
p373
(dp374
g4
(lp375
S'6271'
p376
aS'6277'
p377
aS'6272'
p378
aS'6281'
p379
aS'6273'
p380
aS'6264'
p381
aS'6267'
p382
aS'6270'
p383
aS'6266'
p384
aS'6280'
p385
aS'6269'
p386
aS'6268'
p387
aS'6278'
p388
aS'6279'
p389
aS'6265'
p390
aS'6282'
p391
aS'6275'
p392
aS'6274'
p393
aS'6276'
p394
ag25
ag26
ag27
ag28
ag29
ag30
asg31
g373
sg32
S'Climate Scenariocurrent'
p395
sg34
S'2015-03-17 10:44:24'
p396
sg36
g37
sg38
S'current'
p397
sg40
g41
sg42
S'clim'
p398
sg44
g45
sg46
I4326
sg47
S'1346'
p399
ssS'Scenariobf006-he2650'
p400
(dp401
g4
(lp402
S'6226'
p403
aS'6239'
p404
aS'6234'
p405
aS'6243'
p406
aS'6235'
p407
aS'6233'
p408
aS'6229'
p409
aS'6232'
p410
aS'6228'
p411
aS'6242'
p412
aS'6238'
p413
aS'6230'
p414
aS'6240'
p415
aS'6241'
p416
aS'6227'
p417
aS'6244'
p418
aS'6237'
p419
aS'6236'
p420
aS'6231'
p421
ag25
ag26
ag27
ag28
ag29
ag30
asg31
g400
sg32
S'Climate Scenariohe2650'
p422
sg34
S'2015-03-17 10:44:20'
p423
sg36
g37
sg38
S'he2650'
p424
sg40
g41
sg42
S'clim'
p425
sg44
g45
sg46
I4326
sg47
S'1339'
p426
ss.