(dp1
S'Scenariobf005-he2670'
p2
(dp3
S'layers'
p4
(lp5
S'6503'
p6
aS'6504'
p7
aS'6505'
p8
aS'6538'
p9
aS'6506'
p10
asS'code'
p11
g2
sS'title'
p12
S'Climate Scenariohe2670'
p13
sS'created_at'
p14
S'2015-03-13 20:31:05'
p15
sS'author'
p16
S'CGW'
p17
sS'bioclim'
p18
S'he2670'
p19
sS'units'
p20
S'dd'
p21
sS'model'
p22
S'agclim'
p23
sS'resolution'
p24
S'30'
p25
sS'epsgCode'
p26
I4326
sS'ScenarioID'
p27
S'1312'
p28
ssS'Scenariobf005-he8550'
p29
(dp30
g4
(lp31
S'6498'
p32
aS'6499'
p33
aS'6500'
p34
aS'6501'
p35
aS'6502'
p36
asg11
g29
sg12
S'Climate Scenariohe8550'
p37
sg14
S'2015-03-13 20:31:05'
p38
sg16
g17
sg18
S'he8550'
p39
sg20
g21
sg22
S'agclim'
p40
sg24
g25
sg26
I4326
sg27
S'1311'
p41
ssS'Scenariobf005-he8570'
p42
(dp43
g4
(lp44
S'6507'
p45
aS'6508'
p46
aS'6539'
p47
aS'6509'
p48
aS'6540'
p49
asg11
g42
sg12
S'Climate Scenariohe8570'
p50
sg14
S'2015-03-13 20:31:06'
p51
sg16
g17
sg18
S'he8570'
p52
sg20
g21
sg22
S'agclim'
p53
sg24
g25
sg26
I4326
sg27
S'1313'
p54
ssS'Scenariobf005-he2650'
p55
(dp56
g4
(lp57
S'6510'
p58
aS'6511'
p59
aS'6512'
p60
aS'6541'
p61
aS'6542'
p62
asg11
g55
sg12
S'Climate Scenariohe2650'
p63
sg14
S'2015-03-13 20:31:06'
p64
sg16
g17
sg18
S'he2650'
p65
sg20
g21
sg22
S'agclim'
p66
sg24
g25
sg26
I4326
sg27
S'1314'
p67
ssS'Scenariobf005-he6050'
p68
(dp69
g4
(lp70
S'6518'
p71
aS'6519'
p72
aS'6520'
p73
aS'6521'
p74
aS'6522'
p75
asg11
g68
sg12
S'Climate Scenariohe6050'
p76
sg14
S'2015-03-13 20:31:06'
p77
sg16
g17
sg18
S'he6050'
p78
sg20
g21
sg22
S'agclim'
p79
sg24
g25
sg26
I4326
sg27
S'1316'
p80
ssS'Scenariobf005-current'
p81
(dp82
g4
(lp83
S'6513'
p84
aS'6514'
p85
aS'6515'
p86
aS'6516'
p87
aS'6517'
p88
asg11
g81
sg12
S'Climate Scenariocurrent'
p89
sg14
S'2015-03-13 20:31:06'
p90
sg16
g17
sg18
S'current'
p91
sg20
g21
sg22
S'agclim'
p92
sg24
g25
sg26
I4326
sg27
S'1315'
p93
ssS'Scenariobf005-he4550'
p94
(dp95
g4
(lp96
S'6528'
p97
aS'6529'
p98
aS'6530'
p99
aS'6531'
p100
aS'6532'
p101
asg11
g94
sg12
S'Climate Scenariohe4550'
p102
sg14
S'2015-03-13 20:31:06'
p103
sg16
g17
sg18
S'he4550'
p104
sg20
g21
sg22
S'agclim'
p105
sg24
g25
sg26
I4326
sg27
S'1317'
p106
ssS'Scenariobf005-he4570'
p107
(dp108
g4
(lp109
S'6533'
p110
aS'6534'
p111
aS'6535'
p112
aS'6536'
p113
aS'6537'
p114
asg11
g107
sg12
S'Climate Scenariohe4570'
p115
sg14
S'2015-03-13 20:31:07'
p116
sg16
g17
sg18
S'he4570'
p117
sg20
g21
sg22
S'agclim'
p118
sg24
g25
sg26
I4326
sg27
S'1319'
p119
ssS'Scenariobf005-he6070'
p120
(dp121
g4
(lp122
S'6523'
p123
aS'6524'
p124
aS'6525'
p125
aS'6526'
p126
aS'6527'
p127
asg11
g120
sg12
S'Climate Scenariohe6070'
p128
sg14
S'2015-03-13 20:31:07'
p129
sg16
g17
sg18
S'he6070'
p130
sg20
g21
sg22
S'agclim'
p131
sg24
g25
sg26
I4326
sg27
S'1318'
p132
ss.