(dp1
S'Scenariocw012-gs4570'
p2
(dp3
S'layers'
p4
(lp5
S'6135'
p6
aS'6141'
p7
aS'6134'
p8
aS'6133'
p9
aS'6143'
p10
aS'6146'
p11
aS'6346'
p12
aS'6348'
p13
aS'6347'
p14
aS'6350'
p15
aS'6351'
p16
aS'6352'
p17
aS'6355'
p18
aS'6345'
p19
aS'6557'
p20
aS'6558'
p21
aS'6559'
p22
asS'code'
p23
g2
sS'title'
p24
S'Climate Scenariogs4570'
p25
sS'created_at'
p26
S'2015-03-19 17:51:47'
p27
sS'author'
p28
S'CGW'
p29
sS'bioclim'
p30
S'gs4570'
p31
sS'units'
p32
S'dd'
p33
sS'model'
p34
S'clim'
p35
sS'resolution'
p36
S'30'
p37
sS'epsgCode'
p38
I4326
sS'ScenarioID'
p39
S'1418'
p40
ssS'Scenariocw012-ac4570'
p41
(dp42
g4
(lp43
S'6290'
p44
aS'6296'
p45
aS'6289'
p46
aS'6288'
p47
aS'6298'
p48
aS'6301'
p49
ag12
ag13
ag14
ag15
ag16
ag17
ag18
ag19
ag20
ag21
ag22
asg23
g41
sg24
S'Climate Scenarioac4570'
p50
sg26
S'2015-03-19 17:51:47'
p51
sg28
g29
sg30
S'ac4570'
p52
sg32
g33
sg34
S'clim'
p53
sg36
g37
sg38
I4326
sg39
S'1417'
p54
ssS'Scenariocw012-ac4550'
p55
(dp56
g4
(lp57
S'6333'
p58
aS'6339'
p59
aS'6332'
p60
aS'6331'
p61
aS'6341'
p62
aS'6344'
p63
ag12
ag13
ag14
ag15
ag16
ag17
ag18
ag19
ag20
ag21
ag22
asg23
g55
sg24
S'Climate Scenarioac4550'
p64
sg26
S'2015-03-19 17:51:51'
p65
sg28
g29
sg30
S'ac4550'
p66
sg32
g33
sg34
S'clim'
p67
sg36
g37
sg38
I4326
sg39
S'1424'
p68
ssS'Scenariocw012-he6050'
p69
(dp70
g4
(lp71
S'6252'
p72
aS'6258'
p73
aS'6251'
p74
aS'6250'
p75
aS'6260'
p76
aS'6263'
p77
ag12
ag13
ag14
ag15
ag16
ag17
ag18
ag19
ag20
ag21
ag22
asg23
g69
sg24
S'Climate Scenariohe6050'
p78
sg26
S'2015-03-19 17:51:48'
p79
sg28
g29
sg30
S'he6050'
p80
sg32
g33
sg34
S'clim'
p81
sg36
g37
sg38
I4326
sg39
S'1419'
p82
ssS'Scenariocw012-he2650'
p83
(dp84
g4
(lp85
S'6233'
p86
aS'6239'
p87
aS'6232'
p88
aS'6231'
p89
aS'6241'
p90
aS'6244'
p91
ag12
ag13
ag14
ag15
ag16
ag17
ag18
ag19
ag20
ag21
ag22
asg23
g83
sg24
S'Climate Scenariohe2650'
p92
sg26
S'2015-03-19 17:51:46'
p93
sg28
g29
sg30
S'he2650'
p94
sg32
g33
sg34
S'clim'
p95
sg36
g37
sg38
I4326
sg39
S'1416'
p96
ssS'Scenariocw012-he6070'
p97
(dp98
g4
(lp99
S'6363'
p100
aS'6369'
p101
aS'6362'
p102
aS'6361'
p103
aS'6371'
p104
aS'6374'
p105
ag12
ag13
ag14
ag15
ag16
ag17
ag18
ag19
ag20
ag21
ag22
asg23
g97
sg24
S'Climate Scenariohe6070'
p106
sg26
S'2015-03-19 17:51:51'
p107
sg28
g29
sg30
S'he6070'
p108
sg32
g33
sg34
S'clim'
p109
sg36
g37
sg38
I4326
sg39
S'1425'
p110
ssS'Scenariocw012-gd4570'
p111
(dp112
g4
(lp113
S'6309'
p114
aS'6315'
p115
aS'6308'
p116
aS'6307'
p117
aS'6317'
p118
aS'6320'
p119
ag12
ag13
ag14
ag15
ag16
ag17
ag18
ag19
ag20
ag21
ag22
asg23
g111
sg24
S'Climate Scenariogd4570'
p120
sg26
S'2015-03-19 17:51:48'
p121
sg28
g29
sg30
S'gd4570'
p122
sg32
g33
sg34
S'clim'
p123
sg36
g37
sg38
I4326
sg39
S'1420'
p124
ssS'Scenariocw012-gs4550'
p125
(dp126
g4
(lp127
S'6397'
p128
aS'6382'
p129
aS'6402'
p130
aS'6405'
p131
aS'6408'
p132
aS'6411'
p133
ag12
ag13
ag14
ag15
ag16
ag17
ag18
ag19
ag20
ag21
ag22
asg23
g125
sg24
S'Climate Scenariogs4550'
p134
sg26
S'2015-03-19 17:51:49'
p135
sg28
g29
sg30
S'gs4550'
p136
sg32
g33
sg34
S'clim'
p137
sg36
g37
sg38
I4326
sg39
S'1422'
p138
ssS'Scenariocw012-he8570'
p139
(dp140
g4
(lp141
S'6214'
p142
aS'6220'
p143
aS'6213'
p144
aS'6212'
p145
aS'6222'
p146
aS'6225'
p147
ag12
ag13
ag14
ag15
ag16
ag17
ag18
ag19
ag20
ag21
ag22
asg23
g139
sg24
S'Climate Scenariohe8570'
p148
sg26
S'2015-03-19 17:51:46'
p149
sg28
g29
sg30
S'he8570'
p150
sg32
g33
sg34
S'clim'
p151
sg36
g37
sg38
I4326
sg39
S'1415'
p152
ssS'Scenariocw012-current'
p153
(dp154
g4
(lp155
S'6271'
p156
aS'6277'
p157
aS'6270'
p158
aS'6269'
p159
aS'6279'
p160
aS'6282'
p161
ag12
ag13
ag14
ag15
ag16
ag17
ag18
ag19
ag20
ag21
ag22
asg23
g153
sg24
S'Climate Scenariocurrent'
p162
sg26
S'2015-03-19 17:51:50'
p163
sg28
g29
sg30
S'current'
p164
sg32
g33
sg34
S'clim'
p165
sg36
g37
sg38
I4326
sg39
S'1423'
p166
ssS'Scenariocw012-gd4550'
p167
(dp168
g4
(lp169
S'6195'
p170
aS'6201'
p171
aS'6194'
p172
aS'6193'
p173
aS'6203'
p174
aS'6206'
p175
ag12
ag13
ag14
ag15
ag16
ag17
ag18
ag19
ag20
ag21
ag22
asg23
g167
sg24
S'Climate Scenariogd4550'
p176
sg26
S'2015-03-19 17:51:45'
p177
sg28
g29
sg30
S'gd4550'
p178
sg32
g33
sg34
S'clim'
p179
sg36
g37
sg38
I4326
sg39
S'1414'
p180
ssS'Scenariocw012-he4570'
p181
(dp182
g4
(lp183
S'6412'
p184
aS'6386'
p185
aS'6417'
p186
aS'6420'
p187
aS'6423'
p188
aS'6426'
p189
ag12
ag13
ag14
ag15
ag16
ag17
ag18
ag19
ag20
ag21
ag22
asg23
g181
sg24
S'Climate Scenariohe4570'
p190
sg26
S'2015-03-19 17:51:51'
p191
sg28
g29
sg30
S'he4570'
p192
sg32
g33
sg34
S'clim'
p193
sg36
g37
sg38
I4326
sg39
S'1426'
p194
ssS'Scenariocw012-he8550'
p195
(dp196
g4
(lp197
S'6176'
p198
aS'6182'
p199
aS'6175'
p200
aS'6174'
p201
aS'6184'
p202
aS'6187'
p203
ag12
ag13
ag14
ag15
ag16
ag17
ag18
ag19
ag20
ag21
ag22
asg23
g195
sg24
S'Climate Scenariohe8550'
p204
sg26
S'2015-03-19 17:51:44'
p205
sg28
g29
sg30
S'he8550'
p206
sg32
g33
sg34
S'clim'
p207
sg36
g37
sg38
I4326
sg39
S'1412'
p208
ssS'Scenariocw012-he2670'
p209
(dp210
g4
(lp211
S'6154'
p212
aS'6160'
p213
aS'6153'
p214
aS'6152'
p215
aS'6162'
p216
aS'6165'
p217
ag12
ag13
ag14
ag15
ag16
ag17
ag18
ag19
ag20
ag21
ag22
asg23
g209
sg24
S'Climate Scenariohe2670'
p218
sg26
S'2015-03-19 17:51:44'
p219
sg28
g29
sg30
S'he2670'
p220
sg32
g33
sg34
S'clim'
p221
sg36
g37
sg38
I4326
sg39
S'1413'
p222
ssS'Scenariocw012-he4550'
p223
(dp224
g4
(lp225
S'6388'
p226
aS'6378'
p227
aS'6390'
p228
aS'6392'
p229
aS'6394'
p230
aS'6396'
p231
ag12
ag13
ag14
ag15
ag16
ag17
ag18
ag19
ag20
ag21
ag22
asg23
g223
sg24
S'Climate Scenariohe4550'
p232
sg26
S'2015-03-19 17:51:49'
p233
sg28
g29
sg30
S'he4550'
p234
sg32
g33
sg34
S'clim'
p235
sg36
g37
sg38
I4326
sg39
S'1421'
p236
ss.