(dp1
S'Scenariobf007-he2650'
p2
(dp3
S'layers'
p4
(lp5
S'6226'
p6
aS'6239'
p7
aS'6229'
p8
aS'6243'
p9
aS'6235'
p10
aS'6233'
p11
aS'6234'
p12
aS'6232'
p13
aS'6228'
p14
aS'6242'
p15
aS'6231'
p16
aS'6230'
p17
aS'6240'
p18
aS'6241'
p19
aS'6227'
p20
aS'6238'
p21
aS'6237'
p22
aS'6236'
p23
aS'6244'
p24
aS'6346'
p25
aS'6349'
p26
aS'6348'
p27
aS'6347'
p28
aS'6350'
p29
aS'6351'
p30
aS'6352'
p31
aS'6353'
p32
aS'6354'
p33
aS'6355'
p34
aS'6345'
p35
aS'6557'
p36
aS'6558'
p37
aS'6559'
p38
asS'code'
p39
g2
sS'title'
p40
S'Climate Scenariohe2650'
p41
sS'created_at'
p42
S'2015-03-18 20:52:05'
p43
sS'author'
p44
S'CGW'
p45
sS'bioclim'
p46
S'he2650'
p47
sS'units'
p48
S'dd'
p49
sS'model'
p50
S'clim'
p51
sS'resolution'
p52
S'30'
p53
sS'epsgCode'
p54
I4326
sS'ScenarioID'
p55
S'1355'
p56
ssS'Scenariobf007-he6070'
p57
(dp58
g4
(lp59
S'6356'
p60
aS'6369'
p61
aS'6359'
p62
aS'6373'
p63
aS'6365'
p64
aS'6363'
p65
aS'6364'
p66
aS'6362'
p67
aS'6358'
p68
aS'6372'
p69
aS'6361'
p70
aS'6360'
p71
aS'6370'
p72
aS'6371'
p73
aS'6357'
p74
aS'6374'
p75
aS'6367'
p76
aS'6366'
p77
aS'6368'
p78
ag25
ag26
ag27
ag28
ag29
ag30
ag31
ag32
ag33
ag34
ag35
ag36
ag37
ag38
asg39
g57
sg40
S'Climate Scenariohe6070'
p79
sg42
S'2015-03-18 20:52:16'
p80
sg44
g45
sg46
S'he6070'
p81
sg48
g49
sg50
S'clim'
p82
sg52
g53
sg54
I4326
sg55
S'1364'
p83
ssS'Scenariobf007-gs4570'
p84
(dp85
g4
(lp86
S'6135'
p87
aS'6141'
p88
aS'6136'
p89
aS'6134'
p90
aS'6128'
p91
aS'6131'
p92
aS'6137'
p93
aS'6130'
p94
aS'6144'
p95
aS'6133'
p96
aS'6132'
p97
aS'6142'
p98
aS'6143'
p99
aS'6129'
p100
aS'6138'
p101
aS'6146'
p102
aS'6139'
p103
aS'6145'
p104
aS'6140'
p105
ag25
ag26
ag27
ag28
ag29
ag30
ag31
ag32
ag33
ag34
ag35
ag36
ag37
ag38
asg39
g84
sg40
S'Climate Scenariogs4570'
p106
sg42
S'2015-03-18 20:52:07'
p107
sg44
g45
sg46
S'gs4570'
p108
sg48
g49
sg50
S'clim'
p109
sg52
g53
sg54
I4326
sg55
S'1357'
p110
ssS'Scenariobf007-ac4570'
p111
(dp112
g4
(lp113
S'6290'
p114
aS'6285'
p115
aS'6298'
p116
aS'6286'
p117
aS'6289'
p118
aS'6283'
p119
aS'6291'
p120
aS'6292'
p121
aS'6293'
p122
aS'6299'
p123
aS'6288'
p124
aS'6287'
p125
aS'6297'
p126
aS'6296'
p127
aS'6284'
p128
aS'6301'
p129
aS'6294'
p130
aS'6300'
p131
aS'6295'
p132
ag25
ag26
ag27
ag28
ag29
ag30
ag31
ag32
ag33
ag34
ag35
ag36
ag37
ag38
asg39
g111
sg40
S'Climate Scenarioac4570'
p133
sg42
S'2015-03-18 20:52:08'
p134
sg44
g45
sg46
S'ac4570'
p135
sg48
g49
sg50
S'clim'
p136
sg52
g53
sg54
I4326
sg55
S'1358'
p137
ssS'Scenariobf007-he4570'
p138
(dp139
g4
(lp140
S'6415'
p141
aS'6421'
p142
aS'6413'
p143
aS'6425'
p144
aS'6420'
p145
aS'6417'
p146
aS'6412'
p147
aS'6416'
p148
aS'6414'
p149
aS'6418'
p150
aS'6419'
p151
aS'6385'
p152
aS'6386'
p153
aS'6422'
p154
aS'6423'
p155
aS'6424'
p156
aS'6384'
p157
aS'6383'
p158
aS'6426'
p159
ag25
ag26
ag27
ag28
ag29
ag30
ag31
ag32
ag33
ag34
ag35
ag36
ag37
ag38
asg39
g138
sg40
S'Climate Scenariohe4570'
p160
sg42
S'2015-03-18 20:52:17'
p161
sg44
g45
sg46
S'he4570'
p162
sg48
g49
sg50
S'clim'
p163
sg52
g53
sg54
I4326
sg55
S'1365'
p164
ssS'Scenariobf007-ac4550'
p165
(dp166
g4
(lp167
S'6333'
p168
aS'6339'
p169
aS'6329'
p170
aS'6343'
p171
aS'6335'
p172
aS'6326'
p173
aS'6334'
p174
aS'6332'
p175
aS'6328'
p176
aS'6342'
p177
aS'6331'
p178
aS'6330'
p179
aS'6340'
p180
aS'6341'
p181
aS'6327'
p182
aS'6344'
p183
aS'6337'
p184
aS'6336'
p185
aS'6338'
p186
ag25
ag26
ag27
ag28
ag29
ag30
ag31
ag32
ag33
ag34
ag35
ag36
ag37
ag38
asg39
g165
sg40
S'Climate Scenarioac4550'
p187
sg42
S'2015-03-18 20:52:14'
p188
sg44
g45
sg46
S'ac4550'
p189
sg48
g49
sg50
S'clim'
p190
sg52
g53
sg54
I4326
sg55
S'1363'
p191
ssS'Scenariobf007-he6050'
p192
(dp193
g4
(lp194
S'6252'
p195
aS'6246'
p196
aS'6258'
p197
aS'6248'
p198
aS'6262'
p199
aS'6250'
p200
aS'6251'
p201
aS'6245'
p202
aS'6253'
p203
aS'6254'
p204
aS'6247'
p205
aS'6261'
p206
aS'6257'
p207
aS'6249'
p208
aS'6259'
p209
aS'6260'
p210
aS'6256'
p211
aS'6255'
p212
aS'6263'
p213
ag25
ag26
ag27
ag28
ag29
ag30
ag31
ag32
ag33
ag34
ag35
ag36
ag37
ag38
asg39
g192
sg40
S'Climate Scenariohe6050'
p214
sg42
S'2015-03-18 20:52:06'
p215
sg44
g45
sg46
S'he6050'
p216
sg48
g49
sg50
S'clim'
p217
sg52
g53
sg54
I4326
sg55
S'1356'
p218
ssS'Scenariobf007-he4550'
p219
(dp220
g4
(lp221
S'6321'
p222
aS'6378'
p223
aS'6324'
p224
aS'6395'
p225
aS'6387'
p226
aS'6388'
p227
aS'6389'
p228
aS'6390'
p229
aS'6323'
p230
aS'6391'
p231
aS'6392'
p232
aS'6325'
p233
aS'6393'
p234
aS'6394'
p235
aS'6322'
p236
aS'6396'
p237
aS'6376'
p238
aS'6375'
p239
aS'6377'
p240
ag25
ag26
ag27
ag28
ag29
ag30
ag31
ag32
ag33
ag34
ag35
ag36
ag37
ag38
asg39
g219
sg40
S'Climate Scenariohe4550'
p241
sg42
S'2015-03-18 20:52:11'
p242
sg44
g45
sg46
S'he4550'
p243
sg48
g49
sg50
S'clim'
p244
sg52
g53
sg54
I4326
sg55
S'1360'
p245
ssS'Scenariobf007-gd4570'
p246
(dp247
g4
(lp248
S'6309'
p249
aS'6306'
p250
aS'6305'
p251
aS'6319'
p252
aS'6311'
p253
aS'6318'
p254
aS'6302'
p255
aS'6310'
p256
aS'6308'
p257
aS'6304'
p258
aS'6313'
p259
aS'6307'
p260
aS'6315'
p261
aS'6316'
p262
aS'6317'
p263
aS'6303'
p264
aS'6320'
p265
aS'6312'
p266
aS'6314'
p267
ag25
ag26
ag27
ag28
ag29
ag30
ag31
ag32
ag33
ag34
ag35
ag36
ag37
ag38
asg39
g246
sg40
S'Climate Scenariogd4570'
p268
sg42
S'2015-03-18 20:52:10'
p269
sg44
g45
sg46
S'gd4570'
p270
sg48
g49
sg50
S'clim'
p271
sg52
g53
sg54
I4326
sg55
S'1359'
p272
ssS'Scenariobf007-he2670'
p273
(dp274
g4
(lp275
S'6154'
p276
aS'6151'
p277
aS'6155'
p278
aS'6164'
p279
aS'6156'
p280
aS'6147'
p281
aS'6150'
p282
aS'6153'
p283
aS'6149'
p284
aS'6163'
p285
aS'6152'
p286
aS'6160'
p287
aS'6161'
p288
aS'6162'
p289
aS'6148'
p290
aS'6165'
p291
aS'6158'
p292
aS'6157'
p293
aS'6159'
p294
ag25
ag26
ag27
ag28
ag29
ag30
ag31
ag32
ag33
ag34
ag35
ag36
ag37
ag38
asg39
g273
sg40
S'Climate Scenariohe2670'
p295
sg42
S'2015-03-18 20:52:00'
p296
sg44
g45
sg46
S'he2670'
p297
sg48
g49
sg50
S'clim'
p298
sg52
g53
sg54
I4326
sg55
S'1352'
p299
ssS'Scenariobf007-gs4550'
p300
(dp301
g4
(lp302
S'6400'
p303
aS'6409'
p304
aS'6382'
p305
aS'6401'
p306
aS'6410'
p307
aS'6402'
p308
aS'6397'
p309
aS'6398'
p310
aS'6399'
p311
aS'6403'
p312
aS'6404'
p313
aS'6405'
p314
aS'6406'
p315
aS'6407'
p316
aS'6408'
p317
aS'6380'
p318
aS'6411'
p319
aS'6379'
p320
aS'6381'
p321
ag25
ag26
ag27
ag28
ag29
ag30
ag31
ag32
ag33
ag34
ag35
ag36
ag37
ag38
asg39
g300
sg40
S'Climate Scenariogs4550'
p322
sg42
S'2015-03-18 20:52:12'
p323
sg44
g45
sg46
S'gs4550'
p324
sg48
g49
sg50
S'clim'
p325
sg52
g53
sg54
I4326
sg55
S'1361'
p326
ssS'Scenariobf007-he8570'
p327
(dp328
g4
(lp329
S'6207'
p330
aS'6208'
p331
aS'6220'
p332
aS'6210'
p333
aS'6224'
p334
aS'6216'
p335
aS'6214'
p336
aS'6215'
p337
aS'6213'
p338
aS'6209'
p339
aS'6223'
p340
aS'6212'
p341
aS'6211'
p342
aS'6221'
p343
aS'6222'
p344
aS'6218'
p345
aS'6225'
p346
aS'6217'
p347
aS'6219'
p348
ag25
ag26
ag27
ag28
ag29
ag30
ag31
ag32
ag33
ag34
ag35
ag36
ag37
ag38
asg39
g327
sg40
S'Climate Scenariohe8570'
p349
sg42
S'2015-03-18 20:52:03'
p350
sg44
g45
sg46
S'he8570'
p351
sg48
g49
sg50
S'clim'
p352
sg52
g53
sg54
I4326
sg55
S'1354'
p353
ssS'Scenariobf007-current'
p354
(dp355
g4
(lp356
S'6264'
p357
aS'6268'
p358
aS'6272'
p359
aS'6281'
p360
aS'6273'
p361
aS'6280'
p362
aS'6271'
p363
aS'6267'
p364
aS'6270'
p365
aS'6266'
p366
aS'6275'
p367
aS'6269'
p368
aS'6277'
p369
aS'6278'
p370
aS'6279'
p371
aS'6265'
p372
aS'6282'
p373
aS'6274'
p374
aS'6276'
p375
ag25
ag26
ag27
ag28
ag29
ag30
ag31
ag32
ag33
ag34
ag35
ag36
ag37
ag38
asg39
g354
sg40
S'Climate Scenariocurrent'
p376
sg42
S'2015-03-18 20:52:13'
p377
sg44
g45
sg46
S'current'
p378
sg48
g49
sg50
S'clim'
p379
sg52
g53
sg54
I4326
sg55
S'1362'
p380
ssS'Scenariobf007-gd4550'
p381
(dp382
g4
(lp383
S'6188'
p384
aS'6189'
p385
aS'6192'
p386
aS'6196'
p387
aS'6205'
p388
aS'6197'
p389
aS'6195'
p390
aS'6191'
p391
aS'6194'
p392
aS'6190'
p393
aS'6204'
p394
aS'6193'
p395
aS'6201'
p396
aS'6202'
p397
aS'6203'
p398
aS'6199'
p399
aS'6206'
p400
aS'6198'
p401
aS'6200'
p402
ag25
ag26
ag27
ag28
ag29
ag30
ag31
ag32
ag33
ag34
ag35
ag36
ag37
ag38
asg39
g381
sg40
S'Climate Scenariogd4550'
p403
sg42
S'2015-03-18 20:52:02'
p404
sg44
g45
sg46
S'gd4550'
p405
sg48
g49
sg50
S'clim'
p406
sg52
g53
sg54
I4326
sg55
S'1353'
p407
ssS'Scenariobf007-he8550'
p408
(dp409
g4
(lp410
S'6176'
p411
aS'6182'
p412
aS'6172'
p413
aS'6186'
p414
aS'6175'
p415
aS'6185'
p416
aS'6169'
p417
aS'6177'
p418
aS'6178'
p419
aS'6171'
p420
aS'6180'
p421
aS'6174'
p422
aS'6173'
p423
aS'6183'
p424
aS'6184'
p425
aS'6170'
p426
aS'6187'
p427
aS'6179'
p428
aS'6181'
p429
ag25
ag26
ag27
ag28
ag29
ag30
ag31
ag32
ag33
ag34
ag35
ag36
ag37
ag38
asg39
g408
sg40
S'Climate Scenariohe8550'
p430
sg42
S'2015-03-18 20:51:59'
p431
sg44
g45
sg46
S'he8550'
p432
sg48
g49
sg50
S'clim'
p433
sg52
g53
sg54
I4326
sg55
S'1351'
p434
ss.