(dp1
S'Caede'
p2
(dp3
S'prjScns'
p4
(lp5
S'1220'
p6
aS'1218'
p7
aS'1219'
p8
asS'metadataUrl'
p9
S'http://lifemapper.org/services/sdm/experiments/1399775'
p10
sS'speciesName'
p11
g2
sS'description'
p12
S'Test run2'
p13
sS'statusModTime'
p14
S'2015-02-26 15:39:09'
p15
sS'occSetId'
p16
S'5665034'
p17
sS'mdlScn'
p18
g7
sS'bbox'
p19
S'(-179.13, 14.53, 179.75, 83.11)'
p20
sS'id'
p21
S'1399775'
p22
sS'modTime'
p23
S'2015-02-26 15:39:09'
p24
sS'algorithm'
p25
ccopy_reg
_reconstructor
p26
(clifemapper.sdm
Algorithm
p27
c__builtin__
object
p28
NtRp29
(dp30
S'code'
p31
S'ATT_MAXENT'
p32
sS'name'
p33
S'Maximum Entropy - ATT Implementation'
p34
sS'parameters'
p35
(lp36
g26
(clifemapper.sdm
AlgorithmParameter
p37
g28
NtRp38
(dp39
g33
S'adjustsampleradius'
p40
sS'min'
p41
S'0'
sS'default'
p42
S'0'
sS'max'
p43
NsS'value'
p44
S'0'
sS'type'
p45
S'Integer'
p46
sbag26
(g37
g28
NtRp47
(dp48
g33
S'appendtoresultsfile'
p49
sg41
S'0'
sg42
S'0'
sg43
S'1'
sg44
S'0'
sg45
S'Integer'
p50
sbag26
(g37
g28
NtRp51
(dp52
g33
S'autofeature'
p53
sg41
S'0'
sg42
S'1'
sg43
S'1'
sg44
S'1'
sg45
S'Integer'
p54
sbag26
(g37
g28
NtRp55
(dp56
g33
S'beta_categorical'
p57
sg41
Nsg42
S'-1.0'
p58
sg43
Nsg44
g58
sg45
S'Float'
p59
sbag26
(g37
g28
NtRp60
(dp61
g33
S'beta_hinge'
p62
sg41
Nsg42
S'-1.0'
p63
sg43
Nsg44
g63
sg45
S'Float'
p64
sbag26
(g37
g28
NtRp65
(dp66
g33
S'beta_lqp'
p67
sg41
Nsg42
S'-1.0'
p68
sg43
Nsg44
g68
sg45
S'Float'
p69
sbag26
(g37
g28
NtRp70
(dp71
g33
S'beta_threshold'
p72
sg41
Nsg42
S'-1.0'
p73
sg43
Nsg44
g73
sg45
S'Float'
p74
sbag26
(g37
g28
NtRp75
(dp76
g33
S'betamultiplier'
p77
sg41
S'0'
sg42
S'1.0'
p78
sg43
Nsg44
g78
sg45
S'Float'
p79
sbag26
(g37
g28
NtRp80
(dp81
g33
S'convergencethreshold'
p82
sg41
S'0'
sg42
S'0.00001'
p83
sg43
Nsg44
g83
sg45
S'Float'
p84
sbag26
(g37
g28
NtRp85
(dp86
g33
S'defaultprevalence'
p87
sg41
S'0.0'
p88
sg42
S'0.5'
p89
sg43
S'1.0'
p90
sg44
g89
sg45
S'Float'
p91
sbag26
(g37
g28
NtRp92
(dp93
g33
S'doclamp'
p94
sg41
S'0'
sg42
S'1'
sg43
S'1'
sg44
S'1'
sg45
S'Integer'
p95
sbag26
(g37
g28
NtRp96
(dp97
g33
S'extrapolate'
p98
sg41
S'0'
sg42
S'1'
sg43
S'1'
sg44
S'1'
sg45
S'Integer'
p99
sbag26
(g37
g28
NtRp100
(dp101
g33
S'fadebyclamping'
p102
sg41
S'0'
sg42
S'0'
sg43
S'1'
sg44
S'0'
sg45
S'Integer'
p103
sbag26
(g37
g28
NtRp104
(dp105
g33
S'hinge'
p106
sg41
S'0'
sg42
S'1'
sg43
S'1'
sg44
S'1'
sg45
S'Integer'
p107
sbag26
(g37
g28
NtRp108
(dp109
g33
S'hingethreshold'
p110
sg41
S'0'
sg42
S'15'
p111
sg43
Nsg44
g111
sg45
S'Integer'
p112
sbag26
(g37
g28
NtRp113
(dp114
g33
S'jackknife'
p115
sg41
S'0'
sg42
S'0'
sg43
S'1'
sg44
S'0'
sg45
S'Integer'
p116
sbag26
(g37
g28
NtRp117
(dp118
g33
S'l2lqthreshold'
p119
sg41
S'0'
sg42
S'10'
p120
sg43
Nsg44
g120
sg45
S'Integer'
p121
sbag26
(g37
g28
NtRp122
(dp123
g33
S'linear'
p124
sg41
S'0'
sg42
S'1'
sg43
S'1'
sg44
S'1'
sg45
S'Integer'
p125
sbag26
(g37
g28
NtRp126
(dp127
g33
S'logscale'
p128
sg41
S'0'
sg42
S'1'
sg43
S'1'
sg44
S'1'
sg45
S'Integer'
p129
sbag26
(g37
g28
NtRp130
(dp131
g33
S'lq2lqptthreshold'
p132
sg41
S'0'
sg42
S'80'
p133
sg43
Nsg44
g133
sg45
S'Integer'
p134
sbag26
(g37
g28
NtRp135
(dp136
g33
S'maximumbackground'
p137
sg41
S'0'
sg42
S'10000'
p138
sg43
Nsg44
g138
sg45
S'Integer'
p139
sbag26
(g37
g28
NtRp140
(dp141
g33
S'maximumiterations'
p142
sg41
S'0'
sg42
S'500'
p143
sg43
Nsg44
g143
sg45
S'Integer'
p144
sbag26
(g37
g28
NtRp145
(dp146
g33
S'outputformat'
p147
sg41
S'0'
sg42
S'1'
sg43
S'2'
sg44
S'1'
sg45
S'Integer'
p148
sbag26
(g37
g28
NtRp149
(dp150
g33
S'outputgrids'
p151
sg41
S'0'
sg42
S'1'
sg43
S'1'
sg44
S'1'
sg45
S'Integer'
p152
sbag26
(g37
g28
NtRp153
(dp154
g33
S'perspeciesresults'
p155
sg41
S'0'
sg42
S'0'
sg43
S'1'
sg44
S'0'
sg45
S'Integer'
p156
sbag26
(g37
g28
NtRp157
(dp158
g33
S'pictures'
p159
sg41
S'0'
sg42
S'1'
sg43
S'1'
sg44
S'1'
sg45
S'Integer'
p160
sbag26
(g37
g28
NtRp161
(dp162
g33
S'plots'
p163
sg41
S'0'
sg42
S'1'
sg43
S'1'
sg44
S'1'
sg45
S'Integer'
p164
sbag26
(g37
g28
NtRp165
(dp166
g33
S'product'
p167
sg41
S'0'
sg42
S'1'
sg43
S'1'
sg44
S'1'
sg45
S'Integer'
p168
sbag26
(g37
g28
NtRp169
(dp170
g33
S'quadratic'
p171
sg41
S'0'
sg42
S'1'
sg43
S'1'
sg44
S'1'
sg45
S'Integer'
p172
sbag26
(g37
g28
NtRp173
(dp174
g33
S'randomseed'
p175
sg41
S'0'
sg42
S'0'
sg43
S'1'
sg44
S'0'
sg45
S'Integer'
p176
sbag26
(g37
g28
NtRp177
(dp178
g33
S'randomtestpoints'
p179
sg41
S'0'
sg42
S'0'
sg43
S'100'
p180
sg44
S'0'
sg45
S'Integer'
p181
sbag26
(g37
g28
NtRp182
(dp183
g33
S'replicates'
p184
sg41
S'1'
sg42
S'1'
sg43
Nsg44
S'1'
sg45
S'Integer'
p185
sbag26
(g37
g28
NtRp186
(dp187
g33
S'replicatetype'
p188
sg41
S'0'
sg42
S'0'
sg43
S'2'
sg44
S'0'
sg45
S'Integer'
p189
sbag26
(g37
g28
NtRp190
(dp191
g33
S'removeduplicates'
p192
sg41
S'0'
sg42
S'1'
sg43
S'1'
sg44
S'1'
sg45
S'Integer'
p193
sbag26
(g37
g28
NtRp194
(dp195
g33
S'responsecurves'
p196
sg41
S'0'
sg42
S'0'
sg43
S'1'
sg44
S'0'
sg45
S'Integer'
p197
sbag26
(g37
g28
NtRp198
(dp199
g33
S'responsecurvesexponent'
p200
sg41
S'0'
sg42
S'0'
sg43
S'1'
sg44
S'0'
sg45
S'Integer'
p201
sbag26
(g37
g28
NtRp202
(dp203
g33
S'threshold'
p204
sg41
S'0'
sg42
S'1'
sg43
S'1'
sg44
I0
sg45
S'Integer'
p205
sbag26
(g37
g28
NtRp206
(dp207
g33
S'writebackgroundpredictions'
p208
sg41
S'0'
sg42
S'0'
sg43
S'1'
sg44
S'0'
sg45
S'Integer'
p209
sbag26
(g37
g28
NtRp210
(dp211
g33
S'writeclampgrid'
p212
sg41
S'0'
sg42
S'1'
sg43
S'1'
sg44
S'1'
sg45
S'Integer'
p213
sbag26
(g37
g28
NtRp214
(dp215
g33
S'writemess'
p216
sg41
S'0'
sg42
S'1'
sg43
S'1'
sg44
S'1'
sg45
S'Integer'
p217
sbag26
(g37
g28
NtRp218
(dp219
g33
S'writeplotdata'
p220
sg41
S'0'
sg42
S'0'
sg43
S'1'
sg44
S'0'
sg45
S'Integer'
p221
sbasbsS'epsgcode'
p222
S'4326'
p223
sS'createTime'
p224
S'2015-02-26 15:39:09'
p225
sS'user'
p226
S'demo2'
p227
ssS'Abies_balsamea'
p228
(dp229
g4
g5
sg9
S'http://lifemapper.org/services/sdm/experiments/1399776'
p230
sg11
g228
sg12
S'Test run2'
p231
sg14
S'2015-02-26 16:45:08'
p232
sg16
S'5665035'
p233
sg18
g7
sg19
S'(-179.13, 14.53, 179.75, 83.11)'
p234
sg21
S'1399776'
p235
sg23
S'2015-02-26 16:45:08'
p236
sg25
g29
sg222
S'4326'
p237
sg224
S'2015-02-26 16:45:08'
p238
sg226
S'demo2'
p239
ss.