(dp1
S'dist'
p2
(dp3
S'pc2'
p4
(dp5
S'envLayerType'
p6
S'dist.pc2'
p7
sS'Name'
p8
I6
sS'typeCode'
p9
S'pc2'
p10
sS'typeCodeDescription'
p11
S'PC Axis 2 of Distance Matrix'
p12
sS'filterType'
p13
S'spatial'
p14
sS'bioclim'
p15
g2
sS'filePath'
p16
S'../views/GTiff/spat.dist.pc2.tif'
p17
sS'RCP'
p18
S'current'
p19
sS'lyrID'
p20
S'6042'
p21
sS'title'
p22
S'spat.dist.pc2.tif'
p23
sS'dataFormat'
p24
S'GTiff'
p25
sS'base'
p26
S'spat'
p27
sS'units'
p28
S'dd'
p29
sS'layerDescription'
p30
S'PC Axis 2 of Distance Matrix spatial'
p31
sS'fullname'
p32
S'spat.dist.pc2'
p33
sS'resolution'
p34
S'30'
p35
sS'epsgCode'
p36
I4326
sS'projectionDate'
p37
S'current'
p38
sssS'current'
p39
(dp40
S'bio19'
p41
(dp42
g6
S'current.bio19'
p43
sg8
I5
sg9
S'bio19'
p44
sg11
S'Precipitation of Coldest Quarter'
p45
sg13
S'climate'
p46
sg15
S'current'
p47
sg16
S'../views/GTiff/clim.current.bio19.tif'
p48
sg18
S'current'
p49
sg20
S'6044'
p50
sg22
S'clim.current.bio19.tif'
p51
sg24
g25
sg26
S'clim'
p52
sg28
g29
sg30
S'Precipitation of Coldest Quarter Current Climate 1960-2000'
p53
sg32
S'clim.current.bio19'
p54
sg34
g35
sg36
I4326
sg37
S'current'
p55
ssS'bio02'
p56
(dp57
g6
S'current.bio02'
p58
sg8
I12
sg9
S'bio02'
p59
sg11
S'Mean Diurnal Range (Mean of monthly (max temp - min temp))'
p60
sg13
S'climate'
p61
sg15
S'current'
p62
sg16
S'../views/GTiff/clim.current.bio02.tif'
p63
sg18
S'current'
p64
sg20
S'6045'
p65
sg22
S'clim.current.bio02.tif'
p66
sg24
g25
sg26
S'clim'
p67
sg28
g29
sg30
S'Mean Diurnal Range (Mean of monthly (max temp - min temp)) Current Climate 1960-2000'
p68
sg32
S'clim.current.bio02'
p69
sg34
g35
sg36
I4326
sg37
S'current'
p70
ssS'bio01'
p71
(dp72
g6
S'current.bio01'
p73
sg8
I1
sg9
S'bio01'
p74
sg11
S'Annual Mean Temperature'
p75
sg13
S'climate'
p76
sg15
g39
sg16
S'../views/GTiff/clim.current.bio01.tif'
p77
sg18
S'current'
p78
sg20
S'6046'
p79
sg22
S'clim.current.bio01.tif'
p80
sg24
g25
sg26
S'clim'
p81
sg28
g29
sg30
S'Annual Mean Temperature Current Climate 1960-2000'
p82
sg32
S'clim.current.bio01'
p83
sg34
g35
sg36
I4326
sg37
S'current'
p84
sssS'ac4570'
p85
(dp86
S'bio19'
p87
(dp88
g6
S'ac4570.bio19'
p89
sg8
I3
sg9
S'bio19'
p90
sg11
S'Precipitation of Coldest Quarter'
p91
sg13
S'climate'
p92
sg15
g85
sg16
S'../views/GTiff/clim.ac4570.bio19.tif'
p93
sg18
S'45'
p94
sg20
S'6047'
p95
sg22
S'clim.ac4570.bio19.tif'
p96
sg24
g25
sg26
S'clim'
p97
sg28
g29
sg30
S'Precipitation of Coldest Quarter AC RCP45 2070'
p98
sg32
S'clim.ac4570.bio19'
p99
sg34
g35
sg36
I4326
sg37
S'2070'
p100
ssS'bio02'
p101
(dp102
g6
S'ac4570.bio02'
p103
sg8
I15
sg9
S'bio02'
p104
sg11
S'Mean Diurnal Range (Mean of monthly (max temp - min temp))'
p105
sg13
S'climate'
p106
sg15
S'ac4570'
p107
sg16
S'../views/GTiff/clim.ac4570.bio02.tif'
p108
sg18
S'45'
p109
sg20
S'6048'
p110
sg22
S'clim.ac4570.bio02.tif'
p111
sg24
g25
sg26
S'clim'
p112
sg28
g29
sg30
S'Mean Diurnal Range (Mean of monthly (max temp - min temp)) AC RCP45 2070'
p113
sg32
S'clim.ac4570.bio02'
p114
sg34
g35
sg36
I4326
sg37
S'2070'
p115
ssS'bio01'
p116
(dp117
g6
S'ac4570.bio01'
p118
sg8
I9
sg9
S'bio01'
p119
sg11
S'Annual Mean Temperature'
p120
sg13
S'climate'
p121
sg15
S'ac4570'
p122
sg16
S'../views/GTiff/clim.ac4570.bio01.tif'
p123
sg18
S'45'
p124
sg20
S'6049'
p125
sg22
S'clim.ac4570.bio01.tif'
p126
sg24
g25
sg26
S'clim'
p127
sg28
g29
sg30
S'Annual Mean Temperature AC RCP45 2070'
p128
sg32
S'clim.ac4570.bio01'
p129
sg34
g35
sg36
I4326
sg37
S'2070'
p130
sssS'hwsd'
p131
(dp132
S't_gravel'
p133
(dp134
g6
S'hwsd.t_gravel'
p135
sg8
I2
sg9
S't_gravel'
p136
sg11
S'HWSD topsoil gravel'
p137
sg13
S'environmental'
p138
sg15
g131
sg16
S'../views/GTiff/env.hwsd.t_gravel.tif'
p139
sg18
S'current'
p140
sg20
S'6051'
p141
sg22
S'env.hwsd.t_gravel.tif'
p142
sg24
g25
sg26
S'env'
p143
sg28
g29
sg30
S'Harmonized World Soil Database topsoil gravel (% vol.)'
p144
sg32
S'env.hwsd.t_gravel'
p145
sg34
g35
sg36
I4326
sg37
S'current'
p146
ssS't_ece'
p147
(dp148
g6
S'hwsd.t_ece'
p149
sg8
I13
sg9
S't_ece'
p150
sg11
S'HWSD topsoil ECE'
p151
sg13
S'environmental'
p152
sg15
S'hwsd'
p153
sg16
S'../views/GTiff/env.hwsd.t_ece.tif'
p154
sg18
S'current'
p155
sg20
S'6053'
p156
sg22
S'env.hwsd.t_ece.tif'
p157
sg24
g25
sg26
S'env'
p158
sg28
g29
sg30
S'Harmonized World Soil Database topsoil ECE (salinity dS/m)'
p159
sg32
S'env.hwsd.t_ece'
p160
sg34
g35
sg36
I4326
sg37
S'current'
p161
sssS'ac4550'
p162
(dp163
S'bio19'
p164
(dp165
g6
S'ac4550.bio19'
p166
sg8
I11
sg9
S'bio19'
p167
sg11
S'Precipitation of Coldest Quarter'
p168
sg13
S'climate'
p169
sg15
S'ac4550'
p170
sg16
S'../views/GTiff/clim.ac4550.bio19.tif'
p171
sg18
S'45'
p172
sg20
S'6054'
p173
sg22
S'clim.ac4550.bio19.tif'
p174
sg24
g25
sg26
S'clim'
p175
sg28
g29
sg30
S'Precipitation of Coldest Quarter AC RCP45 2050'
p176
sg32
S'clim.ac4550.bio19'
p177
sg34
g35
sg36
I4326
sg37
S'2050'
p178
ssS'bio02'
p179
(dp180
g6
S'ac4550.bio02'
p181
sg8
I8
sg9
S'bio02'
p182
sg11
S'Mean Diurnal Range (Mean of monthly (max temp - min temp))'
p183
sg13
S'climate'
p184
sg15
g162
sg16
S'../views/GTiff/clim.ac4550.bio02.tif'
p185
sg18
S'45'
p186
sg20
S'6055'
p187
sg22
S'clim.ac4550.bio02.tif'
p188
sg24
g25
sg26
S'clim'
p189
sg28
g29
sg30
S'Mean Diurnal Range (Mean of monthly (max temp - min temp)) AC RCP45 2050'
p190
sg32
S'clim.ac4550.bio02'
p191
sg34
g35
sg36
I4326
sg37
S'2050'
p192
ssS'bio01'
p193
(dp194
g6
S'ac4550.bio01'
p195
sg8
I10
sg9
S'bio01'
p196
sg11
S'Annual Mean Temperature'
p197
sg13
S'climate'
p198
sg15
S'ac4550'
p199
sg16
S'../views/GTiff/clim.ac4550.bio01.tif'
p200
sg18
S'45'
p201
sg20
S'6056'
p202
sg22
S'clim.ac4550.bio01.tif'
p203
sg24
g25
sg26
S'clim'
p204
sg28
g29
sg30
S'Annual Mean Temperature AC RCP45 2050'
p205
sg32
S'clim.ac4550.bio01'
p206
sg34
g35
sg36
I4326
sg37
S'2050'
p207
sss.