(dp1
S'Caede'
p2
(dp3
S'shpPath'
p4
S'../views/shapefiles/Caede.shp'
p5
sS'epsgCode'
p6
S'4326'
p7
sS'species'
p8
S'Caede'
p9
sS'occID'
p10
S'5665034'
p11
ssS'Abies_balsamea'
p12
(dp13
g4
S'../views/shapefiles/Abies_balsamea.shp'
p14
sg6
g7
sg8
S'Abies_balsamea'
p15
sg10
S'5665035'
p16
ss.