(dp1
S'Scenarioa91-ac4570'
p2
(dp3
S'layers'
p4
(lp5
S'6047'
p6
aS'6048'
p7
aS'6049'
p8
aS'6051'
p9
aS'6053'
p10
aS'6042'
p11
asS'code'
p12
g2
sS'scnID'
p13
S'1220'
p14
sS'base'
p15
S'clim'
p16
sS'title'
p17
S'Climate Scenarioac4570'
p18
sS'units'
p19
S'dd'
p20
sS'epsgCode'
p21
I4326
sS'author'
p22
S'CGW'
p23
sS'resolution'
p24
S'30'
p25
sS'bioclim'
p26
S'ac4570'
p27
ssS'Scenarioa91-current'
p28
(dp29
g4
(lp30
S'6044'
p31
aS'6045'
p32
aS'6046'
p33
ag9
ag10
ag11
asg12
g28
sg13
S'1218'
p34
sg15
S'clim'
p35
sg17
S'Climate Scenariocurrent'
p36
sg19
g20
sg21
I4326
sg22
g23
sg24
g25
sg26
S'current'
p37
ssS'Scenarioa91-ac4550'
p38
(dp39
g4
(lp40
S'6054'
p41
aS'6055'
p42
aS'6056'
p43
ag9
ag10
ag11
asg12
g38
sg13
S'1219'
p44
sg15
S'clim'
p45
sg17
S'Climate Scenarioac4550'
p46
sg19
g20
sg21
I4326
sg22
g23
sg24
g25
sg26
S'ac4550'
p47
ss.