(dp1
S't_gravel'
p2
(dp3
S'code'
p4
g2
ssS'pc1'
p5
(dp6
g4
g5
ssS'pc2'
p7
(dp8
g4
g7
ssS't_sand'
p9
(dp10
g4
g9
ssS't_ece'
p11
(dp12
g4
g11
ssS'bio01'
p13
(dp14
g4
g13
ssS'bio19'
p15
(dp16
g4
g15
ssS'mean'
p17
(dp18
g4
g17
ssS'bio02'
p19
(dp20
g4
g19
ss.